 DeviceCtrlDlg

 Timestamp is 56ab4221 (Fri Jan 29 18:42:41 2016)

 Preferred load address is 00400000

 Start         Length     Name                   Class
 0001:00000000 0001a06aH .textbss                DATA
 0002:00000000 0002a608H .text                   CODE
 0002:0002a610 000070c4H .text$x                 CODE
 0002:000316e0 00007f16H .text$yc                CODE
 0002:00039600 000012c3H .text$yd                CODE
 0003:00000000 00000104H .CRT$XCA                DATA
 0003:00000104 00000104H .CRT$XCAA               DATA
 0003:00000208 0000010eH .CRT$XCC                DATA
 0003:00000318 0000018aH .CRT$XCL                DATA
 0003:000004a4 00000138H .CRT$XCU                DATA
 0003:000005dc 00000104H .CRT$XCZ                DATA
 0003:000006e0 00000104H .CRT$XIA                DATA
 0003:000007e4 00000104H .CRT$XIAA               DATA
 0003:000008e8 00000104H .CRT$XIC                DATA
 0003:000009ec 00000104H .CRT$XIY                DATA
 0003:00000af0 00000104H .CRT$XIZ                DATA
 0003:00000c00 00006f59H .rdata                  DATA
 0003:00007b5c 00000163H .rdata$debug            DATA
 0003:00007cc0 0000076cH .rdata$r                DATA
 0003:0000842c 00000104H .rtc$IAA                DATA
 0003:00008530 00000118H .rtc$IMZ                DATA
 0003:00008648 00000104H .rtc$IZZ                DATA
 0003:0000874c 00000104H .rtc$TAA                DATA
 0003:00008850 00000118H .rtc$TMZ                DATA
 0003:00008968 00000104H .rtc$TZZ                DATA
 0003:00008a70 00003119H .xdata$x                DATA
 0003:0000bb8c 00000104H ATL$__a                 DATA
 0003:0000bc90 00000104H ATL$__z                 DATA
 0003:0000bd94 00000000H .edata                  DATA
 0004:00000000 0000058eH .data                   DATA
 0004:00000590 000014a0H .bss                    DATA
 0005:00000000 000000b4H .idata$2                DATA
 0005:000000b4 00000014H .idata$3                DATA
 0005:000000c8 00000adcH .idata$4                DATA
 0005:00000ba4 00000adcH .idata$5                DATA
 0005:00001680 00001026H .idata$6                DATA
 0006:00000000 00000606H .rsrc$01                DATA
 0006:00000610 00015d39H .rsrc$02                DATA

  Address         Publics by Value              Rva+Base       Lib:Object

 0000:00000000       __except_list              00000000     <absolute>
 0000:00000000       ___safe_se_handler_table   00000000     <absolute>
 0000:00000000       ___safe_se_handler_count   00000000     <absolute>
 0000:00009876       __fltused                  00009876     <absolute>
 0000:00009876       __ldused                   00009876     <absolute>
 0000:00000000       ___ImageBase               00400000     <linker-defined>
 0001:00000000       __enc$textbss$begin        00401000     <linker-defined>
 0001:0001a06a       __enc$textbss$end          0041b06a     <linker-defined>
 0002:00002fa0       ??0CComPort@LsComm@@QAE@XZ 0041efa0 f   ComPort.obj
 0002:00003060       ??_GCComPort@LsComm@@UAEPAXI@Z 0041f060 f i ComPort.obj
 0002:00003060       ??_ECComPort@LsComm@@UAEPAXI@Z 0041f060 f i ComPort.obj
 0002:000030d0       ??1CComPort@LsComm@@UAE@XZ 0041f0d0 f   ComPort.obj
 0002:000031d0       ?IsOpen@CSerialPort@@QBEHXZ 0041f1d0 f i ComPort.obj
 0002:00003220       ?IsOpen@CComPort@LsComm@@QAE_NXZ 0041f220 f   ComPort.obj
 0002:00003260       ?Open@CComPort@LsComm@@QAE_NHW4ReceiveMode@12@KW4Parity@12@EW4StopBits@12@W4FlowControl@12@@Z 0041f260 f   ComPort.obj
 0002:000035d0       ??RCTraceFileAndLineInfo@ATL@@QBAXKIPB_WZZ 0041f5d0 f i DviceCtrlDlgDlg.obj
 0002:000036b0       ?IsOverlapped@CComPort@LsComm@@QAE_NXZ 0041f6b0 f i ComPort.obj
 0002:000036f0       ?Close@CComPort@LsComm@@QAEXXZ 0041f6f0 f   ComPort.obj
 0002:000039a0       ?ReceiveData@CComPort@LsComm@@QAEXPAXK@Z 0041f9a0 f   ComPort.obj
 0002:00003a20       ?SetReceiveFunc@CComPort@LsComm@@QAEXP6AXPAX0K@Z0@Z 0041fa20 f   ComPort.obj
 0002:00003a70       ?ComBreak@CComPort@LsComm@@QAEXK@Z 0041fa70 f   ComPort.obj
 0002:00003b70       ?SetBreakHandleFunc@CComPort@LsComm@@QAEXP6AXPAXKU_COMSTAT@@@Z@Z 0041fb70 f   ComPort.obj
 0002:00003bc0       ?GetReceiveMode@CComPort@LsComm@@QAE?AW4ReceiveMode@12@XZ 0041fbc0 f   ComPort.obj
 0002:00003c00       ?GetInBufferCount@CComPort@LsComm@@QAEKXZ 0041fc00 f   ComPort.obj
 0002:00003cf0       ?GetInput@CComPort@LsComm@@QAEKPAXKK@Z 0041fcf0 f   ComPort.obj
 0002:00003e00       ?Output@CComPort@LsComm@@QAEKPAXK@Z 0041fe00 f   ComPort.obj
 0002:000040a0       ?GetSerialPort@CComPort@LsComm@@QAEPAVCSerialPort@@XZ 004200a0 f   ComPort.obj
 0002:00004120       ?GetCloseHandle@CComPort@LsComm@@QAEPAXXZ 00420120 f   ComPort.obj
 0002:000041a0       ??0CReadComThread@LsComm@@QAE@XZ 004201a0 f   ComPort.obj
 0002:00004270       ??_GCReadComThread@LsComm@@UAEPAXI@Z 00420270 f i ComPort.obj
 0002:00004270       ??_ECReadComThread@LsComm@@UAEPAXI@Z 00420270 f i ComPort.obj
 0002:000042e0       ??1CReadComThread@LsComm@@UAE@XZ 004202e0 f   ComPort.obj
 0002:00004330       ?SetReadEvent@CReadComThread@LsComm@@IAE_NAAU_OVERLAPPED@@@Z 00420330 f   ComPort.obj
 0002:00004440       ?HandleData@CReadComThread@LsComm@@IAE_NXZ 00420440 f   ComPort.obj
 0002:00004560       ?HandleReadEvent@CReadComThread@LsComm@@IAE_NAAU_OVERLAPPED@@@Z 00420560 f   ComPort.obj
 0002:00004610       ?SetBreakEvent@CReadComThread@LsComm@@IAE_NAAK@Z 00420610 f   ComPort.obj
 0002:000046d0       ?HandleBreakEvent@CReadComThread@LsComm@@IAE_NK@Z 004206d0 f   ComPort.obj
 0002:000047b0       ?Execute@CReadComThread@LsComm@@IAEXXZ 004207b0 f   ComPort.obj
 0002:00004860       ?ExecuteByAutoSignalRecvMode@CReadComThread@LsComm@@IAEXXZ 00420860 f   ComPort.obj
 0002:00004ae0       ?ExecuteByManualQueryRecvMode@CReadComThread@LsComm@@IAEXXZ 00420ae0 f   ComPort.obj
 0002:00004c30       ?ExecuteByManualConstRecvMode@CReadComThread@LsComm@@IAEXXZ 00420c30 f   ComPort.obj
 0002:00004e20       ?ExecuteByAutoBreakRecvMode@CReadComThread@LsComm@@IAEXXZ 00420e20 f   ComPort.obj
 0002:00005090       ?ThreadFunc@LsComm@@YGKPAX@Z 00421090 f   ComPort.obj
 0002:00005130       ?Create@CReadComThread@LsComm@@QAEXXZ 00421130 f   ComPort.obj
 0002:000051d0       ?Terminate@CReadComThread@LsComm@@QAEXXZ 004211d0 f   ComPort.obj
 0002:00005330       ?IsTerminated@CReadComThread@LsComm@@QAE_NXZ 00421330 f i ComPort.obj
 0002:00005370       ?Resume@CReadComThread@LsComm@@QAEXXZ 00421370 f   ComPort.obj
 0002:000053d0       ?BandSerialPort@CReadComThread@LsComm@@QAEXPAVCComPort@2@@Z 004213d0 f   ComPort.obj
 0002:00005510       ?ReadInput@CReadComThread@LsComm@@QAEKPAXKK@Z 00421510 f   ComPort.obj
 0002:00005630       ?GetMessageMap@CDviceCtrlDlgApp@@MBEPBUAFX_MSGMAP@@XZ 00421630 f   DviceCtrlDlg.obj
 0002:00005680       ?GetThisMessageMap@CDviceCtrlDlgApp@@KGPBUAFX_MSGMAP@@XZ 00421680 f   DviceCtrlDlg.obj
 0002:000056c0       ??0CDviceCtrlDlgApp@@QAE@XZ 004216c0 f   DviceCtrlDlg.obj
 0002:00005720       ??_GCDviceCtrlDlgApp@@UAEPAXI@Z 00421720 f i DviceCtrlDlg.obj
 0002:00005720       ??_ECDviceCtrlDlgApp@@UAEPAXI@Z 00421720 f i DviceCtrlDlg.obj
 0002:00005790       ??1CDviceCtrlDlgApp@@UAE@XZ 00421790 f i DviceCtrlDlg.obj
 0002:000057e0       ?InitInstance@CDviceCtrlDlgApp@@UAEHXZ 004217e0 f   DviceCtrlDlg.obj
 0002:00005980       ??1CDviceCtrlDlgDlg@@UAE@XZ 00421980 f i DviceCtrlDlg.obj
 0002:00005ab0       ??1?$vector@V?$CStringT@_WV?$StrTraitMFC_DLL@_WV?$ChTraitsCRT@_W@ATL@@@@@ATL@@V?$allocator@V?$CStringT@_WV?$StrTraitMFC_DLL@_WV?$ChTraitsCRT@_W@ATL@@@@@ATL@@@std@@@std@@QAE@XZ 00421ab0 f i DviceCtrlDlg.obj
 0002:00005b50       ?_Tidy@?$vector@V?$CStringT@_WV?$StrTraitMFC_DLL@_WV?$ChTraitsCRT@_W@ATL@@@@@ATL@@V?$allocator@V?$CStringT@_WV?$StrTraitMFC_DLL@_WV?$ChTraitsCRT@_W@ATL@@@@@ATL@@@std@@@std@@IAEXXZ 00421b50 f i DviceCtrlDlg.obj
 0002:00005c30       ??1?$_Vector_val@V?$CStringT@_WV?$StrTraitMFC_DLL@_WV?$ChTraitsCRT@_W@ATL@@@@@ATL@@V?$allocator@V?$CStringT@_WV?$StrTraitMFC_DLL@_WV?$ChTraitsCRT@_W@ATL@@@@@ATL@@@std@@@std@@QAE@XZ 00421c30 f i DviceCtrlDlg.obj
 0002:00005d70       ?_Destroy@?$vector@V?$CStringT@_WV?$StrTraitMFC_DLL@_WV?$ChTraitsCRT@_W@ATL@@@@@ATL@@V?$allocator@V?$CStringT@_WV?$StrTraitMFC_DLL@_WV?$ChTraitsCRT@_W@ATL@@@@@ATL@@@std@@@std@@IAEXPAV?$CStringT@_WV?$StrTraitMFC_DLL@_WV?$ChTraitsCRT@_W@ATL@@@@@ATL@@0@Z 00421d70 f i DviceCtrlDlg.obj
 0002:00005de0       ?deallocate@?$allocator@V?$CStringT@_WV?$StrTraitMFC_DLL@_WV?$ChTraitsCRT@_W@ATL@@@@@ATL@@@std@@QAEXPAV?$CStringT@_WV?$StrTraitMFC_DLL@_WV?$ChTraitsCRT@_W@ATL@@@@@ATL@@I@Z 00421de0 f i DviceCtrlDlg.obj
 0002:00005e40       ?deallocate@?$allocator@U_Container_proxy@std@@@std@@QAEXPAU_Container_proxy@2@I@Z 00421e40 f i DviceCtrlDlg.obj
 0002:00005ea0       ??$?0V?$CStringT@_WV?$StrTraitMFC_DLL@_WV?$ChTraitsCRT@_W@ATL@@@@@ATL@@@?$allocator@U_Container_proxy@std@@@std@@QAE@ABV?$allocator@V?$CStringT@_WV?$StrTraitMFC_DLL@_WV?$ChTraitsCRT@_W@ATL@@@@@ATL@@@1@@Z 00421ea0 f i DviceCtrlDlg.obj
 0002:00005ee0       ??$_Dest_val@V?$allocator@U_Container_proxy@std@@@std@@U_Container_proxy@2@@std@@YAXAAV?$allocator@U_Container_proxy@std@@@0@PAU_Container_proxy@0@@Z 00421ee0 f i DviceCtrlDlg.obj
 0002:00005f30       ??$_Destroy_range@V?$allocator@V?$CStringT@_WV?$StrTraitMFC_DLL@_WV?$ChTraitsCRT@_W@ATL@@@@@ATL@@@std@@@std@@YAXPAV?$CStringT@_WV?$StrTraitMFC_DLL@_WV?$ChTraitsCRT@_W@ATL@@@@@ATL@@0AAV?$allocator@V?$CStringT@_WV?$StrTraitMFC_DLL@_WV?$ChTraitsCRT@_W@ATL@@@@@ATL@@@0@@Z 00421f30 f i DviceCtrlDlg.obj
 0002:00005fb0       ?destroy@?$allocator@U_Container_proxy@std@@@std@@QAEXPAU_Container_proxy@2@@Z 00421fb0 f i DviceCtrlDlg.obj
 0002:00006010       ??$_Ptr_cat@V?$CStringT@_WV?$StrTraitMFC_DLL@_WV?$ChTraitsCRT@_W@ATL@@@@@ATL@@V12@@std@@YA?AU_Nonscalar_ptr_iterator_tag@0@PAV?$CStringT@_WV?$StrTraitMFC_DLL@_WV?$ChTraitsCRT@_W@ATL@@@@@ATL@@0@Z 00422010 f i DviceCtrlDlg.obj
 0002:00006080       ??$_Destroy_range@V?$allocator@V?$CStringT@_WV?$StrTraitMFC_DLL@_WV?$ChTraitsCRT@_W@ATL@@@@@ATL@@@std@@@std@@YAXPAV?$CStringT@_WV?$StrTraitMFC_DLL@_WV?$ChTraitsCRT@_W@ATL@@@@@ATL@@0AAV?$allocator@V?$CStringT@_WV?$StrTraitMFC_DLL@_WV?$ChTraitsCRT@_W@ATL@@@@@ATL@@@0@U_Nonscalar_ptr_iterator_tag@0@@Z 00422080 f i DviceCtrlDlg.obj
 0002:000060f0       ??$_Destroy@U_Container_proxy@std@@@std@@YAXPAU_Container_proxy@0@@Z 004220f0 f i DviceCtrlDlg.obj
 0002:00006120       ??$_Dest_val@V?$allocator@V?$CStringT@_WV?$StrTraitMFC_DLL@_WV?$ChTraitsCRT@_W@ATL@@@@@ATL@@@std@@V?$CStringT@_WV?$StrTraitMFC_DLL@_WV?$ChTraitsCRT@_W@ATL@@@@@ATL@@@std@@YAXAAV?$allocator@V?$CStringT@_WV?$StrTraitMFC_DLL@_WV?$ChTraitsCRT@_W@ATL@@@@@ATL@@@0@PAV?$CStringT@_WV?$StrTraitMFC_DLL@_WV?$ChTraitsCRT@_W@ATL@@@@@ATL@@@Z 00422120 f i DviceCtrlDlg.obj
 0002:00006170       ?destroy@?$allocator@V?$CStringT@_WV?$StrTraitMFC_DLL@_WV?$ChTraitsCRT@_W@ATL@@@@@ATL@@@std@@QAEXPAV?$CStringT@_WV?$StrTraitMFC_DLL@_WV?$ChTraitsCRT@_W@ATL@@@@@ATL@@@Z 00422170 f i DviceCtrlDlg.obj
 0002:000061d0       ??$_Destroy@V?$CStringT@_WV?$StrTraitMFC_DLL@_WV?$ChTraitsCRT@_W@ATL@@@@@ATL@@@std@@YAXPAV?$CStringT@_WV?$StrTraitMFC_DLL@_WV?$ChTraitsCRT@_W@ATL@@@@@ATL@@@Z 004221d0 f i DviceCtrlDlg.obj
 0002:00006220       ??_G?$CStringT@_WV?$StrTraitMFC_DLL@_WV?$ChTraitsCRT@_W@ATL@@@@@ATL@@QAEPAXI@Z 00422220 f i DviceCtrlDlg.obj
 0002:000062a0       ?SupportsRestartManager@CWinApp@@UBEHXZ 004222a0 f i DviceCtrlDlg.obj
 0002:000062f0       ?SupportsApplicationRecovery@CWinApp@@UBEHXZ 004222f0 f i DviceCtrlDlg.obj
 0002:00006340       ?SupportsAutosaveAtRestart@CWinApp@@UBEHXZ 00422340 f i DviceCtrlDlg.obj
 0002:00006390       ?SupportsAutosaveAtInterval@CWinApp@@UBEHXZ 00422390 f i DviceCtrlDlg.obj
 0002:000063e0       ?ReopenPreviousFilesAtRestart@CWinApp@@UBEHXZ 004223e0 f i DviceCtrlDlg.obj
 0002:00006430       ?RestoreAutosavedFilesAtRestart@CWinApp@@UBEHXZ 00422430 f i DviceCtrlDlg.obj
 0002:00006480       ?GetApplicationRestartFlags@CWinApp@@UAEKXZ 00422480 f i DviceCtrlDlg.obj
 0002:000064c0       ?GetApplicationRecoveryParameter@CWinApp@@UAEPAXXZ 004224c0 f i DviceCtrlDlg.obj
 0002:00006500       ?GetApplicationRecoveryPingInterval@CWinApp@@UAEKXZ 00422500 f i DviceCtrlDlg.obj
 0002:00006540       ?OnWorkspaceIdle@CWinAppEx@@UAEHPAVCWnd@@@Z 00422540 f i DviceCtrlDlg.obj
 0002:00006580       ?PreLoadState@CWinAppEx@@MAEXXZ 00422580 f i DviceCtrlDlg.obj
 0002:000065c0       ?LoadCustomState@CWinAppEx@@MAEXXZ 004225c0 f i DviceCtrlDlg.obj
 0002:00006600       ?PreSaveState@CWinAppEx@@MAEXXZ 00422600 f i DviceCtrlDlg.obj
 0002:00006640       ?SaveCustomState@CWinAppEx@@MAEXXZ 00422640 f i DviceCtrlDlg.obj
 0002:00006680       ??0CAboutDlg@@QAE@XZ       00422680 f   DviceCtrlDlgDlg.obj
 0002:000066f0       ??_ECAboutDlg@@UAEPAXI@Z   004226f0 f i DviceCtrlDlgDlg.obj
 0002:000066f0       ??_GCAboutDlg@@UAEPAXI@Z   004226f0 f i DviceCtrlDlgDlg.obj
 0002:00006760       ??1CAboutDlg@@UAE@XZ       00422760 f i DviceCtrlDlgDlg.obj
 0002:000067b0       ?DoDataExchange@CAboutDlg@@MAEXPAVCDataExchange@@@Z 004227b0 f   DviceCtrlDlgDlg.obj
 0002:00006810       ?GetMessageMap@CAboutDlg@@MBEPBUAFX_MSGMAP@@XZ 00422810 f   DviceCtrlDlgDlg.obj
 0002:00006860       ?GetThisMessageMap@CAboutDlg@@KGPBUAFX_MSGMAP@@XZ 00422860 f   DviceCtrlDlgDlg.obj
 0002:000068a0       ??0CDviceCtrlDlgDlg@@QAE@PAVCWnd@@@Z 004228a0 f   DviceCtrlDlgDlg.obj
 0002:00006ba0       ??_ECDviceCtrlDlgDlg@@UAEPAXI@Z 00422ba0 f i DviceCtrlDlgDlg.obj
 0002:00006ba0       ??_GCDviceCtrlDlgDlg@@UAEPAXI@Z 00422ba0 f i DviceCtrlDlgDlg.obj
 0002:00006c10       ?DoDataExchange@CDviceCtrlDlgDlg@@MAEXPAVCDataExchange@@@Z 00422c10 f   DviceCtrlDlgDlg.obj
 0002:00006f70       ?GetMessageMap@CDviceCtrlDlgDlg@@MBEPBUAFX_MSGMAP@@XZ 00422f70 f   DviceCtrlDlgDlg.obj
 0002:00006fc0       ?GetThisMessageMap@CDviceCtrlDlgDlg@@KGPBUAFX_MSGMAP@@XZ 00422fc0 f   DviceCtrlDlgDlg.obj
 0002:00007000       ?OnInitDialog@CDviceCtrlDlgDlg@@MAEHXZ 00423000 f   DviceCtrlDlgDlg.obj
 0002:00007ae0       ?OnSysCommand@CDviceCtrlDlgDlg@@IAEXIJ@Z 00423ae0 f   DviceCtrlDlgDlg.obj
 0002:00007c00       ?OnPaint@CDviceCtrlDlgDlg@@IAEXXZ 00423c00 f   DviceCtrlDlgDlg.obj
 0002:00007e00       ?OnQueryDragIcon@CDviceCtrlDlgDlg@@IAEPAUHICON__@@XZ 00423e00 f   DviceCtrlDlgDlg.obj
 0002:00007e40       ?OnBnClickedOk@CDviceCtrlDlgDlg@@QAEXXZ 00423e40 f   DviceCtrlDlgDlg.obj
 0002:000080c0       ?OnBnClickedCancel@CDviceCtrlDlgDlg@@QAEXXZ 004240c0 f   DviceCtrlDlgDlg.obj
 0002:00008130       ?GetUsbDevInfo@CDviceCtrlDlgDlg@@QAEIPAXPAU_GUID@@PB_W@Z 00424130 f   DviceCtrlDlgDlg.obj
 0002:00008630       ?GetPortValue@CDviceCtrlDlgDlg@@QAEHPA_WAAH@Z 00424630 f   DviceCtrlDlgDlg.obj
 0002:00008760       ?pow@@YANNH@Z              00424760 f i DviceCtrlDlgDlg.obj
 0002:000087c0       ?DC_EnumCommPort@CDviceCtrlDlgDlg@@QAEHPAHAAH@Z 004247c0 f   DviceCtrlDlgDlg.obj
 0002:00008b20       ?OpenSerialPort@CDviceCtrlDlgDlg@@QAEHHW4ReceiveMode@CComPort@LsComm@@@Z 00424b20 f   DviceCtrlDlgDlg.obj
 0002:00008c70       ?GetIntValue@CDviceCtrlDlgDlg@@QAEH_W@Z 00424c70 f   DviceCtrlDlgDlg.obj
 0002:00008df0       ?ConvertStrToUC@CDviceCtrlDlgDlg@@QAEXV?$CStringT@_WV?$StrTraitMFC_DLL@_WV?$ChTraitsCRT@_W@ATL@@@@@ATL@@PAEAAK@Z 00424df0 f   DviceCtrlDlgDlg.obj
 0002:00009020       ?CheckSendDataFormat@CDviceCtrlDlgDlg@@QAEHPAE@Z 00425020 f   DviceCtrlDlgDlg.obj
 0002:000090a0       ?SerialSendData@CDviceCtrlDlgDlg@@QAEHV?$CStringT@_WV?$StrTraitMFC_DLL@_WV?$ChTraitsCRT@_W@ATL@@@@@ATL@@@Z 004250a0 f   DviceCtrlDlgDlg.obj
 0002:000094c0       ?ScanSerialPort@CDviceCtrlDlgDlg@@QAEHXZ 004254c0 f   DviceCtrlDlgDlg.obj
 0002:00009e30       ?CheckoutReceiveData@CDviceCtrlDlgDlg@@QAEHPAE0AAK@Z 00425e30 f   DviceCtrlDlgDlg.obj
 0002:00009ff0       ?DeviceReadyCheck@CDviceCtrlDlgDlg@@QAEHPAEH@Z 00425ff0 f   DviceCtrlDlgDlg.obj
 0002:0000a430       ?OnReceiveSerialData@@YAXPAX0K@Z 00426430 f   DviceCtrlDlgDlg.obj
 0002:0000a770       ?SplitString@CDviceCtrlDlgDlg@@QAEXV?$CStringT@_WV?$StrTraitMFC_DLL@_WV?$ChTraitsCRT@_W@ATL@@@@@ATL@@AAVCStringArray@@D@Z 00426770 f   DviceCtrlDlgDlg.obj
 0002:0000aa50       ?CommExecute@CDviceCtrlDlgDlg@@QAEHV?$CStringT@_WV?$StrTraitMFC_DLL@_WV?$ChTraitsCRT@_W@ATL@@@@@ATL@@0AAV23@@Z 00426a50 f   DviceCtrlDlgDlg.obj
 0002:0000c2c0       ?ResultStatus@CDviceCtrlDlgDlg@@QAEXV?$CStringT@_WV?$StrTraitMFC_DLL@_WV?$ChTraitsCRT@_W@ATL@@@@@ATL@@H@Z 004282c0 f   DviceCtrlDlgDlg.obj
 0002:0000c5f0       ?ReceiveDataDispose@CDviceCtrlDlgDlg@@QAE?AV?$CStringT@_WV?$StrTraitMFC_DLL@_WV?$ChTraitsCRT@_W@ATL@@@@@ATL@@V23@PAEAAK@Z 004285f0 f   DviceCtrlDlgDlg.obj
 0002:0000d690       ?WriteLog@CDviceCtrlDlgDlg@@QAEXV?$CStringT@_WV?$StrTraitMFC_DLL@_WV?$ChTraitsCRT@_W@ATL@@@@@ATL@@0@Z 00429690 f   DviceCtrlDlgDlg.obj
 0002:0000d9d0       ?InitCmdParam@CDviceCtrlDlgDlg@@QAEXPAUCOMMAND_PARAM@1@@Z 004299d0 f   DviceCtrlDlgDlg.obj
 0002:0000dae0       ?PreTranslateMessage@CDviceCtrlDlgDlg@@UAEHPAUtagMSG@@@Z 00429ae0 f   DviceCtrlDlgDlg.obj
 0002:0000dca0       ?ExecuteIndexComm@CDviceCtrlDlgDlg@@QAEHHV?$CStringT@_WV?$StrTraitMFC_DLL@_WV?$ChTraitsCRT@_W@ATL@@@@@ATL@@@Z 00429ca0 f   DviceCtrlDlgDlg.obj
 0002:0000e140       ??0COMMAND_PARAM@CDviceCtrlDlgDlg@@QAE@XZ 0042a140 f i DviceCtrlDlgDlg.obj
 0002:0000e210       ??1COMMAND_PARAM@CDviceCtrlDlgDlg@@QAE@XZ 0042a210 f i DviceCtrlDlgDlg.obj
 0002:0000e2e0       ?SoundInputCommExecute@CDviceCtrlDlgDlg@@QAEXHV?$CStringT@_WV?$StrTraitMFC_DLL@_WV?$ChTraitsCRT@_W@ATL@@@@@ATL@@H@Z 0042a2e0 f   DviceCtrlDlgDlg.obj
 0002:0000e4e0       ?SoundOutputCommExecute@CDviceCtrlDlgDlg@@QAEXHV?$CStringT@_WV?$StrTraitMFC_DLL@_WV?$ChTraitsCRT@_W@ATL@@@@@ATL@@H@Z 0042a4e0 f   DviceCtrlDlgDlg.obj
 0002:0000e640       ?GetRPParam@CDviceCtrlDlgDlg@@QAE?AV?$CStringT@_WV?$StrTraitMFC_DLL@_WV?$ChTraitsCRT@_W@ATL@@@@@ATL@@HH@Z 0042a640 f   DviceCtrlDlgDlg.obj
 0002:0000e8b0       ?OnBnClickedInputSpk@CDviceCtrlDlgDlg@@QAEXXZ 0042a8b0 f   DviceCtrlDlgDlg.obj
 0002:0000eb50       ?OnBnClickedInputSpk2@CDviceCtrlDlgDlg@@QAEXXZ 0042ab50 f   DviceCtrlDlgDlg.obj
 0002:0000edf0       ?OnBnClickedInputRec@CDviceCtrlDlgDlg@@QAEXXZ 0042adf0 f   DviceCtrlDlgDlg.obj
 0002:0000f090       ?OnBnClickedInputEarL@CDviceCtrlDlgDlg@@QAEXXZ 0042b090 f   DviceCtrlDlgDlg.obj
 0002:0000f330       ?OnBnClickedInputEarR@CDviceCtrlDlgDlg@@QAEXXZ 0042b330 f   DviceCtrlDlgDlg.obj
 0002:0000f5d0       ?OnBnClickedInputVib@CDviceCtrlDlgDlg@@QAEXXZ 0042b5d0 f   DviceCtrlDlgDlg.obj
 0002:0000f870       ?OnBnClickedInputClose@CDviceCtrlDlgDlg@@QAEXXZ 0042b870 f   DviceCtrlDlgDlg.obj
 0002:0000f990       ?OnBnClickedOutputMic@CDviceCtrlDlgDlg@@QAEXXZ 0042b990 f   DviceCtrlDlgDlg.obj
 0002:0000fbd0       ?OnBnClickedOutputEarMic@CDviceCtrlDlgDlg@@QAEXXZ 0042bbd0 f   DviceCtrlDlgDlg.obj
 0002:0000fe10       ?OnBnClickedOutputClose@CDviceCtrlDlgDlg@@QAEXXZ 0042be10 f   DviceCtrlDlgDlg.obj
 0002:0000ff30       ?OnBnClickedBacklightStart@CDviceCtrlDlgDlg@@QAEXXZ 0042bf30 f   DviceCtrlDlgDlg.obj
 0002:0000ffd0       ?OnBnClickedBacklightDetect@CDviceCtrlDlgDlg@@QAEXXZ 0042bfd0 f   DviceCtrlDlgDlg.obj
 0002:00010070       ?OnBnClickedFiashlightStart@CDviceCtrlDlgDlg@@QAEXXZ 0042c070 f   DviceCtrlDlgDlg.obj
 0002:00010110       ?OnBnClickedFiashlightDetect@CDviceCtrlDlgDlg@@QAEXXZ 0042c110 f   DviceCtrlDlgDlg.obj
 0002:000101b0       ?OnBnClickedProductReadyCheck@CDviceCtrlDlgDlg@@QAEXXZ 0042c1b0 f   DviceCtrlDlgDlg.obj
 0002:00010230       ?OnBnClickedDeviceReadyCheck@CDviceCtrlDlgDlg@@QAEXXZ 0042c230 f   DviceCtrlDlgDlg.obj
 0002:000102b0       ?OnBnClickedLevelCheck1@CDviceCtrlDlgDlg@@QAEXXZ 0042c2b0 f   DviceCtrlDlgDlg.obj
 0002:00010330       ?OnBnClickedLevelCheck2@CDviceCtrlDlgDlg@@QAEXXZ 0042c330 f   DviceCtrlDlgDlg.obj
 0002:000103b0       ?OnBnClickedLightSource1@CDviceCtrlDlgDlg@@QAEXXZ 0042c3b0 f   DviceCtrlDlgDlg.obj
 0002:000104a0       ?OnBnClickedLightSource2@CDviceCtrlDlgDlg@@QAEXXZ 0042c4a0 f   DviceCtrlDlgDlg.obj
 0002:00010590       ?OnBnClickedLed1@CDviceCtrlDlgDlg@@QAEXXZ 0042c590 f   DviceCtrlDlgDlg.obj
 0002:00010680       ?OnBnClickedLed2@CDviceCtrlDlgDlg@@QAEXXZ 0042c680 f   DviceCtrlDlgDlg.obj
 0002:00010770       ?OnBnClickedReset@CDviceCtrlDlgDlg@@QAEXXZ 0042c770 f   DviceCtrlDlgDlg.obj
 0002:000107f0       ?OnBnClickedBoxOpen@CDviceCtrlDlgDlg@@QAEXXZ 0042c7f0 f   DviceCtrlDlgDlg.obj
 0002:00010870       ?OnBnClickedBoxClose@CDviceCtrlDlgDlg@@QAEXXZ 0042c870 f   DviceCtrlDlgDlg.obj
 0002:000108f0       ?OnBnClickedClampCtrl@CDviceCtrlDlgDlg@@QAEXXZ 0042c8f0 f   DviceCtrlDlgDlg.obj
 0002:000109e0       ?OnBnClickedEpCtrl@CDviceCtrlDlgDlg@@QAEXXZ 0042c9e0 f   DviceCtrlDlgDlg.obj
 0002:00010ad0       ?OnBnClicked5vPower@CDviceCtrlDlgDlg@@QAEXXZ 0042cad0 f   DviceCtrlDlgDlg.obj
 0002:00010bc0       ?OnNMCustomdrawAdjustVoltage@CDviceCtrlDlgDlg@@QAEXPAUtagNMHDR@@PAJ@Z 0042cbc0 f   DviceCtrlDlgDlg.obj
 0002:00010c80       ?OnNMReleasedcaptureAdjustVoltage@CDviceCtrlDlgDlg@@QAEXPAUtagNMHDR@@PAJ@Z 0042cc80 f   DviceCtrlDlgDlg.obj
 0002:00010e00       ?OnBnClickedGSensor@CDviceCtrlDlgDlg@@QAEXXZ 0042ce00 f   DviceCtrlDlgDlg.obj
 0002:00010e40       ?OnBnClickedMagneticRotateMagnetic@CDviceCtrlDlgDlg@@QAEXXZ 0042ce40 f   DviceCtrlDlgDlg.obj
 0002:00010ec0       ?OnBnClickedRotateStop@CDviceCtrlDlgDlg@@QAEXXZ 0042cec0 f   DviceCtrlDlgDlg.obj
 0002:00010f40       ?OnBnClickedVideoSelect1@CDviceCtrlDlgDlg@@QAEXXZ 0042cf40 f   DviceCtrlDlgDlg.obj
 0002:00010fc0       ?OnBnClickedVideoSelect2@CDviceCtrlDlgDlg@@QAEXXZ 0042cfc0 f   DviceCtrlDlgDlg.obj
 0002:00011040       ?OnBnClickedVideoSelect3@CDviceCtrlDlgDlg@@QAEXXZ 0042d040 f   DviceCtrlDlgDlg.obj
 0002:000110c0       ?OnBnClickedVideoSelect4@CDviceCtrlDlgDlg@@QAEXXZ 0042d0c0 f   DviceCtrlDlgDlg.obj
 0002:00011140       ?MonitorLog@CDviceCtrlDlgDlg@@QAEXV?$CStringT@_WV?$StrTraitMFC_DLL@_WV?$ChTraitsCRT@_W@ATL@@@@@ATL@@@Z 0042d140 f   DviceCtrlDlgDlg.obj
 0002:00011930       ?ResultStatus@CDviceCtrlDlgDlg@@QAEXH@Z 0042d930 f   DviceCtrlDlgDlg.obj
 0002:00011d10       ?Format@CTime@ATL@@QBE?AV?$CStringT@_WV?$StrTraitMFC_DLL@_WV?$ChTraitsCRT@_W@ATL@@@@@2@PB_W@Z 0042dd10 f i DviceCtrlDlgDlg.obj
 0002:000120d0       ?AtlThrowImpl@ATL@@YGXJ@Z  0042e0d0 f i DviceCtrlDlgDlg.obj
 0002:00012280       ??0CTraceFileAndLineInfo@ATL@@QAE@PBDH@Z 0042e280 f i DviceCtrlDlgDlg.obj
 0002:00012380       ?TraceV@CTrace@ATL@@QBAXPBDHKIPB_WPAD@Z 0042e380 f i DviceCtrlDlgDlg.obj
 0002:00012410       ??BCTraceCategory@ATL@@QBEKXZ 0042e410 f i DviceCtrlDlgDlg.obj
 0002:000124c0       ?OnTimer@CDviceCtrlDlgDlg@@QAEXI@Z 0042e4c0 f   DviceCtrlDlgDlg.obj
 0002:000126a0       ?GetCtrlCmdIndex@CDviceCtrlDlgDlg@@QAEHHH@Z 0042e6a0 f   DviceCtrlDlgDlg.obj
 0002:00012a90       ?ButtonClick@CDviceCtrlDlgDlg@@QAEXHHH@Z 0042ea90 f   DviceCtrlDlgDlg.obj
 0002:00012d00       ?OnBnClickedPower@CDviceCtrlDlgDlg@@QAEXXZ 0042ed00 f   DviceCtrlDlgDlg.obj
 0002:00012d60       ?OnBnClickedVolumeIncrease@CDviceCtrlDlgDlg@@QAEXXZ 0042ed60 f   DviceCtrlDlgDlg.obj
 0002:00012dc0       ?OnBnClickedVolumeDecrease@CDviceCtrlDlgDlg@@QAEXXZ 0042edc0 f   DviceCtrlDlgDlg.obj
 0002:00012e20       ?OnBnClickedVirtualKey1@CDviceCtrlDlgDlg@@QAEXXZ 0042ee20 f   DviceCtrlDlgDlg.obj
 0002:00012e80       ?OnBnClickedVirtualKey2@CDviceCtrlDlgDlg@@QAEXXZ 0042ee80 f   DviceCtrlDlgDlg.obj
 0002:00012ee0       ?OnBnClickedVirtualKey3@CDviceCtrlDlgDlg@@QAEXXZ 0042eee0 f   DviceCtrlDlgDlg.obj
 0002:00012f40       ?OnBnClickedCalloff@CDviceCtrlDlgDlg@@QAEXXZ 0042ef40 f   DviceCtrlDlgDlg.obj
 0002:00012f80       ?OnBnClickedTouch1@CDviceCtrlDlgDlg@@QAEXXZ 0042ef80 f   DviceCtrlDlgDlg.obj
 0002:00012fe0       ?OnBnClickedTouch2@CDviceCtrlDlgDlg@@QAEXXZ 0042efe0 f   DviceCtrlDlgDlg.obj
 0002:00013040       ?OnBnClickedTouch3@CDviceCtrlDlgDlg@@QAEXXZ 0042f040 f   DviceCtrlDlgDlg.obj
 0002:000130a0       ?OnBnClickedTouch4@CDviceCtrlDlgDlg@@QAEXXZ 0042f0a0 f   DviceCtrlDlgDlg.obj
 0002:00013100       ?OnBnClickedTouch5@CDviceCtrlDlgDlg@@QAEXXZ 0042f100 f   DviceCtrlDlgDlg.obj
 0002:00013160       ?EnableEdit@CDviceCtrlDlgDlg@@QAEXH@Z 0042f160 f   DviceCtrlDlgDlg.obj
 0002:00013310       ?OnBnClickedKeyUpMode@CDviceCtrlDlgDlg@@QAEXXZ 0042f310 f   DviceCtrlDlgDlg.obj
 0002:00013380       ?OnBnClickedOtgLevelCheck@CDviceCtrlDlgDlg@@QAEXXZ 0042f380 f   DviceCtrlDlgDlg.obj
 0002:00013400       ?OnBnClickedAdValueCheck@CDviceCtrlDlgDlg@@QAEXXZ 0042f400 f   DviceCtrlDlgDlg.obj
 0002:00013510       ?OnBnClickedOtgCheck@CDviceCtrlDlgDlg@@QAEXXZ 0042f510 f   DviceCtrlDlgDlg.obj
 0002:00013590       ?OnBnClickedOtgReset@CDviceCtrlDlgDlg@@QAEXXZ 0042f590 f   DviceCtrlDlgDlg.obj
 0002:00013610       ?OnBnClickedBlueScreen@CDviceCtrlDlgDlg@@QAEXXZ 0042f610 f   DviceCtrlDlgDlg.obj
 0002:00013700       ?OnBnClickedGreenScreen@CDviceCtrlDlgDlg@@QAEXXZ 0042f700 f   DviceCtrlDlgDlg.obj
 0002:000137f0       ?OnBnClickedRedScreen@CDviceCtrlDlgDlg@@QAEXXZ 0042f7f0 f   DviceCtrlDlgDlg.obj
 0002:000138e0       ?OnBnClickedBlueLed@CDviceCtrlDlgDlg@@QAEXXZ 0042f8e0 f   DviceCtrlDlgDlg.obj
 0002:000139d0       ?OnBnClickedGreenLed@CDviceCtrlDlgDlg@@QAEXXZ 0042f9d0 f   DviceCtrlDlgDlg.obj
 0002:00013ac0       ?OnBnClickedRedLed@CDviceCtrlDlgDlg@@QAEXXZ 0042fac0 f   DviceCtrlDlgDlg.obj
 0002:00013bb0       ?OnBnClickedScreenOpen@CDviceCtrlDlgDlg@@QAEXXZ 0042fbb0 f   DviceCtrlDlgDlg.obj
 0002:00013c30       ?OnBnClickedScreenRead@CDviceCtrlDlgDlg@@QAEXXZ 0042fc30 f   DviceCtrlDlgDlg.obj
 0002:00013cb0       ?OnBnClickedLedOpen@CDviceCtrlDlgDlg@@QAEXXZ 0042fcb0 f   DviceCtrlDlgDlg.obj
 0002:00013d30       ?OnBnClickedLedRead@CDviceCtrlDlgDlg@@QAEXXZ 0042fd30 f   DviceCtrlDlgDlg.obj
 0002:00013db0       ?OnBnClickedFixture@CDviceCtrlDlgDlg@@QAEXXZ 0042fdb0 f   DviceCtrlDlgDlg.obj
 0002:00013e90       ?OnBnClickedUsbPower@CDviceCtrlDlgDlg@@QAEXXZ 0042fe90 f   DviceCtrlDlgDlg.obj
 0002:00013f70       ?ExcuteDevCmd@CDviceCtrlDlgDlg@@QAEHV?$CStringT@_WV?$StrTraitMFC_DLL@_WV?$ChTraitsCRT@_W@ATL@@@@@ATL@@@Z 0042ff70 f   DviceCtrlDlgDlg.obj
 0002:000158d0       ?CirThread@@YGKPAVCDviceCtrlDlgDlg@@@Z 004318d0 f   DviceCtrlDlgDlg.obj
 0002:00015cd0       ?OnBnClickedCir@CDviceCtrlDlgDlg@@QAEXXZ 00431cd0 f   DviceCtrlDlgDlg.obj
 0002:00015da0       ?CheckWideChar@CDviceCtrlDlgDlg@@QAEXV?$CStringT@_WV?$StrTraitMFC_DLL@_WV?$ChTraitsCRT@_W@ATL@@@@@ATL@@AAV23@@Z 00431da0 f   DviceCtrlDlgDlg.obj
 0002:00016020       ?RandThread@@YGKPAVCDviceCtrlDlgDlg@@@Z 00432020 f   DviceCtrlDlgDlg.obj
 0002:00016440       ?OnBnClickedRand@CDviceCtrlDlgDlg@@QAEXXZ 00432440 f   DviceCtrlDlgDlg.obj
 0002:00016710       ?OnBnClickedColorlightsource@CDviceCtrlDlgDlg@@QAEXXZ 00432710 f   DviceCtrlDlgDlg.obj
 0002:000168f0       ?OnBnClickedWhitelightsource@CDviceCtrlDlgDlg@@QAEXXZ 004328f0 f   DviceCtrlDlgDlg.obj
 0002:00016ad0       ?OnBnClickedOlddevctrl@CDviceCtrlDlgDlg@@QAEXXZ 00432ad0 f   DviceCtrlDlgDlg.obj
 0002:00016bd0       ?OnBnClickedHall@CDviceCtrlDlgDlg@@QAEXXZ 00432bd0 f   DviceCtrlDlgDlg.obj
 0002:00016cc0       ?OnBnClickedCamerapower@CDviceCtrlDlgDlg@@QAEXXZ 00432cc0 f   DviceCtrlDlgDlg.obj
 0002:00016db0       ?RecordSerialData@CDviceCtrlDlgDlg@@QAEHV?$CStringT@_WV?$StrTraitMFC_DLL@_WV?$ChTraitsCRT@_W@ATL@@@@@ATL@@H@Z 00432db0 f   DviceCtrlDlgDlg.obj
 0002:000172b0       ?OnBnClickedResetport@CDviceCtrlDlgDlg@@QAEXXZ 004332b0 f   DviceCtrlDlgDlg.obj
 0002:00017360       ?OnBnClickedGravity@CDviceCtrlDlgDlg@@QAEXXZ 00433360 f   DviceCtrlDlgDlg.obj
 0002:00017450       ?OnBnClickedRadio1@CDviceCtrlDlgDlg@@QAEXXZ 00433450 f   DviceCtrlDlgDlg.obj
 0002:00017630       ?OnBnClickedButton5@CDviceCtrlDlgDlg@@QAEXXZ 00433630 f   DviceCtrlDlgDlg.obj
 0002:000176b0       ?OnBnClickedButton6@CDviceCtrlDlgDlg@@QAEXXZ 004336b0 f   DviceCtrlDlgDlg.obj
 0002:00017730       ?OnBnClickedButton7@CDviceCtrlDlgDlg@@QAEXXZ 00433730 f   DviceCtrlDlgDlg.obj
 0002:000177b0       ?OnBnClickedButton8@CDviceCtrlDlgDlg@@QAEXXZ 004337b0 f   DviceCtrlDlgDlg.obj
 0002:00017830       ?OnBnClickedRadio2@CDviceCtrlDlgDlg@@QAEXXZ 00433830 f   DviceCtrlDlgDlg.obj
 0002:00017a10       ?OnBnClickedRadio3@CDviceCtrlDlgDlg@@QAEXXZ 00433a10 f   DviceCtrlDlgDlg.obj
 0002:00017bf0       ?OnBnClickedRadio4@CDviceCtrlDlgDlg@@QAEXXZ 00433bf0 f   DviceCtrlDlgDlg.obj
 0002:00017dd0       ??HATL@@YA?AV?$CStringT@_WV?$StrTraitMFC_DLL@_WV?$ChTraitsCRT@_W@ATL@@@@@0@ABV10@0@Z 00433dd0 f i DviceCtrlDlgDlg.obj
 0002:00017f90       ??0?$vector@V?$CStringT@_WV?$StrTraitMFC_DLL@_WV?$ChTraitsCRT@_W@ATL@@@@@ATL@@V?$allocator@V?$CStringT@_WV?$StrTraitMFC_DLL@_WV?$ChTraitsCRT@_W@ATL@@@@@ATL@@@std@@@std@@QAE@XZ 00433f90 f i DviceCtrlDlgDlg.obj
 0002:00018000       ?size@?$vector@V?$CStringT@_WV?$StrTraitMFC_DLL@_WV?$ChTraitsCRT@_W@ATL@@@@@ATL@@V?$allocator@V?$CStringT@_WV?$StrTraitMFC_DLL@_WV?$ChTraitsCRT@_W@ATL@@@@@ATL@@@std@@@std@@QBEIXZ 00434000 f i DviceCtrlDlgDlg.obj
 0002:00018050       ?at@?$vector@V?$CStringT@_WV?$StrTraitMFC_DLL@_WV?$ChTraitsCRT@_W@ATL@@@@@ATL@@V?$allocator@V?$CStringT@_WV?$StrTraitMFC_DLL@_WV?$ChTraitsCRT@_W@ATL@@@@@ATL@@@std@@@std@@QAEAAV?$CStringT@_WV?$StrTraitMFC_DLL@_WV?$ChTraitsCRT@_W@ATL@@@@@ATL@@I@Z 00434050 f i DviceCtrlDlgDlg.obj
 0002:000180c0       ?push_back@?$vector@V?$CStringT@_WV?$StrTraitMFC_DLL@_WV?$ChTraitsCRT@_W@ATL@@@@@ATL@@V?$allocator@V?$CStringT@_WV?$StrTraitMFC_DLL@_WV?$ChTraitsCRT@_W@ATL@@@@@ATL@@@std@@@std@@QAEXABV?$CStringT@_WV?$StrTraitMFC_DLL@_WV?$ChTraitsCRT@_W@ATL@@@@@ATL@@@Z 004340c0 f i DviceCtrlDlgDlg.obj
 0002:00018230       ?_Inside@?$vector@V?$CStringT@_WV?$StrTraitMFC_DLL@_WV?$ChTraitsCRT@_W@ATL@@@@@ATL@@V?$allocator@V?$CStringT@_WV?$StrTraitMFC_DLL@_WV?$ChTraitsCRT@_W@ATL@@@@@ATL@@@std@@@std@@IBE_NPBV?$CStringT@_WV?$StrTraitMFC_DLL@_WV?$ChTraitsCRT@_W@ATL@@@@@ATL@@@Z 00434230 f i DviceCtrlDlgDlg.obj
 0002:000182b0       ?_Reserve@?$vector@V?$CStringT@_WV?$StrTraitMFC_DLL@_WV?$ChTraitsCRT@_W@ATL@@@@@ATL@@V?$allocator@V?$CStringT@_WV?$StrTraitMFC_DLL@_WV?$ChTraitsCRT@_W@ATL@@@@@ATL@@@std@@@std@@IAEXI@Z 004342b0 f i DviceCtrlDlgDlg.obj
 0002:00018360       ?_Xran@?$vector@V?$CStringT@_WV?$StrTraitMFC_DLL@_WV?$ChTraitsCRT@_W@ATL@@@@@ATL@@V?$allocator@V?$CStringT@_WV?$StrTraitMFC_DLL@_WV?$ChTraitsCRT@_W@ATL@@@@@ATL@@@std@@@std@@IBEXXZ 00434360 f i DviceCtrlDlgDlg.obj
 0002:000183c0       ?_Orphan_range@?$vector@V?$CStringT@_WV?$StrTraitMFC_DLL@_WV?$ChTraitsCRT@_W@ATL@@@@@ATL@@V?$allocator@V?$CStringT@_WV?$StrTraitMFC_DLL@_WV?$ChTraitsCRT@_W@ATL@@@@@ATL@@@std@@@std@@IBEXPAV?$CStringT@_WV?$StrTraitMFC_DLL@_WV?$ChTraitsCRT@_W@ATL@@@@@ATL@@0@Z 004343c0 f i DviceCtrlDlgDlg.obj
 0002:00018540       ?_Clrcont@_Iterator_base12@std@@QAEXXZ 00434540 f i DviceCtrlDlgDlg.obj
 0002:00018580       ?_Getpnext@_Iterator_base12@std@@QAEPAPAU12@XZ 00434580 f i DviceCtrlDlgDlg.obj
 0002:000185c0       ??0?$_Vector_val@V?$CStringT@_WV?$StrTraitMFC_DLL@_WV?$ChTraitsCRT@_W@ATL@@@@@ATL@@V?$allocator@V?$CStringT@_WV?$StrTraitMFC_DLL@_WV?$ChTraitsCRT@_W@ATL@@@@@ATL@@@std@@@std@@QAE@V?$allocator@V?$CStringT@_WV?$StrTraitMFC_DLL@_WV?$ChTraitsCRT@_W@ATL@@@@@ATL@@@1@@Z 004345c0 f i DviceCtrlDlgDlg.obj
 0002:00018740       ??0_Container_proxy@std@@QAE@XZ 00434740 f i DviceCtrlDlgDlg.obj
 0002:00018790       ??0?$allocator@V?$CStringT@_WV?$StrTraitMFC_DLL@_WV?$ChTraitsCRT@_W@ATL@@@@@ATL@@@std@@QAE@XZ 00434790 f i DviceCtrlDlgDlg.obj
 0002:000187d0       ?reserve@?$vector@V?$CStringT@_WV?$StrTraitMFC_DLL@_WV?$ChTraitsCRT@_W@ATL@@@@@ATL@@V?$allocator@V?$CStringT@_WV?$StrTraitMFC_DLL@_WV?$ChTraitsCRT@_W@ATL@@@@@ATL@@@std@@@std@@QAEXI@Z 004347d0 f i DviceCtrlDlgDlg.obj
 0002:000189b0       ?capacity@?$vector@V?$CStringT@_WV?$StrTraitMFC_DLL@_WV?$ChTraitsCRT@_W@ATL@@@@@ATL@@V?$allocator@V?$CStringT@_WV?$StrTraitMFC_DLL@_WV?$ChTraitsCRT@_W@ATL@@@@@ATL@@@std@@@std@@QBEIXZ 004349b0 f i DviceCtrlDlgDlg.obj
 0002:00018a00       ?max_size@?$vector@V?$CStringT@_WV?$StrTraitMFC_DLL@_WV?$ChTraitsCRT@_W@ATL@@@@@ATL@@V?$allocator@V?$CStringT@_WV?$StrTraitMFC_DLL@_WV?$ChTraitsCRT@_W@ATL@@@@@ATL@@@std@@@std@@QBEIXZ 00434a00 f i DviceCtrlDlgDlg.obj
 0002:00018a60       ?_Grow_to@?$vector@V?$CStringT@_WV?$StrTraitMFC_DLL@_WV?$ChTraitsCRT@_W@ATL@@@@@ATL@@V?$allocator@V?$CStringT@_WV?$StrTraitMFC_DLL@_WV?$ChTraitsCRT@_W@ATL@@@@@ATL@@@std@@@std@@IBEII@Z 00434a60 f i DviceCtrlDlgDlg.obj
 0002:00018b10       ?_Xlen@?$vector@V?$CStringT@_WV?$StrTraitMFC_DLL@_WV?$ChTraitsCRT@_W@ATL@@@@@ATL@@V?$allocator@V?$CStringT@_WV?$StrTraitMFC_DLL@_WV?$ChTraitsCRT@_W@ATL@@@@@ATL@@@std@@@std@@IBEXXZ 00434b10 f i DviceCtrlDlgDlg.obj
 0002:00018b70       ??0?$allocator@V?$CStringT@_WV?$StrTraitMFC_DLL@_WV?$ChTraitsCRT@_W@ATL@@@@@ATL@@@std@@QAE@ABV01@@Z 00434b70 f i DviceCtrlDlgDlg.obj
 0002:00018bb0       ?allocate@?$allocator@U_Container_proxy@std@@@std@@QAEPAU_Container_proxy@2@I@Z 00434bb0 f i DviceCtrlDlgDlg.obj
 0002:00018c10       ?allocate@?$allocator@V?$CStringT@_WV?$StrTraitMFC_DLL@_WV?$ChTraitsCRT@_W@ATL@@@@@ATL@@@std@@QAEPAV?$CStringT@_WV?$StrTraitMFC_DLL@_WV?$ChTraitsCRT@_W@ATL@@@@@ATL@@I@Z 00434c10 f i DviceCtrlDlgDlg.obj
 0002:00018c70       ?max_size@?$allocator@V?$CStringT@_WV?$StrTraitMFC_DLL@_WV?$ChTraitsCRT@_W@ATL@@@@@ATL@@@std@@QBEIXZ 00434c70 f i DviceCtrlDlgDlg.obj
 0002:00018ce0       ??$_Pow_int@N@@YANNH@Z     00434ce0 f i DviceCtrlDlgDlg.obj
 0002:00018d90       ??$addressof@$$CBV?$CStringT@_WV?$StrTraitMFC_DLL@_WV?$ChTraitsCRT@_W@ATL@@@@@ATL@@@std@@YAPBV?$CStringT@_WV?$StrTraitMFC_DLL@_WV?$ChTraitsCRT@_W@ATL@@@@@ATL@@ABV12@@Z 00434d90 f i DviceCtrlDlgDlg.obj
 0002:00018dd0       ??$_Cons_val@V?$allocator@V?$CStringT@_WV?$StrTraitMFC_DLL@_WV?$ChTraitsCRT@_W@ATL@@@@@ATL@@@std@@V?$CStringT@_WV?$StrTraitMFC_DLL@_WV?$ChTraitsCRT@_W@ATL@@@@@ATL@@AAV34@@std@@YAXAAV?$allocator@V?$CStringT@_WV?$StrTraitMFC_DLL@_WV?$ChTraitsCRT@_W@ATL@@@@@ATL@@@0@PAV?$CStringT@_WV?$StrTraitMFC_DLL@_WV?$ChTraitsCRT@_W@ATL@@@@@ATL@@AAV23@@Z 00434dd0 f i DviceCtrlDlgDlg.obj
 0002:00018e30       ??$_Cons_val@V?$allocator@V?$CStringT@_WV?$StrTraitMFC_DLL@_WV?$ChTraitsCRT@_W@ATL@@@@@ATL@@@std@@V?$CStringT@_WV?$StrTraitMFC_DLL@_WV?$ChTraitsCRT@_W@ATL@@@@@ATL@@ABV34@@std@@YAXAAV?$allocator@V?$CStringT@_WV?$StrTraitMFC_DLL@_WV?$ChTraitsCRT@_W@ATL@@@@@ATL@@@0@PAV?$CStringT@_WV?$StrTraitMFC_DLL@_WV?$ChTraitsCRT@_W@ATL@@@@@ATL@@ABV23@@Z 00434e30 f i DviceCtrlDlgDlg.obj
 0002:00018e90       ??$_Cons_val@V?$allocator@U_Container_proxy@std@@@std@@U_Container_proxy@2@U32@@std@@YAXAAV?$allocator@U_Container_proxy@std@@@0@PAU_Container_proxy@0@$$QAU20@@Z 00434e90 f i DviceCtrlDlgDlg.obj
 0002:00018ef0       ??$_Umove@PAV?$CStringT@_WV?$StrTraitMFC_DLL@_WV?$ChTraitsCRT@_W@ATL@@@@@ATL@@@?$vector@V?$CStringT@_WV?$StrTraitMFC_DLL@_WV?$ChTraitsCRT@_W@ATL@@@@@ATL@@V?$allocator@V?$CStringT@_WV?$StrTraitMFC_DLL@_WV?$ChTraitsCRT@_W@ATL@@@@@ATL@@@std@@@std@@IAEPAV?$CStringT@_WV?$StrTraitMFC_DLL@_WV?$ChTraitsCRT@_W@ATL@@@@@ATL@@PAV23@00@Z 00434ef0 f i DviceCtrlDlgDlg.obj
 0002:00018f60       ??$_Allocate@U_Container_proxy@std@@@std@@YAPAU_Container_proxy@0@IPAU10@@Z 00434f60 f i DviceCtrlDlgDlg.obj
 0002:00019010       ??0bad_alloc@std@@QAE@PBD@Z 00435010 f i DviceCtrlDlgDlg.obj
 0002:00019090       ??1bad_alloc@std@@UAE@XZ   00435090 f i DviceCtrlDlgDlg.obj
 0002:00019100       ??_Ebad_alloc@std@@UAEPAXI@Z 00435100 f i DviceCtrlDlgDlg.obj
 0002:00019100       ??_Gbad_alloc@std@@UAEPAXI@Z 00435100 f i DviceCtrlDlgDlg.obj
 0002:00019170       ??$_Allocate@V?$CStringT@_WV?$StrTraitMFC_DLL@_WV?$ChTraitsCRT@_W@ATL@@@@@ATL@@@std@@YAPAV?$CStringT@_WV?$StrTraitMFC_DLL@_WV?$ChTraitsCRT@_W@ATL@@@@@ATL@@IPAV12@@Z 00435170 f i DviceCtrlDlgDlg.obj
 0002:00019220       ??0bad_alloc@std@@QAE@ABV01@@Z 00435220 f i DviceCtrlDlgDlg.obj
 0002:000192a0       ?construct@?$allocator@V?$CStringT@_WV?$StrTraitMFC_DLL@_WV?$ChTraitsCRT@_W@ATL@@@@@ATL@@@std@@QAEXPAV?$CStringT@_WV?$StrTraitMFC_DLL@_WV?$ChTraitsCRT@_W@ATL@@@@@ATL@@ABV34@@Z 004352a0 f i DviceCtrlDlgDlg.obj
 0002:00019300       ?construct@?$allocator@U_Container_proxy@std@@@std@@QAEXPAU_Container_proxy@2@$$QAU32@@Z 00435300 f i DviceCtrlDlgDlg.obj
 0002:00019410       ??2@YAPAXIPAX@Z            00435410 f i DviceCtrlDlgDlg.obj
 0002:00019450       ??3@YAXPAX0@Z              00435450 f i DviceCtrlDlgDlg.obj
 0002:00019480       ??$forward@AAV?$CStringT@_WV?$StrTraitMFC_DLL@_WV?$ChTraitsCRT@_W@ATL@@@@@ATL@@@std@@YAAAV?$CStringT@_WV?$StrTraitMFC_DLL@_WV?$ChTraitsCRT@_W@ATL@@@@@ATL@@AAV12@@Z 00435480 f i DviceCtrlDlgDlg.obj
 0002:000194c0       ??$construct@AAV?$CStringT@_WV?$StrTraitMFC_DLL@_WV?$ChTraitsCRT@_W@ATL@@@@@ATL@@@?$allocator@V?$CStringT@_WV?$StrTraitMFC_DLL@_WV?$ChTraitsCRT@_W@ATL@@@@@ATL@@@std@@QAEXPAV?$CStringT@_WV?$StrTraitMFC_DLL@_WV?$ChTraitsCRT@_W@ATL@@@@@ATL@@AAV23@@Z 004354c0 f i DviceCtrlDlgDlg.obj
 0002:000195d0       ??$forward@ABV?$CStringT@_WV?$StrTraitMFC_DLL@_WV?$ChTraitsCRT@_W@ATL@@@@@ATL@@@std@@YAABV?$CStringT@_WV?$StrTraitMFC_DLL@_WV?$ChTraitsCRT@_W@ATL@@@@@ATL@@ABV12@@Z 004355d0 f i DviceCtrlDlgDlg.obj
 0002:00019610       ??$forward@U_Container_proxy@std@@@std@@YA$$QAU_Container_proxy@0@AAU10@@Z 00435610 f i DviceCtrlDlgDlg.obj
 0002:00019650       ??$_Uninitialized_move@PAV?$CStringT@_WV?$StrTraitMFC_DLL@_WV?$ChTraitsCRT@_W@ATL@@@@@ATL@@PAV12@V?$allocator@V?$CStringT@_WV?$StrTraitMFC_DLL@_WV?$ChTraitsCRT@_W@ATL@@@@@ATL@@@std@@@std@@YAPAV?$CStringT@_WV?$StrTraitMFC_DLL@_WV?$ChTraitsCRT@_W@ATL@@@@@ATL@@PAV12@00AAV?$allocator@V?$CStringT@_WV?$StrTraitMFC_DLL@_WV?$ChTraitsCRT@_W@ATL@@@@@ATL@@@0@@Z 00435650 f i DviceCtrlDlgDlg.obj
 0002:000196f0       ??$_Construct@V?$CStringT@_WV?$StrTraitMFC_DLL@_WV?$ChTraitsCRT@_W@ATL@@@@@ATL@@ABV12@@std@@YAXPAV?$CStringT@_WV?$StrTraitMFC_DLL@_WV?$ChTraitsCRT@_W@ATL@@@@@ATL@@ABV12@@Z 004356f0 f i DviceCtrlDlgDlg.obj
 0002:000197f0       ??$_Val_type@PAV?$CStringT@_WV?$StrTraitMFC_DLL@_WV?$ChTraitsCRT@_W@ATL@@@@@ATL@@@std@@YAPAV?$CStringT@_WV?$StrTraitMFC_DLL@_WV?$ChTraitsCRT@_W@ATL@@@@@ATL@@PAV12@@Z 004357f0 f i DviceCtrlDlgDlg.obj
 0002:00019820       ??$_Uninit_move@PAV?$CStringT@_WV?$StrTraitMFC_DLL@_WV?$ChTraitsCRT@_W@ATL@@@@@ATL@@PAV12@V?$allocator@V?$CStringT@_WV?$StrTraitMFC_DLL@_WV?$ChTraitsCRT@_W@ATL@@@@@ATL@@@std@@V12@@std@@YAPAV?$CStringT@_WV?$StrTraitMFC_DLL@_WV?$ChTraitsCRT@_W@ATL@@@@@ATL@@PAV12@00AAV?$allocator@V?$CStringT@_WV?$StrTraitMFC_DLL@_WV?$ChTraitsCRT@_W@ATL@@@@@ATL@@@0@0U_Nonscalar_ptr_iterator_tag@0@@Z 00435820 f i DviceCtrlDlgDlg.obj
 0002:00019980       ??$_Debug_range@PAV?$CStringT@_WV?$StrTraitMFC_DLL@_WV?$ChTraitsCRT@_W@ATL@@@@@ATL@@@std@@YAXPAV?$CStringT@_WV?$StrTraitMFC_DLL@_WV?$ChTraitsCRT@_W@ATL@@@@@ATL@@0PB_WI@Z 00435980 f i DviceCtrlDlgDlg.obj
 0002:00019a00       ??$_Debug_pointer@V?$CStringT@_WV?$StrTraitMFC_DLL@_WV?$ChTraitsCRT@_W@ATL@@@@@ATL@@@std@@YAXPAV?$CStringT@_WV?$StrTraitMFC_DLL@_WV?$ChTraitsCRT@_W@ATL@@@@@ATL@@PB_WI@Z 00435a00 f i DviceCtrlDlgDlg.obj
 0002:00019a70       ??$_Cons_val@V?$allocator@V?$CStringT@_WV?$StrTraitMFC_DLL@_WV?$ChTraitsCRT@_W@ATL@@@@@ATL@@@std@@V?$CStringT@_WV?$StrTraitMFC_DLL@_WV?$ChTraitsCRT@_W@ATL@@@@@ATL@@V34@@std@@YAXAAV?$allocator@V?$CStringT@_WV?$StrTraitMFC_DLL@_WV?$ChTraitsCRT@_W@ATL@@@@@ATL@@@0@PAV?$CStringT@_WV?$StrTraitMFC_DLL@_WV?$ChTraitsCRT@_W@ATL@@@@@ATL@@$$QAV23@@Z 00435a70 f i DviceCtrlDlgDlg.obj
 0002:00019ad0       ?construct@?$allocator@V?$CStringT@_WV?$StrTraitMFC_DLL@_WV?$ChTraitsCRT@_W@ATL@@@@@ATL@@@std@@QAEXPAV?$CStringT@_WV?$StrTraitMFC_DLL@_WV?$ChTraitsCRT@_W@ATL@@@@@ATL@@$$QAV34@@Z 00435ad0 f i DviceCtrlDlgDlg.obj
 0002:00019be0       ??$_Iter_cat@PAV?$CStringT@_WV?$StrTraitMFC_DLL@_WV?$ChTraitsCRT@_W@ATL@@@@@ATL@@@std@@YA?AUrandom_access_iterator_tag@0@ABQAV?$CStringT@_WV?$StrTraitMFC_DLL@_WV?$ChTraitsCRT@_W@ATL@@@@@ATL@@@Z 00435be0 f i DviceCtrlDlgDlg.obj
 0002:00019c60       ??$_Debug_range2@PAV?$CStringT@_WV?$StrTraitMFC_DLL@_WV?$ChTraitsCRT@_W@ATL@@@@@ATL@@@std@@YAXPAV?$CStringT@_WV?$StrTraitMFC_DLL@_WV?$ChTraitsCRT@_W@ATL@@@@@ATL@@0PB_WIUrandom_access_iterator_tag@0@@Z 00435c60 f i DviceCtrlDlgDlg.obj
 0002:00019d10       ??$forward@V?$CStringT@_WV?$StrTraitMFC_DLL@_WV?$ChTraitsCRT@_W@ATL@@@@@ATL@@@std@@YA$$QAV?$CStringT@_WV?$StrTraitMFC_DLL@_WV?$ChTraitsCRT@_W@ATL@@@@@ATL@@AAV12@@Z 00435d10 f i DviceCtrlDlgDlg.obj
 0002:00019d50       ??HATL@@YA?AV?$CStringT@_WV?$StrTraitMFC_DLL@_WV?$ChTraitsCRT@_W@ATL@@@@@0@ABV10@PB_W@Z 00435d50 f i DviceCtrlDlgDlg.obj
 0002:00019f00       ??HATL@@YA?AV?$CStringT@_WV?$StrTraitMFC_DLL@_WV?$ChTraitsCRT@_W@ATL@@@@@0@PB_WABV10@@Z 00435f00 f i DviceCtrlDlgDlg.obj
 0002:0001a0b0       ??8ATL@@YA_NABV?$CStringT@_WV?$StrTraitMFC_DLL@_WV?$ChTraitsCRT@_W@ATL@@@@@0@0@Z 004360b0 f i DviceCtrlDlgDlg.obj
 0002:0001a130       ??8ATL@@YA_NABV?$CStringT@_WV?$StrTraitMFC_DLL@_WV?$ChTraitsCRT@_W@ATL@@@@@0@PB_W@Z 00436130 f i DviceCtrlDlgDlg.obj
 0002:0001a1a0       ??0_SERIAL_PORT_DATA@@QAE@XZ 004361a0 f   serialport.obj
 0002:0001a260       ??1_SERIAL_PORT_DATA@@QAE@XZ 00436260 f   serialport.obj
 0002:0001a2d0       ?AfxThrowSerialException@@YAXK@Z 004362d0 f   serialport.obj
 0002:0001a370       ?GetErrorMessage@CSerialException@@UAEHPA_WIPAI@Z 00436370 f   serialport.obj
 0002:0001a4e0       ?GetErrorMessage@CSerialException@@QAE?AV?$CStringT@_WV?$StrTraitMFC_DLL@_WV?$ChTraitsCRT@_W@ATL@@@@@ATL@@XZ 004364e0 f   serialport.obj
 0002:0001a680       ??0CSerialException@@QAE@K@Z 00436680 f   serialport.obj
 0002:0001a6f0       ??_GCSerialException@@UAEPAXI@Z 004366f0 f i serialport.obj
 0002:0001a6f0       ??_ECSerialException@@UAEPAXI@Z 004366f0 f i serialport.obj
 0002:0001a760       ??1CSerialException@@UAE@XZ 00436760 f   serialport.obj
 0002:0001a7c0       ?_GetBaseClass@CSerialException@@KGPAUCRuntimeClass@@XZ 004367c0 f   serialport.obj
 0002:0001a810       ?GetThisClass@CSerialException@@SGPAUCRuntimeClass@@XZ 00436810 f   serialport.obj
 0002:0001a850       ?GetRuntimeClass@CSerialException@@UBEPAUCRuntimeClass@@XZ 00436850 f   serialport.obj
 0002:0001a890       ?Dump@CSerialException@@UBEXAAVCDumpContext@@@Z 00436890 f   serialport.obj
 0002:0001a910       ??0CSerialPort@@QAE@XZ     00436910 f   serialport.obj
 0002:0001a9a0       ??_ECSerialPort@@UAEPAXI@Z 004369a0 f i serialport.obj
 0002:0001a9a0       ??_GCSerialPort@@UAEPAXI@Z 004369a0 f i serialport.obj
 0002:0001aa10       ??1CSerialPort@@UAE@XZ     00436a10 f   serialport.obj
 0002:0001aaf0       ?_GetBaseClass@CSerialPort@@KGPAUCRuntimeClass@@XZ 00436af0 f   serialport.obj
 0002:0001ab40       ?GetThisClass@CSerialPort@@SGPAUCRuntimeClass@@XZ 00436b40 f   serialport.obj
 0002:0001ab80       ?GetRuntimeClass@CSerialPort@@UBEPAUCRuntimeClass@@XZ 00436b80 f   serialport.obj
 0002:0001abc0       ?Dump@CSerialPort@@UBEXAAVCDumpContext@@@Z 00436bc0 f   serialport.obj
 0002:0001ac70       ?Open@CSerialPort@@QAEXHKW4Parity@1@EW4StopBits@1@W4FlowControl@1@H@Z 00436c70 f   serialport.obj
 0002:0001b290       ?Close@CSerialPort@@QAEXXZ 00437290 f   serialport.obj
 0002:0001b3a0       ?Attach@CSerialPort@@QAEXPAXH@Z 004373a0 f   serialport.obj
 0002:0001b480       ?Detach@CSerialPort@@QAEPAXXZ 00437480 f   serialport.obj
 0002:0001b510       ?Read@CSerialPort@@QAEKPAXK@Z 00437510 f   serialport.obj
 0002:0001b700       ?Read@CSerialPort@@QAEHPAXKAAU_OVERLAPPED@@PAK@Z 00437700 f   serialport.obj
 0002:0001b8a0       ?Write@CSerialPort@@QAEKPBXK@Z 004378a0 f   serialport.obj
 0002:0001ba10       ?Write@CSerialPort@@QAEHPBXKAAU_OVERLAPPED@@PAK@Z 00437a10 f   serialport.obj
 0002:0001bbf0       ?GetOverlappedResult@CSerialPort@@QAE_NAAU_OVERLAPPED@@AAKH@Z 00437bf0 f   serialport.obj
 0002:0001bd40       ?_OnCompletion@CSerialPort@@KGXKKPAU_OVERLAPPED@@@Z 00437d40 f   serialport.obj
 0002:0001be50       ?OnCompletion@CSerialPort@@UAEXKKPAU_OVERLAPPED@@@Z 00437e50 f   serialport.obj
 0002:0001bec0       ?CancelIo@CSerialPort@@QAEXXZ 00437ec0 f   serialport.obj
 0002:0001bfe0       ?BytesWaiting@CSerialPort@@QAEKXZ 00437fe0 f   serialport.obj
 0002:0001c0c0       ?DataWaiting@CSerialPort@@QAEHK@Z 004380c0 f   serialport.obj
 0002:0001c2a0       ?WriteEx@CSerialPort@@QAEXPBXK@Z 004382a0 f   serialport.obj
 0002:0001c400       ?ReadEx@CSerialPort@@QAEXPAXK@Z 00438400 f   serialport.obj
 0002:0001c560       ?TransmitChar@CSerialPort@@QAEXD@Z 00438560 f   serialport.obj
 0002:0001c640       ?GetConfig@CSerialPort@@QAEXAAU_COMMCONFIG@@@Z 00438640 f   serialport.obj
 0002:0001c760       ?SetConfig@CSerialPort@@QAEXAAU_COMMCONFIG@@@Z 00438760 f   serialport.obj
 0002:0001c850       ?SetBreak@CSerialPort@@QAEXXZ 00438850 f   serialport.obj
 0002:0001c930       ?ClearBreak@CSerialPort@@QAEXXZ 00438930 f   serialport.obj
 0002:0001ca10       ?ClearError@CSerialPort@@QAEXAAK@Z 00438a10 f   serialport.obj
 0002:0001caf0       ?GetDefaultConfig@CSerialPort@@SAXHAAU_COMMCONFIG@@@Z 00438af0 f   serialport.obj
 0002:0001ccd0       ?SetDefaultConfig@CSerialPort@@SAXHAAU_COMMCONFIG@@@Z 00438cd0 f   serialport.obj
 0002:0001ce90       ?GetStatus@CSerialPort@@QAEXAAU_COMSTAT@@@Z 00438e90 f   serialport.obj
 0002:0001cfb0       ?GetState@CSerialPort@@QAEXAAU_DCB@@@Z 00438fb0 f   serialport.obj
 0002:0001d090       ?SetState@CSerialPort@@QAEXAAU_DCB@@@Z 00439090 f   serialport.obj
 0002:0001d170       ?Escape@CSerialPort@@QAEXK@Z 00439170 f   serialport.obj
 0002:0001d250       ?ClearDTR@CSerialPort@@QAEXXZ 00439250 f   serialport.obj
 0002:0001d2b0       ?ClearRTS@CSerialPort@@QAEXXZ 004392b0 f   serialport.obj
 0002:0001d310       ?SetDTR@CSerialPort@@QAEXXZ 00439310 f   serialport.obj
 0002:0001d370       ?SetRTS@CSerialPort@@QAEXXZ 00439370 f   serialport.obj
 0002:0001d3d0       ?SetXOFF@CSerialPort@@QAEXXZ 004393d0 f   serialport.obj
 0002:0001d430       ?SetXON@CSerialPort@@QAEXXZ 00439430 f   serialport.obj
 0002:0001d490       ?GetProperties@CSerialPort@@QAEXAAU_COMMPROP@@@Z 00439490 f   serialport.obj
 0002:0001d570       ?GetModemStatus@CSerialPort@@QAEXAAK@Z 00439570 f   serialport.obj
 0002:0001d650       ?SetMask@CSerialPort@@QAEXK@Z 00439650 f   serialport.obj
 0002:0001d730       ?GetMask@CSerialPort@@QAEXAAK@Z 00439730 f   serialport.obj
 0002:0001d810       ?Flush@CSerialPort@@QAEXXZ 00439810 f   serialport.obj
 0002:0001d8f0       ?Purge@CSerialPort@@QAEXK@Z 004398f0 f   serialport.obj
 0002:0001d9d0       ?TerminateOutstandingWrites@CSerialPort@@QAEXXZ 004399d0 f   serialport.obj
 0002:0001da30       ?TerminateOutstandingReads@CSerialPort@@QAEXXZ 00439a30 f   serialport.obj
 0002:0001da90       ?ClearWriteBuffer@CSerialPort@@QAEXXZ 00439a90 f   serialport.obj
 0002:0001daf0       ?ClearReadBuffer@CSerialPort@@QAEXXZ 00439af0 f   serialport.obj
 0002:0001db50       ?Setup@CSerialPort@@QAEXKK@Z 00439b50 f   serialport.obj
 0002:0001dc30       ?SetTimeouts@CSerialPort@@QAEXAAU_COMMTIMEOUTS@@@Z 00439c30 f   serialport.obj
 0002:0001dd10       ?GetTimeouts@CSerialPort@@QAEXAAU_COMMTIMEOUTS@@@Z 00439d10 f   serialport.obj
 0002:0001ddf0       ?Set0Timeout@CSerialPort@@QAEXXZ 00439df0 f   serialport.obj
 0002:0001dec0       ?Set0WriteTimeout@CSerialPort@@QAEXXZ 00439ec0 f   serialport.obj
 0002:0001df90       ?Set0ReadTimeout@CSerialPort@@QAEXXZ 00439f90 f   serialport.obj
 0002:0001e070       ?WaitEvent@CSerialPort@@QAE_NAAK@Z 0043a070 f   serialport.obj
 0002:0001e180       ?WaitEvent@CSerialPort@@QAEHAAKAAU_OVERLAPPED@@@Z 0043a180 f   serialport.obj
 0002:0001e2f0       ??RCTraceFileAndLineInfo@ATL@@QBAXPB_WZZ 0043a2f0 f i serialport.obj
 0002:0001e380       ?_AfxInitManaged@@YAHXZ    0043a380 f i stdafx.obj
 0002:0001e3b0       ??_H@YGXPAXIHP6EPAX0@Z@Z   0043a3b0 f i stdafx.obj
 0002:0001e420       ??0Thank_you@Define_the_symbol__ATL_MIXED@@QAE@XZ 0043a420 f i stdafx.obj
 0002:0001e470       ?one@Thank_you@Define_the_symbol__ATL_MIXED@@UAEXXZ 0043a470 f i stdafx.obj
 0002:0001e4a4       ??3@YAXPAX@Z               0043a4a4 f   mfc100ud:mfc100ud.dll
 0002:0001e4aa       ??3CObject@@SGXPAX@Z       0043a4aa f   mfc100ud:mfc100ud.dll
 0002:0001e4b0       ??2@YAPAXI@Z               0043a4b0 f   mfc100ud:mfc100ud.dll
 0002:0001e4b6       ?Delete@CException@@QAEXXZ 0043a4b6 f   mfc100ud:mfc100ud.dll
 0002:0001e4bc       ??2CObject@@SGPAXI@Z       0043a4bc f   mfc100ud:mfc100ud.dll
 0002:0001e4c2       ?AfxMessageBox@@YGHPB_WII@Z 0043a4c2 f   mfc100ud:mfc100ud.dll
 0002:0001e4c8       ?AfxAssertFailedLine@@YGHPBDH@Z 0043a4c8 f   mfc100ud:mfc100ud.dll
 0002:0001e4ce       ??1?$CStringT@_WV?$StrTraitMFC_DLL@_WV?$ChTraitsCRT@_W@ATL@@@@@ATL@@QAE@XZ 0043a4ce f   mfc100ud:mfc100ud.dll
 0002:0001e4d4       ??Y?$CStringT@_WV?$StrTraitMFC_DLL@_WV?$ChTraitsCRT@_W@ATL@@@@@ATL@@QAEAAV01@ABV?$CSimpleStringT@_W$00@1@@Z 0043a4d4 f   mfc100ud:mfc100ud.dll
 0002:0001e4da       ?Format@?$CStringT@_WV?$StrTraitMFC_DLL@_WV?$ChTraitsCRT@_W@ATL@@@@@ATL@@QAAXPB_WZZ 0043a4da f   mfc100ud:mfc100ud.dll
 0002:0001e4e0       ??0?$CStringT@_WV?$StrTraitMFC_DLL@_WV?$ChTraitsCRT@_W@ATL@@@@@ATL@@QAE@PB_W@Z 0043a4e0 f   mfc100ud:mfc100ud.dll
 0002:0001e4e6       ??_V@YAXPAX@Z              0043a4e6 f   mfc100ud:mfc100ud.dll
 0002:0001e4ec       ??_U@YAPAXI@Z              0043a4ec f   mfc100ud:mfc100ud.dll
 0002:0001e4f2       ?GetThisMessageMap@CWinApp@@KGPBUAFX_MSGMAP@@XZ 0043a4f2 f   mfc100ud:mfc100ud.dll
 0002:0001e4f8       ?OnHelp@CWinApp@@IAEXXZ    0043a4f8 f   mfc100ud:mfc100ud.dll
 0002:0001e4fe       ??0CWinAppEx@@QAE@H@Z      0043a4fe f   mfc100ud:mfc100ud.dll
 0002:0001e504       ?GetRuntimeClass@CWinAppEx@@UBEPAUCRuntimeClass@@XZ 0043a504 f   mfc100ud:mfc100ud.dll
 0002:0001e50a       ?Serialize@CObject@@UAEXAAVCArchive@@@Z 0043a50a f   mfc100ud:mfc100ud.dll
 0002:0001e510       ?AssertValid@CWinApp@@UBEXXZ 0043a510 f   mfc100ud:mfc100ud.dll
 0002:0001e516       ?Dump@CWinApp@@UBEXAAVCDumpContext@@@Z 0043a516 f   mfc100ud:mfc100ud.dll
 0002:0001e51c       ?OnCmdMsg@CCmdTarget@@UAEHIHPAXPAUAFX_CMDHANDLERINFO@@@Z 0043a51c f   mfc100ud:mfc100ud.dll
 0002:0001e522       ?OnFinalRelease@CCmdTarget@@UAEXXZ 0043a522 f   mfc100ud:mfc100ud.dll
 0002:0001e528       ?IsInvokeAllowed@CCmdTarget@@UAEHJ@Z 0043a528 f   mfc100ud:mfc100ud.dll
 0002:0001e52e       ?GetDispatchIID@CCmdTarget@@UAEHPAU_GUID@@@Z 0043a52e f   mfc100ud:mfc100ud.dll
 0002:0001e534       ?GetTypeInfoCount@CCmdTarget@@UAEIXZ 0043a534 f   mfc100ud:mfc100ud.dll
 0002:0001e53a       ?GetTypeLibCache@CCmdTarget@@UAEPAVCTypeLibCache@@XZ 0043a53a f   mfc100ud:mfc100ud.dll
 0002:0001e540       ?GetTypeLib@CCmdTarget@@UAEJKPAPAUITypeLib@@@Z 0043a540 f   mfc100ud:mfc100ud.dll
 0002:0001e546       ?GetCommandMap@CCmdTarget@@MBEPBUAFX_OLECMDMAP@@XZ 0043a546 f   mfc100ud:mfc100ud.dll
 0002:0001e54c       ?GetDispatchMap@CCmdTarget@@MBEPBUAFX_DISPMAP@@XZ 0043a54c f   mfc100ud:mfc100ud.dll
 0002:0001e552       ?GetConnectionMap@CCmdTarget@@MBEPBUAFX_CONNECTIONMAP@@XZ 0043a552 f   mfc100ud:mfc100ud.dll
 0002:0001e558       ?GetInterfaceMap@CCmdTarget@@MBEPBUAFX_INTERFACEMAP@@XZ 0043a558 f   mfc100ud:mfc100ud.dll
 0002:0001e55e       ?GetEventSinkMap@CCmdTarget@@MBEPBUAFX_EVENTSINKMAP@@XZ 0043a55e f   mfc100ud:mfc100ud.dll
 0002:0001e564       ?OnCreateAggregates@CCmdTarget@@UAEHXZ 0043a564 f   mfc100ud:mfc100ud.dll
 0002:0001e56a       ?GetInterfaceHook@CCmdTarget@@UAEPAUIUnknown@@PBX@Z 0043a56a f   mfc100ud:mfc100ud.dll
 0002:0001e570       ?GetExtraConnectionPoints@CCmdTarget@@MAEHPAVCPtrArray@@@Z 0043a570 f   mfc100ud:mfc100ud.dll
 0002:0001e576       ?GetConnectionHook@CCmdTarget@@MAEPAUIConnectionPoint@@ABU_GUID@@@Z 0043a576 f   mfc100ud:mfc100ud.dll
 0002:0001e57c       ?Run@CWinApp@@UAEHXZ       0043a57c f   mfc100ud:mfc100ud.dll
 0002:0001e582       ?PreTranslateMessage@CWinThread@@UAEHPAUtagMSG@@@Z 0043a582 f   mfc100ud:mfc100ud.dll
 0002:0001e588       ?PumpMessage@CWinThread@@UAEHXZ 0043a588 f   mfc100ud:mfc100ud.dll
 0002:0001e58e       ?OnIdle@CWinApp@@UAEHJ@Z   0043a58e f   mfc100ud:mfc100ud.dll
 0002:0001e594       ?IsIdleMessage@CWinThread@@UAEHPAUtagMSG@@@Z 0043a594 f   mfc100ud:mfc100ud.dll
 0002:0001e59a       ?ExitInstance@CWinAppEx@@UAEHXZ 0043a59a f   mfc100ud:mfc100ud.dll
 0002:0001e5a0       ?ProcessWndProcException@CWinApp@@UAEJPAVCException@@PBUtagMSG@@@Z 0043a5a0 f   mfc100ud:mfc100ud.dll
 0002:0001e5a6       ?ProcessMessageFilter@CWinThread@@UAEHHPAUtagMSG@@@Z 0043a5a6 f   mfc100ud:mfc100ud.dll
 0002:0001e5ac       ?GetMainWnd@CWinThread@@UAEPAVCWnd@@XZ 0043a5ac f   mfc100ud:mfc100ud.dll
 0002:0001e5b2       ?Delete@CWinThread@@UAEXXZ 0043a5b2 f   mfc100ud:mfc100ud.dll
 0002:0001e5b8       ?GetProfileIntW@CWinApp@@UAEIPB_W0H@Z 0043a5b8 f   mfc100ud:mfc100ud.dll
 0002:0001e5be       ?WriteProfileInt@CWinApp@@UAEHPB_W0H@Z 0043a5be f   mfc100ud:mfc100ud.dll
 0002:0001e5c4       ?GetProfileStringW@CWinApp@@UAE?AV?$CStringT@_WV?$StrTraitMFC_DLL@_WV?$ChTraitsCRT@_W@ATL@@@@@ATL@@PB_W00@Z 0043a5c4 f   mfc100ud:mfc100ud.dll
 0002:0001e5ca       ?WriteProfileStringW@CWinApp@@UAEHPB_W00@Z 0043a5ca f   mfc100ud:mfc100ud.dll
 0002:0001e5d0       ?GetProfileBinary@CWinApp@@UAEHPB_W0PAPAEPAI@Z 0043a5d0 f   mfc100ud:mfc100ud.dll
 0002:0001e5d6       ?WriteProfileBinary@CWinApp@@UAEHPB_W0PAEI@Z 0043a5d6 f   mfc100ud:mfc100ud.dll
 0002:0001e5dc       ?InitLibId@CWinApp@@UAEXXZ 0043a5dc f   mfc100ud:mfc100ud.dll
 0002:0001e5e2       ?Register@CWinApp@@UAEHXZ  0043a5e2 f   mfc100ud:mfc100ud.dll
 0002:0001e5e8       ?Unregister@CWinApp@@UAEHXZ 0043a5e8 f   mfc100ud:mfc100ud.dll
 0002:0001e5ee       ?OpenDocumentFile@CWinApp@@UAEPAVCDocument@@PB_WH@Z 0043a5ee f   mfc100ud:mfc100ud.dll
 0002:0001e5f4       ?OpenDocumentFile@CWinApp@@UAEPAVCDocument@@PB_W@Z 0043a5f4 f   mfc100ud:mfc100ud.dll
 0002:0001e5fa       ?AddToRecentFileList@CWinApp@@UAEXPB_W@Z 0043a5fa f   mfc100ud:mfc100ud.dll
 0002:0001e600       ?InitApplication@CWinApp@@UAEHXZ 0043a600 f   mfc100ud:mfc100ud.dll
 0002:0001e606       ?SaveAllModified@CWinApp@@UAEHXZ 0043a606 f   mfc100ud:mfc100ud.dll
 0002:0001e60c       ?DoMessageBox@CWinApp@@UAEHPB_WII@Z 0043a60c f   mfc100ud:mfc100ud.dll
 0002:0001e612       ?DoWaitCursor@CWinApp@@UAEXH@Z 0043a612 f   mfc100ud:mfc100ud.dll
 0002:0001e618       ?OnDDECommand@CWinApp@@UAEHPA_W@Z 0043a618 f   mfc100ud:mfc100ud.dll
 0002:0001e61e       ?WinHelpW@CWinApp@@UAEXKI@Z 0043a61e f   mfc100ud:mfc100ud.dll
 0002:0001e624       ?HtmlHelpW@CWinApp@@UAEXKI@Z 0043a624 f   mfc100ud:mfc100ud.dll
 0002:0001e62a       ?WinHelpInternal@CWinApp@@UAEXKI@Z 0043a62a f   mfc100ud:mfc100ud.dll
 0002:0001e630       ?RegisterWithRestartManager@CWinApp@@UAEJPB_WKP6GKPAX@Z1KK@Z 0043a630 f   mfc100ud:mfc100ud.dll
 0002:0001e636       ?RegisterWithRestartManager@CWinApp@@UAEJHABV?$CStringT@_WV?$StrTraitMFC_DLL@_WV?$ChTraitsCRT@_W@ATL@@@@@ATL@@@Z 0043a636 f   mfc100ud:mfc100ud.dll
 0002:0001e63c       ?ApplicationRecoveryCallback@CWinApp@@UAEKPAX@Z 0043a63c f   mfc100ud:mfc100ud.dll
 0002:0001e642       ?GetDataRecoveryHandler@CWinApp@@UAEPAVCDataRecoveryHandler@@XZ 0043a642 f   mfc100ud:mfc100ud.dll
 0002:0001e648       ?IsTaskbarInteractionEnabled@CWinApp@@UAEHXZ 0043a648 f   mfc100ud:mfc100ud.dll
 0002:0001e64e       ?RestartInstance@CWinApp@@UAEHXZ 0043a64e f   mfc100ud:mfc100ud.dll
 0002:0001e654       ?LoadAppLangResourceDLL@CWinApp@@UAEPAUHINSTANCE__@@XZ 0043a654 f   mfc100ud:mfc100ud.dll
 0002:0001e65a       ?LoadSysPolicies@CWinApp@@UAEHXZ 0043a65a f   mfc100ud:mfc100ud.dll
 0002:0001e660       ?LoadState@CWinAppEx@@UAEHPB_WPAVCFrameImpl@@@Z 0043a660 f   mfc100ud:mfc100ud.dll
 0002:0001e666       ?CleanState@CWinAppEx@@UAEHPB_W@Z 0043a666 f   mfc100ud:mfc100ud.dll
 0002:0001e66c       ?SaveState@CWinAppEx@@UAEHPB_WPAVCFrameImpl@@@Z 0043a66c f   mfc100ud:mfc100ud.dll
 0002:0001e672       ?OnViewDoubleClick@CWinAppEx@@UAEHPAVCWnd@@H@Z 0043a672 f   mfc100ud:mfc100ud.dll
 0002:0001e678       ?ShowPopupMenu@CWinAppEx@@UAEHIABVCPoint@@PAVCWnd@@@Z 0043a678 f   mfc100ud:mfc100ud.dll
 0002:0001e67e       ?OnAppContextHelp@CWinAppEx@@UAEXPAVCWnd@@QBK@Z 0043a67e f   mfc100ud:mfc100ud.dll
 0002:0001e684       ?OnClosingMainFrame@CWinAppEx@@MAEXPAVCFrameImpl@@@Z 0043a684 f   mfc100ud:mfc100ud.dll
 0002:0001e68a       ?LoadWindowPlacement@CWinAppEx@@MAEHAAVCRect@@AAH1@Z 0043a68a f   mfc100ud:mfc100ud.dll
 0002:0001e690       ?StoreWindowPlacement@CWinAppEx@@MAEHABVCRect@@HH@Z 0043a690 f   mfc100ud:mfc100ud.dll
 0002:0001e696       ?ReloadWindowPlacement@CWinAppEx@@MAEHPAVCFrameWnd@@@Z 0043a696 f   mfc100ud:mfc100ud.dll
 0002:0001e69c       ??1CWinAppEx@@UAE@XZ       0043a69c f   mfc100ud:mfc100ud.dll
 0002:0001e6a2       ?DoModal@CDialog@@UAEHXZ   0043a6a2 f   mfc100ud:mfc100ud.dll
 0002:0001e6a8       ?SetRegistryKey@CWinApp@@IAEXPB_W@Z 0043a6a8 f   mfc100ud:mfc100ud.dll
 0002:0001e6ae       ?AfxEnableControlContainer@@YAXPAVCOccManager@@@Z 0043a6ae f   mfc100ud:mfc100ud.dll
 0002:0001e6b4       ?InitInstance@CWinApp@@UAEHXZ 0043a6b4 f   mfc100ud:mfc100ud.dll
 0002:0001e6ba       ??1CDialog@@UAE@XZ         0043a6ba f   mfc100ud:mfc100ud.dll
 0002:0001e6c0       ??1CSliderCtrl@@UAE@XZ     0043a6c0 f   mfc100ud:mfc100ud.dll
 0002:0001e6c6       ??1CEdit@@UAE@XZ           0043a6c6 f   mfc100ud:mfc100ud.dll
 0002:0001e6cc       ??1CStatic@@UAE@XZ         0043a6cc f   mfc100ud:mfc100ud.dll
 0002:0001e6d2       ?OnActivate@CWnd@@IAEXIPAV1@H@Z 0043a6d2 f   mfc100ud:mfc100ud.dll
 0002:0001e6d8       ?GetThisMessageMap@CDialog@@KGPBUAFX_MSGMAP@@XZ 0043a6d8 f   mfc100ud:mfc100ud.dll
 0002:0001e6de       ??0CDialog@@QAE@IPAVCWnd@@@Z 0043a6de f   mfc100ud:mfc100ud.dll
 0002:0001e6e4       ?GetRuntimeClass@CDialog@@UBEPAUCRuntimeClass@@XZ 0043a6e4 f   mfc100ud:mfc100ud.dll
 0002:0001e6ea       ?AssertValid@CDialog@@UBEXXZ 0043a6ea f   mfc100ud:mfc100ud.dll
 0002:0001e6f0       ?Dump@CDialog@@UBEXAAVCDumpContext@@@Z 0043a6f0 f   mfc100ud:mfc100ud.dll
 0002:0001e6f6       ?OnCmdMsg@CDialog@@UAEHIHPAXPAUAFX_CMDHANDLERINFO@@@Z 0043a6f6 f   mfc100ud:mfc100ud.dll
 0002:0001e6fc       ?OnFinalRelease@CWnd@@UAEXXZ 0043a6fc f   mfc100ud:mfc100ud.dll
 0002:0001e702       ?GetInterfaceMap@CWnd@@MBEPBUAFX_INTERFACEMAP@@XZ 0043a702 f   mfc100ud:mfc100ud.dll
 0002:0001e708       ?PreSubclassWindow@CWnd@@UAEXXZ 0043a708 f   mfc100ud:mfc100ud.dll
 0002:0001e70e       ?Create@CWnd@@UAEHPB_W0KABUtagRECT@@PAV1@IPAUCCreateContext@@@Z 0043a70e f   mfc100ud:mfc100ud.dll
 0002:0001e714       ?CreateEx@CWnd@@UAEHKPB_W0KABUtagRECT@@PAV1@IPAX@Z 0043a714 f   mfc100ud:mfc100ud.dll
 0002:0001e71a       ?CreateEx@CWnd@@UAEHKPB_W0KHHHHPAUHWND__@@PAUHMENU__@@PAX@Z 0043a71a f   mfc100ud:mfc100ud.dll
 0002:0001e720       ?DestroyWindow@CWnd@@UAEHXZ 0043a720 f   mfc100ud:mfc100ud.dll
 0002:0001e726       ?PreCreateWindow@CWnd@@UAEHAAUtagCREATESTRUCTW@@@Z 0043a726 f   mfc100ud:mfc100ud.dll
 0002:0001e72c       ?CalcWindowRect@CWnd@@UAEXPAUtagRECT@@I@Z 0043a72c f   mfc100ud:mfc100ud.dll
 0002:0001e732       ?GetMenu@CWnd@@UBEPAVCMenu@@XZ 0043a732 f   mfc100ud:mfc100ud.dll
 0002:0001e738       ?SetMenu@CWnd@@UAEHPAVCMenu@@@Z 0043a738 f   mfc100ud:mfc100ud.dll
 0002:0001e73e       ?OnToolHitTest@CWnd@@UBEHVCPoint@@PAUtagTOOLINFOW@@@Z 0043a73e f   mfc100ud:mfc100ud.dll
 0002:0001e744       ?GetScrollBarCtrl@CWnd@@UBEPAVCScrollBar@@H@Z 0043a744 f   mfc100ud:mfc100ud.dll
 0002:0001e74a       ?WinHelpW@CWnd@@UAEXKI@Z   0043a74a f   mfc100ud:mfc100ud.dll
 0002:0001e750       ?HtmlHelpW@CWnd@@UAEXKI@Z  0043a750 f   mfc100ud:mfc100ud.dll
 0002:0001e756       ?WinHelpInternal@CWnd@@UAEXKI@Z 0043a756 f   mfc100ud:mfc100ud.dll
 0002:0001e75c       ?ContinueModal@CWnd@@UAEHXZ 0043a75c f   mfc100ud:mfc100ud.dll
 0002:0001e762       ?EndModalLoop@CWnd@@UAEXH@Z 0043a762 f   mfc100ud:mfc100ud.dll
 0002:0001e768       ?OnDrawIconicThumbnailOrLivePreview@CWnd@@UAEXAAVCDC@@VCRect@@VCSize@@HAAH@Z 0043a768 f   mfc100ud:mfc100ud.dll
 0002:0001e76e       ?EnsureStdObj@CWnd@@UAEJXZ 0043a76e f   mfc100ud:mfc100ud.dll
 0002:0001e774       ?get_accParent@CWnd@@UAEJPAPAUIDispatch@@@Z 0043a774 f   mfc100ud:mfc100ud.dll
 0002:0001e77a       ?get_accChildCount@CWnd@@UAEJPAJ@Z 0043a77a f   mfc100ud:mfc100ud.dll
 0002:0001e780       ?get_accChild@CWnd@@UAEJUtagVARIANT@@PAPAUIDispatch@@@Z 0043a780 f   mfc100ud:mfc100ud.dll
 0002:0001e786       ?get_accName@CWnd@@UAEJUtagVARIANT@@PAPA_W@Z 0043a786 f   mfc100ud:mfc100ud.dll
 0002:0001e78c       ?get_accValue@CWnd@@UAEJUtagVARIANT@@PAPA_W@Z 0043a78c f   mfc100ud:mfc100ud.dll
 0002:0001e792       ?get_accDescription@CWnd@@UAEJUtagVARIANT@@PAPA_W@Z 0043a792 f   mfc100ud:mfc100ud.dll
 0002:0001e798       ?get_accRole@CWnd@@UAEJUtagVARIANT@@PAU2@@Z 0043a798 f   mfc100ud:mfc100ud.dll
 0002:0001e79e       ?get_accState@CWnd@@UAEJUtagVARIANT@@PAU2@@Z 0043a79e f   mfc100ud:mfc100ud.dll
 0002:0001e7a4       ?get_accHelp@CWnd@@UAEJUtagVARIANT@@PAPA_W@Z 0043a7a4 f   mfc100ud:mfc100ud.dll
 0002:0001e7aa       ?get_accHelpTopic@CWnd@@UAEJPAPA_WUtagVARIANT@@PAJ@Z 0043a7aa f   mfc100ud:mfc100ud.dll
 0002:0001e7b0       ?get_accKeyboardShortcut@CWnd@@UAEJUtagVARIANT@@PAPA_W@Z 0043a7b0 f   mfc100ud:mfc100ud.dll
 0002:0001e7b6       ?get_accFocus@CWnd@@UAEJPAUtagVARIANT@@@Z 0043a7b6 f   mfc100ud:mfc100ud.dll
 0002:0001e7bc       ?get_accSelection@CWnd@@UAEJPAUtagVARIANT@@@Z 0043a7bc f   mfc100ud:mfc100ud.dll
 0002:0001e7c2       ?get_accDefaultAction@CWnd@@UAEJUtagVARIANT@@PAPA_W@Z 0043a7c2 f   mfc100ud:mfc100ud.dll
 0002:0001e7c8       ?accSelect@CWnd@@UAEJJUtagVARIANT@@@Z 0043a7c8 f   mfc100ud:mfc100ud.dll
 0002:0001e7ce       ?accLocation@CWnd@@UAEJPAJ000UtagVARIANT@@@Z 0043a7ce f   mfc100ud:mfc100ud.dll
 0002:0001e7d4       ?accNavigate@CWnd@@UAEJJUtagVARIANT@@PAU2@@Z 0043a7d4 f   mfc100ud:mfc100ud.dll
 0002:0001e7da       ?accHitTest@CWnd@@UAEJJJPAUtagVARIANT@@@Z 0043a7da f   mfc100ud:mfc100ud.dll
 0002:0001e7e0       ?accDoDefaultAction@CWnd@@UAEJUtagVARIANT@@@Z 0043a7e0 f   mfc100ud:mfc100ud.dll
 0002:0001e7e6       ?put_accName@CWnd@@UAEJUtagVARIANT@@PA_W@Z 0043a7e6 f   mfc100ud:mfc100ud.dll
 0002:0001e7ec       ?put_accValue@CWnd@@UAEJUtagVARIANT@@PA_W@Z 0043a7ec f   mfc100ud:mfc100ud.dll
 0002:0001e7f2       ?SetProxy@CWnd@@UAEJPAUIAccessibleProxy@@@Z 0043a7f2 f   mfc100ud:mfc100ud.dll
 0002:0001e7f8       ?CreateAccessibleProxy@CWnd@@UAEJIJPAJ@Z 0043a7f8 f   mfc100ud:mfc100ud.dll
 0002:0001e7fe       ?OnCommand@CWnd@@MAEHIJ@Z  0043a7fe f   mfc100ud:mfc100ud.dll
 0002:0001e804       ?OnNotify@CWnd@@MAEHIJPAJ@Z 0043a804 f   mfc100ud:mfc100ud.dll
 0002:0001e80a       ?GetSuperWndProcAddr@CWnd@@MAEPAP6GJPAUHWND__@@IIJ@ZXZ 0043a80a f   mfc100ud:mfc100ud.dll
 0002:0001e810       ?BeginModalState@CWnd@@UAEXXZ 0043a810 f   mfc100ud:mfc100ud.dll
 0002:0001e816       ?EndModalState@CWnd@@UAEXXZ 0043a816 f   mfc100ud:mfc100ud.dll
 0002:0001e81c       ?PreTranslateMessage@CDialog@@UAEHPAUtagMSG@@@Z 0043a81c f   mfc100ud:mfc100ud.dll
 0002:0001e822       ?OnAmbientProperty@CWnd@@UAEHPAVCOleControlSite@@JPAUtagVARIANT@@@Z 0043a822 f   mfc100ud:mfc100ud.dll
 0002:0001e828       ?WindowProc@CWnd@@MAEJIIJ@Z 0043a828 f   mfc100ud:mfc100ud.dll
 0002:0001e82e       ?OnWndMsg@CWnd@@MAEHIIJPAJ@Z 0043a82e f   mfc100ud:mfc100ud.dll
 0002:0001e834       ?DefWindowProcW@CWnd@@MAEJIIJ@Z 0043a834 f   mfc100ud:mfc100ud.dll
 0002:0001e83a       ?PostNcDestroy@CWnd@@MAEXXZ 0043a83a f   mfc100ud:mfc100ud.dll
 0002:0001e840       ?OnChildNotify@CWnd@@MAEHIIJPAJ@Z 0043a840 f   mfc100ud:mfc100ud.dll
 0002:0001e846       ?OnTouchInputs@CWnd@@MAEHIPAUtagTOUCHINPUT@@@Z 0043a846 f   mfc100ud:mfc100ud.dll
 0002:0001e84c       ?OnTouchInput@CWnd@@MAEHVCPoint@@HHPAUtagTOUCHINPUT@@@Z 0043a84c f   mfc100ud:mfc100ud.dll
 0002:0001e852       ?GetGestureStatus@CWnd@@MAEKVCPoint@@@Z 0043a852 f   mfc100ud:mfc100ud.dll
 0002:0001e858       ?OnGestureZoom@CWnd@@MAEHVCPoint@@J@Z 0043a858 f   mfc100ud:mfc100ud.dll
 0002:0001e85e       ?OnGesturePan@CWnd@@MAEHVCPoint@@0@Z 0043a85e f   mfc100ud:mfc100ud.dll
 0002:0001e864       ?OnGestureRotate@CWnd@@MAEHVCPoint@@N@Z 0043a864 f   mfc100ud:mfc100ud.dll
 0002:0001e86a       ?OnGestureTwoFingerTap@CWnd@@MAEHVCPoint@@@Z 0043a86a f   mfc100ud:mfc100ud.dll
 0002:0001e870       ?OnGesturePressAndTap@CWnd@@MAEHVCPoint@@J@Z 0043a870 f   mfc100ud:mfc100ud.dll
 0002:0001e876       ?CheckAutoCenter@CDialog@@UAEHXZ 0043a876 f   mfc100ud:mfc100ud.dll
 0002:0001e87c       ?IsFrameWnd@CWnd@@UBEHXZ   0043a87c f   mfc100ud:mfc100ud.dll
 0002:0001e882       ?CreateControlContainer@CWnd@@MAEHPAPAVCOleControlContainer@@@Z 0043a882 f   mfc100ud:mfc100ud.dll
 0002:0001e888       ?CreateControlSite@CWnd@@MAEHPAVCOleControlContainer@@PAPAVCOleControlSite@@IABU_GUID@@@Z 0043a888 f   mfc100ud:mfc100ud.dll
 0002:0001e88e       ?SetOccDialogInfo@CDialog@@MAEHPAU_AFX_OCC_DIALOG_INFO@@@Z 0043a88e f   mfc100ud:mfc100ud.dll
 0002:0001e894       ?GetOccDialogInfo@CDialog@@MAEPAU_AFX_OCC_DIALOG_INFO@@XZ 0043a894 f   mfc100ud:mfc100ud.dll
 0002:0001e89a       ?Create@CDialog@@UAEHIPAVCWnd@@@Z 0043a89a f   mfc100ud:mfc100ud.dll
 0002:0001e8a0       ?Create@CDialog@@UAEHPB_WPAVCWnd@@@Z 0043a8a0 f   mfc100ud:mfc100ud.dll
 0002:0001e8a6       ?CreateIndirect@CDialog@@UAEHPAXPAVCWnd@@@Z 0043a8a6 f   mfc100ud:mfc100ud.dll
 0002:0001e8ac       ?CreateIndirect@CDialog@@UAEHPBUDLGTEMPLATE@@PAVCWnd@@PAX@Z 0043a8ac f   mfc100ud:mfc100ud.dll
 0002:0001e8b2       ?OnInitDialog@CDialog@@UAEHXZ 0043a8b2 f   mfc100ud:mfc100ud.dll
 0002:0001e8b8       ?OnSetFont@CDialog@@UAEXPAVCFont@@@Z 0043a8b8 f   mfc100ud:mfc100ud.dll
 0002:0001e8be       ?OnOK@CDialog@@MAEXXZ      0043a8be f   mfc100ud:mfc100ud.dll
 0002:0001e8c4       ?OnCancel@CDialog@@MAEXXZ  0043a8c4 f   mfc100ud:mfc100ud.dll
 0002:0001e8ca       ?PreInitDialog@CDialog@@MAEXXZ 0043a8ca f   mfc100ud:mfc100ud.dll
 0002:0001e8d0       ?DoDataExchange@CWnd@@MAEXPAVCDataExchange@@@Z 0043a8d0 f   mfc100ud:mfc100ud.dll
 0002:0001e8d6       ?LoadIconW@CWinApp@@QBEPAUHICON__@@I@Z 0043a8d6 f   mfc100ud:mfc100ud.dll
 0002:0001e8dc       ?AfxGetApp@@YGPAVCWinApp@@XZ 0043a8dc f   mfc100ud:mfc100ud.dll
 0002:0001e8e2       ??0CStatic@@QAE@XZ         0043a8e2 f   mfc100ud:mfc100ud.dll
 0002:0001e8e8       ??0CEdit@@QAE@XZ           0043a8e8 f   mfc100ud:mfc100ud.dll
 0002:0001e8ee       ??0CSliderCtrl@@QAE@XZ     0043a8ee f   mfc100ud:mfc100ud.dll
 0002:0001e8f4       ?DDX_Text@@YGXPAVCDataExchange@@HAAI@Z 0043a8f4 f   mfc100ud:mfc100ud.dll
 0002:0001e8fa       ?DDV_MinMaxUInt@@YGXPAVCDataExchange@@III@Z 0043a8fa f   mfc100ud:mfc100ud.dll
 0002:0001e900       ?DDX_Text@@YGXPAVCDataExchange@@HAAK@Z 0043a900 f   mfc100ud:mfc100ud.dll
 0002:0001e906       ?DDX_Check@@YGXPAVCDataExchange@@HAAH@Z 0043a906 f   mfc100ud:mfc100ud.dll
 0002:0001e90c       ?DDX_Control@@YGXPAVCDataExchange@@HAAVCWnd@@@Z 0043a90c f   mfc100ud:mfc100ud.dll
 0002:0001e912       ?DDX_Text@@YGXPAVCDataExchange@@HAAV?$CStringT@_WV?$StrTraitMFC_DLL@_WV?$ChTraitsCRT@_W@ATL@@@@@ATL@@@Z 0043a912 f   mfc100ud:mfc100ud.dll
 0002:0001e918       ?DDX_Radio@@YGXPAVCDataExchange@@HAAH@Z 0043a918 f   mfc100ud:mfc100ud.dll
 0002:0001e91e       ??1CFileFind@@UAE@XZ       0043a91e f   mfc100ud:mfc100ud.dll
 0002:0001e924       ?EnableWindow@CWnd@@QAEHH@Z 0043a924 f   mfc100ud:mfc100ud.dll
 0002:0001e92a       ?SetDlgItemTextW@CWnd@@QAEXHPB_W@Z 0043a92a f   mfc100ud:mfc100ud.dll
 0002:0001e930       ?GetDlgItem@CWnd@@QBEPAV1@H@Z 0043a930 f   mfc100ud:mfc100ud.dll
 0002:0001e936       ?GetWindowRect@CWnd@@QBEXPAUtagRECT@@@Z 0043a936 f   mfc100ud:mfc100ud.dll
 0002:0001e93c       ??1CStdioFile@@UAE@XZ      0043a93c f   mfc100ud:mfc100ud.dll
 0002:0001e942       ?Close@CStdioFile@@UAEXXZ  0043a942 f   mfc100ud:mfc100ud.dll
 0002:0001e948       ??4?$CStringT@_WV?$StrTraitMFC_DLL@_WV?$ChTraitsCRT@_W@ATL@@@@@ATL@@QAEAAV01@PB_W@Z 0043a948 f   mfc100ud:mfc100ud.dll
 0002:0001e94e       ??0?$CStringT@_WV?$StrTraitMFC_DLL@_WV?$ChTraitsCRT@_W@ATL@@@@@ATL@@QAE@ABV01@@Z 0043a94e f   mfc100ud:mfc100ud.dll
 0002:0001e954       ?GetPosition@CStdioFile@@UBE_KXZ 0043a954 f   mfc100ud:mfc100ud.dll
 0002:0001e95a       ?ReadString@CStdioFile@@UAEHAAV?$CStringT@_WV?$StrTraitMFC_DLL@_WV?$ChTraitsCRT@_W@ATL@@@@@ATL@@@Z 0043a95a f   mfc100ud:mfc100ud.dll
 0002:0001e960       ?GetLength@CStdioFile@@UBE_KXZ 0043a960 f   mfc100ud:mfc100ud.dll
 0002:0001e966       ?Open@CStdioFile@@UAEHPB_WIPAVCFileException@@@Z 0043a966 f   mfc100ud:mfc100ud.dll
 0002:0001e96c       ??0CStdioFile@@QAE@XZ      0043a96c f   mfc100ud:mfc100ud.dll
 0002:0001e972       ?FindFile@CFileFind@@UAEHPB_WK@Z 0043a972 f   mfc100ud:mfc100ud.dll
 0002:0001e978       ??0CFileFind@@QAE@XZ       0043a978 f   mfc100ud:mfc100ud.dll
 0002:0001e97e       ??Y?$CStringT@_WV?$StrTraitMFC_DLL@_WV?$ChTraitsCRT@_W@ATL@@@@@ATL@@QAEAAV01@PB_W@Z 0043a97e f   mfc100ud:mfc100ud.dll
 0002:0001e984       ??4?$CStringT@_WV?$StrTraitMFC_DLL@_WV?$ChTraitsCRT@_W@ATL@@@@@ATL@@QAEAAV01@ABV01@@Z 0043a984 f   mfc100ud:mfc100ud.dll
 0002:0001e98a       ?Left@?$CStringT@_WV?$StrTraitMFC_DLL@_WV?$ChTraitsCRT@_W@ATL@@@@@ATL@@QBE?AV12@H@Z 0043a98a f   mfc100ud:mfc100ud.dll
 0002:0001e990       ?ReverseFind@?$CStringT@_WV?$StrTraitMFC_DLL@_WV?$ChTraitsCRT@_W@ATL@@@@@ATL@@QBEH_W@Z 0043a990 f   mfc100ud:mfc100ud.dll
 0002:0001e996       ?ReleaseBuffer@?$CSimpleStringT@_W$00@ATL@@QAEXH@Z 0043a996 f   mfc100ud:mfc100ud.dll
 0002:0001e99c       ?GetBufferSetLength@?$CSimpleStringT@_W$00@ATL@@QAEPA_WH@Z 0043a99c f   mfc100ud:mfc100ud.dll
 0002:0001e9a2       ?SetTimer@CWnd@@QAEIIIP6GXPAUHWND__@@IIK@Z@Z 0043a9a2 f   mfc100ud:mfc100ud.dll
 0002:0001e9a8       ?SetPos@CSliderCtrl@@QAEXH@Z 0043a9a8 f   mfc100ud:mfc100ud.dll
 0002:0001e9ae       ?SetRangeMin@CSliderCtrl@@QAEXHH@Z 0043a9ae f   mfc100ud:mfc100ud.dll
 0002:0001e9b4       ?SetRangeMax@CSliderCtrl@@QAEXHH@Z 0043a9b4 f   mfc100ud:mfc100ud.dll
 0002:0001e9ba       ?SetIcon@CWnd@@QAEPAUHICON__@@PAU2@H@Z 0043a9ba f   mfc100ud:mfc100ud.dll
 0002:0001e9c0       ??B?$CSimpleStringT@_W$00@ATL@@QBEPB_WXZ 0043a9c0 f   mfc100ud:mfc100ud.dll
 0002:0001e9c6       ?AppendMenuW@CMenu@@QAEHIIPB_W@Z 0043a9c6 f   mfc100ud:mfc100ud.dll
 0002:0001e9cc       ?IsEmpty@?$CSimpleStringT@_W$00@ATL@@QBE_NXZ 0043a9cc f   mfc100ud:mfc100ud.dll
 0002:0001e9d2       ?LoadStringW@?$CStringT@_WV?$StrTraitMFC_DLL@_WV?$ChTraitsCRT@_W@ATL@@@@@ATL@@QAEHI@Z 0043a9d2 f   mfc100ud:mfc100ud.dll
 0002:0001e9d8       ??0?$CStringT@_WV?$StrTraitMFC_DLL@_WV?$ChTraitsCRT@_W@ATL@@@@@ATL@@QAE@XZ 0043a9d8 f   mfc100ud:mfc100ud.dll
 0002:0001e9de       ?GetSystemMenu@CWnd@@QBEPAVCMenu@@H@Z 0043a9de f   mfc100ud:mfc100ud.dll
 0002:0001e9e4       ?OnSysCommand@CWnd@@IAEXIJ@Z 0043a9e4 f   mfc100ud:mfc100ud.dll
 0002:0001e9ea       ?OnPaint@CDialog@@IAEXXZ   0043a9ea f   mfc100ud:mfc100ud.dll
 0002:0001e9f0       ??1CPaintDC@@UAE@XZ        0043a9f0 f   mfc100ud:mfc100ud.dll
 0002:0001e9f6       ?DrawIcon@CDC@@QAEHHHPAUHICON__@@@Z 0043a9f6 f   mfc100ud:mfc100ud.dll
 0002:0001e9fc       ?GetClientRect@CWnd@@QBEXPAUtagRECT@@@Z 0043a9fc f   mfc100ud:mfc100ud.dll
 0002:0001ea02       ?SendMessageW@CWnd@@QBEJIIJ@Z 0043aa02 f   mfc100ud:mfc100ud.dll
 0002:0001ea08       ?GetSafeHdc@CDC@@QBEPAUHDC__@@XZ 0043aa08 f   mfc100ud:mfc100ud.dll
 0002:0001ea0e       ??0CPaintDC@@QAE@PAVCWnd@@@Z 0043aa0e f   mfc100ud:mfc100ud.dll
 0002:0001ea14       ?IsIconic@CWnd@@QBEHXZ     0043aa14 f   mfc100ud:mfc100ud.dll
 0002:0001ea1a       ?UpdateData@CWnd@@QAEHH@Z  0043aa1a f   mfc100ud:mfc100ud.dll
 0002:0001ea20       ?GetFocus@CWnd@@SGPAV1@XZ  0043aa20 f   mfc100ud:mfc100ud.dll
 0002:0001ea26       ?Right@?$CStringT@_WV?$StrTraitMFC_DLL@_WV?$ChTraitsCRT@_W@ATL@@@@@ATL@@QBE?AV12@H@Z 0043aa26 f   mfc100ud:mfc100ud.dll
 0002:0001ea2c       ?GetLength@?$CSimpleStringT@_W$00@ATL@@QBEHXZ 0043aa2c f   mfc100ud:mfc100ud.dll
 0002:0001ea32       ?Find@?$CStringT@_WV?$StrTraitMFC_DLL@_WV?$ChTraitsCRT@_W@ATL@@@@@ATL@@QBEHPB_WH@Z 0043aa32 f   mfc100ud:mfc100ud.dll
 0002:0001ea38       ?GetAt@?$CSimpleStringT@_W$00@ATL@@QBE_WH@Z 0043aa38 f   mfc100ud:mfc100ud.dll
 0002:0001ea3e       ??Y?$CStringT@_WV?$StrTraitMFC_DLL@_WV?$ChTraitsCRT@_W@ATL@@@@@ATL@@QAEAAV01@PBD@Z 0043aa3e f   mfc100ud:mfc100ud.dll
 0002:0001ea44       ?Replace@?$CStringT@_WV?$StrTraitMFC_DLL@_WV?$ChTraitsCRT@_W@ATL@@@@@ATL@@QAEHPB_W0@Z 0043aa44 f   mfc100ud:mfc100ud.dll
 0002:0001ea4a       ?GetSize@CStringArray@@QBEHXZ 0043aa4a f   mfc100ud:mfc100ud.dll
 0002:0001ea50       ?Add@CStringArray@@QAEHABV?$CStringT@_WV?$StrTraitMFC_DLL@_WV?$ChTraitsCRT@_W@ATL@@@@@ATL@@@Z 0043aa50 f   mfc100ud:mfc100ud.dll
 0002:0001ea56       ?Find@?$CStringT@_WV?$StrTraitMFC_DLL@_WV?$ChTraitsCRT@_W@ATL@@@@@ATL@@QBEH_WH@Z 0043aa56 f   mfc100ud:mfc100ud.dll
 0002:0001ea5c       ?RemoveAll@CStringArray@@QAEXXZ 0043aa5c f   mfc100ud:mfc100ud.dll
 0002:0001ea62       ?GetCount@CStringArray@@QBEHXZ 0043aa62 f   mfc100ud:mfc100ud.dll
 0002:0001ea68       ??ACStringArray@@QAEAAV?$CStringT@_WV?$StrTraitMFC_DLL@_WV?$ChTraitsCRT@_W@ATL@@@@@ATL@@H@Z 0043aa68 f   mfc100ud:mfc100ud.dll
 0002:0001ea6e       ??1CStringArray@@UAE@XZ    0043aa6e f   mfc100ud:mfc100ud.dll
 0002:0001ea74       ??0CStringArray@@QAE@XZ    0043aa74 f   mfc100ud:mfc100ud.dll
 0002:0001ea7a       ?Mid@?$CStringT@_WV?$StrTraitMFC_DLL@_WV?$ChTraitsCRT@_W@ATL@@@@@ATL@@QBE?AV12@HH@Z 0043aa7a f   mfc100ud:mfc100ud.dll
 0002:0001ea80       ??1CFile@@UAE@XZ           0043aa80 f   mfc100ud:mfc100ud.dll
 0002:0001ea86       ?Close@CFile@@UAEXXZ       0043aa86 f   mfc100ud:mfc100ud.dll
 0002:0001ea8c       ?Write@CFile@@UAEXPBXI@Z   0043aa8c f   mfc100ud:mfc100ud.dll
 0002:0001ea92       ?SeekToEnd@CFile@@QAE_KXZ  0043aa92 f   mfc100ud:mfc100ud.dll
 0002:0001ea98       ?Open@CFile@@UAEHPB_WIPAVCFileException@@@Z 0043aa98 f   mfc100ud:mfc100ud.dll
 0002:0001ea9e       ??0CFile@@QAE@XZ           0043aa9e f   mfc100ud:mfc100ud.dll
 0002:0001eaa4       ?GetWindowTextW@CWnd@@QBEXAAV?$CStringT@_WV?$StrTraitMFC_DLL@_WV?$ChTraitsCRT@_W@ATL@@@@@ATL@@@Z 0043aaa4 f   mfc100ud:mfc100ud.dll
 0002:0001eaaa       ?IsDlgButtonChecked@CWnd@@QBEIH@Z 0043aaaa f   mfc100ud:mfc100ud.dll
 0002:0001eab0       ?GetPos@CSliderCtrl@@QBEHXZ 0043aab0 f   mfc100ud:mfc100ud.dll
 0002:0001eab6       ?ReplaceSel@CEdit@@QAEXPB_WH@Z 0043aab6 f   mfc100ud:mfc100ud.dll
 0002:0001eabc       ?SetSel@CEdit@@QAEXHHH@Z   0043aabc f   mfc100ud:mfc100ud.dll
 0002:0001eac2       ?GetLineCount@CEdit@@QBEHXZ 0043aac2 f   mfc100ud:mfc100ud.dll
 0002:0001eac8       ?WriteString@CStdioFile@@UAEXPB_W@Z 0043aac8 f   mfc100ud:mfc100ud.dll
 0002:0001eace       ?Write@CStdioFile@@UAEXPBXI@Z 0043aace f   mfc100ud:mfc100ud.dll
 0002:0001ead4       ?Close@CFileFind@@QAEXXZ   0043aad4 f   mfc100ud:mfc100ud.dll
 0002:0001eada       ?DeleteObject@CGdiObject@@QAEHXZ 0043aada f   mfc100ud:mfc100ud.dll
 0002:0001eae0       ?TextOutW@CDC@@QAEHHHABV?$CStringT@_WV?$StrTraitMFC_DLL@_WV?$ChTraitsCRT@_W@ATL@@@@@ATL@@@Z 0043aae0 f   mfc100ud:mfc100ud.dll
 0002:0001eae6       ?FillSolidRect@CDC@@QAEXPBUtagRECT@@K@Z 0043aae6 f   mfc100ud:mfc100ud.dll
 0002:0001eaec       ?SetBkMode@CDC@@QAEHH@Z    0043aaec f   mfc100ud:mfc100ud.dll
 0002:0001eaf2       ??1CFont@@UAE@XZ           0043aaf2 f   mfc100ud:mfc100ud.dll
 0002:0001eaf8       ??1CClientDC@@UAE@XZ       0043aaf8 f   mfc100ud:mfc100ud.dll
 0002:0001eafe       ?ReleaseDC@CWnd@@QAEHPAVCDC@@@Z 0043aafe f   mfc100ud:mfc100ud.dll
 0002:0001eb04       ?CreateFontW@CFont@@QAEHHHHHHEEEEEEEEPB_W@Z 0043ab04 f   mfc100ud:mfc100ud.dll
 0002:0001eb0a       ?GetDC@CWnd@@QAEPAVCDC@@XZ 0043ab0a f   mfc100ud:mfc100ud.dll
 0002:0001eb10       ??0CClientDC@@QAE@PAVCWnd@@@Z 0043ab10 f   mfc100ud:mfc100ud.dll
 0002:0001eb16       ??0CFont@@QAE@XZ           0043ab16 f   mfc100ud:mfc100ud.dll
 0002:0001eb1c       ?AfxThrowOleException@@YGXJ@Z 0043ab1c f   mfc100ud:mfc100ud.dll
 0002:0001eb22       ?AfxThrowMemoryException@@YGXXZ 0043ab22 f   mfc100ud:mfc100ud.dll
 0002:0001eb28       ?OnTimer@CWnd@@IAEXI@Z     0043ab28 f   mfc100ud:mfc100ud.dll
 0002:0001eb2e       ?KillTimer@CWnd@@QAEHI@Z   0043ab2e f   mfc100ud:mfc100ud.dll
 0002:0001eb34       ?MessageBoxW@CWnd@@QAEHPB_W0I@Z 0043ab34 f   mfc100ud:mfc100ud.dll
 0002:0001eb3a       ?AppendChar@?$CSimpleStringT@_W$00@ATL@@QAEX_W@Z 0043ab3a f   mfc100ud:mfc100ud.dll
 0002:0001eb40       ??A?$CSimpleStringT@_W$00@ATL@@QBE_WH@Z 0043ab40 f   mfc100ud:mfc100ud.dll
 0002:0001eb46       ?SetWindowTextW@CWnd@@QAEXPB_W@Z 0043ab46 f   mfc100ud:mfc100ud.dll
 0002:0001eb4c       ?Concatenate@?$CSimpleStringT@_W$00@ATL@@KAXAAV12@PB_WH1H@Z 0043ab4c f   mfc100ud:mfc100ud.dll
 0002:0001eb52       ??0?$CStringT@_WV?$StrTraitMFC_DLL@_WV?$ChTraitsCRT@_W@ATL@@@@@ATL@@QAE@PAUIAtlStringMgr@1@@Z 0043ab52 f   mfc100ud:mfc100ud.dll
 0002:0001eb58       ?GetManager@?$CStringT@_WV?$StrTraitMFC_DLL@_WV?$ChTraitsCRT@_W@ATL@@@@@ATL@@QBEPAUIAtlStringMgr@2@XZ 0043ab58 f   mfc100ud:mfc100ud.dll
 0002:0001eb5e       ?StringLength@?$CSimpleStringT@_W$00@ATL@@SAHPB_W@Z 0043ab5e f   mfc100ud:mfc100ud.dll
 0002:0001eb64       ?Compare@?$CStringT@_WV?$StrTraitMFC_DLL@_WV?$ChTraitsCRT@_W@ATL@@@@@ATL@@QBEHPB_W@Z 0043ab64 f   mfc100ud:mfc100ud.dll
 0002:0001eb6a       ?AfxIsValidString@@YGHPB_WH@Z 0043ab6a f   mfc100ud:mfc100ud.dll
 0002:0001eb70       ?GetBuffer@?$CSimpleStringT@_W$00@ATL@@QAEPA_WH@Z 0043ab70 f   mfc100ud:mfc100ud.dll
 0002:0001eb76       ??0CException@@QAE@XZ      0043ab76 f   mfc100ud:mfc100ud.dll
 0002:0001eb7c       ?AssertValid@CObject@@UBEXXZ 0043ab7c f   mfc100ud:mfc100ud.dll
 0002:0001eb82       ?GetErrorMessage@CException@@UBEHPA_WIPAI@Z 0043ab82 f   mfc100ud:mfc100ud.dll
 0002:0001eb88       ?ReportError@CException@@UAEHII@Z 0043ab88 f   mfc100ud:mfc100ud.dll
 0002:0001eb8e       ??3CException@@SGXPAX@Z    0043ab8e f   mfc100ud:mfc100ud.dll
 0002:0001eb94       ??1CException@@UAE@XZ      0043ab94 f   mfc100ud:mfc100ud.dll
 0002:0001eb9a       ?GetThisClass@CException@@SGPAUCRuntimeClass@@XZ 0043ab9a f   mfc100ud:mfc100ud.dll
 0002:0001eba0       ??6CDumpContext@@QAEAAV0@K@Z 0043aba0 f   mfc100ud:mfc100ud.dll
 0002:0001eba6       ??6CDumpContext@@QAEAAV0@PBD@Z 0043aba6 f   mfc100ud:mfc100ud.dll
 0002:0001ebac       ?Dump@CObject@@UBEXAAVCDumpContext@@@Z 0043abac f   mfc100ud:mfc100ud.dll
 0002:0001ebb2       ??0CObject@@IAE@XZ         0043abb2 f   mfc100ud:mfc100ud.dll
 0002:0001ebb8       ??1CObject@@UAE@XZ         0043abb8 f   mfc100ud:mfc100ud.dll
 0002:0001ebbe       ?GetThisClass@CObject@@SGPAUCRuntimeClass@@XZ 0043abbe f   mfc100ud:mfc100ud.dll
 0002:0001ebc4       ??6CDumpContext@@QAEAAV0@H@Z 0043abc4 f   mfc100ud:mfc100ud.dll
 0002:0001ebca       ??6CDumpContext@@QAEAAV0@PBX@Z 0043abca f   mfc100ud:mfc100ud.dll
 0002:0001ebd0       ??6CDumpContext@@QAEAAV0@PB_W@Z 0043abd0 f   mfc100ud:mfc100ud.dll
 0002:0001ebd6       ?IsKindOf@CObject@@QBEHPBUCRuntimeClass@@@Z 0043abd6 f   mfc100ud:mfc100ud.dll
 0002:0001ebdc       ??2@YAPAXIPBDH@Z           0043abdc f   mfc100ud:mfc100ud.dll
 0002:0001ebf0       ??_Estringdispid@CComTypeInfoHolder@ATL@@QAEPAXI@Z 0043abf0 f i mfcs100ud:nolib.obj
 0002:0001ec80       ??1stringdispid@CComTypeInfoHolder@ATL@@QAE@XZ 0043ac80 f i mfcs100ud:nolib.obj
 0002:0001eca0       ??1CComBSTR@ATL@@QAE@XZ    0043aca0 f i mfcs100ud:nolib.obj
 0002:0001ede0       _wWinMainCRTStartup        0043ade0 f   msvcrtd:wcrtexew.obj
 0002:0001f190       _NtCurrentTeb              0043b190 f i msvcrtd:wcrtexew.obj
 0002:0001f22a       _memset                    0043b22a f   msvcrtd:MSVCR100D.dll
 0002:0001f230       __RTC_CheckEsp             0043b230 f   msvcrtd:_stack_.obj
 0002:0001f260       @_RTC_CheckStackVars@8     0043b260 f   msvcrtd:_stack_.obj
 0002:0001f2e0       @_RTC_AllocaHelper@12      0043b2e0 f   msvcrtd:_stack_.obj
 0002:0001f320       @_RTC_CheckStackVars2@12   0043b320 f   msvcrtd:_stack_.obj
 0002:0001f430       __RTC_InitBase             0043b430 f   msvcrtd:_init_.obj
 0002:0001f470       __RTC_Shutdown             0043b470 f   msvcrtd:_init_.obj
 0002:0001f490       ??0type_info@@AAE@ABV0@@Z  0043b490 f   msvcrtd:ti_inst.obj
 0002:0001f4c0       ??_Etype_info@@UAEPAXI@Z   0043b4c0 f i msvcrtd:ti_inst.obj
 0002:0001f550       ??4type_info@@AAEAAV0@ABV0@@Z 0043b550 f   msvcrtd:ti_inst.obj
 0002:0001f566       ___CxxFrameHandler3        0043b566 f   msvcrtd:MSVCR100D.dll
 0002:0001f570       @__security_check_cookie@4 0043b570 f   msvcrtd:secchk.obj
 0002:0001f590       __onexit                   0043b590 f   msvcrtd:atonexit.obj
 0002:0001f6c0       _atexit                    0043b6c0 f   msvcrtd:atonexit.obj
 0002:0001f6f0       ??_M@YGXPAXIHP6EX0@Z@Z     0043b6f0 f   msvcrtd:ehvecdtr.obj
 0002:0001f7d0       ?__ArrayUnwind@@YGXPAXIHP6EX0@Z@Z 0043b7d0 f   msvcrtd:ehvecdtr.obj
 0002:0001f8ba       __wtoi                     0043b8ba f   msvcrtd:MSVCR100D.dll
 0002:0001f8c0       __ftol2_sse                0043b8c0 f   msvcrtd:ftol2.obj
 0002:0001f8c9       __ftol2_pentium4           0043b8c9 f   msvcrtd:ftol2.obj
 0002:0001f8dc       __ftol2_sse_excpt          0043b8dc f   msvcrtd:ftol2.obj
 0002:0001f8f6       __ftol2                    0043b8f6 f   msvcrtd:ftol2.obj
 0002:0001f9a0       ?_RTC_Failure@@YAXPAXH@Z   0043b9a0 f   msvcrtd:_error_.obj
 0002:0001fe30       ?_RTC_StackFailure@@YAXPAXPBD@Z 0043be30 f   msvcrtd:_error_.obj
 0002:0001ff70       ?_RTC_AllocaFailure@@YAXPAXPAU_RTC_ALLOCA_NODE@@H@Z 0043bf70 f   msvcrtd:_error_.obj
 0002:00020180       __RTC_UninitUse            0043c180 f   msvcrtd:_error_.obj
 0002:000202a4       _memcpy                    0043c2a4 f   msvcrtd:MSVCR100D.dll
 0002:000202aa       _malloc                    0043c2aa f   msvcrtd:MSVCR100D.dll
 0002:000202b0       _wcsftime                  0043c2b0 f   msvcrtd:MSVCR100D.dll
 0002:000202b6       __localtime64_s            0043c2b6 f   msvcrtd:MSVCR100D.dll
 0002:000202bc       _strlen                    0043c2bc f   msvcrtd:MSVCR100D.dll
 0002:000202c2       _rand                      0043c2c2 f   msvcrtd:MSVCR100D.dll
 0002:000202c8       _srand                     0043c2c8 f   msvcrtd:MSVCR100D.dll
 0002:000202ce       __time64                   0043c2ce f   msvcrtd:MSVCR100D.dll
 0002:000202d4       __CxxThrowException@8      0043c2d4 f   msvcrtd:MSVCR100D.dll
 0002:000202da       ??0exception@std@@QAE@ABV01@@Z 0043c2da f   msvcrtd:MSVCR100D.dll
 0002:000202e0       ??0exception@std@@QAE@ABQBD@Z 0043c2e0 f   msvcrtd:MSVCR100D.dll
 0002:000202e6       ?what@exception@std@@UBEPBDXZ 0043c2e6 f   msvcrtd:MSVCR100D.dll
 0002:000202ec       ??1exception@std@@UAE@XZ   0043c2ec f   msvcrtd:MSVCR100D.dll
 0002:00020300       ?__CxxUnhandledExceptionFilter@@YGJPAU_EXCEPTION_POINTERS@@@Z 0043c300 f   msvcrtd:unhandld.obj
 0002:00020380       ___CxxSetUnhandledExceptionFilter 0043c380 f   msvcrtd:unhandld.obj
 0002:0002039a       __configthreadlocale       0043c39a f   msvcrtd:MSVCR100D.dll
 0002:000203a0       __setdefaultprecision      0043c3a0 f   msvcrtd:fp8.obj
 0002:000203f0       __invoke_watson_if_error   0043c3f0 f i msvcrtd:fp8.obj
 0002:00020422       ___setusermatherr          0043c422 f   msvcrtd:MSVCR100D.dll
 0002:00020430       __matherr                  0043c430 f   msvcrtd:merr.obj
 0002:00020440       __wsetargv                 0043c440 f   msvcrtd:wdllargv.obj
 0002:00020450       __RTC_Initialize           0043c450 f   msvcrtd:_initsect_.obj
 0002:00020480       __RTC_Terminate            0043c480 f   msvcrtd:_initsect_.obj
 0002:000204b0       ___set_app_type            0043c4b0 f   msvcrtd:MSVCR100D.dll
 0002:000204b6       __amsg_exit                0043c4b6 f   msvcrtd:MSVCR100D.dll
 0002:000204bc       ___wgetmainargs            0043c4bc f   msvcrtd:MSVCR100D.dll
 0002:000204d0       ___security_init_cookie    0043c4d0 f   msvcrtd:gs_support.obj
 0002:000205e8       __exit                     0043c5e8 f   msvcrtd:MSVCR100D.dll
 0002:000205ee       __XcptFilter               0043c5ee f   msvcrtd:MSVCR100D.dll
 0002:000205f4       __cexit                    0043c5f4 f   msvcrtd:MSVCR100D.dll
 0002:000205fa       _exit                      0043c5fa f   msvcrtd:MSVCR100D.dll
 0002:00020600       __CrtSetCheckCount         0043c600 f   msvcrtd:MSVCR100D.dll
 0002:00020610       __ValidateImageBase        0043c610 f   msvcrtd:pesect.obj
 0002:00020690       __FindPESection            0043c690 f   msvcrtd:pesect.obj
 0002:00020730       __IsNonwritableInCurrentImage 0043c730 f   msvcrtd:pesect.obj
 0002:00020886       __CrtDbgReportW            0043c886 f   msvcrtd:MSVCR100D.dll
 0002:0002088c       __initterm                 0043c88c f   msvcrtd:MSVCR100D.dll
 0002:00020892       __initterm_e               0043c892 f   msvcrtd:MSVCR100D.dll
 0002:000208a0       __except_handler4          0043c8a0 f   msvcrtd:chandler4gs.obj
 0002:000208e0       __RTC_NumErrors            0043c8e0 f   msvcrtd:_userapi_.obj
 0002:000208f0       __RTC_GetErrDesc           0043c8f0 f   msvcrtd:_userapi_.obj
 0002:00020910       __RTC_SetErrorType         0043c910 f   msvcrtd:_userapi_.obj
 0002:00020940       __RTC_SetErrorFunc         0043c940 f   msvcrtd:_userapi_.obj
 0002:00020970       __RTC_SetErrorFuncW        0043c970 f   msvcrtd:_userapi_.obj
 0002:000209a0       ?_RTC_GetErrorFunc@@YAP6AHHPBDH00ZZPBX@Z 0043c9a0 f   msvcrtd:_userapi_.obj
 0002:000209b0       ?_RTC_GetErrorFuncW@@YAP6AHHPB_WH00ZZPBX@Z 0043c9b0 f   msvcrtd:_userapi_.obj
 0002:000209b6       __CRT_RTC_INITW            0043c9b6 f   msvcrtd:MSVCR100D.dll
 0002:000209c0       ___report_gsfailure        0043c9c0 f   msvcrtd:gs_report.obj
 0002:00020b12       __unlock                   0043cb12 f   msvcrtd:MSVCR100D.dll
 0002:00020b18       ___dllonexit               0043cb18 f   msvcrtd:MSVCR100D.dll
 0002:00020b1e       __lock                     0043cb1e f   msvcrtd:MSVCR100D.dll
 0002:00020b24       ?terminate@@YAXXZ          0043cb24 f   msvcrtd:MSVCR100D.dll
 0002:00020b30       ___sse2_available_init     0043cb30 f   msvcrtd:cpu_disp.obj
 0002:00020b50       ?_RTC_GetSrcLine@@YAHPAEPA_WKPAH1K@Z 0043cb50 f   msvcrtd:_pdblkup_.obj
 0002:00021126       __controlfp_s              0043d126 f   msvcrtd:MSVCR100D.dll
 0002:0002112c       __invoke_watson            0043d12c f   msvcrtd:MSVCR100D.dll
 0002:00021132       __except_handler4_common   0043d132 f   msvcrtd:MSVCR100D.dll
 0002:00021138       ??1type_info@@UAE@XZ       0043d138 f   msvcrtd:MSVCR100D.dll
 0002:00021138       ?_type_info_dtor_internal_method@type_info@@QAEXXZ 0043d138 f   msvcrtd:MSVCR100D.dll
 0002:0002113e       __crt_debugger_hook        0043d13e f   msvcrtd:MSVCR100D.dll
 0002:00021144       _CreateEventW@16           0043d144 f   kernel32:KERNEL32.dll
 0002:0002114a       _CloseHandle@4             0043d14a f   kernel32:KERNEL32.dll
 0002:00021150       _Sleep@4                   0043d150 f   kernel32:KERNEL32.dll
 0002:00021156       _SetEvent@4                0043d156 f   kernel32:KERNEL32.dll
 0002:0002115c       _WaitForSingleObject@8     0043d15c f   kernel32:KERNEL32.dll
 0002:00021162       _GetLastError@0            0043d162 f   kernel32:KERNEL32.dll
 0002:00021168       _ResetEvent@4              0043d168 f   kernel32:KERNEL32.dll
 0002:0002116e       _WaitForMultipleObjects@16 0043d16e f   kernel32:KERNEL32.dll
 0002:00021174       _SetThreadPriority@8       0043d174 f   kernel32:KERNEL32.dll
 0002:0002117a       _CreateThread@24           0043d17a f   kernel32:KERNEL32.dll
 0002:00021180       _ResumeThread@4            0043d180 f   kernel32:KERNEL32.dll
 0002:00021186       _GetModuleFileNameW@12     0043d186 f   kernel32:KERNEL32.dll
 0002:0002118c       _OutputDebugStringW@4      0043d18c f   kernel32:KERNEL32.dll
 0002:00021192       _WideCharToMultiByte@32    0043d192 f   kernel32:KERNEL32.dll
 0002:00021198       _ExitThread@4              0043d198 f   kernel32:KERNEL32.dll
 0002:0002119e       _TerminateThread@8         0043d19e f   kernel32:KERNEL32.dll
 0002:000211a4       _MultiByteToWideChar@24    0043d1a4 f   kernel32:KERNEL32.dll
 0002:000211aa       _IsDBCSLeadByte@4          0043d1aa f   kernel32:KERNEL32.dll
 0002:000211b0       _GetProcAddress@8          0043d1b0 f   kernel32:KERNEL32.dll
 0002:000211b6       _LoadLibraryW@4            0043d1b6 f   kernel32:KERNEL32.dll
 0002:000211bc       _FreeLibrary@4             0043d1bc f   kernel32:KERNEL32.dll
 0002:000211c2       _LocalFree@4               0043d1c2 f   kernel32:KERNEL32.dll
 0002:000211c8       _lstrcpynW@12              0043d1c8 f   kernel32:KERNEL32.dll
 0002:000211ce       _FormatMessageW@28         0043d1ce f   kernel32:KERNEL32.dll
 0002:000211d4       _CreateFileW@28            0043d1d4 f   kernel32:KERNEL32.dll
 0002:000211da       _ReadFile@20               0043d1da f   kernel32:KERNEL32.dll
 0002:000211e0       _ClearCommError@12         0043d1e0 f   kernel32:KERNEL32.dll
 0002:000211e6       _WriteFile@20              0043d1e6 f   kernel32:KERNEL32.dll
 0002:000211ec       _GetOverlappedResult@16    0043d1ec f   kernel32:KERNEL32.dll
 0002:000211f2       _WriteFileEx@20            0043d1f2 f   kernel32:KERNEL32.dll
 0002:000211f8       _ReadFileEx@20             0043d1f8 f   kernel32:KERNEL32.dll
 0002:000211fe       _TransmitCommChar@8        0043d1fe f   kernel32:KERNEL32.dll
 0002:00021204       _GetCommConfig@12          0043d204 f   kernel32:KERNEL32.dll
 0002:0002120a       _SetCommConfig@12          0043d20a f   kernel32:KERNEL32.dll
 0002:00021210       _SetCommBreak@4            0043d210 f   kernel32:KERNEL32.dll
 0002:00021216       _ClearCommBreak@4          0043d216 f   kernel32:KERNEL32.dll
 0002:0002121c       _GetDefaultCommConfigW@12  0043d21c f   kernel32:KERNEL32.dll
 0002:00021222       _SetDefaultCommConfigW@12  0043d222 f   kernel32:KERNEL32.dll
 0002:00021228       _GetCommState@8            0043d228 f   kernel32:KERNEL32.dll
 0002:0002122e       _SetCommState@8            0043d22e f   kernel32:KERNEL32.dll
 0002:00021234       _EscapeCommFunction@8      0043d234 f   kernel32:KERNEL32.dll
 0002:0002123a       _GetCommProperties@8       0043d23a f   kernel32:KERNEL32.dll
 0002:00021240       _GetCommModemStatus@8      0043d240 f   kernel32:KERNEL32.dll
 0002:00021246       _SetCommMask@8             0043d246 f   kernel32:KERNEL32.dll
 0002:0002124c       _GetCommMask@8             0043d24c f   kernel32:KERNEL32.dll
 0002:00021252       _FlushFileBuffers@4        0043d252 f   kernel32:KERNEL32.dll
 0002:00021258       _PurgeComm@8               0043d258 f   kernel32:KERNEL32.dll
 0002:0002125e       _SetupComm@12              0043d25e f   kernel32:KERNEL32.dll
 0002:00021264       _SetCommTimeouts@8         0043d264 f   kernel32:KERNEL32.dll
 0002:0002126a       _GetCommTimeouts@8         0043d26a f   kernel32:KERNEL32.dll
 0002:00021270       _WaitCommEvent@12          0043d270 f   kernel32:KERNEL32.dll
 0002:00021276       _EncodePointer@4           0043d276 f   kernel32:KERNEL32.dll
 0002:0002127c       _InterlockedExchange@8     0043d27c f   kernel32:KERNEL32.dll
 0002:00021282       _InterlockedCompareExchange@12 0043d282 f   kernel32:KERNEL32.dll
 0002:00021288       _HeapSetInformation@16     0043d288 f   kernel32:KERNEL32.dll
 0002:0002128e       _GetStartupInfoW@4         0043d28e f   kernel32:KERNEL32.dll
 0002:00021294       _DecodePointer@4           0043d294 f   kernel32:KERNEL32.dll
 0002:0002129a       _IsDebuggerPresent@0       0043d29a f   kernel32:KERNEL32.dll
 0002:000212a0       _RaiseException@16         0043d2a0 f   kernel32:KERNEL32.dll
 0002:000212a6       _lstrlenA@4                0043d2a6 f   kernel32:KERNEL32.dll
 0002:000212ac       _SetUnhandledExceptionFilter@4 0043d2ac f   kernel32:KERNEL32.dll
 0002:000212b2       _QueryPerformanceCounter@4 0043d2b2 f   kernel32:KERNEL32.dll
 0002:000212b8       _GetTickCount@0            0043d2b8 f   kernel32:KERNEL32.dll
 0002:000212be       _GetCurrentThreadId@0      0043d2be f   kernel32:KERNEL32.dll
 0002:000212c4       _GetCurrentProcessId@0     0043d2c4 f   kernel32:KERNEL32.dll
 0002:000212ca       _GetSystemTimeAsFileTime@4 0043d2ca f   kernel32:KERNEL32.dll
 0002:000212d0       _TerminateProcess@8        0043d2d0 f   kernel32:KERNEL32.dll
 0002:000212d6       _GetCurrentProcess@0       0043d2d6 f   kernel32:KERNEL32.dll
 0002:000212dc       _UnhandledExceptionFilter@4 0043d2dc f   kernel32:KERNEL32.dll
 0002:000212e2       _IsProcessorFeaturePresent@4 0043d2e2 f   kernel32:KERNEL32.dll
 0002:000212e8       _HeapFree@12               0043d2e8 f   kernel32:KERNEL32.dll
 0002:000212ee       _HeapAlloc@12              0043d2ee f   kernel32:KERNEL32.dll
 0002:000212f4       _GetProcessHeap@0          0043d2f4 f   kernel32:KERNEL32.dll
 0002:000212fa       _VirtualQuery@12           0043d2fa f   kernel32:KERNEL32.dll
 0002:00021300       _MessageBoxW@16            0043d300 f   user32:USER32.dll
 0002:00021306       _wsprintfW                 0043d306 f   user32:USER32.dll
 0002:0002130c       _SetWindowPos@28           0043d30c f   user32:USER32.dll
 0002:00021312       _GetSystemMetrics@4        0043d312 f   user32:USER32.dll
 0002:00021318       _GetWindowLongW@8          0043d318 f   user32:USER32.dll
 0002:0002131e       _RegCloseKey@4             0043d31e f   advapi32:ADVAPI32.dll
 0002:00021324       _RegEnumValueW@32          0043d324 f   advapi32:ADVAPI32.dll
 0002:0002132a       _RegOpenKeyExW@20          0043d32a f   advapi32:ADVAPI32.dll
 0002:00021330       _InitCommonControlsEx@4    0043d330 f   comctl32:COMCTL32.dll
 0002:00021340       ??0CSize@@QAE@XZ           0043d340 f   atlsd:atltypes.obj
 0002:00021370       ??0CSize@@QAE@HH@Z         0043d370 f   atlsd:atltypes.obj
 0002:000213a0       ??0CSize@@QAE@UtagSIZE@@@Z 0043d3a0 f   atlsd:atltypes.obj
 0002:000213d0       ??0CSize@@QAE@UtagPOINT@@@Z 0043d3d0 f   atlsd:atltypes.obj
 0002:00021400       ??0CSize@@QAE@K@Z          0043d400 f   atlsd:atltypes.obj
 0002:00021450       ??8CSize@@QBEHUtagSIZE@@@Z 0043d450 f   atlsd:atltypes.obj
 0002:000214a0       ??9CSize@@QBEHUtagSIZE@@@Z 0043d4a0 f   atlsd:atltypes.obj
 0002:000214f0       ??YCSize@@QAEXUtagSIZE@@@Z 0043d4f0 f   atlsd:atltypes.obj
 0002:00021530       ??ZCSize@@QAEXUtagSIZE@@@Z 0043d530 f   atlsd:atltypes.obj
 0002:00021570       ?SetSize@CSize@@QAEXHH@Z   0043d570 f   atlsd:atltypes.obj
 0002:000215a0       ??HCSize@@QBE?AV0@UtagSIZE@@@Z 0043d5a0 f   atlsd:atltypes.obj
 0002:000215e0       ??GCSize@@QBE?AV0@UtagSIZE@@@Z 0043d5e0 f   atlsd:atltypes.obj
 0002:00021620       ??GCSize@@QBE?AV0@XZ       0043d620 f   atlsd:atltypes.obj
 0002:00021660       ??HCSize@@QBE?AVCPoint@@UtagPOINT@@@Z 0043d660 f   atlsd:atltypes.obj
 0002:000216a0       ??GCSize@@QBE?AVCPoint@@UtagPOINT@@@Z 0043d6a0 f   atlsd:atltypes.obj
 0002:000216e0       ??HCSize@@QBE?AVCRect@@PBUtagRECT@@@Z 0043d6e0 f   atlsd:atltypes.obj
 0002:00021750       ??GCSize@@QBE?AVCRect@@PBUtagRECT@@@Z 0043d750 f   atlsd:atltypes.obj
 0002:000217c0       ??0CPoint@@QAE@XZ          0043d7c0 f   atlsd:atltypes.obj
 0002:000217f0       ??0CPoint@@QAE@HH@Z        0043d7f0 f   atlsd:atltypes.obj
 0002:00021820       ??0CPoint@@QAE@UtagPOINT@@@Z 0043d820 f   atlsd:atltypes.obj
 0002:00021850       ??0CPoint@@QAE@UtagSIZE@@@Z 0043d850 f   atlsd:atltypes.obj
 0002:00021880       ??0CPoint@@QAE@J@Z         0043d880 f   atlsd:atltypes.obj
 0002:000218d0       ?Offset@CPoint@@QAEXHH@Z   0043d8d0 f   atlsd:atltypes.obj
 0002:00021910       ?Offset@CPoint@@QAEXUtagPOINT@@@Z 0043d910 f   atlsd:atltypes.obj
 0002:00021950       ?Offset@CPoint@@QAEXUtagSIZE@@@Z 0043d950 f   atlsd:atltypes.obj
 0002:00021990       ?SetPoint@CPoint@@QAEXHH@Z 0043d990 f   atlsd:atltypes.obj
 0002:000219c0       ??8CPoint@@QBEHUtagPOINT@@@Z 0043d9c0 f   atlsd:atltypes.obj
 0002:00021a10       ??9CPoint@@QBEHUtagPOINT@@@Z 0043da10 f   atlsd:atltypes.obj
 0002:00021a60       ??YCPoint@@QAEXUtagSIZE@@@Z 0043da60 f   atlsd:atltypes.obj
 0002:00021aa0       ??ZCPoint@@QAEXUtagSIZE@@@Z 0043daa0 f   atlsd:atltypes.obj
 0002:00021ae0       ??YCPoint@@QAEXUtagPOINT@@@Z 0043dae0 f   atlsd:atltypes.obj
 0002:00021b20       ??ZCPoint@@QAEXUtagPOINT@@@Z 0043db20 f   atlsd:atltypes.obj
 0002:00021b60       ??HCPoint@@QBE?AV0@UtagSIZE@@@Z 0043db60 f   atlsd:atltypes.obj
 0002:00021ba0       ??GCPoint@@QBE?AV0@UtagSIZE@@@Z 0043dba0 f   atlsd:atltypes.obj
 0002:00021be0       ??GCPoint@@QBE?AV0@XZ      0043dbe0 f   atlsd:atltypes.obj
 0002:00021c20       ??HCPoint@@QBE?AV0@UtagPOINT@@@Z 0043dc20 f   atlsd:atltypes.obj
 0002:00021c60       ??GCPoint@@QBE?AVCSize@@UtagPOINT@@@Z 0043dc60 f   atlsd:atltypes.obj
 0002:00021ca0       ??HCPoint@@QBE?AVCRect@@PBUtagRECT@@@Z 0043dca0 f   atlsd:atltypes.obj
 0002:00021d10       ??GCPoint@@QBE?AVCRect@@PBUtagRECT@@@Z 0043dd10 f   atlsd:atltypes.obj
 0002:00021d80       ??0CRect@@QAE@XZ           0043dd80 f   atlsd:atltypes.obj
 0002:00021dd0       ??0CRect@@QAE@HHHH@Z       0043ddd0 f   atlsd:atltypes.obj
 0002:00021e20       ??0CRect@@QAE@ABUtagRECT@@@Z 0043de20 f   atlsd:atltypes.obj
 0002:00021e50       ??0CRect@@QAE@PBUtagRECT@@@Z 0043de50 f   atlsd:atltypes.obj
 0002:00021e80       ??0CRect@@QAE@UtagPOINT@@UtagSIZE@@@Z 0043de80 f   atlsd:atltypes.obj
 0002:00021ed0       ??0CRect@@QAE@UtagPOINT@@0@Z 0043ded0 f   atlsd:atltypes.obj
 0002:00021f20       ?Width@CRect@@QBEHXZ       0043df20 f   atlsd:atltypes.obj
 0002:00021f40       ?Height@CRect@@QBEHXZ      0043df40 f   atlsd:atltypes.obj
 0002:00021f60       ?Size@CRect@@QBE?AVCSize@@XZ 0043df60 f   atlsd:atltypes.obj
 0002:00021fa0       ?TopLeft@CRect@@QAEAAVCPoint@@XZ 0043dfa0 f   atlsd:atltypes.obj
 0002:00021fc0       ?BottomRight@CRect@@QAEAAVCPoint@@XZ 0043dfc0 f   atlsd:atltypes.obj
 0002:00021fe0       ?TopLeft@CRect@@QBEABVCPoint@@XZ 0043dfe0 f   atlsd:atltypes.obj
 0002:00022000       ?BottomRight@CRect@@QBEABVCPoint@@XZ 0043e000 f   atlsd:atltypes.obj
 0002:00022020       ?CenterPoint@CRect@@QBE?AVCPoint@@XZ 0043e020 f   atlsd:atltypes.obj
 0002:00022070       ?SwapLeftRight@CRect@@QAEXXZ 0043e070 f   atlsd:atltypes.obj
 0002:00022090       ?SwapLeftRight@CRect@@SGXPAUtagRECT@@@Z 0043e090 f   atlsd:atltypes.obj
 0002:000220d0       ??BCRect@@QAEPAUtagRECT@@XZ 0043e0d0 f   atlsd:atltypes.obj
 0002:000220f0       ??BCRect@@QBEPBUtagRECT@@XZ 0043e0f0 f   atlsd:atltypes.obj
 0002:00022110       ?IsRectEmpty@CRect@@QBEHXZ 0043e110 f   atlsd:atltypes.obj
 0002:00022130       ?IsRectNull@CRect@@QBEHXZ  0043e130 f   atlsd:atltypes.obj
 0002:00022190       ?PtInRect@CRect@@QBEHUtagPOINT@@@Z 0043e190 f   atlsd:atltypes.obj
 0002:000221c0       ?SetRect@CRect@@QAEXHHHH@Z 0043e1c0 f   atlsd:atltypes.obj
 0002:00022200       ?SetRect@CRect@@QAEXUtagPOINT@@0@Z 0043e200 f   atlsd:atltypes.obj
 0002:00022240       ?SetRectEmpty@CRect@@QAEXXZ 0043e240 f   atlsd:atltypes.obj
 0002:00022260       ?CopyRect@CRect@@QAEXPBUtagRECT@@@Z 0043e260 f   atlsd:atltypes.obj
 0002:00022290       ?EqualRect@CRect@@QBEHPBUtagRECT@@@Z 0043e290 f   atlsd:atltypes.obj
 0002:000222c0       ?InflateRect@CRect@@QAEXHH@Z 0043e2c0 f   atlsd:atltypes.obj
 0002:000222f0       ?InflateRect@CRect@@QAEXUtagSIZE@@@Z 0043e2f0 f   atlsd:atltypes.obj
 0002:00022320       ?DeflateRect@CRect@@QAEXHH@Z 0043e320 f   atlsd:atltypes.obj
 0002:00022350       ?DeflateRect@CRect@@QAEXUtagSIZE@@@Z 0043e350 f   atlsd:atltypes.obj
 0002:00022380       ?OffsetRect@CRect@@QAEXHH@Z 0043e380 f   atlsd:atltypes.obj
 0002:000223b0       ?OffsetRect@CRect@@QAEXUtagPOINT@@@Z 0043e3b0 f   atlsd:atltypes.obj
 0002:000223e0       ?OffsetRect@CRect@@QAEXUtagSIZE@@@Z 0043e3e0 f   atlsd:atltypes.obj
 0002:00022410       ?MoveToY@CRect@@QAEXH@Z    0043e410 f   atlsd:atltypes.obj
 0002:00022450       ?MoveToX@CRect@@QAEXH@Z    0043e450 f   atlsd:atltypes.obj
 0002:00022490       ?MoveToXY@CRect@@QAEXHH@Z  0043e490 f   atlsd:atltypes.obj
 0002:000224c0       ?MoveToXY@CRect@@QAEXUtagPOINT@@@Z 0043e4c0 f   atlsd:atltypes.obj
 0002:000224f0       ?IntersectRect@CRect@@QAEHPBUtagRECT@@0@Z 0043e4f0 f   atlsd:atltypes.obj
 0002:00022520       ?UnionRect@CRect@@QAEHPBUtagRECT@@0@Z 0043e520 f   atlsd:atltypes.obj
 0002:00022550       ??4CRect@@QAEXABUtagRECT@@@Z 0043e550 f   atlsd:atltypes.obj
 0002:00022580       ??8CRect@@QBEHABUtagRECT@@@Z 0043e580 f   atlsd:atltypes.obj
 0002:000225b0       ??9CRect@@QBEHABUtagRECT@@@Z 0043e5b0 f   atlsd:atltypes.obj
 0002:000225e0       ??YCRect@@QAEXUtagPOINT@@@Z 0043e5e0 f   atlsd:atltypes.obj
 0002:00022610       ??YCRect@@QAEXUtagSIZE@@@Z 0043e610 f   atlsd:atltypes.obj
 0002:00022640       ??YCRect@@QAEXPBUtagRECT@@@Z 0043e640 f   atlsd:atltypes.obj
 0002:00022670       ??ZCRect@@QAEXUtagPOINT@@@Z 0043e670 f   atlsd:atltypes.obj
 0002:000226a0       ??ZCRect@@QAEXUtagSIZE@@@Z 0043e6a0 f   atlsd:atltypes.obj
 0002:000226d0       ??ZCRect@@QAEXPBUtagRECT@@@Z 0043e6d0 f   atlsd:atltypes.obj
 0002:00022700       ??_4CRect@@QAEXABUtagRECT@@@Z 0043e700 f   atlsd:atltypes.obj
 0002:00022730       ??_5CRect@@QAEXABUtagRECT@@@Z 0043e730 f   atlsd:atltypes.obj
 0002:00022760       ??HCRect@@QBE?AV0@UtagPOINT@@@Z 0043e760 f   atlsd:atltypes.obj
 0002:000227f0       ??GCRect@@QBE?AV0@UtagPOINT@@@Z 0043e7f0 f   atlsd:atltypes.obj
 0002:00022880       ??HCRect@@QBE?AV0@UtagSIZE@@@Z 0043e880 f   atlsd:atltypes.obj
 0002:00022910       ??GCRect@@QBE?AV0@UtagSIZE@@@Z 0043e910 f   atlsd:atltypes.obj
 0002:000229a0       ??HCRect@@QBE?AV0@PBUtagRECT@@@Z 0043e9a0 f   atlsd:atltypes.obj
 0002:00022a10       ??GCRect@@QBE?AV0@PBUtagRECT@@@Z 0043ea10 f   atlsd:atltypes.obj
 0002:00022a80       ??ICRect@@QBE?AV0@ABUtagRECT@@@Z 0043ea80 f   atlsd:atltypes.obj
 0002:00022b00       ??UCRect@@QBE?AV0@ABUtagRECT@@@Z 0043eb00 f   atlsd:atltypes.obj
 0002:00022b80       ?SubtractRect@CRect@@QAEHPBUtagRECT@@0@Z 0043eb80 f   atlsd:atltypes.obj
 0002:00022bb0       ?NormalizeRect@CRect@@QAEXXZ 0043ebb0 f   atlsd:atltypes.obj
 0002:00022c30       ?InflateRect@CRect@@QAEXPBUtagRECT@@@Z 0043ec30 f   atlsd:atltypes.obj
 0002:00022ca0       ?InflateRect@CRect@@QAEXHHHH@Z 0043eca0 f   atlsd:atltypes.obj
 0002:00022d00       ?DeflateRect@CRect@@QAEXPBUtagRECT@@@Z 0043ed00 f   atlsd:atltypes.obj
 0002:00022d70       ?DeflateRect@CRect@@QAEXHHHH@Z 0043ed70 f   atlsd:atltypes.obj
 0002:00022dd0       ?MulDiv@CRect@@QBE?AV1@HH@Z 0043edd0 f   atlsd:atltypes.obj
 0002:00022e60       ??0CTimeSpan@ATL@@QAE@XZ   0043ee60 f   atlsd:atltime.obj
 0002:00022e90       ??0CTimeSpan@ATL@@QAE@_J@Z 0043ee90 f   atlsd:atltime.obj
 0002:00022ec0       ??0CTimeSpan@ATL@@QAE@JHHH@Z 0043eec0 f   atlsd:atltime.obj
 0002:00022f60       ?GetDays@CTimeSpan@ATL@@QBE_JXZ 0043ef60 f   atlsd:atltime.obj
 0002:00022f90       ?GetTotalHours@CTimeSpan@ATL@@QBE_JXZ 0043ef90 f   atlsd:atltime.obj
 0002:00022fc0       ?GetHours@CTimeSpan@ATL@@QBEJXZ 0043efc0 f   atlsd:atltime.obj
 0002:00023010       ?GetTotalMinutes@CTimeSpan@ATL@@QBE_JXZ 0043f010 f   atlsd:atltime.obj
 0002:00023040       ?GetMinutes@CTimeSpan@ATL@@QBEJXZ 0043f040 f   atlsd:atltime.obj
 0002:00023090       ?GetTotalSeconds@CTimeSpan@ATL@@QBE_JXZ 0043f090 f   atlsd:atltime.obj
 0002:000230b0       ?GetSeconds@CTimeSpan@ATL@@QBEJXZ 0043f0b0 f   atlsd:atltime.obj
 0002:00023100       ?GetTimeSpan@CTimeSpan@ATL@@QBE_JXZ 0043f100 f   atlsd:atltime.obj
 0002:00023120       ??HCTimeSpan@ATL@@QBE?AV01@V01@@Z 0043f120 f   atlsd:atltime.obj
 0002:00023160       ??GCTimeSpan@ATL@@QBE?AV01@V01@@Z 0043f160 f   atlsd:atltime.obj
 0002:000231a0       ??YCTimeSpan@ATL@@QAEAAV01@V01@@Z 0043f1a0 f   atlsd:atltime.obj
 0002:000231e0       ??ZCTimeSpan@ATL@@QAEAAV01@V01@@Z 0043f1e0 f   atlsd:atltime.obj
 0002:00023220       ??8CTimeSpan@ATL@@QBE_NV01@@Z 0043f220 f   atlsd:atltime.obj
 0002:00023270       ??9CTimeSpan@ATL@@QBE_NV01@@Z 0043f270 f   atlsd:atltime.obj
 0002:000232c0       ??MCTimeSpan@ATL@@QBE_NV01@@Z 0043f2c0 f   atlsd:atltime.obj
 0002:00023320       ??OCTimeSpan@ATL@@QBE_NV01@@Z 0043f320 f   atlsd:atltime.obj
 0002:00023380       ??NCTimeSpan@ATL@@QBE_NV01@@Z 0043f380 f   atlsd:atltime.obj
 0002:000233e0       ??PCTimeSpan@ATL@@QBE_NV01@@Z 0043f3e0 f   atlsd:atltime.obj
 0002:00023440       ?GetTickCount@CTime@ATL@@SG?AV12@XZ 0043f440 f   atlsd:atltime.obj
 0002:00023470       ?IsValidFILETIME@CTime@ATL@@SGHABU_FILETIME@@@Z 0043f470 f   atlsd:atltime.obj
 0002:000234e0       ??0CTime@ATL@@QAE@XZ       0043f4e0 f   atlsd:atltime.obj
 0002:00023510       ??0CTime@ATL@@QAE@_J@Z     0043f510 f   atlsd:atltime.obj
 0002:00023540       ??0CTime@ATL@@QAE@HHHHHHH@Z 0043f540 f   atlsd:atltime.obj
 0002:00023920       ??0CTime@ATL@@QAE@GGH@Z    0043f920 f   atlsd:atltime.obj
 0002:00023a60       ??0CTime@ATL@@QAE@ABU_SYSTEMTIME@@H@Z 0043fa60 f   atlsd:atltime.obj
 0002:00023b20       ??0CTime@ATL@@QAE@ABU_FILETIME@@H@Z 0043fb20 f   atlsd:atltime.obj
 0002:00023bf0       ??4CTime@ATL@@QAEAAV01@_J@Z 0043fbf0 f   atlsd:atltime.obj
 0002:00023c20       ??YCTime@ATL@@QAEAAV01@VCTimeSpan@1@@Z 0043fc20 f   atlsd:atltime.obj
 0002:00023c60       ??ZCTime@ATL@@QAEAAV01@VCTimeSpan@1@@Z 0043fc60 f   atlsd:atltime.obj
 0002:00023ca0       ??GCTime@ATL@@QBE?AVCTimeSpan@1@V01@@Z 0043fca0 f   atlsd:atltime.obj
 0002:00023ce0       ??GCTime@ATL@@QBE?AV01@VCTimeSpan@1@@Z 0043fce0 f   atlsd:atltime.obj
 0002:00023d20       ??HCTime@ATL@@QBE?AV01@VCTimeSpan@1@@Z 0043fd20 f   atlsd:atltime.obj
 0002:00023d60       ??8CTime@ATL@@QBE_NV01@@Z  0043fd60 f   atlsd:atltime.obj
 0002:00023db0       ??9CTime@ATL@@QBE_NV01@@Z  0043fdb0 f   atlsd:atltime.obj
 0002:00023e00       ??MCTime@ATL@@QBE_NV01@@Z  0043fe00 f   atlsd:atltime.obj
 0002:00023e60       ??OCTime@ATL@@QBE_NV01@@Z  0043fe60 f   atlsd:atltime.obj
 0002:00023ec0       ??NCTime@ATL@@QBE_NV01@@Z  0043fec0 f   atlsd:atltime.obj
 0002:00023f20       ??PCTime@ATL@@QBE_NV01@@Z  0043ff20 f   atlsd:atltime.obj
 0002:00023f80       ?GetGmtTm@CTime@ATL@@QBEPAUtm@@PAU3@@Z 0043ff80 f   atlsd:atltime.obj
 0002:00024060       ?GetLocalTm@CTime@ATL@@QBEPAUtm@@PAU3@@Z 00440060 f   atlsd:atltime.obj
 0002:00024140       ?GetAsSystemTime@CTime@ATL@@QBE_NAAU_SYSTEMTIME@@@Z 00440140 f   atlsd:atltime.obj
 0002:00024220       ?GetTime@CTime@ATL@@QBE_JXZ 00440220 f   atlsd:atltime.obj
 0002:00024240       ?GetYear@CTime@ATL@@QBEHXZ 00440240 f   atlsd:atltime.obj
 0002:000242b0       ?GetMonth@CTime@ATL@@QBEHXZ 004402b0 f   atlsd:atltime.obj
 0002:00024320       ?GetDay@CTime@ATL@@QBEHXZ  00440320 f   atlsd:atltime.obj
 0002:00024380       ?GetHour@CTime@ATL@@QBEHXZ 00440380 f   atlsd:atltime.obj
 0002:000243e0       ?GetMinute@CTime@ATL@@QBEHXZ 004403e0 f   atlsd:atltime.obj
 0002:00024440       ?GetSecond@CTime@ATL@@QBEHXZ 00440440 f   atlsd:atltime.obj
 0002:000244a0       ?GetDayOfWeek@CTime@ATL@@QBEHXZ 004404a0 f   atlsd:atltime.obj
 0002:00024510       ??0CFileTimeSpan@ATL@@QAE@XZ 00440510 f   atlsd:atltime.obj
 0002:00024540       ??0CFileTimeSpan@ATL@@QAE@ABV01@@Z 00440540 f   atlsd:atltime.obj
 0002:00024570       ??0CFileTimeSpan@ATL@@QAE@_J@Z 00440570 f   atlsd:atltime.obj
 0002:000245a0       ??4CFileTimeSpan@ATL@@QAEAAV01@ABV01@@Z 004405a0 f   atlsd:atltime.obj
 0002:000245d0       ??YCFileTimeSpan@ATL@@QAEAAV01@V01@@Z 004405d0 f   atlsd:atltime.obj
 0002:00024610       ??ZCFileTimeSpan@ATL@@QAEAAV01@V01@@Z 00440610 f   atlsd:atltime.obj
 0002:00024650       ??HCFileTimeSpan@ATL@@QBE?AV01@V01@@Z 00440650 f   atlsd:atltime.obj
 0002:00024690       ??GCFileTimeSpan@ATL@@QBE?AV01@V01@@Z 00440690 f   atlsd:atltime.obj
 0002:000246d0       ??8CFileTimeSpan@ATL@@QBE_NV01@@Z 004406d0 f   atlsd:atltime.obj
 0002:00024720       ??9CFileTimeSpan@ATL@@QBE_NV01@@Z 00440720 f   atlsd:atltime.obj
 0002:00024770       ??MCFileTimeSpan@ATL@@QBE_NV01@@Z 00440770 f   atlsd:atltime.obj
 0002:000247d0       ??OCFileTimeSpan@ATL@@QBE_NV01@@Z 004407d0 f   atlsd:atltime.obj
 0002:00024830       ??NCFileTimeSpan@ATL@@QBE_NV01@@Z 00440830 f   atlsd:atltime.obj
 0002:00024890       ??PCFileTimeSpan@ATL@@QBE_NV01@@Z 00440890 f   atlsd:atltime.obj
 0002:000248f0       ?GetTimeSpan@CFileTimeSpan@ATL@@QBE_JXZ 004408f0 f   atlsd:atltime.obj
 0002:00024910       ?SetTimeSpan@CFileTimeSpan@ATL@@QAEX_J@Z 00440910 f   atlsd:atltime.obj
 0002:00024940       ??0CFileTime@ATL@@QAE@XZ   00440940 f   atlsd:atltime.obj
 0002:00024970       ??0CFileTime@ATL@@QAE@ABU_FILETIME@@@Z 00440970 f   atlsd:atltime.obj
 0002:000249b0       ??0CFileTime@ATL@@QAE@_K@Z 004409b0 f   atlsd:atltime.obj
 0002:000249f0       ??4CFileTime@ATL@@QAEAAV01@ABU_FILETIME@@@Z 004409f0 f   atlsd:atltime.obj
 0002:00024a30       ?GetTickCount@CFileTime@ATL@@SG?AV12@XZ 00440a30 f   atlsd:atltime.obj
 0002:00024a70       ??YCFileTime@ATL@@QAEAAV01@VCFileTimeSpan@1@@Z 00440a70 f   atlsd:atltime.obj
 0002:00024ac0       ??ZCFileTime@ATL@@QAEAAV01@VCFileTimeSpan@1@@Z 00440ac0 f   atlsd:atltime.obj
 0002:00024b10       ??HCFileTime@ATL@@QBE?AV01@VCFileTimeSpan@1@@Z 00440b10 f   atlsd:atltime.obj
 0002:00024b60       ??GCFileTime@ATL@@QBE?AV01@VCFileTimeSpan@1@@Z 00440b60 f   atlsd:atltime.obj
 0002:00024bb0       ??GCFileTime@ATL@@QBE?AVCFileTimeSpan@1@V01@@Z 00440bb0 f   atlsd:atltime.obj
 0002:00024c00       ??8CFileTime@ATL@@QBE_NV01@@Z 00440c00 f   atlsd:atltime.obj
 0002:00024c70       ??9CFileTime@ATL@@QBE_NV01@@Z 00440c70 f   atlsd:atltime.obj
 0002:00024ce0       ??MCFileTime@ATL@@QBE_NV01@@Z 00440ce0 f   atlsd:atltime.obj
 0002:00024d50       ??OCFileTime@ATL@@QBE_NV01@@Z 00440d50 f   atlsd:atltime.obj
 0002:00024dc0       ??NCFileTime@ATL@@QBE_NV01@@Z 00440dc0 f   atlsd:atltime.obj
 0002:00024e30       ??PCFileTime@ATL@@QBE_NV01@@Z 00440e30 f   atlsd:atltime.obj
 0002:00024ea0       ?GetTime@CFileTime@ATL@@QBE_KXZ 00440ea0 f   atlsd:atltime.obj
 0002:00024ee0       ?SetTime@CFileTime@ATL@@QAEX_K@Z 00440ee0 f   atlsd:atltime.obj
 0002:00024f20       ?UTCToLocal@CFileTime@ATL@@QBE?AV12@XZ 00440f20 f   atlsd:atltime.obj
 0002:00024f70       ?LocalToUTC@CFileTime@ATL@@QBE?AV12@XZ 00440f70 f   atlsd:atltime.obj
 0002:00024fc0       ??RCTraceFileAndLineInfo@ATL@@QBAXKIPBDZZ 00440fc0 f i atlsd:atltime.obj
 0002:00025020       ?TraceV@CTrace@ATL@@QBAXPBDHKI0PAD@Z 00441020 f i atlsd:atltime.obj
 0002:00025060       ?_AtlRaiseException@ATL@@YAXKK@Z 00441060 f i atlsd:atltime.obj
 0002:00025080       ??0CTraceCategory@ATL@@QAE@PBDI@Z 00441080 f i atlsd:atltrace.obj
 0002:000250e0       ?ChangeCategory@CTrace@ATL@@QAE_NKIW4ATLTRACESTATUS@2@@Z 004410e0 f i atlsd:atltrace.obj
 0002:00025120       ?RegisterCategory@CTrace@ATL@@QAEKPBD@Z 00441120 f i atlsd:atltrace.obj
 0002:00025150       ??0CAtlAllocator@@QAE@XZ   00441150 f i atlsd:Externs.obj
 0002:000251b0       ??0CTraceSnapshot@@QAE@XZ  004411b0 f i atlsd:Externs.obj
 0002:000251e0       ??0?$CSimpleArray@UCModuleInfo@CTraceSnapshot@@V?$CSimpleArrayEqualHelper@UCModuleInfo@CTraceSnapshot@@@ATL@@@ATL@@QAE@XZ 004411e0 f i atlsd:Externs.obj
 0002:00025220       ??0?$CSimpleArray@KV?$CSimpleArrayEqualHelper@K@ATL@@@ATL@@QAE@XZ 00441220 f i atlsd:Externs.obj
 0002:00025390       ??0CAtlException@ATL@@QAE@J@Z 00441390 f i atlsd:Externs.obj
 0002:000253b0       ?AtlCrtErrorCheck@ATL@@YAHH@Z 004413b0 f i atlsd:Externs.obj
 0002:00025490       ??0CTrace@ATL@@AAE@P6AHHPBDH00ZZ@Z 00441490 f i atlsd:Externs.obj
 0002:000254e0       ??1CAtlAllocator@@QAE@XZ   004414e0 f i atlsd:Externs.obj
 0002:00025510       ??1CTraceSnapshot@@QAE@XZ  00441510 f i atlsd:Externs.obj
 0002:00025540       ??1?$CSimpleArray@UCModuleInfo@CTraceSnapshot@@V?$CSimpleArrayEqualHelper@UCModuleInfo@CTraceSnapshot@@@ATL@@@ATL@@QAE@XZ 00441540 f i atlsd:Externs.obj
 0002:00025560       ??1?$CSimpleArray@KV?$CSimpleArrayEqualHelper@K@ATL@@@ATL@@QAE@XZ 00441560 f i atlsd:Externs.obj
 0002:00025580       ?RemoveAll@?$CSimpleArray@UCModuleInfo@CTraceSnapshot@@V?$CSimpleArrayEqualHelper@UCModuleInfo@CTraceSnapshot@@@ATL@@@ATL@@QAEXXZ 00441580 f i atlsd:Externs.obj
 0002:00025600       ?RemoveAll@?$CSimpleArray@KV?$CSimpleArrayEqualHelper@K@ATL@@@ATL@@QAEXXZ 00441600 f i atlsd:Externs.obj
 0002:00025680       ??1CTrace@ATL@@AAE@XZ      00441680 f i atlsd:Externs.obj
 0002:000256a0       ?NotifyTool@ATL@@YGXXZ     004416a0 f   atlsd:AtlDebugAPI.obj
 0002:000256f0       _AtlTraceRegister@8        004416f0 f   atlsd:AtlDebugAPI.obj
 0002:00025780       _AtlTraceUnregister@4      00441780 f   atlsd:AtlDebugAPI.obj
 0002:000257c0       _AtlTraceRegisterCategoryA@8 004417c0 f   atlsd:AtlDebugAPI.obj
 0002:00025840       _AtlTraceRegisterCategoryU@8 00441840 f   atlsd:AtlDebugAPI.obj
 0002:000258a0       _AtlTraceModifyProcess@20  004418a0 f   atlsd:AtlDebugAPI.obj
 0002:00025970       ?GetProcess@CAtlAllocator@@QBEPAVCAtlTraceProcess@@XZ 00441970 f i atlsd:AtlDebugAPI.obj
 0002:00025990       _AtlTraceModifyModule@16   00441990 f   atlsd:AtlDebugAPI.obj
 0002:00025ab0       _AtlTraceModifyCategory@16 00441ab0 f   atlsd:AtlDebugAPI.obj
 0002:00025b90       _AtlTraceGetProcess@20     00441b90 f   atlsd:AtlDebugAPI.obj
 0002:00025ca0       _AtlTraceGetModule@16      00441ca0 f   atlsd:AtlDebugAPI.obj
 0002:00025df0       _AtlTraceGetCategory@16    00441df0 f   atlsd:AtlDebugAPI.obj
 0002:00025f10       _AtlTraceGetUpdateEventNameA@4 00441f10 f   atlsd:AtlDebugAPI.obj
 0002:00025f50       _AtlTraceGetUpdateEventNameA_s@8 00441f50 f   atlsd:AtlDebugAPI.obj
 0002:00025f90       _AtlTraceGetUpdateEventNameU@4 00441f90 f   atlsd:AtlDebugAPI.obj
 0002:00026010       _AtlTraceGetUpdateEventNameU_s@8 00442010 f   atlsd:AtlDebugAPI.obj
 0002:000260a0       _AtlTraceVA                004420a0 f   atlsd:AtlDebugAPI.obj
 0002:00026480       ?Name@CAtlTraceCategory@@QBEPB_WXZ 00442480 f i atlsd:AtlDebugAPI.obj
 0002:000264a0       _AtlTraceVU                004424a0 f   atlsd:AtlDebugAPI.obj
 0002:000268c0       _AtlTraceOpenProcess@4     004428c0 f   atlsd:AtlDebugAPI.obj
 0002:000269f0       ??_GCAtlAllocator@@QAEPAXI@Z 004429f0 f i atlsd:AtlDebugAPI.obj
 0002:00026a30       _AtlTraceCloseProcess@4    00442a30 f   atlsd:AtlDebugAPI.obj
 0002:00026af0       _AtlTraceSnapshotProcess@4 00442af0 f   atlsd:AtlDebugAPI.obj
 0002:00026b80       _AtlTraceGetProcessInfo@8  00442b80 f   atlsd:AtlDebugAPI.obj
 0002:00026d90       ?Path@CAtlTraceModuleInfo@@QBEPB_WXZ 00442d90 f i atlsd:AtlDebugAPI.obj
 0002:00026db0       ?Name@CAtlTraceModuleInfo@@QBEPB_WXZ 00442db0 f i atlsd:AtlDebugAPI.obj
 0002:00026dd0       ?Id@CAtlTraceProcess@@QBEKXZ 00442dd0 f i atlsd:AtlDebugAPI.obj
 0002:00026df0       _AtlTraceGetModuleInfo@12  00442df0 f   atlsd:AtlDebugAPI.obj
 0002:00026ff0       _AtlTraceGetCategoryInfo@16 00442ff0 f   atlsd:AtlDebugAPI.obj
 0002:00027450       ?CrtDbgReport@CAtlTraceModule@@QBEP6AHHPBDH00ZZXZ 00443450 f i atlsd:AtlDebugAPI.obj
 0002:00027470       ?_IsTracingEnabled@ATL@@YA_NKKI@Z 00443470 f   atlsd:AtlDebugAPI.obj
 0002:000274b0       ?GetSize@?$CSimpleArray@UCModuleInfo@CTraceSnapshot@@V?$CSimpleArrayEqualHelper@UCModuleInfo@CTraceSnapshot@@@ATL@@@ATL@@QBEHXZ 004434b0 f i atlsd:AtlDebugAPI.obj
 0002:000274d0       ??A?$CSimpleArray@UCModuleInfo@CTraceSnapshot@@V?$CSimpleArrayEqualHelper@UCModuleInfo@CTraceSnapshot@@@ATL@@@ATL@@QAEAAUCModuleInfo@CTraceSnapshot@@H@Z 004434d0 f i atlsd:AtlDebugAPI.obj
 0002:00027560       ?strcpy_s@Checked@ATL@@YAXPADIPBD@Z 00443560 f i atlsd:AtlDebugAPI.obj
 0002:00027590       ?wcscpy_s@Checked@ATL@@YAXPA_WIPB_W@Z 00443590 f i atlsd:AtlDebugAPI.obj
 0002:000275c0       ??0?$CA2WEX@$0IA@@ATL@@QAE@PBD@Z 004435c0 f i atlsd:AtlDebugAPI.obj
 0002:00027600       ?_AtlGetConversionACP@ATL@@YGIXZ 00443600 f i atlsd:AtlDebugAPI.obj
 0002:00027610       ??1?$CA2WEX@$0IA@@ATL@@QAE@XZ 00443610 f i atlsd:AtlDebugAPI.obj
 0002:00027640       ??B?$CA2WEX@$0IA@@ATL@@QBEPA_WXZ 00443640 f i atlsd:AtlDebugAPI.obj
 0002:00027660       ?Init@?$CA2WEX@$0IA@@ATL@@AAEXPBDI@Z 00443660 f i atlsd:AtlDebugAPI.obj
 0002:000277a0       ?AtlThrowLastWin32@ATL@@YGXXZ 004437a0 f i atlsd:AtlDebugAPI.obj
 0002:000277d0       _HRESULT_FROM_WIN32        004437d0 f i atlsd:AtlDebugAPI.obj
 0002:00027810       ??$AtlConvFreeMemory@_W@ATL@@YAXPA_W0H@Z 00443810 f i atlsd:AtlDebugAPI.obj
 0002:00027860       ??$AtlConvAllocMemory@_W@ATL@@YAXPAPA_WHPA_WH@Z 00443860 f i atlsd:AtlDebugAPI.obj
 0002:00027a50       ?Init@CAtlAllocator@@QAE_NPBDK@Z 00443a50 f   atlsd:Allocate.obj
 0002:00027e50       ?IncRef@CAtlTraceProcess@@QAEIXZ 00443e50 f i atlsd:Allocate.obj
 0002:00027e90       ?Base@CAtlTraceProcess@@QBEPAXXZ 00443e90 f i atlsd:Allocate.obj
 0002:00027eb0       ?Open@CAtlAllocator@@QAE_NPBD@Z 00443eb0 f   atlsd:Allocate.obj
 0002:00028040       ?Close@CAtlAllocator@@QAEX_N@Z 00444040 f   atlsd:Allocate.obj
 0002:000280c0       ?DecRef@CAtlTraceProcess@@QAEIXZ 004440c0 f i atlsd:Allocate.obj
 0002:00028100       ?GetModule@CAtlAllocator@@QBEPAVCAtlTraceModule@@H@Z 00444100 f   atlsd:Allocate.obj
 0002:000281c0       ?ModuleCount@CAtlTraceProcess@@QBEHXZ 004441c0 f i atlsd:Allocate.obj
 0002:000281e0       ?GetCategory@CAtlAllocator@@QBEPAVCAtlTraceCategory@@H@Z 004441e0 f   atlsd:Allocate.obj
 0002:000282c0       ?MaxSize@CAtlTraceProcess@@QBEKXZ 004442c0 f i atlsd:Allocate.obj
 0002:000282e0       ?CategoryCount@CAtlTraceProcess@@QBEHXZ 004442e0 f i atlsd:Allocate.obj
 0002:00028300       ?GetCategoryCount@CAtlAllocator@@QBEHH@Z 00444300 f   atlsd:Allocate.obj
 0002:000283a0       ?GetCategoryCount@CAtlAllocator@@QBEHABVCAtlTraceModule@@@Z 004443a0 f   atlsd:Allocate.obj
 0002:00028420       ?GetModuleCount@CAtlAllocator@@QBEHXZ 00444420 f   atlsd:Allocate.obj
 0002:00028490       ?FindModule@CAtlAllocator@@QBE_NPB_WPAI@Z 00444490 f   atlsd:Allocate.obj
 0002:00028530       ?AddModule@CAtlAllocator@@QAEHPAUHINSTANCE__@@@Z 00444530 f   atlsd:Allocate.obj
 0002:00028770       ?TryAllocate@CAtlTraceSettings@@QAE_NXZ 00444770 f i atlsd:Allocate.obj
 0002:000287c0       ?MarkValid@CAtlTraceSettings@@QAEXJ@Z 004447c0 f i atlsd:Allocate.obj
 0002:00028810       ?IncModuleCount@CAtlTraceProcess@@QAEXI@Z 00444810 f i atlsd:Allocate.obj
 0002:00028840       ?AddCategory@CAtlAllocator@@QAEHHPB_W@Z 00444840 f   atlsd:Allocate.obj
 0002:00028b00       ?TryAddRef@CAtlTraceSettings@@QAE_NXZ 00444b00 f i atlsd:Allocate.obj
 0002:00028b50       ?Release@CAtlTraceSettings@@QAEXXZ 00444b50 f i atlsd:Allocate.obj
 0002:00028b90       ?IncCategoryCount@CAtlTraceProcess@@QAEXI@Z 00444b90 f i atlsd:Allocate.obj
 0002:00028bc0       ?RemoveModule@CAtlAllocator@@QAE_NH@Z 00444bc0 f   atlsd:Allocate.obj
 0002:00028ca0       ?CleanUp@CAtlAllocator@@QAEXXZ 00444ca0 f   atlsd:Allocate.obj
 0002:00028cc0       ?TakeSnapshot@CAtlAllocator@@QAEXXZ 00444cc0 f   atlsd:Allocate.obj
 0002:00028f20       ?ReleaseSnapshot@CAtlAllocator@@QAEXXZ 00444f20 f   atlsd:Allocate.obj
 0002:00029030       ?Add@?$CSimpleArray@UCModuleInfo@CTraceSnapshot@@V?$CSimpleArrayEqualHelper@UCModuleInfo@CTraceSnapshot@@@ATL@@@ATL@@QAEHABUCModuleInfo@CTraceSnapshot@@@Z 00445030 f i atlsd:Allocate.obj
 0002:000291b0       ?GetSize@?$CSimpleArray@KV?$CSimpleArrayEqualHelper@K@ATL@@@ATL@@QBEHXZ 004451b0 f i atlsd:Allocate.obj
 0002:000291d0       ?Add@?$CSimpleArray@KV?$CSimpleArrayEqualHelper@K@ATL@@@ATL@@QAEHABK@Z 004451d0 f i atlsd:Allocate.obj
 0002:00029350       ?RemoveAt@?$CSimpleArray@KV?$CSimpleArrayEqualHelper@K@ATL@@@ATL@@QAEHH@Z 00445350 f i atlsd:Allocate.obj
 0002:00029440       ??A?$CSimpleArray@KV?$CSimpleArrayEqualHelper@K@ATL@@@ATL@@QAEAAKH@Z 00445440 f i atlsd:Allocate.obj
 0002:000294d0       ?InternalSetAtIndex@?$CSimpleArray@UCModuleInfo@CTraceSnapshot@@V?$CSimpleArrayEqualHelper@UCModuleInfo@CTraceSnapshot@@@ATL@@@ATL@@QAEXHABUCModuleInfo@CTraceSnapshot@@@Z 004454d0 f i atlsd:Allocate.obj
 0002:00029530       ?InternalSetAtIndex@?$CSimpleArray@KV?$CSimpleArrayEqualHelper@K@ATL@@@ATL@@QAEXHABK@Z 00445530 f i atlsd:Allocate.obj
 0002:00029590       ??0Wrapper@?$CSimpleArray@UCModuleInfo@CTraceSnapshot@@V?$CSimpleArrayEqualHelper@UCModuleInfo@CTraceSnapshot@@@ATL@@@ATL@@QAE@ABUCModuleInfo@CTraceSnapshot@@@Z 00445590 f i atlsd:Allocate.obj
 0002:000295d0       ??0Wrapper@?$CSimpleArray@KV?$CSimpleArrayEqualHelper@K@ATL@@@ATL@@QAE@ABK@Z 004455d0 f i atlsd:Allocate.obj
 0002:00029600       ??$?2UCModuleInfo@CTraceSnapshot@@@Wrapper@?$CSimpleArray@UCModuleInfo@CTraceSnapshot@@V?$CSimpleArrayEqualHelper@UCModuleInfo@CTraceSnapshot@@@ATL@@@ATL@@SAPAXIPAUCModuleInfo@CTraceSnapshot@@@Z 00445600 f i atlsd:Allocate.obj
 0002:00029610       ??$?2K@Wrapper@?$CSimpleArray@KV?$CSimpleArrayEqualHelper@K@ATL@@@ATL@@SAPAXIPAK@Z 00445610 f i atlsd:Allocate.obj
 0002:00029620       ?memmove_s@Checked@ATL@@YAXPAXIPBXI@Z 00445620 f i atlsd:Allocate.obj
 0002:00029660       ??0CAtlTraceModuleInfo@@QAE@XZ 00445660 f   atlsd:AtlTraceModuleManager.obj
 0002:000296c0       ?Reset@CAtlTraceModuleInfo@@QAEXPAUHINSTANCE__@@@Z 004456c0 f   atlsd:AtlTraceModuleManager.obj
 0002:00029850       ??0CAtlTraceCategory@@QAE@XZ 00445850 f   atlsd:AtlTraceModuleManager.obj
 0002:000298a0       ??0CAtlTraceSettings@@QAE@XZ 004458a0 f i atlsd:AtlTraceModuleManager.obj
 0002:000298f0       ?Reset@CAtlTraceCategory@@QAEXPB_WJ@Z 004458f0 f   atlsd:AtlTraceModuleManager.obj
 0002:00029950       ??0CAtlTraceModule@@QAE@XZ 00445950 f   atlsd:AtlTraceModuleManager.obj
 0002:00029990       ?CrtDbgReport@CAtlTraceModule@@QAEXP6AHHPBDH00ZZ@Z 00445990 f   atlsd:AtlTraceModuleManager.obj
 0002:000299d0       ??0CAtlTraceProcess@@QAE@K@Z 004459d0 f   atlsd:AtlTraceModuleManager.obj
 0002:00029ae0       ?GetNextCookie@CAtlTraceProcess@@QAEJXZ 00445ae0 f   atlsd:AtlTraceModuleManager.obj
 0002:00029b04       _SysFreeString@4           00445b04 f   oleaut32:OLEAUT32.dll
 0002:00029b0a       ?_Orphan_all@_Container_base12@std@@QAEXXZ 00445b0a f   msvcprtd:MSVCP100D.dll
 0002:00029b10       ??1_Container_base12@std@@QAE@XZ 00445b10 f   msvcprtd:MSVCP100D.dll
 0002:00029b16       ?_Xout_of_range@std@@YAXPBD@Z 00445b16 f   msvcprtd:MSVCP100D.dll
 0002:00029b1c       ??1_Lockit@std@@QAE@XZ     00445b1c f   msvcprtd:MSVCP100D.dll
 0002:00029b22       ?_Getpfirst@_Container_base12@std@@QBEPAPAU_Iterator_base12@2@XZ 00445b22 f   msvcprtd:MSVCP100D.dll
 0002:00029b28       ??0_Lockit@std@@QAE@H@Z    00445b28 f   msvcprtd:MSVCP100D.dll
 0002:00029b2e       ??0_Container_base12@std@@QAE@XZ 00445b2e f   msvcprtd:MSVCP100D.dll
 0002:00029b34       ?_Xlength_error@std@@YAXPBD@Z 00445b34 f   msvcprtd:MSVCP100D.dll
 0002:00029b3a       ?_Debug_message@std@@YAXPB_W0I@Z 00445b3a f   msvcprtd:MSVCP100D.dll
 0002:00029b40       _SetupDiDestroyDeviceInfoList@4 00445b40 f   setupapi:SETUPAPI.dll
 0002:00029b46       _SetupDiGetDeviceRegistryPropertyW@28 00445b46 f   setupapi:SETUPAPI.dll
 0002:00029b4c       _SetupDiEnumDeviceInfo@12  00445b4c f   setupapi:SETUPAPI.dll
 0002:00029b52       _SetupDiGetClassDevsW@16   00445b52 f   setupapi:SETUPAPI.dll
 0002:00029b60       _wWinMain@16               00445b60 f   mfcs100ud:appmodul.obj
 0002:00029b90       ?AfxInitialize@@YGHHK@Z    00445b90 f   mfcs100ud:appmodul.obj
 0002:00029bf0       __allmul                   00445bf0 f   msvcrtd:llmul.obj
 0002:00029c40       __alldiv                   00445c40 f   msvcrtd:lldiv.obj
 0002:00029d14       __mktime64                 00445d14 f   msvcrtd:MSVCR100D.dll
 0002:00029d1a       __gmtime64_s               00445d1a f   msvcrtd:MSVCR100D.dll
 0002:00029d20       __aullshr                  00445d20 f   msvcrtd:ullshr.obj
 0002:00029d50       __allshl                   00445d50 f   msvcrtd:llshl.obj
 0002:00029d76       __snprintf_s               00445d76 f   msvcrtd:MSVCR100D.dll
 0002:00029d7c       __errno                    00445d7c f   msvcrtd:MSVCR100D.dll
 0002:00029d82       __CrtDbgReport             00445d82 f   msvcrtd:MSVCR100D.dll
 0002:00029d88       _free                      00445d88 f   msvcrtd:MSVCR100D.dll
 0002:00029d8e       _strcpy                    00445d8e f   msvcrtd:MSVCR100D.dll
 0002:00029d94       _wcscpy                    00445d94 f   msvcrtd:MSVCR100D.dll
 0002:00029d9a       __vsnprintf_s              00445d9a f   msvcrtd:MSVCR100D.dll
 0002:00029da0       __vsnwprintf_s             00445da0 f   msvcrtd:MSVCR100D.dll
 0002:00029da6       __snwprintf_s              00445da6 f   msvcrtd:MSVCR100D.dll
 0002:00029dac       _wcscpy_s                  00445dac f   msvcrtd:MSVCR100D.dll
 0002:00029db2       _wcsncpy_s                 00445db2 f   msvcrtd:MSVCR100D.dll
 0002:00029db8       _strcpy_s                  00445db8 f   msvcrtd:MSVCR100D.dll
 0002:00029dbe       _calloc                    00445dbe f   msvcrtd:MSVCR100D.dll
 0002:00029dc4       __recalloc                 00445dc4 f   msvcrtd:MSVCR100D.dll
 0002:00029dca       _memcmp                    00445dca f   msvcrtd:MSVCR100D.dll
 0002:00029dd0       __wcsicmp                  00445dd0 f   msvcrtd:MSVCR100D.dll
 0002:00029dd6       _memmove_s                 00445dd6 f   msvcrtd:MSVCR100D.dll
 0002:00029ddc       _wcslen                    00445ddc f   msvcrtd:MSVCR100D.dll
 0002:00029de2       _MulDiv@12                 00445de2 f   kernel32:KERNEL32.dll
 0002:00029de8       _FileTimeToSystemTime@8    00445de8 f   kernel32:KERNEL32.dll
 0002:00029dee       _FileTimeToLocalFileTime@8 00445dee f   kernel32:KERNEL32.dll
 0002:00029df4       _LocalFileTimeToFileTime@8 00445df4 f   kernel32:KERNEL32.dll
 0002:00029dfa       _OpenEventA@12             00445dfa f   kernel32:KERNEL32.dll
 0002:00029e00       _OutputDebugStringA@4      00445e00 f   kernel32:KERNEL32.dll
 0002:00029e06       _VirtualAlloc@16           00445e06 f   kernel32:KERNEL32.dll
 0002:00029e0c       _UnmapViewOfFile@4         00445e0c f   kernel32:KERNEL32.dll
 0002:00029e12       _GetSystemInfo@4           00445e12 f   kernel32:KERNEL32.dll
 0002:00029e18       _MapViewOfFile@20          00445e18 f   kernel32:KERNEL32.dll
 0002:00029e1e       _CreateFileMappingA@24     00445e1e f   kernel32:KERNEL32.dll
 0002:00029e24       _GetCurrentThread@0        00445e24 f   kernel32:KERNEL32.dll
 0002:00029e2a       _OpenFileMappingA@12       00445e2a f   kernel32:KERNEL32.dll
 0002:00029e30       _InterlockedIncrement@4    00445e30 f   kernel32:KERNEL32.dll
 0002:00029e36       _InterlockedDecrement@4    00445e36 f   kernel32:KERNEL32.dll
 0002:00029e3c       _CopyRect@8                00445e3c f   user32:USER32.dll
 0002:00029e42       _IsRectEmpty@4             00445e42 f   user32:USER32.dll
 0002:00029e48       _PtInRect@12               00445e48 f   user32:USER32.dll
 0002:00029e4e       _SetRect@20                00445e4e f   user32:USER32.dll
 0002:00029e54       _SetRectEmpty@4            00445e54 f   user32:USER32.dll
 0002:00029e5a       _EqualRect@8               00445e5a f   user32:USER32.dll
 0002:00029e60       _InflateRect@12            00445e60 f   user32:USER32.dll
 0002:00029e66       _OffsetRect@12             00445e66 f   user32:USER32.dll
 0002:00029e6c       _IntersectRect@12          00445e6c f   user32:USER32.dll
 0002:00029e72       _UnionRect@12              00445e72 f   user32:USER32.dll
 0002:00029e78       _SubtractRect@12           00445e78 f   user32:USER32.dll
 0002:00029e7e       _SetThreadToken@8          00445e7e f   advapi32:ADVAPI32.dll
 0002:00029e84       _RevertToSelf@0            00445e84 f   advapi32:ADVAPI32.dll
 0002:00029e8a       _OpenThreadToken@16        00445e8a f   advapi32:ADVAPI32.dll
 0002:00029e90       ?AfxWinMain@@YGHPAUHINSTANCE__@@0PA_WH@Z 00445e90 f   mfc100ud:mfc100ud.dll
 0002:00029e96       ?AfxGetModuleState@@YGPAVAFX_MODULE_STATE@@XZ 00445e96 f   mfc100ud:mfc100ud.dll
 0003:00000000       ___xc_a                    00457000     msvcrtd:cinitexe.obj
 0003:000005dc       ___xc_z                    004575dc     msvcrtd:cinitexe.obj
 0003:000006e0       ___xi_a                    004576e0     msvcrtd:cinitexe.obj
 0003:00000af0       ___xi_z                    00457af0     msvcrtd:cinitexe.obj
 0003:00000c20       ??_7CComPort@LsComm@@6B@   00457c20     ComPort.obj
 0003:00000c28       ??_C@_1FO@PJPBJICB@?$AAt?$AAh?$AAi?$AAs?$AA?5?$AAm?$AAe?$AAt?$AAh?$AAo?$AAr?$AAd?$AA?5?$AAi?$AAs?$AA?5?$AAo?$AAn?$AAl?$AAy?$AA?5?$AAu?$AAs?$AAe?$AAd?$AA?5?$AAf?$AAo?$AAr?$AA?5?$AAM?$AAa@ 00457c28     ComPort.obj
 0003:00000c98       ??_C@_0CP@HCMIJOGO@e?3?2cz?2vs?2dvicectrldlg_new_signal@ 00457c98     ComPort.obj
 0003:00000cd0       ??_C@_1FC@NLHMHPCO@?$AAC?$AAa?$AAn?$AA?8?$AAt?$AA?5?$AAu?$AAs?$AAe?$AA?5?$AAG?$AAe?$AAt?$AAI?$AAn?$AAp?$AAu?$AAt?$AA?5?$AAm?$AAe?$AAt?$AAh?$AAo?$AAr?$AAd?$AA?5?$AAi?$AAn?$AA?5?$AAt?$AAh@ 00457cd0     ComPort.obj
 0003:00000d34       ??_C@_1M@OLEMGGOE@?$AA?$CF?$AA0?$AA2?$AAX?$AA?5?$AA?$AA@ 00457d34     ComPort.obj
 0003:00000d44       ??_C@_11LOCGONAA@?$AA?$AA@ 00457d44     ComPort.obj
 0003:00000d4c       ??_7CReadComThread@LsComm@@6B@ 00457d4c     ComPort.obj
 0003:00000d54       ??_C@_15FLLIJDNB@?$AAo?$AAk?$AA?$AA@ 00457d54     ComPort.obj
 0003:00000d5c       ??_C@_1CK@KCDIBIIB@?$AAC?$AAr?$AAe?$AAa?$AAt?$AAe?$AAT?$AAh?$AAr?$AAe?$AAa?$AAd?$AA?5?$AAf?$AAa?$AAi?$AAl?$AAe?$AAd?$AA?4?$AA?$AA@ 00457d5c     ComPort.obj
 0003:00000d8e       ?value@?$integral_constant@_N$0A@@tr1@std@@2_NB 00457d8e     DviceCtrlDlg.obj
 0003:00000d8f       ?value@?$integral_constant@_N$00@tr1@std@@2_NB 00457d8f     DviceCtrlDlg.obj
 0003:00000d90       ?value@?$integral_constant@I$0A@@tr1@std@@2IB 00457d90     DviceCtrlDlg.obj
 0003:00000d94       ?_Rank@?$_Arithmetic_traits@_N@std@@2HB 00457d94     DviceCtrlDlg.obj
 0003:00000d98       ?_Rank@?$_Arithmetic_traits@D@std@@2HB 00457d98     DviceCtrlDlg.obj
 0003:00000d9c       ?_Rank@?$_Arithmetic_traits@C@std@@2HB 00457d9c     DviceCtrlDlg.obj
 0003:00000da0       ?_Rank@?$_Arithmetic_traits@E@std@@2HB 00457da0     DviceCtrlDlg.obj
 0003:00000da4       ?_Rank@?$_Arithmetic_traits@F@std@@2HB 00457da4     DviceCtrlDlg.obj
 0003:00000da8       ?_Rank@?$_Arithmetic_traits@G@std@@2HB 00457da8     DviceCtrlDlg.obj
 0003:00000dac       ?_Rank@?$_Arithmetic_traits@H@std@@2HB 00457dac     DviceCtrlDlg.obj
 0003:00000db0       ?_Rank@?$_Arithmetic_traits@I@std@@2HB 00457db0     DviceCtrlDlg.obj
 0003:00000db4       ?_Rank@?$_Arithmetic_traits@J@std@@2HB 00457db4     DviceCtrlDlg.obj
 0003:00000db8       ?_Rank@?$_Arithmetic_traits@K@std@@2HB 00457db8     DviceCtrlDlg.obj
 0003:00000dbc       ?_Rank@?$_Arithmetic_traits@_J@std@@2HB 00457dbc     DviceCtrlDlg.obj
 0003:00000dc0       ?_Rank@?$_Arithmetic_traits@_K@std@@2HB 00457dc0     DviceCtrlDlg.obj
 0003:00000dc4       ?_Rank@?$_Arithmetic_traits@M@std@@2HB 00457dc4     DviceCtrlDlg.obj
 0003:00000dc8       ?_Rank@?$_Arithmetic_traits@N@std@@2HB 00457dc8     DviceCtrlDlg.obj
 0003:00000dcc       ?_Rank@?$_Arithmetic_traits@O@std@@2HB 00457dcc     DviceCtrlDlg.obj
 0003:00000e1c       ??_7CDviceCtrlDlgApp@@6B@  00457e1c     DviceCtrlDlg.obj
 0003:00000fb4       ??_C@_19OPBLLBOM@?$IL?$LOY?$AHd?MO?2?$AA?$AA@ 00457fb4     DviceCtrlDlg.obj
 0003:00000fc0       ??_C@_1BA@FDGHOEJM@N?$AL?$ICrSaQIn?$JA?$IM?$AD?$IC?$IC?$AA?$AA@ 00457fc0     DviceCtrlDlg.obj
 0003:00000fd4       ??_C@_1BA@PNAPHFAN@N?6?$ICrSaQIn?$JA?$IM?$AD?$IC?$IC?$AA?$AA@ 00457fd4     DviceCtrlDlg.obj
 0003:00000fe8       ??_C@_1O@PJHKGIMH@N?$ALv?$HNpo?$HL?$LB?$IM?$AD?$IC?$IC?$AA?$AA@ 00457fe8     DviceCtrlDlg.obj
 0003:00000ff8       ??_C@_1O@GEHFIJLB@N?6v?$HNpo?$HL?$LB?$IM?$AD?$IC?$IC?$AA?$AA@ 00457ff8     DviceCtrlDlg.obj
 0003:00001008       ??_C@_1O@KJGOGIJF@?$FO?$JFg?$HPb?$KM?$INwh?$MAmK?$AA?$AA@ 00458008     DviceCtrlDlg.obj
 0003:00001018       ??_C@_1O@KHGDJIGO@Y?$CJg?$HPy?$LL_?$AAh?$MAmK?$AA?$AA@ 00458018     DviceCtrlDlg.obj
 0003:00001028       ??_C@_1O@GMGEDNBE@Y?$CJg?$HPR0OMh?$MAmK?$AA?$AA@ 00458028     DviceCtrlDlg.obj
 0003:00001038       ??_C@_1BA@KGEKPKOC@?$AAU?$AAS?$AABR0OMh?$MAmK?$AA?$AA@ 00458038     DviceCtrlDlg.obj
 0003:0000104c       ??_C@_1O@HOAOAMGL@v?xg?3u5n?$JAQs?$JF?m?$AA?$AA@ 0045804c     DviceCtrlDlg.obj
 0003:0000105c       ??_C@_1O@CHAOEBHI@v?xg?3u5n?$JAbS_?$AA?$AA?$AA@ 0045805c     DviceCtrlDlg.obj
 0003:0000106c       ??_C@_1O@KHCFJLPD@v?xg?3c?7?$JF?4_9?$INw?$AA?$AA@ 0045806c     DviceCtrlDlg.obj
 0003:0000107c       ??_C@_1O@HFIOPOOE@v?xg?3c?7?$JF?4c?7N?$AL?$AA?$AA@ 0045807c     DviceCtrlDlg.obj
 0003:0000108c       ??_C@_1M@DBMLJONM@c?$ACg?3?$JF?4_9?$INw?$AA?$AA@ 0045808c     DviceCtrlDlg.obj
 0003:0000109c       ??_C@_1M@ODGAPLML@c?$ACg?3?$JF?4c?7N?$AL?$AA?$AA@ 0045809c     DviceCtrlDlg.obj
 0003:000010ac       ??_C@_19NNMIJBFF@?$JH?$AN?2?$BE_9?$INw?$AA?$AA@ 004580ac     DviceCtrlDlg.obj
 0003:000010b8       ??_C@_19PGDPEEC@?$JH?$AN?2?$BEc?7N?$AL?$AA?$AA@ 004580b8     DviceCtrlDlg.obj
 0003:000010c4       ??_C@_19OALIHFCC@T9?2?$BI?$HO?Sg_?$AA?$AA@ 004580c4     DviceCtrlDlg.obj
 0003:000010d0       ??_C@_19JEGEKDHO@T9?2?$BI_?$AAY?K?$AA?$AA@ 004580d0     DviceCtrlDlg.obj
 0003:000010dc       ??_C@_19CDLPOHMH@h7g?3e?$DO_?$AA?$AA?$AA@ 004580dc     DviceCtrlDlg.obj
 0003:000010e8       ??_C@_19JKLDNACP@h7g?3V?z?$FL?$JK?$AA?$AA@ 004580e8     DviceCtrlDlg.obj
 0003:000010f4       ??_C@_1BE@LMBKONAN@v?xg?3?$AAU?$AAS?$AABu5n?$JAQs?$JF?m?$AA?$AA@ 004580f4     DviceCtrlDlg.obj
 0003:0000110c       ??_C@_1BE@OFBKKABO@v?xg?3?$AAU?$AAS?$AABu5n?$JAbS_?$AA?$AA?$AA@ 0045810c     DviceCtrlDlg.obj
 0003:00001124       ??_C@_1BA@IEEJPODI@?$HO?$KC?$ICr?2Oepcn?$IL?$PLS?V?$AA?$AA@ 00458124     DviceCtrlDlg.obj
 0003:00001138       ??_C@_1BA@LIJFDNLJ@?$HO?$KC?$ICr?2OmK?$IL?U_?$AAY?K?$AA?$AA@ 00458138     DviceCtrlDlg.obj
 0003:0000114c       ??_C@_1BA@EFFKHEAF@?$HO?$PP?$ICr?2Oepcn?$IL?$PLS?V?$AA?$AA@ 0045814c     DviceCtrlDlg.obj
 0003:00001160       ??_C@_1BA@HJIGLHIE@?$HO?$PP?$ICr?2OmK?$IL?U_?$AAY?K?$AA?$AA@ 00458160     DviceCtrlDlg.obj
 0003:00001174       ??_C@_1BA@PKBBHNBK@?$IE?$NN?$ICr?2Oepcn?$IL?$PLS?V?$AA?$AA@ 00458174     DviceCtrlDlg.obj
 0003:00001188       ??_C@_1BA@MGMNLOJL@?$IE?$NN?$ICr?2OmK?$IL?U_?$AAY?K?$AA?$AA@ 00458188     DviceCtrlDlg.obj
 0003:0000119c       ??_C@_1BE@KMDEMM@?$HO?$KC?$ICrc?$AHy?3poepcn?$IL?$PLS?V?$AA?$AA@ 0045819c     DviceCtrlDlg.obj
 0003:000011b4       ??_C@_1BE@DMHAPHEN@?$HO?$KC?$ICrc?$AHy?3pomK?$IL?U_?$AAY?K?$AA?$AA@ 004581b4     DviceCtrlDlg.obj
 0003:000011cc       ??_C@_1O@DJMPBOOD@?$IA?LQIepcn?$IL?$PLS?V?$AA?$AA@ 004581cc     DviceCtrlDlg.obj
 0003:000011dc       ??_C@_1O@LBLFPDF@?$IA?LQIh?$MAmK_?$AAY?K?$AA?$AA@ 004581dc     DviceCtrlDlg.obj
 0003:000011ec       ??_C@_1BA@CHEDDPPM@?$AAL?$AAE?$AADepcn?$IL?$PLS?V?$AA?$AA@ 004581ec     DviceCtrlDlg.obj
 0003:00001200       ??_C@_1BA@BFJHHOCK@?$AAL?$AAE?$AADh?$MAmK_?$AAY?K?$AA?$AA@ 00458200     DviceCtrlDlg.obj
 0003:00001214       ??_C@_15NFBIKKCF@Y?$ANOM?$AA?$AA@ 00458214     DviceCtrlDlg.obj
 0003:0000121c       ??_C@_19JMEJALJK@R0OMh?$MAmK?$AA?$AA@ 0045821c     DviceCtrlDlg.obj
 0003:00001228       ??_C@_1M@OKPJEHOC@?$IJ?F?$JI?$JBz?oS?c?$AA4?$AA?$AA@ 00458228     DviceCtrlDlg.obj
 0003:00001238       ??_C@_1M@HHCOHPFL@?$IJ?F?$JI?$JBz?oS?c?$AA3?$AA?$AA@ 00458238     DviceCtrlDlg.obj
 0003:00001248       ??_C@_1M@MPJCBIDO@?$IJ?F?$JI?$JBz?oS?c?$AA2?$AA?$AA@ 00458248     DviceCtrlDlg.obj
 0003:00001258       ??_C@_1M@NNCHLHNA@?$IJ?F?$JI?$JBz?oS?c?$AA1?$AA?$AA@ 00458258     DviceCtrlDlg.obj
 0003:00001268       ??_C@_1BE@PKPMFLBC@_?$AA?$HL?$LBl?$BER?$KI?$JG?$AAQs?$AAO?$AAL?$AAD?$AA?$AA@ 00458268     DviceCtrlDlg.obj
 0003:00001280       ??_C@_1BE@CPEALOBL@_?$AA?$HL?$LBl?$BER?$KI?$JG?$AA_?$AA?$AAO?$AAL?$AAD?$AA?$AA@ 00458280     DviceCtrlDlg.obj
 0003:00001298       ??_C@_1BE@OOKFLHG@Qs?$HL?$LBl?$BER?$KI?$JG?$AAQs?$AAO?$AAL?$AAD?$AA?$AA@ 00458298     DviceCtrlDlg.obj
 0003:000012b0       ??_C@_1BE@NLFGLOHP@Qs?$HL?$LBl?$BER?$KI?$JG?$AA_?$AA?$AAO?$AAL?$AAD?$AA?$AA@ 004582b0     DviceCtrlDlg.obj
 0003:000012c8       ??_C@_19KEPOBHFJ@x?AW?3P?2kb?$AA?$AA@ 004582c8     DviceCtrlDlg.obj
 0003:000012d4       ??_C@_19IDGIAJBL@x?AW?3e?K?$IPl?$AA?$AA@ 004582d4     DviceCtrlDlg.obj
 0003:000012e0       ??_C@_1M@MLALJFKF@u5g?3?$AA4T?$AO?$JA?$AA?$AA?$AA@ 004582e0     DviceCtrlDlg.obj
 0003:000012f0       ??_C@_1M@CLKIMCBC@u5g?3?$AA4RM?$IP?$NL?$AA?$AA@ 004582f0     DviceCtrlDlg.obj
 0003:00001300       ??_C@_1M@MBMOJMLM@u5g?3?$AA3T?$AO?$JA?$AA?$AA?$AA@ 00458300     DviceCtrlDlg.obj
 0003:00001310       ??_C@_1M@CBGNMLAL@u5g?3?$AA3RM?$IP?$NL?$AA?$AA@ 00458310     DviceCtrlDlg.obj
 0003:00001320       ??_C@_1M@NGEJMCC@u5g?3?$AA2T?$AO?$JA?$AA?$AA?$AA@ 00458320     DviceCtrlDlg.obj
 0003:00001330       ??_C@_1M@ONMHMLJF@u5g?3?$AA2RM?$IP?$NL?$AA?$AA@ 00458330     DviceCtrlDlg.obj
 0003:00001340       ??_C@_1M@IDOLJLMB@u5g?3?$AA1T?$AO?$JA?$AA?$AA?$AA@ 00458340     DviceCtrlDlg.obj
 0003:00001350       ??_C@_1M@GDEIMMHG@u5g?3?$AA1RM?$IP?$NL?$AA?$AA@ 00458350     DviceCtrlDlg.obj
 0003:00001360       ??_C@_1BA@OHPAPOKM@z?oS?c?$AA4r?$LG?$GA?$ABh?$MAmK?$AA?$AA@ 00458360     DviceCtrlDlg.obj
 0003:00001374       ??_C@_1BA@JDGIBHCD@z?oS?c?$AA3r?$LG?$GA?$ABh?$MAmK?$AA?$AA@ 00458374     DviceCtrlDlg.obj
 0003:00001388       ??_C@_1BA@IMNFLEM@z?oS?c?$AA2r?$LG?$GA?$ABh?$MAmK?$AA?$AA@ 00458388     DviceCtrlDlg.obj
 0003:0000139c       ??_C@_1BA@HPFDIJLM@z?oS?c?$AA1r?$LG?$GA?$ABh?$MAmK?$AA?$AA@ 0045839c     DviceCtrlDlg.obj
 0003:000013b0       ??_C@_1M@KICGEGCK@?$IP?TV?$NO?$JF?4_9?$INw?$AA?$AA@ 004583b0     DviceCtrlDlg.obj
 0003:000013c0       ??_C@_1M@HKINCDDN@?$IP?TV?$NO?$JF?4c?7N?$AL?$AA?$AA@ 004583c0     DviceCtrlDlg.obj
 0003:000013d0       ??_C@_1M@NDLNAAPP@N?$DL?$JIu?$JF?4_9?$INw?$AA?$AA@ 004583d0     DviceCtrlDlg.obj
 0003:000013e0       ??_C@_1M@BBGGFOI@N?$DL?$JIu?$JF?4c?7N?$AL?$AA?$AA@ 004583e0     DviceCtrlDlg.obj
 0003:000013f0       ??_C@_1M@PAECBFKK@?$ID?$NMSU?$JF?4_9?$INw?$AA?$AA@ 004583f0     DviceCtrlDlg.obj
 0003:00001400       ??_C@_1M@CCOJHALN@?$ID?$NMSU?$JF?4c?7N?$AL?$AA?$AA@ 00458400     DviceCtrlDlg.obj
 0003:00001410       ??_C@_1O@KGBEOHII@?$IJ?fdx?$JF?4?$AA5_9?$INw?$AA?$AA@ 00458410     DviceCtrlDlg.obj
 0003:00001420       ??_C@_1O@HELPICJP@?$IJ?fdx?$JF?4?$AA5c?7N?$AL?$AA?$AA@ 00458420     DviceCtrlDlg.obj
 0003:00001430       ??_C@_1O@GKLOOHBG@?$IJ?fdx?$JF?4?$AA4_9?$INw?$AA?$AA@ 00458430     DviceCtrlDlg.obj
 0003:00001440       ??_C@_1O@LIBFICAB@?$IJ?fdx?$JF?4?$AA4c?7N?$AL?$AA?$AA@ 00458440     DviceCtrlDlg.obj
 0003:00001450       ??_C@_1M@LIDIPIIJ@?$AAM?$AAI?$AAC?$IM?$AD?$IC?$IC?$AA?$AA@ 00458450     DviceCtrlDlg.obj
 0003:00001460       ??_C@_1BE@LCPCPGGH@?$AAE?$AAA?$AAR?$AA?9?$AAM?$AAI?$AAC?$IM?$AD?$IC?$IC?$AA?$AA@ 00458460     DviceCtrlDlg.obj
 0003:00001478       ??_C@_1BA@LBFGKPOK@?$AAE?$AAA?$AAR?$AA?9?$AAR?$IM?$AD?$IC?$IC?$AA?$AA@ 00458478     DviceCtrlDlg.obj
 0003:0000148c       ??_C@_1BA@NIGHIMPD@?$AAE?$AAA?$AAR?$AA?9?$AAL?$IM?$AD?$IC?$IC?$AA?$AA@ 0045848c     DviceCtrlDlg.obj
 0003:000014a0       ??_C@_1M@JBILBOF@?$AAV?$AAI?$AAB?$IM?$AD?$IC?$IC?$AA?$AA@ 004584a0     DviceCtrlDlg.obj
 0003:000014b0       ??_C@_1O@LPIEAEEG@?$AAS?$AAP?$AAK?$AA2?$IM?$AD?$IC?$IC?$AA?$AA@ 004584b0     DviceCtrlDlg.obj
 0003:000014c0       ??_C@_1O@DBALADKF@?$AAS?$AAP?$AAK?$AA1?$IM?$AD?$IC?$IC?$AA?$AA@ 004584c0     DviceCtrlDlg.obj
 0003:000014d0       ??_C@_1M@NMIIGKIK@?$AAR?$AAE?$AAC?$IM?$AD?$IC?$IC?$AA?$AA@ 004584d0     DviceCtrlDlg.obj
 0003:000014e0       ??_C@_1O@IMJJJDFH@?$JH?s?$JI?$JB?$JA?$BK?$JASR?$AHcb?$AA?$AA@ 004584e0     DviceCtrlDlg.obj
 0003:000014f0       ??_C@_1BG@EGNBCKPN@?$HO?$KC?$ICr?$AAL?$AAE?$AADpor?$LG?$GA?$ABg?e?$IL?b?$AA?$AA@ 004584f0     DviceCtrlDlg.obj
 0003:0000150c       ??_C@_1BG@NHKCJCLL@?$HO?$PP?$ICr?$AAL?$AAE?$AADpor?$LG?$GA?$ABg?e?$IL?b?$AA?$AA@ 0045850c     DviceCtrlDlg.obj
 0003:00001528       ??_C@_1O@DIEEJPHG@?$IA3g?3r?$LG?$GA?$ABg?e?$IL?b?$AA?$AA@ 00458528     DviceCtrlDlg.obj
 0003:00001538       ??_C@_1BI@LEJMMEH@c?7?$JF?4pomK?$IL?US?$ILg?$HPr?$LG?$GA?$ABg?e?$IL?b?$AA?$AA@ 00458538     DviceCtrlDlg.obj
 0003:00001554       ??_C@_1O@JPFCJEFO@S?$ILg?$HPr?$LG?$GA?$ABg?e?$IL?b?$AA?$AA@ 00458554     DviceCtrlDlg.obj
 0003:00001564       ??_C@_1BI@HLEGENHB@RM?$HPndDP?OY4QIn?$JAr?$LG?$GA?$ABg?e?$IL?b?$AA?$AA@ 00458564     DviceCtrlDlg.obj
 0003:00001580       ??_C@_1BA@JPAAFEIE@s?$KPX?$IDQIr?$LG?$GA?$ABg?e?$IL?b?$AA?$AA@ 00458580     DviceCtrlDlg.obj
 0003:00001594       ??_C@_1BA@HAJCONNC@v?$HNu?$DL?$JHbr?$LG?$GA?$ABg?e?$IL?b?$AA?$AA@ 00458594     DviceCtrlDlg.obj
 0003:000015a8       ??_C@_1BC@JOILPBBA@?$IJ?fdx?$JF?4?$AA4r?$LG?$GA?$ABg?e?$IL?b?$AA?$AA@ 004585a8     DviceCtrlDlg.obj
 0003:000015c0       ??_C@_1BC@OKBDBIJP@?$IJ?fdx?$JF?4?$AA3r?$LG?$GA?$ABg?e?$IL?b?$AA?$AA@ 004585c0     DviceCtrlDlg.obj
 0003:000015d8       ??_C@_1BC@HBLGFEPA@?$IJ?fdx?$JF?4?$AA2r?$LG?$GA?$ABg?e?$IL?b?$AA?$AA@ 004585d8     DviceCtrlDlg.obj
 0003:000015f0       ??_C@_1BC@GCIIGAA@?$IJ?fdx?$JF?4?$AA1r?$LG?$GA?$ABg?e?$IL?b?$AA?$AA@ 004585f0     DviceCtrlDlg.obj
 0003:00001608       ??_C@_1BI@OIEOGMJG@T?$AO?$HPndDP?OY4QIn?$JAr?$LG?$GA?$ABg?e?$IL?b?$AA?$AA@ 00458608     DviceCtrlDlg.obj
 0003:00001624       ??_C@_1BC@BCKLCEHE@?$JH?s?$JB?O?$AA?9?$JF?4r?$LG?$GA?$ABg?e?$IL?b?$AA?$AA@ 00458624     DviceCtrlDlg.obj
 0003:0000163c       ??_C@_1BC@OKGJGPMC@?$JH?s?$JB?O?$AA?$CL?$JF?4r?$LG?$GA?$ABg?e?$IL?b?$AA?$AA@ 0045863c     DviceCtrlDlg.obj
 0003:00001654       ??_C@_1BA@DGGBIAA@u5n?$JA?$JF?4r?$LG?$GA?$ABg?e?$IL?b?$AA?$AA@ 00458654     DviceCtrlDlg.obj
 0003:00001668       ??_C@_1O@MKFMBCPN@?$HO?$KC?$ICr?$AAL?$AAE?$AADpm?$AA?$AA@ 00458668     DviceCtrlDlg.obj
 0003:00001678       ??_C@_1O@IAFBJLIP@?$HO?$KC?$ICr?$AAL?$AAE?$AADN?$KO?$AA?$AA@ 00458678     DviceCtrlDlg.obj
 0003:00001688       ??_C@_1O@FKKNKJDL@?$HO?$PP?$ICr?$AAL?$AAE?$AADpm?$AA?$AA@ 00458688     DviceCtrlDlg.obj
 0003:00001698       ??_C@_1O@BAKACAEJ@?$HO?$PP?$ICr?$AAL?$AAE?$AADN?$KO?$AA?$AA@ 00458698     DviceCtrlDlg.obj
 0003:000016a8       ??_C@_19ENAAFLHD@?$IA3g?3b?TQ?z?$AA?$AA@ 004586a8     DviceCtrlDlg.obj
 0003:000016b4       ??_C@_19EDBKGACM@?$IA3g?3c?RQe?$AA?$AA@ 004586b4     DviceCtrlDlg.obj
 0003:000016c0       ??_C@_19MEJAKFF@?$JB?MR?$JL_9?$INw?$AA?$AA@ 004586c0     DviceCtrlDlg.obj
 0003:000016cc       ??_C@_19NOOCGPEC@?$JB?MR?$JLc?7N?$AL?$AA?$AA@ 004586cc     DviceCtrlDlg.obj
 0003:000016d8       ??_C@_19OAAHAMNF@S?$ILg?$HPb?$KM?$INw?$AA?$AA@ 004586d8     DviceCtrlDlg.obj
 0003:000016e4       ??_C@_19KLIIFOKD@S?$ILg?$HPN?$ALS?$IL?$AA?$AA@ 004586e4     DviceCtrlDlg.obj
 0003:000016f0       ??_C@_1BA@BHLMEMCP@v?$HNpo?$HL?$LBQIn?$JAQs?$JF?m?$AA?$AA@ 004586f0     DviceCtrlDlg.obj
 0003:00001704       ??_C@_1BA@EOLMABDM@v?$HNpo?$HL?$LBQIn?$JAbS_?$AA?$AA?$AA@ 00458704     DviceCtrlDlg.obj
 0003:00001718       ??_C@_1M@MOFPAIKO@?$AAO?$AAT?$AAGY?$ANOM?$AA?$AA@ 00458718     DviceCtrlDlg.obj
 0003:00001728       ??_C@_1M@OBMKFJKA@?$AAO?$AAT?$AAGh?$MAmK?$AA?$AA@ 00458728     DviceCtrlDlg.obj
 0003:00001738       ??_C@_1O@CBLEGKIA@_?$AA?$HL?$LBl?$BER?$KI?$JG?$AAQs?$AA?$AA@ 00458738     DviceCtrlDlg.obj
 0003:00001748       ??_C@_15JBEKIAI@_?$AA?$HL?$LB?$AA?$AA@ 00458748     DviceCtrlDlg.obj
 0003:00001750       ??_C@_1O@ENFMPAKO@Qs?$HL?$LBl?$BER?$KI?$JG?$AAQs?$AA?$AA@ 00458750     DviceCtrlDlg.obj
 0003:00001760       ??_C@_15DLJCGJAG@Qs?$HL?$LB?$AA?$AA@ 00458760     DviceCtrlDlg.obj
 0003:00001768       ??_C@_1O@GAHLOOAP@?$IJ?fdx?$JF?4?$AA3_9?$INw?$AA?$AA@ 00458768     DviceCtrlDlg.obj
 0003:00001778       ??_C@_1O@LCNAILBI@?$IJ?fdx?$JF?4?$AA3c?7N?$AL?$AA?$AA@ 00458778     DviceCtrlDlg.obj
 0003:00001788       ??_C@_1O@KMNBOOJB@?$IJ?fdx?$JF?4?$AA2_9?$INw?$AA?$AA@ 00458788     DviceCtrlDlg.obj
 0003:00001798       ??_C@_1O@HOHKILIG@?$IJ?fdx?$JF?4?$AA2c?7N?$AL?$AA?$AA@ 00458798     DviceCtrlDlg.obj
 0003:000017a8       ??_C@_1O@CCFOOJHC@?$IJ?fdx?$JF?4?$AA1_9?$INw?$AA?$AA@ 004587a8     DviceCtrlDlg.obj
 0003:000017b8       ??_C@_1O@PAPFIMGF@?$IJ?fdx?$JF?4?$AA1c?7N?$AL?$AA?$AA@ 004587b8     DviceCtrlDlg.obj
 0003:000017c8       ??_C@_1O@BDFPHKDC@?$ICrSaQIn?$JAQs?$JF?m?$AA?$AA@ 004587c8     DviceCtrlDlg.obj
 0003:000017d8       ??_C@_1O@EKFPDHCB@?$ICrSaQIn?$JAbS_?$AA?$AA?$AA@ 004587d8     DviceCtrlDlg.obj
 0003:000017e8       ??_C@_1M@PHAPILPM@?$JH?s?$JB?O?$AA?9_9?$INw?$AA?$AA@ 004587e8     DviceCtrlDlg.obj
 0003:000017f8       ??_C@_1M@CFKEOOOL@?$JH?s?$JB?O?$AA?9c?7N?$AL?$AA?$AA@ 004587f8     DviceCtrlDlg.obj
 0003:00001808       ??_C@_1M@DBGAICHL@?$JH?s?$JB?O?$AA?$CL_9?$INw?$AA?$AA@ 00458808     DviceCtrlDlg.obj
 0003:00001818       ??_C@_1M@ODMLOHGM@?$JH?s?$JB?O?$AA?$CLc?7N?$AL?$AA?$AA@ 00458818     DviceCtrlDlg.obj
 0003:00001828       ??_C@_1M@FOAGDJM@u5n?$JA?$JF?4_9?$INw?$AA?$AA@ 00458828     DviceCtrlDlg.obj
 0003:00001838       ??_C@_1M@NHELAGIL@u5n?$JA?$JF?4c?7N?$AL?$AA?$AA@ 00458838     DviceCtrlDlg.obj
 0003:00001848       ??_C@_1O@HAJLIGNE@T?$AO?$JF?jQIpoh?$MAmK?$AA?$AA@ 00458848     DviceCtrlDlg.obj
 0003:00001858       ??_C@_1O@ONKGILCD@RM?$JF?jQIpoh?$MAmK?$AA?$AA@ 00458858     DviceCtrlDlg.obj
 0003:00001868       ??_C@_19JDHNBCEO@u5mAh?$MAmK?$AA?$AA@ 00458868     DviceCtrlDlg.obj
 0003:00001874       ??_C@_19CKIIAGBC@X?p?$JH?sh?$MAmK?$AA?$AA@ 00458874     DviceCtrlDlg.obj
 0003:00001880       ??_C@_1BE@IKIGOIGL@z?oS?c?$AA7?$IP?$JDQer?$LG?$GA?$ABg?e?$IL?b?$AA?$AA@ 00458880     DviceCtrlDlg.obj
 0003:00001898       ??_C@_1BE@CEOOHJPK@z?oS?c?$AA6?$IP?$JDQer?$LG?$GA?$ABg?e?$IL?b?$AA?$AA@ 00458898     DviceCtrlDlg.obj
 0003:000018b0       ??_C@_1BM@NIJBIKPO@?$AAE?$AAa?$AAr?$AA?9?$AAL?$IP?$JDQez?oS?cr?$LG?$GA?$ABg?e?$IL?b?$AA?$AA@ 004588b0     DviceCtrlDlg.obj
 0003:000018d4       ??_C@_1BM@CBKPGKLM@?$AAE?$AAa?$AAr?$AA?9?$AAR?$IP?$JDQez?oS?cr?$LG?$GA?$ABg?e?$IL?b?$AA?$AA@ 004588d4     DviceCtrlDlg.obj
 0003:000018f8       ??_C@_1BC@HKMBLFKL@c?1?$FLP?$IP?$JDQer?$LG?$GA?$ABg?e?$IL?b?$AA?$AA@ 004588f8     DviceCtrlDlg.obj
 0003:00001910       ??_C@_1BI@LKHEBPFA@?$AAS?$AAP?$AAK?$IP?$JDQez?oS?cr?$LG?$GA?$ABg?e?$IL?b?$AA?$AA@ 00458910     DviceCtrlDlg.obj
 0003:0000192c       ??_C@_1BK@OHGADHML@?$AAC?$AAa?$AAl?$AAl?$IP?$JDQez?oS?cr?$LG?$GA?$ABg?e?$IL?b?$AA?$AA@ 0045892c     DviceCtrlDlg.obj
 0003:0000194c       ??_C@_1BA@OHKOBPDP@z?oS?c?$AA7?$IP?$JDQeQs?$JF?m?$AA?$AA@ 0045894c     DviceCtrlDlg.obj
 0003:00001960       ??_C@_1BA@LOKOFCCM@z?oS?c?$AA7?$IP?$JDQebS_?$AA?$AA?$AA@ 00458960     DviceCtrlDlg.obj
 0003:00001974       ??_C@_1BA@HMALFDFA@z?oS?c?$AA6?$IP?$JDQeQs?$JF?m?$AA?$AA@ 00458974     DviceCtrlDlg.obj
 0003:00001988       ??_C@_1BA@CFALBOED@z?oS?c?$AA6?$IP?$JDQebS_?$AA?$AA?$AA@ 00458988     DviceCtrlDlg.obj
 0003:0000199c       ??_C@_1BK@KOBEEECE@?$AAE?$AAa?$AAr?$AA?9?$AAL?$IP?$JDQeQs?$JF?m?$AAO?$AAL?$AAD?$AA?$AA@ 0045899c     DviceCtrlDlg.obj
 0003:000019bc       ??_C@_1BK@OIFILNNG@?$AAE?$AAa?$AAr?$AA?9?$AAL?$IP?$JDQebS_?$AA?$AAO?$AAL?$AAD?$AA?$AA@ 004589bc     DviceCtrlDlg.obj
 0003:000019dc       ??_C@_1BK@JJJKAKLF@?$AAE?$AAa?$AAr?$AA?9?$AAR?$IP?$JDQeQs?$JF?m?$AAO?$AAL?$AAD?$AA?$AA@ 004589dc     DviceCtrlDlg.obj
 0003:000019fc       ??_C@_1BK@NPNGPDEH@?$AAE?$AAa?$AAr?$AA?9?$AAR?$IP?$JDQebS_?$AA?$AAO?$AAL?$AAD?$AA?$AA@ 004589fc     DviceCtrlDlg.obj
 0003:00001a1c       ??_C@_1BE@FEPEMCEE@c?1?$FLP?$IP?$JDQeQs?$JF?m?$AAO?$AAL?$AAD?$AA?$AA@ 00458a1c     DviceCtrlDlg.obj
 0003:00001a34       ??_C@_1BE@BCLIDLLG@c?1?$FLP?$IP?$JDQebS_?$AA?$AAO?$AAL?$AAD?$AA?$AA@ 00458a34     DviceCtrlDlg.obj
 0003:00001a4c       ??_C@_1BG@POKHNMIG@?$AAS?$AAP?$AAK?$IP?$JDQeQs?$JF?m?$AAO?$AAL?$AAD?$AA?$AA@ 00458a4c     DviceCtrlDlg.obj
 0003:00001a68       ??_C@_1BG@LIOLCFHE@?$AAS?$AAP?$AAK?$IP?$JDQebS_?$AA?$AAO?$AAL?$AAD?$AA?$AA@ 00458a68     DviceCtrlDlg.obj
 0003:00001a84       ??_C@_1BI@NOPEOLLA@?$AAC?$AAA?$AAL?$AAL?$IP?$JDQeQs?$JF?m?$AAO?$AAL?$AAD?$AA?$AA@ 00458a84     DviceCtrlDlg.obj
 0003:00001aa0       ??_C@_1BI@JILIBCEC@?$AAC?$AAA?$AAL?$AAL?$IP?$JDQebS_?$AA?$AAO?$AAL?$AAD?$AA?$AA@ 00458aa0     DviceCtrlDlg.obj
 0003:00001abc       ??_C@_1BE@EAPMLJIB@z?oS?c?$AA3?$IP?$JDQ?zr?$LG?$GA?$ABg?e?$IL?b?$AA?$AA@ 00458abc     DviceCtrlDlg.obj
 0003:00001ad4       ??_C@_1BI@JFIGEOA@?$AAM?$AAI?$AAC?$IP?$JDQ?zz?oS?cr?$LG?$GA?$ABg?e?$IL?b?$AA?$AA@ 00458ad4     DviceCtrlDlg.obj
 0003:00001af0       ??_C@_1CA@NHFOFAEC@?$AAE?$AAa?$AAr?$AA?9?$AAM?$AAI?$AAC?$IP?$JDQ?zz?oS?cr?$LG?$GA?$ABg?e?$IL?b?$AA?$AA@ 00458af0     DviceCtrlDlg.obj
 0003:00001b18       ??_C@_1BA@BCAIICBN@z?oS?c?$AA3?$IP?$JDQ?zQs?$JF?m?$AA?$AA@ 00458b18     DviceCtrlDlg.obj
 0003:00001b2c       ??_C@_1BA@ELAIMPAO@z?oS?c?$AA3?$IP?$JDQ?zbS_?$AA?$AA?$AA@ 00458b2c     DviceCtrlDlg.obj
 0003:00001b40       ??_C@_1BG@CAJMGFOC@?$AAM?$AAI?$AAC?$IP?$JDQ?zQs?$JF?m?$AAO?$AAL?$AAD?$AA?$AA@ 00458b40     DviceCtrlDlg.obj
 0003:00001b5c       ??_C@_1BG@GGNAJMBA@?$AAM?$AAI?$AAC?$IP?$JDQ?zbS_?$AA?$AAO?$AAL?$AAD?$AA?$AA@ 00458b5c     DviceCtrlDlg.obj
 0003:00001b78       ??_C@_1BO@DHAJJEBC@?$AAE?$AAa?$AAr?$AA?9?$AAM?$AAI?$AAC?$IP?$JDQ?zQs?$JF?m?$AAO?$AAL?$AAD?$AA?$AA@ 00458b78     DviceCtrlDlg.obj
 0003:00001b9c       ??_C@_1BO@HBEFGNOA@?$AAE?$AAa?$AAr?$AA?9?$AAM?$AAI?$AAC?$IP?$JDQ?zbS_?$AA?$AAO?$AAL?$AAD?$AA?$AA@ 00458b9c     DviceCtrlDlg.obj
 0003:00001bc0       ??_C@_1O@JFCOMPKO@Qs?$JF?mO?aS?wN?$KHu?$BP?$AA?$AA@ 00458bc0     DviceCtrlDlg.obj
 0003:00001bd0       ??_C@_1M@PACLNHIB@?$AA1?$AA0?$AAK?$AAH?$AAz?$AA?$AA@ 00458bd0     DviceCtrlDlg.obj
 0003:00001be0       ??_C@_19BNBMILH@?$AA5?$AAK?$AAH?$AAz?$AA?$AA@ 00458be0     DviceCtrlDlg.obj
 0003:00001bec       ??_C@_19IDKGIMN@?$AA1?$AAK?$AAH?$AAz?$AA?$AA@ 00458bec     DviceCtrlDlg.obj
 0003:00001bf8       ??_C@_1BC@IMLEBOJD@g?e?$IL?bS?o?$IM?$ADu5n?$JAr?$LG?$GA?$AB?$AA?$AA@ 00458bf8     DviceCtrlDlg.obj
 0003:00001c10       ??_C@_1M@OAEHLIIE@?$AA5?$AAVu5n?$JAQs?$AA?$AA@ 00458c10     DviceCtrlDlg.obj
 0003:00001c20       ??_C@_1M@JDFDJKPM@?$AA5?$AAVu5n?$JA_?$AA?$AA?$AA@ 00458c20     DviceCtrlDlg.obj
 0003:00001c30       ??_C@_19GMDECDPE@u5S?$IL?$IM?$ADet?$AA?$AA@ 00458c30     DviceCtrlDlg.obj
 0003:00001c3c       ??_C@_19JCNDCNPG@Q?$JJQeepcn?$AA?$AA@ 00458c3c     DviceCtrlDlg.obj
 0003:00001c48       ??_C@_19DAEIJEEB@?$IL?$PLQ?zepcn?$AA?$AA@ 00458c48     DviceCtrlDlg.obj
 0003:00001c54       ??_C@_1M@FLOKEGB@?$AA0?$AA7?$AA?5?$AA0?$AA3?$AA?$AA@ 00458c54     DviceCtrlDlg.obj
 0003:00001c64       ??_C@_1M@LNACMDAE@?$AA0?$AA7?$AA?5?$AA0?$AA2?$AA?$AA@ 00458c64     DviceCtrlDlg.obj
 0003:00001c74       ??_C@_1BC@COHPOCGK@?$AA0?$AA7?$AA?5?$AA0?$AA5?$AA?5?$AAF?$AAF?$AA?$AA@ 00458c74     DviceCtrlDlg.obj
 0003:00001c8c       ??_C@_1BC@MBLNIJFE@?$AA0?$AA7?$AA?5?$AA0?$AA4?$AA?5?$AAF?$AAF?$AA?$AA@ 00458c8c     DviceCtrlDlg.obj
 0003:00001ca4       ??_C@_1BC@CHJEECBA@?$AA0?$AA7?$AA?5?$AA0?$AA1?$AA?5?$AAF?$AAF?$AA?$AA@ 00458ca4     DviceCtrlDlg.obj
 0003:00001cbc       ??_C@_1BC@MIFGCJCO@?$AA0?$AA7?$AA?5?$AA0?$AA0?$AA?5?$AAF?$AAF?$AA?$AA@ 00458cbc     DviceCtrlDlg.obj
 0003:00001cd4       ??_C@_1BC@HGOFLOFO@?$AA0?$AA9?$AA?5?$AA0?$AA6?$AA?5?$AA0?$AA0?$AA?$AA@ 00458cd4     DviceCtrlDlg.obj
 0003:00001cec       ??_C@_1BC@OFMKKPMC@?$AA0?$AA9?$AA?5?$AA0?$AA6?$AA?5?$AAF?$AAF?$AA?$AA@ 00458cec     DviceCtrlDlg.obj
 0003:00001d04       ??_C@_1BC@JNNCAFFN@?$AA0?$AA9?$AA?5?$AA0?$AA5?$AA?5?$AA0?$AA0?$AA?$AA@ 00458d04     DviceCtrlDlg.obj
 0003:00001d1c       ??_C@_1BC@OPNBEMB@?$AA0?$AA9?$AA?5?$AA0?$AA5?$AA?5?$AAF?$AAF?$AA?$AA@ 00458d1c     DviceCtrlDlg.obj
 0003:00001d34       ??_C@_1BC@HCBAGOGD@?$AA0?$AA9?$AA?5?$AA0?$AA4?$AA?5?$AA0?$AA0?$AA?$AA@ 00458d34     DviceCtrlDlg.obj
 0003:00001d4c       ??_C@_1BC@OBDPHPPP@?$AA0?$AA9?$AA?5?$AA0?$AA4?$AA?5?$AAF?$AAF?$AA?$AA@ 00458d4c     DviceCtrlDlg.obj
 0003:00001d64       ??_C@_1BC@JAMMHFBK@?$AA0?$AA9?$AA?5?$AA0?$AA3?$AA?5?$AA0?$AA0?$AA?$AA@ 00458d64     DviceCtrlDlg.obj
 0003:00001d7c       ??_C@_1BC@DODGEIG@?$AA0?$AA9?$AA?5?$AA0?$AA3?$AA?5?$AAF?$AAF?$AA?$AA@ 00458d7c     DviceCtrlDlg.obj
 0003:00001d94       ??_C@_1BC@HPAOBOCE@?$AA0?$AA9?$AA?5?$AA0?$AA2?$AA?5?$AA0?$AA0?$AA?$AA@ 00458d94     DviceCtrlDlg.obj
 0003:00001dac       ??_C@_1BC@OMCBAPLI@?$AA0?$AA9?$AA?5?$AA0?$AA2?$AA?5?$AAF?$AAF?$AA?$AA@ 00458dac     DviceCtrlDlg.obj
 0003:00001dc4       ??_C@_1BC@JEDJKFCH@?$AA0?$AA9?$AA?5?$AA0?$AA1?$AA?5?$AA0?$AA0?$AA?$AA@ 00458dc4     DviceCtrlDlg.obj
 0003:00001ddc       ??_C@_1BC@HBGLELL@?$AA0?$AA9?$AA?5?$AA0?$AA1?$AA?5?$AAF?$AAF?$AA?$AA@ 00458ddc     DviceCtrlDlg.obj
 0003:00001df4       ??_C@_1BC@HLPLMOBJ@?$AA0?$AA9?$AA?5?$AA0?$AA0?$AA?5?$AA0?$AA0?$AA?$AA@ 00458df4     DviceCtrlDlg.obj
 0003:00001e0c       ??_C@_1BC@OINENPIF@?$AA0?$AA9?$AA?5?$AA0?$AA0?$AA?5?$AAF?$AAF?$AA?$AA@ 00458e0c     DviceCtrlDlg.obj
 0003:00001e24       ??_C@_1BC@DDLKJEMM@?$AA0?$AA8?$AA?5?$AA0?$AA5?$AA?5?$AA0?$AA0?$AA?$AA@ 00458e24     DviceCtrlDlg.obj
 0003:00001e3c       ??_C@_1BC@KAJFIFFA@?$AA0?$AA8?$AA?5?$AA0?$AA5?$AA?5?$AAF?$AAF?$AA?$AA@ 00458e3c     DviceCtrlDlg.obj
 0003:00001e54       ??_C@_1BC@NMHIPPPC@?$AA0?$AA8?$AA?5?$AA0?$AA4?$AA?5?$AA0?$AA0?$AA?$AA@ 00458e54     DviceCtrlDlg.obj
 0003:00001e6c       ??_C@_1BC@EPFHOOGO@?$AA0?$AA8?$AA?5?$AA0?$AA4?$AA?5?$AAF?$AAF?$AA?$AA@ 00458e6c     DviceCtrlDlg.obj
 0003:00001e84       ??_C@_1BC@DOKEOEIL@?$AA0?$AA8?$AA?5?$AA0?$AA3?$AA?5?$AA0?$AA0?$AA?$AA@ 00458e84     DviceCtrlDlg.obj
 0003:00001e9c       ??_C@_1BC@KNILPFBH@?$AA0?$AA8?$AA?5?$AA0?$AA3?$AA?5?$AAF?$AAF?$AA?$AA@ 00458e9c     DviceCtrlDlg.obj
 0003:00001eb4       ??_C@_1BC@NBGGIPLF@?$AA0?$AA8?$AA?5?$AA0?$AA2?$AA?5?$AA0?$AA0?$AA?$AA@ 00458eb4     DviceCtrlDlg.obj
 0003:00001ecc       ??_C@_1BC@ECEJJOCJ@?$AA0?$AA8?$AA?5?$AA0?$AA2?$AA?5?$AAF?$AAF?$AA?$AA@ 00458ecc     DviceCtrlDlg.obj
 0003:00001ee4       ??_C@_1BC@DKFBDELG@?$AA0?$AA8?$AA?5?$AA0?$AA1?$AA?5?$AA0?$AA0?$AA?$AA@ 00458ee4     DviceCtrlDlg.obj
 0003:00001efc       ??_C@_1BC@KJHOCFCK@?$AA0?$AA8?$AA?5?$AA0?$AA1?$AA?5?$AAF?$AAF?$AA?$AA@ 00458efc     DviceCtrlDlg.obj
 0003:00001f14       ??_C@_1BC@NFJDFPII@?$AA0?$AA8?$AA?5?$AA0?$AA0?$AA?5?$AA0?$AA0?$AA?$AA@ 00458f14     DviceCtrlDlg.obj
 0003:00001f2c       ??_C@_1BC@EGLMEOBE@?$AA0?$AA8?$AA?5?$AA0?$AA0?$AA?5?$AAF?$AAF?$AA?$AA@ 00458f2c     DviceCtrlDlg.obj
 0003:00001f44       ??_C@_1M@OHNAJINM@?$AA5?$AAA?$AA?5?$AAF?$AAF?$AA?$AA@ 00458f44     DviceCtrlDlg.obj
 0003:00001f54       ??_C@_1M@OFLHFOCK@?$AA0?$AAE?$AA?5?$AA0?$AA0?$AA?$AA@ 00458f54     DviceCtrlDlg.obj
 0003:00001f64       ??_C@_1M@BIMAJKPK@?$AA0?$AAD?$AA?5?$AA0?$AA3?$AA?$AA@ 00458f64     DviceCtrlDlg.obj
 0003:00001f74       ??_C@_1M@KAHMPNJP@?$AA0?$AAD?$AA?5?$AA0?$AA2?$AA?$AA@ 00458f74     DviceCtrlDlg.obj
 0003:00001f84       ??_C@_1M@LCMJFCHB@?$AA0?$AAD?$AA?5?$AA0?$AA1?$AA?$AA@ 00458f84     DviceCtrlDlg.obj
 0003:00001f94       ??_C@_1M@KHFDFBE@?$AA0?$AAD?$AA?5?$AA0?$AA0?$AA?$AA@ 00458f94     DviceCtrlDlg.obj
 0003:00001fa4       ??_C@_1BC@LPOMKMBC@?$AA0?$AAC?$AA?5?$AA0?$AA1?$AA?5?$AA0?$AA0?$AA?$AA@ 00458fa4     DviceCtrlDlg.obj
 0003:00001fbc       ??_C@_1BC@CMMDLNIO@?$AA0?$AAC?$AA?5?$AA0?$AA1?$AA?5?$AAF?$AAF?$AA?$AA@ 00458fbc     DviceCtrlDlg.obj
 0003:00001fd4       ??_C@_1BC@FACOMHCM@?$AA0?$AAC?$AA?5?$AA0?$AA0?$AA?5?$AA0?$AA0?$AA?$AA@ 00458fd4     DviceCtrlDlg.obj
 0003:00001fec       ??_C@_1BC@MDABNGLA@?$AA0?$AAC?$AA?5?$AA0?$AA0?$AA?5?$AAF?$AAF?$AA?$AA@ 00458fec     DviceCtrlDlg.obj
 0003:00002004       ??_C@_1BC@FLHJDILC@?$AA0?$AA7?$AA?5?$AA0?$AA0?$AA?5?$AA0?$AA0?$AA?$AA@ 00459004     DviceCtrlDlg.obj
 0003:0000201c       ??_C@_1BC@IIPKPPEL@?$AA0?$AA7?$AA?5?$AA0?$AA0?$AA?5?$AA0?$AAA?$AA?$AA@ 0045901c     DviceCtrlDlg.obj
 0003:00002034       ??_C@_1BC@INAJADLM@?$AA0?$AA6?$AA?5?$AA0?$AA3?$AA?5?$AAF?$AAF?$AA?$AA@ 00459034     DviceCtrlDlg.obj
 0003:0000204c       ??_C@_1BC@BOCGBCCA@?$AA0?$AA6?$AA?5?$AA0?$AA3?$AA?5?$AA0?$AA0?$AA?$AA@ 0045904c     DviceCtrlDlg.obj
 0003:00002064       ??_C@_1BC@GCMLGIIC@?$AA0?$AA6?$AA?5?$AA0?$AA2?$AA?5?$AAF?$AAF?$AA?$AA@ 00459064     DviceCtrlDlg.obj
 0003:0000207c       ??_C@_1BC@PBOEHJBO@?$AA0?$AA6?$AA?5?$AA0?$AA2?$AA?5?$AA0?$AA0?$AA?$AA@ 0045907c     DviceCtrlDlg.obj
 0003:00002094       ??_C@_1BC@IJPMNDIB@?$AA0?$AA6?$AA?5?$AA0?$AA1?$AA?5?$AAF?$AAF?$AA?$AA@ 00459094     DviceCtrlDlg.obj
 0003:000020ac       ??_C@_1BC@BKNDMCBN@?$AA0?$AA6?$AA?5?$AA0?$AA1?$AA?5?$AA0?$AA0?$AA?$AA@ 004590ac     DviceCtrlDlg.obj
 0003:000020c4       ??_C@_1BC@GGDOLILP@?$AA0?$AA6?$AA?5?$AA0?$AA0?$AA?5?$AAF?$AAF?$AA?$AA@ 004590c4     DviceCtrlDlg.obj
 0003:000020dc       ??_C@_1BC@PFBBKJCD@?$AA0?$AA6?$AA?5?$AA0?$AA0?$AA?5?$AA0?$AA0?$AA?$AA@ 004590dc     DviceCtrlDlg.obj
 0003:000020f4       ??_C@_1M@BELHEFM@?$AA0?$AA5?$AA?5?$AA0?$AA3?$AA?$AA@ 004590f4     DviceCtrlDlg.obj
 0003:00002104       ??_C@_1M@LJPHBDDJ@?$AA0?$AA5?$AA?5?$AA0?$AA2?$AA?$AA@ 00459104     DviceCtrlDlg.obj
 0003:00002114       ??_C@_1M@KLECLMNH@?$AA0?$AA5?$AA?5?$AA0?$AA1?$AA?$AA@ 00459114     DviceCtrlDlg.obj
 0003:00002124       ??_C@_1M@BDPONLLC@?$AA0?$AA5?$AA?5?$AA0?$AA0?$AA?$AA@ 00459124     DviceCtrlDlg.obj
 0003:00002134       ??_C@_1BC@MMLJFDAN@?$AA0?$AA5?$AA?5?$AA0?$AAE?$AA?5?$AA0?$AA0?$AA?$AA@ 00459134     DviceCtrlDlg.obj
 0003:0000214c       ??_C@_1BC@FPJGECJB@?$AA0?$AA5?$AA?5?$AA0?$AAE?$AA?5?$AAF?$AAF?$AA?$AA@ 0045914c     DviceCtrlDlg.obj
 0003:00002164       ??_C@_1BC@CDHLDIDD@?$AA0?$AA5?$AA?5?$AA0?$AAD?$AA?5?$AA0?$AA0?$AA?$AA@ 00459164     DviceCtrlDlg.obj
 0003:0000217c       ??_C@_1BC@LAFECJKP@?$AA0?$AA5?$AA?5?$AA0?$AAD?$AA?5?$AAF?$AAF?$AA?$AA@ 0045917c     DviceCtrlDlg.obj
 0003:00002194       ??_C@_1BC@MBKHCDEK@?$AA0?$AA5?$AA?5?$AA0?$AAC?$AA?5?$AA0?$AA0?$AA?$AA@ 00459194     DviceCtrlDlg.obj
 0003:000021ac       ??_C@_1BC@FCIIDCNG@?$AA0?$AA5?$AA?5?$AA0?$AAC?$AA?5?$AAF?$AAF?$AA?$AA@ 004591ac     DviceCtrlDlg.obj
 0003:000021c4       ??_C@_1BC@MPAOFNCF@?$AA0?$AA5?$AA?5?$AA0?$AA8?$AA?5?$AA0?$AA0?$AA?$AA@ 004591c4     DviceCtrlDlg.obj
 0003:000021dc       ??_C@_1BC@FMCBEMLJ@?$AA0?$AA5?$AA?5?$AA0?$AA8?$AA?5?$AAF?$AAF?$AA?$AA@ 004591dc     DviceCtrlDlg.obj
 0003:000021f4       ??_C@_1BC@DOAFAGKI@?$AA0?$AA5?$AA?5?$AA0?$AA7?$AA?5?$AA0?$AA0?$AA?$AA@ 004591f4     DviceCtrlDlg.obj
 0003:0000220c       ??_C@_1BC@KNCKBHDE@?$AA0?$AA5?$AA?5?$AA0?$AA7?$AA?5?$AAF?$AAF?$AA?$AA@ 0045920c     DviceCtrlDlg.obj
 0003:00002224       ??_C@_1M@CCAABKIP@?$AA0?$AAB?$AA?5?$AA0?$AA6?$AA?$AA@ 00459224     DviceCtrlDlg.obj
 0003:00002234       ??_C@_1M@JKLMHNOK@?$AA0?$AAB?$AA?5?$AA0?$AA7?$AA?$AA@ 00459234     DviceCtrlDlg.obj
 0003:00002244       ??_C@_1M@DALFLFGB@?$AA0?$AAB?$AA?5?$AA0?$AA5?$AA?$AA@ 00459244     DviceCtrlDlg.obj
 0003:00002254       ??_C@_1M@IIAJNCAE@?$AA0?$AAB?$AA?5?$AA0?$AA4?$AA?$AA@ 00459254     DviceCtrlDlg.obj
 0003:00002264       ??_C@_1M@BFNOOKLN@?$AA0?$AAB?$AA?5?$AA0?$AA3?$AA?$AA@ 00459264     DviceCtrlDlg.obj
 0003:00002274       ??_C@_1M@KNGCINNI@?$AA0?$AAB?$AA?5?$AA0?$AA2?$AA?$AA@ 00459274     DviceCtrlDlg.obj
 0003:00002284       ??_C@_1M@LPNHCCDG@?$AA0?$AAB?$AA?5?$AA0?$AA1?$AA?$AA@ 00459284     DviceCtrlDlg.obj
 0003:00002294       ??_C@_1M@HGLEFFD@?$AA0?$AAB?$AA?5?$AA0?$AA0?$AA?$AA@ 00459294     DviceCtrlDlg.obj
 0003:000022a4       ??_C@_15INLCFBGC@?$AA0?$AA5?$AA?$AA@ 004592a4     DviceCtrlDlg.obj
 0003:000022ac       ??_C@_1M@LCGIEPMM@?$AA0?$AA4?$AA?5?$AA0?$AAF?$AA?$AA@ 004592ac     DviceCtrlDlg.obj
 0003:000022bc       ??_C@_1M@KANNOACC@?$AA0?$AA4?$AA?5?$AA0?$AAE?$AA?$AA@ 004592bc     DviceCtrlDlg.obj
 0003:000022cc       ??_C@_1M@BIGBIHEH@?$AA0?$AA4?$AA?5?$AA0?$AAD?$AA?$AA@ 004592cc     DviceCtrlDlg.obj
 0003:000022dc       ??_C@_1M@IFLGLPPO@?$AA0?$AA4?$AA?5?$AA0?$AAC?$AA?$AA@ 004592dc     DviceCtrlDlg.obj
 0003:000022ec       ??_C@_1M@DNAKNIJL@?$AA0?$AA4?$AA?5?$AA0?$AAB?$AA?$AA@ 004592ec     DviceCtrlDlg.obj
 0003:000022fc       ??_C@_1M@IBDEPPAG@?$AA0?$AA4?$AA?5?$AA0?$AA9?$AA?$AA@ 004592fc     DviceCtrlDlg.obj
 0003:0000230c       ??_C@_1M@DJIIJIGD@?$AA0?$AA4?$AA?5?$AA0?$AA8?$AA?$AA@ 0045930c     DviceCtrlDlg.obj
 0003:0000231c       ??_C@_1M@GBOLIIDF@?$AA0?$AA4?$AA?5?$AA0?$AA7?$AA?$AA@ 0045931c     DviceCtrlDlg.obj
 0003:0000232c       ??_C@_1M@NJFHOPFA@?$AA0?$AA4?$AA?5?$AA0?$AA6?$AA?$AA@ 0045932c     DviceCtrlDlg.obj
 0003:0000233c       ??_C@_1M@MLOCEALO@?$AA0?$AA4?$AA?5?$AA0?$AA5?$AA?$AA@ 0045933c     DviceCtrlDlg.obj
 0003:0000234c       ??_C@_1M@HDFOCHNL@?$AA0?$AA4?$AA?5?$AA0?$AA4?$AA?$AA@ 0045934c     DviceCtrlDlg.obj
 0003:0000235c       ??_C@_1M@FGDFHIAH@?$AA0?$AA4?$AA?5?$AA0?$AA2?$AA?$AA@ 0045935c     DviceCtrlDlg.obj
 0003:0000236c       ??_C@_1M@EEIANHOJ@?$AA0?$AA4?$AA?5?$AA0?$AA1?$AA?$AA@ 0045936c     DviceCtrlDlg.obj
 0003:0000237c       ??_C@_1M@PMDMLAIM@?$AA0?$AA4?$AA?5?$AA0?$AA0?$AA?$AA@ 0045937c     DviceCtrlDlg.obj
 0003:0000238c       ??_C@_1BC@IJOGHJJP@?$AA0?$AA4?$AA?5?$AA0?$AAF?$AA?5?$AA0?$AA0?$AA?$AA@ 0045938c     DviceCtrlDlg.obj
 0003:000023a4       ??_C@_1BC@BKMJGIAD@?$AA0?$AA4?$AA?5?$AA0?$AAF?$AA?5?$AAF?$AAF?$AA?$AA@ 004593a4     DviceCtrlDlg.obj
 0003:000023bc       ??_C@_1BC@GCNBMCJM@?$AA0?$AA4?$AA?5?$AA0?$AAE?$AA?5?$AA0?$AA0?$AA?$AA@ 004593bc     DviceCtrlDlg.obj
 0003:000023d4       ??_C@_1BC@PBPONDAA@?$AA0?$AA4?$AA?5?$AA0?$AAE?$AA?5?$AAF?$AAF?$AA?$AA@ 004593d4     DviceCtrlDlg.obj
 0003:000023ec       ??_C@_1BC@INBDKJKC@?$AA0?$AA4?$AA?5?$AA0?$AAD?$AA?5?$AA0?$AA0?$AA?$AA@ 004593ec     DviceCtrlDlg.obj
 0003:00002404       ??_C@_1BC@BODMLIDO@?$AA0?$AA4?$AA?5?$AA0?$AAD?$AA?5?$AAF?$AAF?$AA?$AA@ 00459404     DviceCtrlDlg.obj
 0003:0000241c       ??_C@_1BC@GPMPLCNL@?$AA0?$AA4?$AA?5?$AA0?$AAC?$AA?5?$AA0?$AA0?$AA?$AA@ 0045941c     DviceCtrlDlg.obj
 0003:00002434       ??_C@_1BC@PMOAKDEH@?$AA0?$AA4?$AA?5?$AA0?$AAC?$AA?5?$AAF?$AAF?$AA?$AA@ 00459434     DviceCtrlDlg.obj
 0003:0000244c       ??_C@_1BC@IAANNJOF@?$AA0?$AA4?$AA?5?$AA0?$AAB?$AA?5?$AA0?$AA0?$AA?$AA@ 0045944c     DviceCtrlDlg.obj
 0003:00002464       ??_C@_1BC@BDCCMIHJ@?$AA0?$AA4?$AA?5?$AA0?$AAB?$AA?5?$AAF?$AAF?$AA?$AA@ 00459464     DviceCtrlDlg.obj
 0003:0000247c       ??_C@_1M@CPLPHHHF@?$AA0?$AA4?$AA?5?$AA0?$AAA?$AA?$AA@ 0045947c     DviceCtrlDlg.obj
 0003:0000248c       ??_C@_1BC@IOKEKHIK@?$AA0?$AA4?$AA?5?$AA0?$AA9?$AA?5?$AA0?$AA0?$AA?$AA@ 0045948c     DviceCtrlDlg.obj
 0003:000024a4       ??_C@_1BC@BNILLGBG@?$AA0?$AA4?$AA?5?$AA0?$AA9?$AA?5?$AAF?$AAF?$AA?$AA@ 004594a4     DviceCtrlDlg.obj
 0003:000024bc       ??_C@_1BC@GBGGMMLE@?$AA0?$AA4?$AA?5?$AA0?$AA8?$AA?5?$AA0?$AA0?$AA?$AA@ 004594bc     DviceCtrlDlg.obj
 0003:000024d4       ??_C@_1BC@PCEJNNCI@?$AA0?$AA4?$AA?5?$AA0?$AA8?$AA?5?$AAF?$AAF?$AA?$AA@ 004594d4     DviceCtrlDlg.obj
 0003:000024ec       ??_C@_1BC@JAGNJHDJ@?$AA0?$AA4?$AA?5?$AA0?$AA7?$AA?5?$AA0?$AA0?$AA?$AA@ 004594ec     DviceCtrlDlg.obj
 0003:00002504       ??_C@_1BC@DECIGKF@?$AA0?$AA4?$AA?5?$AA0?$AA7?$AA?5?$AAF?$AAF?$AA?$AA@ 00459504     DviceCtrlDlg.obj
 0003:0000251c       ??_C@_1BC@HPKPPMAH@?$AA0?$AA4?$AA?5?$AA0?$AA6?$AA?5?$AA0?$AA0?$AA?$AA@ 0045951c     DviceCtrlDlg.obj
 0003:00002534       ??_C@_1BC@OMIAONJL@?$AA0?$AA4?$AA?5?$AA0?$AA6?$AA?5?$AAF?$AAF?$AA?$AA@ 00459534     DviceCtrlDlg.obj
 0003:0000254c       ??_C@_1BC@JEJIEHAE@?$AA0?$AA4?$AA?5?$AA0?$AA5?$AA?5?$AA0?$AA0?$AA?$AA@ 0045954c     DviceCtrlDlg.obj
 0003:00002564       ??_C@_1BC@HLHFGJI@?$AA0?$AA4?$AA?5?$AA0?$AA5?$AA?5?$AAF?$AAF?$AA?$AA@ 00459564     DviceCtrlDlg.obj
 0003:0000257c       ??_C@_1BC@HLFKCMDK@?$AA0?$AA4?$AA?5?$AA0?$AA4?$AA?5?$AA0?$AA0?$AA?$AA@ 0045957c     DviceCtrlDlg.obj
 0003:00002594       ??_C@_1BC@OIHFDNKG@?$AA0?$AA4?$AA?5?$AA0?$AA4?$AA?5?$AAF?$AAF?$AA?$AA@ 00459594     DviceCtrlDlg.obj
 0003:000025ac       ??_C@_1M@OOIJBPGC@?$AA0?$AA4?$AA?5?$AA0?$AA3?$AA?$AA@ 004595ac     DviceCtrlDlg.obj
 0003:000025bc       ??_C@_1BC@HGEEFMHN@?$AA0?$AA4?$AA?5?$AA0?$AA2?$AA?5?$AA0?$AA0?$AA?$AA@ 004595bc     DviceCtrlDlg.obj
 0003:000025d4       ??_C@_1BC@OFGLENOB@?$AA0?$AA4?$AA?5?$AA0?$AA2?$AA?5?$AAF?$AAF?$AA?$AA@ 004595d4     DviceCtrlDlg.obj
 0003:000025ec       ??_C@_1BC@JNHDOHHO@?$AA0?$AA4?$AA?5?$AA0?$AA1?$AA?5?$AA0?$AA0?$AA?$AA@ 004595ec     DviceCtrlDlg.obj
 0003:00002604       ??_C@_1BC@OFMPGOC@?$AA0?$AA4?$AA?5?$AA0?$AA1?$AA?5?$AAF?$AAF?$AA?$AA@ 00459604     DviceCtrlDlg.obj
 0003:0000261c       ??_C@_1BC@HCLBIMEA@?$AA0?$AA4?$AA?5?$AA0?$AA0?$AA?5?$AA0?$AA0?$AA?$AA@ 0045961c     DviceCtrlDlg.obj
 0003:00002634       ??_C@_1BC@OBJOJNNM@?$AA0?$AA4?$AA?5?$AA0?$AA0?$AA?5?$AAF?$AAF?$AA?$AA@ 00459634     DviceCtrlDlg.obj
 0003:0000264c       ??_C@_1M@MFFAEBL@?$AA0?$AA3?$AA?5?$AA0?$AA3?$AA?$AA@ 0045964c     DviceCtrlDlg.obj
 0003:0000265c       ??_C@_1M@LEOJGDHO@?$AA0?$AA3?$AA?5?$AA0?$AA2?$AA?$AA@ 0045965c     DviceCtrlDlg.obj
 0003:0000266c       ??_C@_1M@KGFMMMJA@?$AA0?$AA3?$AA?5?$AA0?$AA1?$AA?$AA@ 0045966c     DviceCtrlDlg.obj
 0003:0000267c       ??_C@_1M@GCANNBFH@?$AA0?$AA2?$AA?5?$AAF?$AAF?$AA?$AA@ 0045967c     DviceCtrlDlg.obj
 0003:0000268c       ??_C@_1M@KHKJCLNH@?$AA0?$AA2?$AA?5?$AA1?$AA7?$AA?$AA@ 0045968c     DviceCtrlDlg.obj
 0003:0000269c       ??_C@_1M@BPBFEMLC@?$AA0?$AA2?$AA?5?$AA1?$AA6?$AA?$AA@ 0045969c     DviceCtrlDlg.obj
 0003:000026ac       ??_C@_1M@NKAODFM@?$AA0?$AA2?$AA?5?$AA1?$AA5?$AA?$AA@ 004596ac     DviceCtrlDlg.obj
 0003:000026bc       ??_C@_1M@LFBMIEDJ@?$AA0?$AA2?$AA?5?$AA1?$AA4?$AA?$AA@ 004596bc     DviceCtrlDlg.obj
 0003:000026cc       ??_C@_1M@CIMLLMIA@?$AA0?$AA2?$AA?5?$AA1?$AA3?$AA?$AA@ 004596cc     DviceCtrlDlg.obj
 0003:000026dc       ??_C@_1M@JAHHNLOF@?$AA0?$AA2?$AA?5?$AA1?$AA2?$AA?$AA@ 004596dc     DviceCtrlDlg.obj
 0003:000026ec       ??_C@_1M@ICMCHEAL@?$AA0?$AA2?$AA?5?$AA1?$AA1?$AA?$AA@ 004596ec     DviceCtrlDlg.obj
 0003:000026fc       ??_C@_1BC@FIFJLCLC@?$AA0?$AA2?$AA?5?$AA1?$AA7?$AA?5?$AA0?$AA0?$AA?$AA@ 004596fc     DviceCtrlDlg.obj
 0003:00002714       ??_C@_1BC@MLHGKDCO@?$AA0?$AA2?$AA?5?$AA1?$AA7?$AA?5?$AAF?$AAF?$AA?$AA@ 00459714     DviceCtrlDlg.obj
 0003:0000272c       ??_C@_1BC@LHJLNJIM@?$AA0?$AA2?$AA?5?$AA1?$AA6?$AA?5?$AA0?$AA0?$AA?$AA@ 0045972c     DviceCtrlDlg.obj
 0003:00002744       ??_C@_1BC@CELEMIBA@?$AA0?$AA2?$AA?5?$AA1?$AA6?$AA?5?$AAF?$AAF?$AA?$AA@ 00459744     DviceCtrlDlg.obj
 0003:0000275c       ??_C@_1BC@FMKMGCIP@?$AA0?$AA2?$AA?5?$AA1?$AA5?$AA?5?$AA0?$AA0?$AA?$AA@ 0045975c     DviceCtrlDlg.obj
 0003:00002774       ??_C@_1BC@MPIDHDBD@?$AA0?$AA2?$AA?5?$AA1?$AA5?$AA?5?$AAF?$AAF?$AA?$AA@ 00459774     DviceCtrlDlg.obj
 0003:0000278c       ??_C@_1BC@LDGOAJLB@?$AA0?$AA2?$AA?5?$AA1?$AA4?$AA?5?$AA0?$AA0?$AA?$AA@ 0045978c     DviceCtrlDlg.obj
 0003:000027a4       ??_C@_1BC@CAEBBICN@?$AA0?$AA2?$AA?5?$AA1?$AA4?$AA?5?$AAF?$AAF?$AA?$AA@ 004597a4     DviceCtrlDlg.obj
 0003:000027bc       ??_C@_1BC@FBLCBCMI@?$AA0?$AA2?$AA?5?$AA1?$AA3?$AA?5?$AA0?$AA0?$AA?$AA@ 004597bc     DviceCtrlDlg.obj
 0003:000027d4       ??_C@_1BC@MCJNADFE@?$AA0?$AA2?$AA?5?$AA1?$AA3?$AA?5?$AAF?$AAF?$AA?$AA@ 004597d4     DviceCtrlDlg.obj
 0003:000027ec       ??_C@_1BC@LOHAHJPG@?$AA0?$AA2?$AA?5?$AA1?$AA2?$AA?5?$AA0?$AA0?$AA?$AA@ 004597ec     DviceCtrlDlg.obj
 0003:00002804       ??_C@_1BC@CNFPGIGK@?$AA0?$AA2?$AA?5?$AA1?$AA2?$AA?5?$AAF?$AAF?$AA?$AA@ 00459804     DviceCtrlDlg.obj
 0003:0000281c       ??_C@_1BC@FFEHMCPF@?$AA0?$AA2?$AA?5?$AA1?$AA1?$AA?5?$AA0?$AA0?$AA?$AA@ 0045981c     DviceCtrlDlg.obj
 0003:00002834       ??_C@_1BC@MGGINDGJ@?$AA0?$AA2?$AA?5?$AA1?$AA1?$AA?5?$AAF?$AAF?$AA?$AA@ 00459834     DviceCtrlDlg.obj
 0003:0000284c       ??_C@_1M@ODJHGPCF@?$AA0?$AA2?$AA?5?$AA0?$AA3?$AA?$AA@ 0045984c     DviceCtrlDlg.obj
 0003:0000285c       ??_C@_1M@FLCLAIEA@?$AA0?$AA2?$AA?5?$AA0?$AA2?$AA?$AA@ 0045985c     DviceCtrlDlg.obj
 0003:0000286c       ??_C@_1M@EJJOKHKO@?$AA0?$AA2?$AA?5?$AA0?$AA1?$AA?$AA@ 0045986c     DviceCtrlDlg.obj
 0003:0000287c       ??_C@_1BC@MKBHFOKH@?$AA0?$AA2?$AA?5?$AA0?$AA3?$AA?5?$AA0?$AA0?$AA?$AA@ 0045987c     DviceCtrlDlg.obj
 0003:00002894       ??_C@_1BC@FJDIEPDL@?$AA0?$AA2?$AA?5?$AA0?$AA3?$AA?5?$AAF?$AAF?$AA?$AA@ 00459894     DviceCtrlDlg.obj
 0003:000028ac       ??_C@_1BC@CFNFDFJJ@?$AA0?$AA2?$AA?5?$AA0?$AA2?$AA?5?$AA0?$AA0?$AA?$AA@ 004598ac     DviceCtrlDlg.obj
 0003:000028c4       ??_C@_1BC@LGPKCEAF@?$AA0?$AA2?$AA?5?$AA0?$AA2?$AA?5?$AAF?$AAF?$AA?$AA@ 004598c4     DviceCtrlDlg.obj
 0003:000028dc       ??_C@_1BC@MOOCIOJK@?$AA0?$AA2?$AA?5?$AA0?$AA1?$AA?5?$AA0?$AA0?$AA?$AA@ 004598dc     DviceCtrlDlg.obj
 0003:000028f4       ??_C@_1BC@FNMNJPAG@?$AA0?$AA2?$AA?5?$AA0?$AA1?$AA?5?$AAF?$AAF?$AA?$AA@ 004598f4     DviceCtrlDlg.obj
 0003:0000290c       ??_C@_1BI@PGCDAFOE@?$AA0?$AA2?$AA?5?$AA0?$AA0?$AA?5?$AA0?$AA0?$AA?5?$AA0?$AA0?$AA?$AA@ 0045990c     DviceCtrlDlg.obj
 0003:00002928       ??_C@_1BI@NMKJGAPN@?$AA0?$AA2?$AA?5?$AA0?$AA0?$AA?5?$AA3?$AA1?$AA?5?$AA1?$AAC?$AA?$AA@ 00459928     DviceCtrlDlg.obj
 0003:00002944       ??_C@_1BI@DNDANGBL@?$AA0?$AA2?$AA?5?$AA0?$AA0?$AA?5?$AA1?$AAC?$AA?5?$AA2?$AA0?$AA?$AA@ 00459944     DviceCtrlDlg.obj
 0003:00002960       ??_C@_1BI@HGKCEBDG@?$AA0?$AA2?$AA?5?$AA0?$AA0?$AA?5?$AA1?$AA2?$AA?5?$AAD?$AA4?$AA?$AA@ 00459960     DviceCtrlDlg.obj
 0003:0000297c       ??_C@_1M@KCKJBMKN@?$AA0?$AA1?$AA?5?$AA0?$AA1?$AA?$AA@ 0045997c     DviceCtrlDlg.obj
 0003:0000298c       ??_C@_1BC@OHCKDKGI@?$AA0?$AA1?$AA?5?$AA0?$AA1?$AA?5?$AA0?$AA0?$AA?$AA@ 0045998c     DviceCtrlDlg.obj
 0003:000029a4       ??_C@_1BC@HEAFCLPE@?$AA0?$AA1?$AA?5?$AA0?$AA1?$AA?5?$AAF?$AAF?$AA?$AA@ 004599a4     DviceCtrlDlg.obj
 0003:000029bc       ??_C@_1M@BKBFHLMI@?$AA0?$AA1?$AA?5?$AA0?$AA0?$AA?$AA@ 004599bc     DviceCtrlDlg.obj
 0003:000029cc       ??_C@_1M@GGPIABGK@?$AA0?$AA0?$AA?5?$AAF?$AAF?$AA?$AA@ 004599cc     DviceCtrlDlg.obj
 0003:000029dc       ??_C@_1M@PFNHBAPG@?$AA0?$AA0?$AA?5?$AA0?$AA0?$AA?$AA@ 004599dc     DviceCtrlDlg.obj
 0003:00003414       ??_7CAboutDlg@@6B@         0045a414     DviceCtrlDlgDlg.obj
 0003:000035fc       ??_7CDviceCtrlDlgDlg@@6B@  0045a5fc     DviceCtrlDlgDlg.obj
 0003:000037dc       ??_C@_17KKONBFDK@?$AA1?$AA9?$AA2?$AA?$AA@ 0045a7dc     DviceCtrlDlgDlg.obj
 0003:000037e8       ??_C@_1CA@FJJKCDKK@?$AA?2?$AAD?$AAe?$AAv?$AAi?$AAc?$AAe?$AAF?$AAl?$AAo?$AAw?$AA?4?$AAt?$AAx?$AAt?$AA?$AA@ 0045a7e8     DviceCtrlDlgDlg.obj
 0003:00003810       ??_C@_1BM@EAIEDIBI@?$AAR?$AAe?$AAc?$AAe?$AAi?$AAv?$AAe?$AAr?$AAE?$AAv?$AAe?$AAn?$AAt?$AA?$AA@ 0045a810     DviceCtrlDlgDlg.obj
 0003:00003834       ??_C@_0DH@LFMCDPAL@e?3?2cz?2vs?2dvicectrldlg_new_signal@ 0045a834     DviceCtrlDlgDlg.obj
 0003:00003878       ??_C@_19HAJNCJPK@?$AA?$CI?$AAC?$AAO?$AAM?$AA?$AA@ 0045a878     DviceCtrlDlgDlg.obj
 0003:00003884       ??_C@_1BM@OOGAOCDN@?$AAS?$AAe?$AAt?$AAu?$AAp?$AAD?$AAi?$AAG?$AAe?$AAt?$AA?5?$AA?3?$AA?5?$AA?$AA@ 0045a884     DviceCtrlDlgDlg.obj
 0003:000038a8       __real@4024000000000000    0045a8a8     DviceCtrlDlgDlg.obj
 0003:000038b4       ??_C@_1DO@LFKPKOGB@?$AAH?$AAA?$AAR?$AAD?$AAW?$AAA?$AAR?$AAE?$AA?2?$AAD?$AAE?$AAV?$AAI?$AAC?$AAE?$AAM?$AAA?$AAP?$AA?2?$AAS?$AAE?$AAR?$AAI?$AAA?$AAL?$AAC?$AAO?$AAM?$AAM?$AA?2?$AA?$AA@ 0045a8b4     DviceCtrlDlgDlg.obj
 0003:00003900       ??_C@_02OMJLJFHH@81?$AA@   0045a900     DviceCtrlDlgDlg.obj
 0003:00003904       ??_C@_1BG@HAEKAPKC@?$AA7?$AA2?$AA?$CF?$AA0?$AA2?$AAX?$AA?$CF?$AA0?$AA2?$AAX?$AA?$AA@ 0045a904     DviceCtrlDlgDlg.obj
 0003:00003920       ??_C@_13HOIJIPNN@?$AA?5?$AA?$AA@ 0045a920     DviceCtrlDlgDlg.obj
 0003:00003924       ??_C@_19GPCFCBNH@?$AA0?$AAF?$AA0?$AA0?$AA?$AA@ 0045a924     DviceCtrlDlgDlg.obj
 0003:00003930       ??_C@_19HHMHINIL@?$AA?$CF?$AA0?$AA2?$AAX?$AA?$AA@ 0045a930     DviceCtrlDlgDlg.obj
 0003:0000393c       ??_C@_1M@OIAOFCJ@?$AA0?$AAF?$AA?5?$AA0?$AA0?$AA?$AA@ 0045a93c     DviceCtrlDlgDlg.obj
 0003:0000394c       ??_C@_1BK@NOGDNFAM@_SRMbkc?ON2S?c?$PP?$BK?$AAC?$AAO?$AAM?$AA?$CF?$AAd?$AA?$AA@ 0045a94c     DviceCtrlDlgDlg.obj
 0003:0000396c       ??_C@_1M@DPEFNBEN@?$AAO?$AAT?$AAGb?$BAR?$JP?$AA?$AA@ 0045a96c     DviceCtrlDlgDlg.obj
 0003:0000397c       ??_C@_1BO@ENPBEKPP@?$AA3?$AA4?$AA0?$AA5?$AA0?$AA1?$AA0?$AA5?$AA0?$AA3?$AAF?$AAF?$AA4?$AA7?$AA?$AA@ 0045a97c     DviceCtrlDlgDlg.obj
 0003:000039a0       ??_C@_1M@KOCJMKHK@?$IL?$LOY?$AH?$FN?r?21OM?$AA?$AA@ 0045a9a0     DviceCtrlDlgDlg.obj
 0003:000039b0       ??_C@_1BO@HEGBEGNO@?$AA3?$AA4?$AA0?$AA5?$AA0?$AA1?$AA0?$AAE?$AA0?$AA0?$AA0?$AA0?$AA4?$AA7?$AA?$AA@ 0045a9b0     DviceCtrlDlgDlg.obj
 0003:000039d4       ??_C@_1BA@ICKMCGDB@_?$IFmK?$IL?$LOY?$AH?$FN?r?21OM?$AA?$AA@ 0045a9d4     DviceCtrlDlgDlg.obj
 0003:000039e8       ??_C@_1BO@DKGPJIAP@?$AA3?$AA4?$AA0?$AA5?$AA0?$AA1?$AA0?$AA5?$AA0?$AA0?$AAF?$AAF?$AA4?$AA7?$AA?$AA@ 0045a9e8     DviceCtrlDlgDlg.obj
 0003:00003a0c       ??_C@_19EKEOAMLD@d?MO?2b?$BAR?$JP?$AA?$AA@ 0045aa0c     DviceCtrlDlgDlg.obj
 0003:00003a18       ??_C@_1BA@ODJLJJAK@?$AAT?$AAi?$AAm?$AAe?$AAO?$AAu?$AAt?$AA?$AA@ 0045aa18     DviceCtrlDlgDlg.obj
 0003:00003a2c       ??_C@_1O@HAMLNBEA@?$AAD?$AAe?$AAv?$AAi?$AAc?$AAe?$AA?$AA@ 0045aa2c     DviceCtrlDlgDlg.obj
 0003:00003a3c       ??_C@_15KECHOPKE@?$IN?$IFe?v?$AA?$AA@ 0045aa3c     DviceCtrlDlgDlg.obj
 0003:00003a44       ??_C@_19FPMIMBPI@?$JB?MS?Qepcn?$AA?$AA@ 0045aa44     DviceCtrlDlgDlg.obj
 0003:00003a50       ??_C@_19EADPNGIC@S?Q?$JA?$ABY1?$IN?$CF?$AA?$AA@ 0045aa50     DviceCtrlDlgDlg.obj
 0003:00003a5c       ??_C@_1M@PHKJPIGK@?$AA?5?$AA?$CF?$AA0?$AA2?$AAX?$AA?$AA@ 0045aa5c     DviceCtrlDlgDlg.obj
 0003:00003a6c       ??_C@_1BA@INHDEEPN@?$AAS?$AAu?$AAc?$AAc?$AAe?$AAe?$AAd?$AA?$AA@ 0045aa6c     DviceCtrlDlgDlg.obj
 0003:00003a80       ??_C@_15HLFKMJEH@?$AA0?$AAB?$AA?$AA@ 0045aa80     DviceCtrlDlgDlg.obj
 0003:00003a88       ??_C@_19KBJOGOJG@?$AA?$CF?$AA0?$AA4?$AAX?$AA?$AA@ 0045aa88     DviceCtrlDlgDlg.obj
 0003:00003a94       ??_C@_1BO@MEGGKAAE@?$AAU?$AAn?$AAk?$AAn?$AAo?$AAw?$AAn?$AAC?$AAo?$AAm?$AAm?$AAa?$AAn?$AAd?$AA?$AA@ 0045aa94     DviceCtrlDlgDlg.obj
 0003:00003ab8       ??_C@_1O@DPFGNNGE@?$AAD?$AAe?$AAl?$AAa?$AAy?$AA?$DN?$AA?$AA@ 0045aab8     DviceCtrlDlgDlg.obj
 0003:00003ac8       ??_C@_19FCNDHAMD@?$AA0?$AA4?$AA0?$AAA?$AA?$AA@ 0045aac8     DviceCtrlDlgDlg.obj
 0003:00003ad4       ??_C@_19JDOFBINE@?$AA0?$AA4?$AA0?$AA3?$AA?$AA@ 0045aad4     DviceCtrlDlgDlg.obj
 0003:00003ae0       ??_C@_1BO@DEMFGLLP@?$AAR?$AA?$DN?$AA?$CF?$AAd?$AA?$DL?$AAG?$AA?$DN?$AA?$CF?$AAd?$AA?$DL?$AAB?$AA?$DN?$AA?$CF?$AAd?$AA?$AA@ 0045aae0     DviceCtrlDlgDlg.obj
 0003:00003b04       ??_C@_1BA@PLCLOPFD@?$FO?$JFg?$HPb?$KM?$INwg?$CKR0OM?$AA?$AA@ 0045ab04     DviceCtrlDlgDlg.obj
 0003:00003b18       ??_C@_1BA@CCMAHIOG@?$FO?$JFg?$HPb?$KM?$INw?$FN?rR0OM?$AA?$AA@ 0045ab18     DviceCtrlDlgDlg.obj
 0003:00003b2c       ??_C@_1O@CHIDCMLG@?$AA0?$AA7?$AA0?$AA5?$AAF?$AAF?$AA?$AA@ 0045ab2c     DviceCtrlDlgDlg.obj
 0003:00003b3c       ??_C@_1BA@LBNOCLDE@Y?$CJg?$HPy?$LL_?$AAg?$CKR0OM?$AA?$AA@ 0045ab3c     DviceCtrlDlgDlg.obj
 0003:00003b50       ??_C@_1BA@GIDFLMIB@Y?$CJg?$HPy?$LL_?$AA?$FN?rR0OM?$AA?$AA@ 0045ab50     DviceCtrlDlgDlg.obj
 0003:00003b64       ??_C@_1O@OLCJCMCI@?$AA0?$AA7?$AA0?$AA4?$AAF?$AAF?$AA?$AA@ 0045ab64     DviceCtrlDlgDlg.obj
 0003:00003b74       ??_C@_1M@EPLHNEMO@Y?$CJg?$HPg?$CKR0OM?$AA?$AA@ 0045ab74     DviceCtrlDlgDlg.obj
 0003:00003b84       ??_C@_1M@JGFMEDHL@Y?$CJg?$HP?$FN?rR0OM?$AA?$AA@ 0045ab84     DviceCtrlDlgDlg.obj
 0003:00003b94       ??_C@_1O@KDMJCCEM@?$AA0?$AA7?$AA0?$AA1?$AAF?$AAF?$AA?$AA@ 0045ab94     DviceCtrlDlgDlg.obj
 0003:00003ba4       ??_C@_1O@COPAKBEH@?$AAU?$AAS?$AABg?$CKR0OM?$AA?$AA@ 0045aba4     DviceCtrlDlgDlg.obj
 0003:00003bb4       ??_C@_1O@PHBLDGPC@?$AAU?$AAS?$AAB?$FN?rR0OM?$AA?$AA@ 0045abb4     DviceCtrlDlgDlg.obj
 0003:00003bc4       ??_C@_1O@GPGDCCNC@?$AA0?$AA7?$AA0?$AA0?$AAF?$AAF?$AA?$AA@ 0045abc4     DviceCtrlDlgDlg.obj
 0003:00003bd4       ??_C@_1M@NBFOFCLK@?$AAO?$AAT?$AAGY1?$IN?$CF?$AA?$AA@ 0045abd4     DviceCtrlDlgDlg.obj
 0003:00003be4       ??_C@_1O@HLCOLAJ@?$AA0?$AA4?$AA0?$AA9?$AAF?$AAF?$AA?$AA@ 0045abe4     DviceCtrlDlgDlg.obj
 0003:00003bf4       ??_C@_15KNBIKKIN@?$AA?$CF?$AAd?$AA?$AA@ 0045abf4     DviceCtrlDlgDlg.obj
 0003:00003bfc       ??_C@_1M@NHEIGJFN@?$AA?$CF?$AA0?$AA?4?$AA2?$AAf?$AA?$AA@ 0045abfc     DviceCtrlDlgDlg.obj
 0003:00003c0c       ??_C@_1BI@OKEALAOO@?$AA?$CF?$AA0?$AA?4?$AA2?$AAf?$AA?5?$AA?$CF?$AA0?$AA?4?$AA2?$AAf?$AA?$AA@ 0045ac0c     DviceCtrlDlgDlg.obj
 0003:00003c28       ??_C@_1CE@FBILIKLF@?$AA?$CF?$AA0?$AA?4?$AA2?$AAf?$AA?5?$AA?$CF?$AA0?$AA?4?$AA2?$AAf?$AA?5?$AA?$CF?$AA0?$AA?4?$AA2?$AAf?$AA?$AA@ 0045ac28     DviceCtrlDlgDlg.obj
 0003:00003c58       __real@3fe6666666666666    0045ac58     DviceCtrlDlgDlg.obj
 0003:00003c68       __real@3fee666666666666    0045ac68     DviceCtrlDlgDlg.obj
 0003:00003c78       __real@4015333333333333    0045ac78     DviceCtrlDlgDlg.obj
 0003:00003c88       __real@4028000000000000    0045ac88     DviceCtrlDlgDlg.obj
 0003:00003c98       __real@3fb3333333333333    0045ac98     DviceCtrlDlgDlg.obj
 0003:00003ca8       __real@401399999999999a    0045aca8     DviceCtrlDlgDlg.obj
 0003:00003cb8       __real@40b0000000000000    0045acb8     DviceCtrlDlgDlg.obj
 0003:00003cc8       __real@4070000000000000    0045acc8     DviceCtrlDlgDlg.obj
 0003:00003cd4       __real@00000000            0045acd4     DviceCtrlDlgDlg.obj
 0003:00003cd8       __real@3fb999999999999a    0045acd8     DviceCtrlDlgDlg.obj
 0003:00003ce4       ??_C@_19MNJLFGGC@?$AAF?$AAa?$AAi?$AAl?$AA?$AA@ 0045ace4     DviceCtrlDlgDlg.obj
 0003:00003cf0       ??_C@_1BO@IEKIFNHJ@?$AA3?$AA4?$AA0?$AA1?$AA0?$AA1?$AAF?$AAF?$AAF?$AAF?$AA5?$AA5?$AA4?$AA7?$AA?$AA@ 0045acf0     DviceCtrlDlgDlg.obj
 0003:00003d14       ??_C@_1BE@GJNOOPHP@c?$KFe6N?$ANkcxn?$JB?MS?Qepcn?$AA?$AA@ 0045ad14     DviceCtrlDlgDlg.obj
 0003:00003d2c       ??_C@_1BK@JAFOKGKD@?$AA3?$AA4?$AA0?$AA4?$AA0?$AA0?$AAF?$AAF?$AAF?$AAF?$AA4?$AA7?$AA?$AA@ 0045ad2c     DviceCtrlDlgDlg.obj
 0003:00003d4c       ??_C@_1BK@BDGMLGL@?$AA3?$AA4?$AA0?$AA4?$AA0?$AA0?$AAF?$AAF?$AA0?$AA0?$AA4?$AA7?$AA?$AA@ 0045ad4c     DviceCtrlDlgDlg.obj
 0003:00003d6c       ??_C@_19FGKAJLAG@?$AA?$AN?$AA?6?$AA?$CF?$AAs?$AA?$AA@ 0045ad6c     DviceCtrlDlgDlg.obj
 0003:00003d78       ??_C@_1BO@GHBHGIEC@kcW?$CIbkc?ON2S?c?$PP?$AMe?$OAl?US?Q?$JA?$ABT?$HNN?d?$PP?$AB?$AA?$AA@ 0045ad78     DviceCtrlDlgDlg.obj
 0003:00003d9c       ??_C@_19GPGDPBBE@?$AA?9?$AA?9?$AA?9?$AA?$DO?$AA?$AA@ 0045ad9c     DviceCtrlDlgDlg.obj
 0003:00003da8       ??_C@_1M@NIFNDBBL@?$JF?jQIpoh?$MAmK?$AA?$AA@ 0045ada8     DviceCtrlDlgDlg.obj
 0003:00003db8       ??_C@_15ECIDKMCC@?$HO?Sg_?$AA?$AA@ 0045adb8     DviceCtrlDlgDlg.obj
 0003:00003dc0       ??_C@_15DGFPHKHO@_?$AAY?K?$AA?$AA@ 0045adc0     DviceCtrlDlgDlg.obj
 0003:00003dc8       ??_C@_19BPGDOHFL@?$IA?LQIh?$MAmK?$AA?$AA@ 0045adc8     DviceCtrlDlgDlg.obj
 0003:00003dd4       ??_C@_1M@MGOHKHPF@?$AA?$CF?$AAd?$AA?5?$AA?$CF?$AAd?$AA?$AA@ 0045add4     DviceCtrlDlgDlg.obj
 0003:00003de4       ??_C@_17MOHHOKBL@?$AA2?$AA5?$AA5?$AA?$AA@ 0045ade4     DviceCtrlDlgDlg.obj
 0003:00003df0       ??_C@_15LKGMKBFA@?$AA0?$AA0?$AA?$AA@ 0045adf0     DviceCtrlDlgDlg.obj
 0003:00003df8       ??_C@_1O@LHKJOEKP@?$AA?$CF?$AA2?$AA?4?$AA1?$AAf?$AAV?$AA?$AA@ 0045adf8     DviceCtrlDlgDlg.obj
 0003:00003e08       ??_C@_15JNBOKNOG@?$AA?$AN?$AA?6?$AA?$AA@ 0045ae08     DviceCtrlDlgDlg.obj
 0003:00003e10       ??_C@_1CE@LDCDJPFC@?$AA?2?$AAD?$AAe?$AAv?$AAi?$AAc?$AAe?$AAR?$AAe?$AAc?$AAo?$AAr?$AAd?$AA?4?$AAt?$AAx?$AAt?$AA?$AA@ 0045ae10     DviceCtrlDlgDlg.obj
 0003:00003e3c       ??_C@_1BC@HENGEFHL@?$AA?$CF?$AAH?$AA?3?$AA?$CF?$AAM?$AA?3?$AA?$CF?$AAS?$AA?$AA@ 0045ae3c     DviceCtrlDlgDlg.obj
 0003:00003e54       ??_C@_1BA@DJFGPKJI@kcW?$CIbkc?O?$AA?4?$AA?4?$AA?4?$AA?$AA@ 0045ae54     DviceCtrlDlgDlg.obj
 0003:00003e68       ??_C@_17EODHHNIE@?$FN?r?$IP?$NOc?$KF?$AA?$AA@ 0045ae68     DviceCtrlDlgDlg.obj
 0003:00003e74       ??_C@_19HJMBNPB@_?$KO?$IPo?$JG?E?$JO?Q?$AA?$AA@ 0045ae74     DviceCtrlDlgDlg.obj
 0003:00003e80       ??_C@_0EM@LIFEDLIA@c?3?2program?5files?2microsoft?5visua@ 0045ae80     DviceCtrlDlgDlg.obj
 0003:00003edc       ??_C@_1CK@DFMKPFAK@?$AAA?$AAt?$AAl?$AAT?$AAh?$AAr?$AAo?$AAw?$AA?3?$AA?5?$AAh?$AAr?$AA?5?$AA?$DN?$AA?5?$AA0?$AAx?$AA?$CF?$AAx?$AA?6?$AA?$AA@ 0045aedc     DviceCtrlDlgDlg.obj
 0003:00003f10       ??_C@_19COBEKJPF@mK?$IL?U?$FL?$IMb?$BA?$AA?$AA@ 0045af10     DviceCtrlDlgDlg.obj
 0003:00003f1c       ??_C@_1M@HMBJCHEC@?$IL?$LOY?$AHg?$CK?$IP?$NOc?$KF?$AA?$AA@ 0045af1c     DviceCtrlDlgDlg.obj
 0003:00003f2c       ??_C@_1BC@NEGPGFOB@_?$KKs?$KPmK?$IL?UN?90?$AC0?$AC0?$AC?$AA?$AA@ 0045af2c     DviceCtrlDlgDlg.obj
 0003:00003f44       ??_C@_19COKHPLHJ@P?2kbmK?$IL?U?$AA?$AA@ 0045af44     DviceCtrlDlgDlg.obj
 0003:00003f50       ??_C@_1BC@OFDCGCKH@?$JG?$IPg?3mK?$IL?UN?90?$AC0?$AC0?$AC?$AA?$AA@ 0045af50     DviceCtrlDlgDlg.obj
 0003:00003f68       ??_C@_19BADPDHPG@?$JG?$IPg?3mK?$IL?U?$AA?$AA@ 0045af68     DviceCtrlDlgDlg.obj
 0003:00003f74       ??_C@_1BO@EFLBPCFG@?$AAS?$AAe?$AAr?$AAi?$AAa?$AAl?$AAD?$AAa?$AAt?$AAa?$AA?4?$AAt?$AAx?$AAt?$AA?$AA@ 0045af74     DviceCtrlDlgDlg.obj
 0003:00003f98       ??_C@_1BM@BPJCCMCM@?$AA?$CF?$AAH?$AA?3?$AA?$CF?$AAM?$AA?3?$AA?$CF?$AAS?$AA?5?$AAO?$AAU?$AAT?$AA?5?$AA?$AA@ 0045af98     DviceCtrlDlgDlg.obj
 0003:00003fbc       ??_C@_1BM@KDOODOMB@?$AA?$CF?$AAH?$AA?3?$AA?$CF?$AAM?$AA?3?$AA?$CF?$AAS?$AA?5?$AAI?$AAN?$AA?5?$AA?5?$AA?$AA@ 0045afbc     DviceCtrlDlgDlg.obj
 0003:00003fe0       ??_C@_19LPFHMHAK@?$JB?MT?1N2S?c?$AA?$AA@ 0045afe0     DviceCtrlDlgDlg.obj
 0003:00003fec       ??_C@_0BM@NMJKDPPO@invalid?5vector?$DMT?$DO?5subscript?$AA@ 0045afec     DviceCtrlDlgDlg.obj
 0003:00004010       ??_C@_0BD@OLBABOEK@vector?$DMT?$DO?5too?5long?$AA@ 0045b010     DviceCtrlDlgDlg.obj
 0003:00004028       __real@3ff0000000000000    0045b028     DviceCtrlDlgDlg.obj
 0003:00004038       ??_7bad_alloc@std@@6B@     0045b038     DviceCtrlDlgDlg.obj
 0003:00004048       ??_C@_1IA@PMOIDIIO@?$AAc?$AA?3?$AA?2?$AAp?$AAr?$AAo?$AAg?$AAr?$AAa?$AAm?$AA?5?$AAf?$AAi?$AAl?$AAe?$AAs?$AA?2?$AAm?$AAi?$AAc?$AAr?$AAo?$AAs?$AAo?$AAf?$AAt?$AA?5?$AAv?$AAi?$AAs?$AAu?$AAa@ 0045b048     DviceCtrlDlgDlg.obj
 0003:000040e4       ??_C@_1CK@EOPGIILJ@?$AAi?$AAn?$AAv?$AAa?$AAl?$AAi?$AAd?$AA?5?$AAn?$AAu?$AAl?$AAl?$AA?5?$AAp?$AAo?$AAi?$AAn?$AAt?$AAe?$AAr?$AA?$AA@ 0045b0e4     DviceCtrlDlgDlg.obj
 0003:00004118       ??_C@_1CO@DGLIKNHI@?$AAi?$AAn?$AAv?$AAa?$AAl?$AAi?$AAd?$AA?5?$AAi?$AAt?$AAe?$AAr?$AAa?$AAt?$AAo?$AAr?$AA?5?$AAr?$AAa?$AAn?$AAg?$AAe?$AA?$AA@ 0045b118     DviceCtrlDlgDlg.obj
 0003:00004150       ??_C@_0M@BBDDNIGA@CSerialPort?$AA@ 0045b150     serialport.obj
 0003:00004160       ??_C@_0BB@IOBDGEEK@CSerialException?$AA@ 0045b160     serialport.obj
 0003:00004174       ?classCSerialException@CSerialException@@2UCRuntimeClass@@B 0045b174     serialport.obj
 0003:00004198       ?classCSerialPort@CSerialPort@@2UCRuntimeClass@@B 0045b198     serialport.obj
 0003:000041bc       ??_C@_08KENEPFL@CancelIo?$AA@ 0045b1bc     serialport.obj
 0003:000041c8       ??_C@_1BK@DBDEIDLH@?$AAK?$AAE?$AAR?$AAN?$AAE?$AAL?$AA3?$AA2?$AA?4?$AAD?$AAL?$AAL?$AA?$AA@ 0045b1c8     serialport.obj
 0003:000041e8       ??_C@_0DC@PACLAOLH@e?3?2cz?2vs?2dvicectrldlg_new_signal@ 0045b1e8     serialport.obj
 0003:00004228       ??_C@_1GC@HPKDEEFP@?$AAW?$AAa?$AAr?$AAn?$AAi?$AAn?$AAg?$AA?3?$AA?5?$AAt?$AAh?$AAr?$AAo?$AAw?$AAi?$AAn?$AAg?$AA?5?$AAC?$AAS?$AAe?$AAr?$AAi?$AAa?$AAl?$AAE?$AAx?$AAc?$AAe?$AAp?$AAt?$AAi@ 0045b228     serialport.obj
 0003:000042a4       ??_7CSerialException@@6B@  0045b2a4     serialport.obj
 0003:000042cc       ??_C@_0N@GBBBFPKD@m_dwError?5?$DN?5?$AA@ 0045b2cc     serialport.obj
 0003:000042e0       ??_7CSerialPort@@6B@       0045b2e0     serialport.obj
 0003:00004300       ??_C@_1CC@JPENPCBB@?$AAm?$AA_?$AAb?$AAO?$AAv?$AAe?$AAr?$AAl?$AAa?$AAp?$AAp?$AAe?$AAd?$AA?5?$AA?$DN?$AA?5?$AA?$AA@ 0045b300     serialport.obj
 0003:00004328       ??_C@_1BG@BAENHBHP@?$AAm?$AA_?$AAh?$AAC?$AAo?$AAm?$AAm?$AA?5?$AA?$DN?$AA?5?$AA?$AA@ 0045b328     serialport.obj
 0003:00004344       ??_C@_13LBAGMAIH@?$AA?6?$AA?$AA@ 0045b344     serialport.obj
 0003:00004348       ??_C@_1EO@OMEHBJJJ@?$AAF?$AAa?$AAi?$AAl?$AAe?$AAd?$AA?5?$AAi?$AAn?$AA?5?$AAc?$AAa?$AAl?$AAl?$AA?5?$AAt?$AAo?$AA?5?$AAC?$AAr?$AAe?$AAa?$AAt?$AAe?$AAE?$AAv?$AAe?$AAn?$AAt?$AA?5?$AAi?$AAn@ 0045b348     serialport.obj
 0003:000043a8       ??_C@_1EE@EHNNJM@?$AAF?$AAa?$AAi?$AAl?$AAe?$AAd?$AA?5?$AAt?$AAo?$AA?5?$AAo?$AAp?$AAe?$AAn?$AA?5?$AAu?$AAp?$AA?5?$AAt?$AAh?$AAe?$AA?5?$AAc?$AAo?$AAm?$AAm?$AAs?$AA?5?$AAp?$AAo?$AAr?$AAt@ 0045b3a8     serialport.obj
 0003:000043fc       ??_C@_1BE@DNEHMKHO@?$AA?2?$AA?2?$AA?4?$AA?2?$AAC?$AAO?$AAM?$AA?$CF?$AAd?$AA?$AA@ 0045b3fc     serialport.obj
 0003:00004418       ??_C@_1GI@KMOJLNHF@?$AAF?$AAa?$AAi?$AAl?$AAe?$AAd?$AA?5?$AAt?$AAo?$AA?5?$AAc?$AAl?$AAo?$AAs?$AAe?$AA?5?$AAu?$AAp?$AA?5?$AAt?$AAh?$AAe?$AA?5?$AAc?$AAo?$AAm?$AAm?$AAs?$AA?5?$AAp?$AAo?$AAr@ 0045b418     serialport.obj
 0003:00004498       ??_C@_1FC@NOBNBECN@?$AAF?$AAa?$AAi?$AAl?$AAe?$AAd?$AA?5?$AAi?$AAn?$AA?5?$AAc?$AAa?$AAl?$AAl?$AA?5?$AAt?$AAo?$AA?5?$AAC?$AAr?$AAe?$AAa?$AAt?$AAe?$AAE?$AAv?$AAe?$AAn?$AAt?$AA?5?$AAi?$AAn@ 0045b498     serialport.obj
 0003:000044fc       ??_C@_1DI@LEHPDBLE@?$AAF?$AAa?$AAi?$AAl?$AAe?$AAd?$AA?5?$AAi?$AAn?$AA?5?$AAc?$AAa?$AAl?$AAl?$AA?5?$AAt?$AAo?$AA?5?$AAR?$AAe?$AAa?$AAd?$AAF?$AAi?$AAl?$AAe?$AA?6?$AA?$AA@ 0045b4fc     serialport.obj
 0003:00004540       ??_C@_1EG@MALJNKNH@?$AAC?$AAS?$AAe?$AAr?$AAi?$AAa?$AAl?$AAP?$AAo?$AAr?$AAt?$AA?3?$AA?3?$AAR?$AAe?$AAa?$AAd?$AA?0?$AA?$CB?$AAm?$AA_?$AAb?$AAO?$AAv?$AAe?$AAr?$AAl?$AAa?$AAp?$AAp?$AAe?$AAd@ 0045b540     serialport.obj
 0003:00004594       ??_C@_1DK@IHDMHEEB@?$AAC?$AAS?$AAe?$AAr?$AAi?$AAa?$AAl?$AAP?$AAo?$AAr?$AAt?$AA?3?$AA?3?$AAR?$AAe?$AAa?$AAd?$AA?0?$AAI?$AAs?$AAO?$AAp?$AAe?$AAn?$AA?$CI?$AA?$CJ?$AA?$AN?$AA?6?$AA?$AA@ 0045b594     serialport.obj
 0003:000045e0       ??_C@_1FG@CLNOEDCD@?$AAC?$AAS?$AAe?$AAr?$AAi?$AAa?$AAl?$AAP?$AAo?$AAr?$AAt?$AA?3?$AA?3?$AAR?$AAe?$AAa?$AAd?$AA?0?$AAm?$AA_?$AAb?$AAO?$AAv?$AAe?$AAr?$AAl?$AAa?$AAp?$AAp?$AAe?$AAd?$AA?5@ 0045b5e0     serialport.obj
 0003:00004648       ??_C@_1DK@NONDCBBD@?$AAF?$AAa?$AAi?$AAl?$AAe?$AAd?$AA?5?$AAi?$AAn?$AA?5?$AAc?$AAa?$AAl?$AAl?$AA?5?$AAt?$AAo?$AA?5?$AAW?$AAr?$AAi?$AAt?$AAe?$AAF?$AAi?$AAl?$AAe?$AA?6?$AA?$AA@ 0045b648     serialport.obj
 0003:00004690       ??_C@_1FI@DDEAHPHG@?$AAC?$AAS?$AAe?$AAr?$AAi?$AAa?$AAl?$AAP?$AAo?$AAr?$AAt?$AA?3?$AA?3?$AAW?$AAr?$AAi?$AAt?$AAe?$AA?0?$AA?$CB?$AAm?$AA_?$AAb?$AAO?$AAv?$AAe?$AAr?$AAl?$AAa?$AAp?$AAp?$AAe@ 0045b690     serialport.obj
 0003:000046fc       ??_C@_1DM@DOBAFFBN@?$AAC?$AAS?$AAe?$AAr?$AAi?$AAa?$AAl?$AAP?$AAo?$AAr?$AAt?$AA?3?$AA?3?$AAW?$AAr?$AAi?$AAt?$AAe?$AA?0?$AAI?$AAs?$AAO?$AAp?$AAe?$AAn?$AA?$CI?$AA?$CJ?$AA?$AN?$AA?6?$AA?$AA@ 0045b6fc     serialport.obj
 0003:00004748       ??_C@_1GA@LJDEEEE@?$AAW?$AAr?$AAi?$AAt?$AAe?$AAF?$AAi?$AAl?$AAe?$AA?5?$AAE?$AAr?$AAr?$AAo?$AAr?$AA?0?$AA?5?$AAW?$AAr?$AAi?$AAt?$AAe?$AA?5?$AAL?$AAe?$AAn?$AA?3?$AA?$CF?$AAd?$AA?0?$AA?5?$AAA@ 0045b748     serialport.obj
 0003:000047c0       ??_C@_1FI@LIBINEKP@?$AAC?$AAS?$AAe?$AAr?$AAi?$AAa?$AAl?$AAP?$AAo?$AAr?$AAt?$AA?3?$AA?3?$AAW?$AAr?$AAi?$AAt?$AAe?$AA?0?$AAm?$AA_?$AAb?$AAO?$AAv?$AAe?$AAr?$AAl?$AAa?$AAp?$AAp?$AAe?$AAd@ 0045b7c0     serialport.obj
 0003:00004830       ??_C@_1EO@LEFHNIPA@?$AAF?$AAa?$AAi?$AAl?$AAe?$AAd?$AA?5?$AAi?$AAn?$AA?5?$AAc?$AAa?$AAl?$AAl?$AA?5?$AAt?$AAo?$AA?5?$AAG?$AAe?$AAt?$AAO?$AAv?$AAe?$AAr?$AAl?$AAa?$AAp?$AAp?$AAe?$AAd?$AAR@ 0045b830     serialport.obj
 0003:00004890       ??_C@_1HE@KIPENHBI@?$AAC?$AAS?$AAe?$AAr?$AAi?$AAa?$AAl?$AAP?$AAo?$AAr?$AAt?$AA?3?$AA?3?$AAG?$AAe?$AAt?$AAO?$AAv?$AAe?$AAr?$AAl?$AAa?$AAp?$AAp?$AAe?$AAd?$AAR?$AAe?$AAs?$AAu?$AAl?$AAt@ 0045b890     serialport.obj
 0003:00004920       ??_C@_1FI@FHPDLOPC@?$AAC?$AAS?$AAe?$AAr?$AAi?$AAa?$AAl?$AAP?$AAo?$AAr?$AAt?$AA?3?$AA?3?$AAG?$AAe?$AAt?$AAO?$AAv?$AAe?$AAr?$AAl?$AAa?$AAp?$AAp?$AAe?$AAd?$AAR?$AAe?$AAs?$AAu?$AAl?$AAt@ 0045b920     serialport.obj
 0003:00004990       ??_C@_1GE@DNOIFAKC@?$AAC?$AAS?$AAe?$AAr?$AAi?$AAa?$AAl?$AAP?$AAo?$AAr?$AAt?$AA?3?$AA?3?$AA_?$AAO?$AAn?$AAC?$AAo?$AAm?$AAp?$AAl?$AAe?$AAt?$AAi?$AAo?$AAn?$AA?0?$AAl?$AAp?$AAO?$AAv?$AAe@ 0045b990     serialport.obj
 0003:00004a08       ??_C@_1DI@EPHGDDAF@?$AAF?$AAa?$AAi?$AAl?$AAe?$AAd?$AA?5?$AAi?$AAn?$AA?5?$AAc?$AAa?$AAl?$AAl?$AA?5?$AAt?$AAo?$AA?5?$AAC?$AAa?$AAn?$AAc?$AAe?$AAl?$AAI?$AAO?$AA?6?$AA?$AA@ 0045ba08     serialport.obj
 0003:00004a50       ??_C@_1OI@BEBLMHMK@?$AAC?$AAa?$AAn?$AAc?$AAe?$AAl?$AAI?$AAo?$AA?5?$AAf?$AAu?$AAn?$AAc?$AAt?$AAi?$AAo?$AAn?$AA?5?$AAi?$AAs?$AA?5?$AAn?$AAo?$AAt?$AA?5?$AAs?$AAu?$AAp?$AAp?$AAo?$AAr?$AAt@ 0045ba50     serialport.obj
 0003:00004b68       ??_C@_1EC@IOFCDPGK@?$AAC?$AAS?$AAe?$AAr?$AAi?$AAa?$AAl?$AAP?$AAo?$AAr?$AAt?$AA?3?$AA?3?$AAC?$AAa?$AAn?$AAc?$AAe?$AAl?$AAI?$AAo?$AA?0?$AAI?$AAs?$AAO?$AAp?$AAe?$AAn?$AA?$CI?$AA?$CJ?$AA?$AN?$AA?6@ 0045bb68     serialport.obj
 0003:00004bb8       ??_C@_1EK@KPHFPBEJ@?$AAC?$AAS?$AAe?$AAr?$AAi?$AAa?$AAl?$AAP?$AAo?$AAr?$AAt?$AA?3?$AA?3?$AAB?$AAy?$AAt?$AAe?$AAs?$AAW?$AAa?$AAi?$AAt?$AAi?$AAn?$AAg?$AA?0?$AAI?$AAs?$AAO?$AAp?$AAe?$AAn@ 0045bbb8     serialport.obj
 0003:00004c10       ??_C@_1FI@PGIBAFNH@?$AAC?$AAS?$AAe?$AAr?$AAi?$AAa?$AAl?$AAP?$AAo?$AAr?$AAt?$AA?3?$AA?3?$AAD?$AAa?$AAt?$AAa?$AAW?$AAa?$AAi?$AAt?$AAi?$AAn?$AAg?$AA?0?$AAm?$AA_?$AAh?$AAE?$AAv?$AAe?$AAn@ 0045bc10     serialport.obj
 0003:00004c80       ??_C@_1EI@IJFPCJHF@?$AAC?$AAS?$AAe?$AAr?$AAi?$AAa?$AAl?$AAP?$AAo?$AAr?$AAt?$AA?3?$AA?3?$AAD?$AAa?$AAt?$AAa?$AAW?$AAa?$AAi?$AAt?$AAi?$AAn?$AAg?$AA?0?$AAI?$AAs?$AAO?$AAp?$AAe?$AAn?$AA?$CI@ 0045bc80     serialport.obj
 0003:00004cd8       ??_C@_1DO@MICMACCA@?$AAF?$AAa?$AAi?$AAl?$AAe?$AAd?$AA?5?$AAi?$AAn?$AA?5?$AAc?$AAa?$AAl?$AAl?$AA?5?$AAt?$AAo?$AA?5?$AAW?$AAr?$AAi?$AAt?$AAe?$AAF?$AAi?$AAl?$AAe?$AAE?$AAx?$AA?6?$AA?$AA@ 0045bcd8     serialport.obj
 0003:00004d28       ??_C@_1EA@IHGNHLGH@?$AAC?$AAS?$AAe?$AAr?$AAi?$AAa?$AAl?$AAP?$AAo?$AAr?$AAt?$AA?3?$AA?3?$AAW?$AAr?$AAi?$AAt?$AAe?$AAE?$AAx?$AA?0?$AAI?$AAs?$AAO?$AAp?$AAe?$AAn?$AA?$CI?$AA?$CJ?$AA?$AN?$AA?6?$AA?$AA@ 0045bd28     serialport.obj
 0003:00004d74       ??_C@_1DM@KLGDPLEP@?$AAF?$AAa?$AAi?$AAl?$AAe?$AAd?$AA?5?$AAi?$AAn?$AA?5?$AAc?$AAa?$AAl?$AAl?$AA?5?$AAt?$AAo?$AA?5?$AAR?$AAe?$AAa?$AAd?$AAF?$AAi?$AAl?$AAe?$AAE?$AAx?$AA?6?$AA?$AA@ 0045bd74     serialport.obj
 0003:00004dbc       ??_C@_1DO@LELFIHCM@?$AAC?$AAS?$AAe?$AAr?$AAi?$AAa?$AAl?$AAP?$AAo?$AAr?$AAt?$AA?3?$AA?3?$AAR?$AAe?$AAa?$AAd?$AAE?$AAx?$AA?0?$AAI?$AAs?$AAO?$AAp?$AAe?$AAn?$AA?$CI?$AA?$CJ?$AA?$AN?$AA?6?$AA?$AA@ 0045bdbc     serialport.obj
 0003:00004e08       ??_C@_1EI@LFHKFODP@?$AAF?$AAa?$AAi?$AAl?$AAe?$AAd?$AA?5?$AAi?$AAn?$AA?5?$AAc?$AAa?$AAl?$AAl?$AA?5?$AAt?$AAo?$AA?5?$AAT?$AAr?$AAa?$AAn?$AAs?$AAm?$AAi?$AAt?$AAC?$AAo?$AAm?$AAm?$AAC?$AAh@ 0045be08     serialport.obj
 0003:00004e60       ??_C@_1EK@FINLNIPK@?$AAC?$AAS?$AAe?$AAr?$AAi?$AAa?$AAl?$AAP?$AAo?$AAr?$AAt?$AA?3?$AA?3?$AAT?$AAr?$AAa?$AAn?$AAs?$AAm?$AAi?$AAt?$AAC?$AAh?$AAa?$AAr?$AA?0?$AAI?$AAs?$AAO?$AAp?$AAe?$AAn@ 0045be60     serialport.obj
 0003:00004eb8       ??_C@_1EC@GJOODHBK@?$AAF?$AAa?$AAi?$AAl?$AAe?$AAd?$AA?5?$AAi?$AAn?$AA?5?$AAc?$AAa?$AAl?$AAl?$AA?5?$AAt?$AAo?$AA?5?$AAG?$AAe?$AAt?$AAC?$AAo?$AAm?$AAm?$AAC?$AAo?$AAn?$AAf?$AAi?$AAg?$AA?6@ 0045beb8     serialport.obj
 0003:00004f08       ??_C@_1EE@IJGMFJPG@?$AAC?$AAS?$AAe?$AAr?$AAi?$AAa?$AAl?$AAP?$AAo?$AAr?$AAt?$AA?3?$AA?3?$AAG?$AAe?$AAt?$AAC?$AAo?$AAn?$AAf?$AAi?$AAg?$AA?0?$AAI?$AAs?$AAO?$AAp?$AAe?$AAn?$AA?$CI?$AA?$CJ?$AA?$AN@ 0045bf08     serialport.obj
 0003:00004f60       ??_C@_1EC@OIIBIHDI@?$AAF?$AAa?$AAi?$AAl?$AAe?$AAd?$AA?5?$AAi?$AAn?$AA?5?$AAc?$AAa?$AAl?$AAl?$AA?5?$AAt?$AAo?$AA?5?$AAS?$AAe?$AAt?$AAC?$AAo?$AAm?$AAm?$AAC?$AAo?$AAn?$AAf?$AAi?$AAg?$AA?6@ 0045bf60     serialport.obj
 0003:00004fb0       ??_C@_1EE@HDCPCJOD@?$AAC?$AAS?$AAe?$AAr?$AAi?$AAa?$AAl?$AAP?$AAo?$AAr?$AAt?$AA?3?$AA?3?$AAS?$AAe?$AAt?$AAC?$AAo?$AAn?$AAf?$AAi?$AAg?$AA?0?$AAI?$AAs?$AAO?$AAp?$AAe?$AAn?$AA?$CI?$AA?$CJ?$AA?$AN@ 0045bfb0     serialport.obj
 0003:00005008       ??_C@_1EA@NDEOBMDG@?$AAF?$AAa?$AAi?$AAl?$AAe?$AAd?$AA?5?$AAi?$AAn?$AA?5?$AAc?$AAa?$AAl?$AAl?$AA?5?$AAt?$AAo?$AA?5?$AAS?$AAe?$AAt?$AAC?$AAo?$AAm?$AAm?$AAB?$AAr?$AAe?$AAa?$AAk?$AA?6?$AA?$AA@ 0045c008     serialport.obj
 0003:00005058       ??_C@_1EC@JOMEIDFF@?$AAC?$AAS?$AAe?$AAr?$AAi?$AAa?$AAl?$AAP?$AAo?$AAr?$AAt?$AA?3?$AA?3?$AAS?$AAe?$AAt?$AAB?$AAr?$AAe?$AAa?$AAk?$AA?0?$AAI?$AAs?$AAO?$AAp?$AAe?$AAn?$AA?$CI?$AA?$CJ?$AA?$AN?$AA?6@ 0045c058     serialport.obj
 0003:000050a8       ??_C@_1EG@BLFKPLMM@?$AAC?$AAS?$AAe?$AAr?$AAi?$AAa?$AAl?$AAP?$AAo?$AAr?$AAt?$AA?3?$AA?3?$AAC?$AAl?$AAe?$AAa?$AAr?$AAB?$AAr?$AAe?$AAa?$AAk?$AA?0?$AAI?$AAs?$AAO?$AAp?$AAe?$AAn?$AA?$CI?$AA?$CJ@ 0045c0a8     serialport.obj
 0003:00005100       ??_C@_1EE@PLDBDCDA@?$AAF?$AAa?$AAi?$AAl?$AAe?$AAd?$AA?5?$AAi?$AAn?$AA?5?$AAc?$AAa?$AAl?$AAl?$AA?5?$AAt?$AAo?$AA?5?$AAC?$AAl?$AAe?$AAa?$AAr?$AAC?$AAo?$AAm?$AAm?$AAE?$AAr?$AAr?$AAo?$AAr@ 0045c100     serialport.obj
 0003:00005158       ??_C@_1EG@DBGOOPIB@?$AAC?$AAS?$AAe?$AAr?$AAi?$AAa?$AAl?$AAP?$AAo?$AAr?$AAt?$AA?3?$AA?3?$AAC?$AAl?$AAe?$AAa?$AAr?$AAE?$AAr?$AAr?$AAo?$AAr?$AA?0?$AAI?$AAs?$AAO?$AAp?$AAe?$AAn?$AA?$CI?$AA?$CJ@ 0045c158     serialport.obj
 0003:000051b0       ??_C@_1FA@GDEBBLKF@?$AAF?$AAa?$AAi?$AAl?$AAe?$AAd?$AA?5?$AAi?$AAn?$AA?5?$AAc?$AAa?$AAl?$AAl?$AA?5?$AAt?$AAo?$AA?5?$AAG?$AAe?$AAt?$AAD?$AAe?$AAf?$AAa?$AAu?$AAl?$AAt?$AAC?$AAo?$AAm?$AAm@ 0045c1b0     serialport.obj
 0003:00005210       ??_C@_1M@PNNLCDFA@?$AAC?$AAO?$AAM?$AA?$CF?$AAd?$AA?$AA@ 0045c210     serialport.obj
 0003:00005220       ??_C@_1EE@BMDDICJL@?$AAC?$AAS?$AAe?$AAr?$AAi?$AAa?$AAl?$AAP?$AAo?$AAr?$AAt?$AA?3?$AA?3?$AAG?$AAe?$AAt?$AAS?$AAt?$AAa?$AAt?$AAu?$AAs?$AA?0?$AAI?$AAs?$AAO?$AAp?$AAe?$AAn?$AA?$CI?$AA?$CJ?$AA?$AN@ 0045c220     serialport.obj
 0003:00005278       ??_C@_1EA@NNPMLPCN@?$AAF?$AAa?$AAi?$AAl?$AAe?$AAd?$AA?5?$AAi?$AAn?$AA?5?$AAc?$AAa?$AAl?$AAl?$AA?5?$AAt?$AAo?$AA?5?$AAG?$AAe?$AAt?$AAC?$AAo?$AAm?$AAm?$AAS?$AAt?$AAa?$AAt?$AAe?$AA?6?$AA?$AA@ 0045c278     serialport.obj
 0003:000052c8       ??_C@_1EC@HFJADIEK@?$AAC?$AAS?$AAe?$AAr?$AAi?$AAa?$AAl?$AAP?$AAo?$AAr?$AAt?$AA?3?$AA?3?$AAG?$AAe?$AAt?$AAS?$AAt?$AAa?$AAt?$AAe?$AA?0?$AAI?$AAs?$AAO?$AAp?$AAe?$AAn?$AA?$CI?$AA?$CJ?$AA?$AN?$AA?6@ 0045c2c8     serialport.obj
 0003:00005318       ??_C@_1EA@MAHEJKIJ@?$AAF?$AAa?$AAi?$AAl?$AAe?$AAd?$AA?5?$AAi?$AAn?$AA?5?$AAc?$AAa?$AAl?$AAl?$AA?5?$AAt?$AAo?$AA?5?$AAS?$AAe?$AAt?$AAC?$AAo?$AAm?$AAm?$AAS?$AAt?$AAa?$AAt?$AAe?$AA?6?$AA?$AA@ 0045c318     serialport.obj
 0003:00005368       ??_C@_1EC@FBPGHIGL@?$AAC?$AAS?$AAe?$AAr?$AAi?$AAa?$AAl?$AAP?$AAo?$AAr?$AAt?$AA?3?$AA?3?$AAS?$AAe?$AAt?$AAS?$AAt?$AAa?$AAt?$AAe?$AA?0?$AAI?$AAs?$AAO?$AAp?$AAe?$AAn?$AA?$CI?$AA?$CJ?$AA?$AN?$AA?6@ 0045c368     serialport.obj
 0003:000053b8       ??_C@_1EM@DPOCFIFJ@?$AAF?$AAa?$AAi?$AAl?$AAe?$AAd?$AA?5?$AAi?$AAn?$AA?5?$AAc?$AAa?$AAl?$AAl?$AA?5?$AAt?$AAo?$AA?5?$AAE?$AAs?$AAc?$AAa?$AAp?$AAe?$AAC?$AAo?$AAm?$AAm?$AAF?$AAu?$AAn?$AAc@ 0045c3b8     serialport.obj
 0003:00005414       ??_C@_1DO@BKKJGGKH@?$AAC?$AAS?$AAe?$AAr?$AAi?$AAa?$AAl?$AAP?$AAo?$AAr?$AAt?$AA?3?$AA?3?$AAE?$AAs?$AAc?$AAa?$AAp?$AAe?$AA?0?$AAI?$AAs?$AAO?$AAp?$AAe?$AAn?$AA?$CI?$AA?$CJ?$AA?$AN?$AA?6?$AA?$AA@ 0045c414     serialport.obj
 0003:00005460       ??_C@_1EK@NOJJICPD@?$AAF?$AAa?$AAi?$AAl?$AAe?$AAd?$AA?5?$AAi?$AAn?$AA?5?$AAc?$AAa?$AAl?$AAl?$AA?5?$AAt?$AAo?$AA?5?$AAG?$AAe?$AAt?$AAC?$AAo?$AAm?$AAm?$AAP?$AAr?$AAo?$AAp?$AAe?$AAr?$AAt@ 0045c460     serialport.obj
 0003:000054b8       ??_C@_1EM@OMBDJMHN@?$AAC?$AAS?$AAe?$AAr?$AAi?$AAa?$AAl?$AAP?$AAo?$AAr?$AAt?$AA?3?$AA?3?$AAG?$AAe?$AAt?$AAP?$AAr?$AAo?$AAp?$AAe?$AAr?$AAt?$AAi?$AAe?$AAs?$AA?0?$AAI?$AAs?$AAO?$AAp?$AAe@ 0045c4b8     serialport.obj
 0003:00005518       ??_C@_1EM@OFHOONMF@?$AAF?$AAa?$AAi?$AAl?$AAe?$AAd?$AA?5?$AAi?$AAn?$AA?5?$AAc?$AAa?$AAl?$AAl?$AA?5?$AAt?$AAo?$AA?5?$AAG?$AAe?$AAt?$AAC?$AAo?$AAm?$AAm?$AAM?$AAo?$AAd?$AAe?$AAm?$AAS?$AAt@ 0045c518     serialport.obj
 0003:00005578       ??_C@_1EO@CIFBHKKN@?$AAC?$AAS?$AAe?$AAr?$AAi?$AAa?$AAl?$AAP?$AAo?$AAr?$AAt?$AA?3?$AA?3?$AAG?$AAe?$AAt?$AAM?$AAo?$AAd?$AAe?$AAm?$AAS?$AAt?$AAa?$AAt?$AAu?$AAs?$AA?0?$AAI?$AAs?$AAO?$AAp@ 0045c578     serialport.obj
 0003:000055d8       ??_C@_1DO@OGNKBNPO@?$AAF?$AAa?$AAi?$AAl?$AAe?$AAd?$AA?5?$AAi?$AAn?$AA?5?$AAc?$AAa?$AAl?$AAl?$AA?5?$AAt?$AAo?$AA?5?$AAS?$AAe?$AAt?$AAC?$AAo?$AAm?$AAm?$AAM?$AAa?$AAs?$AAk?$AA?6?$AA?$AA@ 0045c5d8     serialport.obj
 0003:00005628       ??_C@_1EA@LJINIAPO@?$AAC?$AAS?$AAe?$AAr?$AAi?$AAa?$AAl?$AAP?$AAo?$AAr?$AAt?$AA?3?$AA?3?$AAS?$AAe?$AAt?$AAM?$AAa?$AAs?$AAk?$AA?0?$AAI?$AAs?$AAO?$AAp?$AAe?$AAn?$AA?$CI?$AA?$CJ?$AA?$AN?$AA?6?$AA?$AA@ 0045c628     serialport.obj
 0003:00005674       ??_C@_1DO@GGBMNAFI@?$AAF?$AAa?$AAi?$AAl?$AAe?$AAd?$AA?5?$AAi?$AAn?$AA?5?$AAc?$AAa?$AAl?$AAl?$AA?5?$AAt?$AAo?$AA?5?$AAG?$AAe?$AAt?$AAC?$AAo?$AAm?$AAm?$AAM?$AAa?$AAs?$AAk?$AA?6?$AA?$AA@ 0045c674     serialport.obj
 0003:000056c0       ??_C@_1EA@FHIPIONI@?$AAC?$AAS?$AAe?$AAr?$AAi?$AAa?$AAl?$AAP?$AAo?$AAr?$AAt?$AA?3?$AA?3?$AAG?$AAe?$AAt?$AAM?$AAa?$AAs?$AAk?$AA?0?$AAI?$AAs?$AAO?$AAp?$AAe?$AAn?$AA?$CI?$AA?$CJ?$AA?$AN?$AA?6?$AA?$AA@ 0045c6c0     serialport.obj
 0003:00005710       ??_C@_1EI@MHNCBKKB@?$AAF?$AAa?$AAi?$AAl?$AAe?$AAd?$AA?5?$AAi?$AAn?$AA?5?$AAc?$AAa?$AAl?$AAl?$AA?5?$AAt?$AAo?$AA?5?$AAF?$AAl?$AAu?$AAs?$AAh?$AAF?$AAi?$AAl?$AAe?$AAB?$AAu?$AAf?$AAf?$AAe@ 0045c710     serialport.obj
 0003:00005768       ??_C@_1DM@KNJGBAIP@?$AAC?$AAS?$AAe?$AAr?$AAi?$AAa?$AAl?$AAP?$AAo?$AAr?$AAt?$AA?3?$AA?3?$AAF?$AAl?$AAu?$AAs?$AAh?$AA?0?$AAI?$AAs?$AAO?$AAp?$AAe?$AAn?$AA?$CI?$AA?$CJ?$AA?$AN?$AA?6?$AA?$AA@ 0045c768     serialport.obj
 0003:000057b0       ??_C@_1DK@PDJBJJHO@?$AAF?$AAa?$AAi?$AAl?$AAe?$AAd?$AA?5?$AAi?$AAn?$AA?5?$AAc?$AAa?$AAl?$AAl?$AA?5?$AAt?$AAo?$AA?5?$AAP?$AAu?$AAr?$AAg?$AAe?$AAC?$AAo?$AAm?$AAm?$AA?6?$AA?$AA@ 0045c7b0     serialport.obj
 0003:000057f8       ??_C@_1DM@GMLACBOG@?$AAC?$AAS?$AAe?$AAr?$AAi?$AAa?$AAl?$AAP?$AAo?$AAr?$AAt?$AA?3?$AA?3?$AAP?$AAu?$AAr?$AAg?$AAe?$AA?0?$AAI?$AAs?$AAO?$AAp?$AAe?$AAn?$AA?$CI?$AA?$CJ?$AA?$AN?$AA?6?$AA?$AA@ 0045c7f8     serialport.obj
 0003:00005840       ??_C@_1DK@KHMFGKGC@?$AAF?$AAa?$AAi?$AAl?$AAe?$AAd?$AA?5?$AAi?$AAn?$AA?5?$AAc?$AAa?$AAl?$AAl?$AA?5?$AAt?$AAo?$AA?5?$AAS?$AAe?$AAt?$AAu?$AAp?$AAC?$AAo?$AAm?$AAm?$AA?6?$AA?$AA@ 0045c840     serialport.obj
 0003:00005888       ??_C@_1DM@OKMCLGLO@?$AAC?$AAS?$AAe?$AAr?$AAi?$AAa?$AAl?$AAP?$AAo?$AAr?$AAt?$AA?3?$AA?3?$AAS?$AAe?$AAt?$AAu?$AAp?$AA?0?$AAI?$AAs?$AAO?$AAp?$AAe?$AAn?$AA?$CI?$AA?$CJ?$AA?$AN?$AA?6?$AA?$AA@ 0045c888     serialport.obj
 0003:000058d0       ??_C@_1EG@JAEMNGIN@?$AAF?$AAa?$AAi?$AAl?$AAe?$AAd?$AA?5?$AAi?$AAn?$AA?5?$AAc?$AAa?$AAl?$AAl?$AA?5?$AAt?$AAo?$AA?5?$AAS?$AAe?$AAt?$AAC?$AAo?$AAm?$AAm?$AAT?$AAi?$AAm?$AAe?$AAo?$AAu?$AAt@ 0045c8d0     serialport.obj
 0003:00005928       ??_C@_1EI@LKKJEGBB@?$AAC?$AAS?$AAe?$AAr?$AAi?$AAa?$AAl?$AAP?$AAo?$AAr?$AAt?$AA?3?$AA?3?$AAS?$AAe?$AAt?$AAT?$AAi?$AAm?$AAe?$AAo?$AAu?$AAt?$AAs?$AA?0?$AAI?$AAs?$AAO?$AAp?$AAe?$AAn?$AA?$CI@ 0045c928     serialport.obj
 0003:00005980       ??_C@_1EG@CHPDILPG@?$AAF?$AAa?$AAi?$AAl?$AAe?$AAd?$AA?5?$AAi?$AAn?$AA?5?$AAc?$AAa?$AAl?$AAl?$AA?5?$AAt?$AAo?$AA?5?$AAG?$AAe?$AAt?$AAC?$AAo?$AAm?$AAm?$AAT?$AAi?$AAm?$AAe?$AAo?$AAu?$AAt@ 0045c980     serialport.obj
 0003:000059d8       ??_C@_1EI@PKDIOCI@?$AAC?$AAS?$AAe?$AAr?$AAi?$AAa?$AAl?$AAP?$AAo?$AAr?$AAt?$AA?3?$AA?3?$AAG?$AAe?$AAt?$AAT?$AAi?$AAm?$AAe?$AAo?$AAu?$AAt?$AAs?$AA?0?$AAI?$AAs?$AAO?$AAp?$AAe?$AAn?$AA?$CI@ 0045c9d8     serialport.obj
 0003:00005a30       ??_C@_1EC@HMHLCICG@?$AAF?$AAa?$AAi?$AAl?$AAe?$AAd?$AA?5?$AAi?$AAn?$AA?5?$AAc?$AAa?$AAl?$AAl?$AA?5?$AAt?$AAo?$AA?5?$AAW?$AAa?$AAi?$AAt?$AAC?$AAo?$AAm?$AAm?$AAE?$AAv?$AAe?$AAn?$AAt?$AA?6@ 0045ca30     serialport.obj
 0003:00005a80       ??_C@_1FO@FFDGKEGJ@?$AAC?$AAS?$AAe?$AAr?$AAi?$AAa?$AAl?$AAP?$AAo?$AAr?$AAt?$AA?3?$AA?3?$AAW?$AAa?$AAi?$AAt?$AAE?$AAv?$AAe?$AAn?$AAt?$AA?0?$AAm?$AA_?$AAb?$AAO?$AAv?$AAe?$AAr?$AAl?$AAa@ 0045ca80     serialport.obj
 0003:00005af0       ??_C@_1EE@CBNJNNHE@?$AAC?$AAS?$AAe?$AAr?$AAi?$AAa?$AAl?$AAP?$AAo?$AAr?$AAt?$AA?3?$AA?3?$AAW?$AAa?$AAi?$AAt?$AAE?$AAv?$AAe?$AAn?$AAt?$AA?0?$AAI?$AAs?$AAO?$AAp?$AAe?$AAn?$AA?$CI?$AA?$CJ?$AA?$AN@ 0045caf0     serialport.obj
 0003:00005b48       ??_C@_1GG@KFOGCDID@?$AAC?$AAS?$AAe?$AAr?$AAi?$AAa?$AAl?$AAP?$AAo?$AAr?$AAt?$AA?3?$AA?3?$AAW?$AAa?$AAi?$AAt?$AAE?$AAv?$AAe?$AAn?$AAt?$AA?0?$AAo?$AAv?$AAe?$AAr?$AAl?$AAa?$AAp?$AAp?$AAe@ 0045cb48     serialport.obj
 0003:00005bc8       ??_C@_1GA@CNBBMPCF@?$AAC?$AAS?$AAe?$AAr?$AAi?$AAa?$AAl?$AAP?$AAo?$AAr?$AAt?$AA?3?$AA?3?$AAW?$AAa?$AAi?$AAt?$AAE?$AAv?$AAe?$AAn?$AAt?$AA?0?$AAm?$AA_?$AAb?$AAO?$AAv?$AAe?$AAr?$AAl?$AAa@ 0045cbc8     serialport.obj
 0003:00005c3c       ??_C@_1BA@JIHHIEDE@?$AAT?$AAy?$AAp?$AAe?$AAL?$AAi?$AAb?$AA?$AA@ 0045cc3c     stdafx.obj
 0003:00005c50       ??_C@_1BC@EAHCMADO@?$AAS?$AAo?$AAf?$AAt?$AAw?$AAa?$AAr?$AAe?$AA?$AA@ 0045cc50     stdafx.obj
 0003:00005c68       ??_C@_1O@GBFINDKL@?$AAS?$AAY?$AAS?$AAT?$AAE?$AAM?$AA?$AA@ 0045cc68     stdafx.obj
 0003:00005c78       ??_C@_1BC@IBECJAAI@?$AAS?$AAE?$AAC?$AAU?$AAR?$AAI?$AAT?$AAY?$AA?$AA@ 0045cc78     stdafx.obj
 0003:00005c90       ??_C@_17OMAOINJK@?$AAS?$AAA?$AAM?$AA?$AA@ 0045cc90     stdafx.obj
 0003:00005c9c       ??_C@_19HLLLM@?$AAM?$AAi?$AAm?$AAe?$AA?$AA@ 0045cc9c     stdafx.obj
 0003:00005ca8       ??_C@_1BC@MAICEHGI@?$AAH?$AAa?$AAr?$AAd?$AAw?$AAa?$AAr?$AAe?$AA?$AA@ 0045cca8     stdafx.obj
 0003:00005cc0       ??_C@_1BE@EKPAFMCP@?$AAI?$AAn?$AAt?$AAe?$AAr?$AAf?$AAa?$AAc?$AAe?$AA?$AA@ 0045ccc0     stdafx.obj
 0003:00005cd8       ??_C@_1BC@NKMMNMGL@?$AAF?$AAi?$AAl?$AAe?$AAT?$AAy?$AAp?$AAe?$AA?$AA@ 0045ccd8     stdafx.obj
 0003:00005cf0       ??_C@_1CK@OEKPKBNA@?$AAC?$AAo?$AAm?$AAp?$AAo?$AAn?$AAe?$AAn?$AAt?$AA?5?$AAC?$AAa?$AAt?$AAe?$AAg?$AAo?$AAr?$AAi?$AAe?$AAs?$AA?$AA@ 0045ccf0     stdafx.obj
 0003:00005d24       ??_C@_1M@KANJNLFF@?$AAC?$AAL?$AAS?$AAI?$AAD?$AA?$AA@ 0045cd24     stdafx.obj
 0003:00005d34       ??_C@_1M@EJNEECMJ@?$AAA?$AAp?$AAp?$AAI?$AAD?$AA?$AA@ 0045cd34     stdafx.obj
 0003:00005d44       ??_C@_1O@JDLOHAN@?$AAD?$AAe?$AAl?$AAe?$AAt?$AAe?$AA?$AA@ 0045cd44     stdafx.obj
 0003:00005d54       ??_C@_1BC@GCKHIPE@?$AAN?$AAo?$AAR?$AAe?$AAm?$AAo?$AAv?$AAe?$AA?$AA@ 0045cd54     stdafx.obj
 0003:00005d6c       ??_C@_1BI@JFAIJMHL@?$AAF?$AAo?$AAr?$AAc?$AAe?$AAR?$AAe?$AAm?$AAo?$AAv?$AAe?$AA?$AA@ 0045cd6c     stdafx.obj
 0003:00005d88       ??_C@_17LLMMEOJD@?$AAV?$AAa?$AAl?$AA?$AA@ 0045cd88     stdafx.obj
 0003:00005d94       ??_C@_13OPKGLAFF@?$AAB?$AA?$AA@ 0045cd94     stdafx.obj
 0003:00005d98       ??_C@_13MKMNOPIJ@?$AAD?$AA?$AA@ 0045cd98     stdafx.obj
 0003:00005d9c       ??_C@_13LHMFKAAD@?$AAM?$AA?$AA@ 0045cd9c     stdafx.obj
 0003:00005da0       ??_C@_13HADIAKP@?$AAS?$AA?$AA@ 0045cda0     stdafx.obj
 0003:00005da4       ??_C@_1CK@NMKILLLB@?$AAI?$AAn?$AAv?$AAa?$AAl?$AAi?$AAd?$AA?5?$AAD?$AAa?$AAt?$AAe?$AAT?$AAi?$AAm?$AAe?$AAS?$AAp?$AAa?$AAn?$AA?$AA@ 0045cda4     stdafx.obj
 0003:00005dd8       ??_C@_1CC@FFBCNGIJ@?$AAI?$AAn?$AAv?$AAa?$AAl?$AAi?$AAd?$AA?5?$AAD?$AAa?$AAt?$AAe?$AAT?$AAi?$AAm?$AAe?$AA?$AA@ 0045cdd8     stdafx.obj
 0003:00005e00       ?_Min@?$AtlLimits@H@ATL@@2HB 0045ce00     stdafx.obj
 0003:00005e04       ?_Max@?$AtlLimits@H@ATL@@2HB 0045ce04     stdafx.obj
 0003:00005e08       ?_Min@?$AtlLimits@I@ATL@@2IB 0045ce08     stdafx.obj
 0003:00005e0c       ?_Max@?$AtlLimits@I@ATL@@2IB 0045ce0c     stdafx.obj
 0003:00005e10       ?_Min@?$AtlLimits@J@ATL@@2JB 0045ce10     stdafx.obj
 0003:00005e14       ?_Max@?$AtlLimits@J@ATL@@2JB 0045ce14     stdafx.obj
 0003:00005e18       ?_Min@?$AtlLimits@K@ATL@@2KB 0045ce18     stdafx.obj
 0003:00005e1c       ?_Max@?$AtlLimits@K@ATL@@2KB 0045ce1c     stdafx.obj
 0003:00005e20       ?_Min@?$AtlLimits@_J@ATL@@2_JB 0045ce20     stdafx.obj
 0003:00005e30       ?_Max@?$AtlLimits@_J@ATL@@2_JB 0045ce30     stdafx.obj
 0003:00005e40       ?_Min@?$AtlLimits@_K@ATL@@2_KB 0045ce40     stdafx.obj
 0003:00005e50       ?_Max@?$AtlLimits@_K@ATL@@2_KB 0045ce50     stdafx.obj
 0003:00005e5c       ?VT@?$CVarTypeInfo@D@ATL@@2GB 0045ce5c     stdafx.obj
 0003:00005e60       ?pmField@?$CVarTypeInfo@D@ATL@@2QQtagVARIANT@@DQ3@ 0045ce60     stdafx.obj
 0003:00005e64       ?VT@?$CVarTypeInfo@E@ATL@@2GB 0045ce64     stdafx.obj
 0003:00005e68       ?pmField@?$CVarTypeInfo@E@ATL@@2QQtagVARIANT@@EQ3@ 0045ce68     stdafx.obj
 0003:00005e6c       ?VT@?$CVarTypeInfo@PAD@ATL@@2GB 0045ce6c     stdafx.obj
 0003:00005e70       ?pmField@?$CVarTypeInfo@PAD@ATL@@2QQtagVARIANT@@PADQ3@ 0045ce70     stdafx.obj
 0003:00005e74       ?VT@?$CVarTypeInfo@PAE@ATL@@2GB 0045ce74     stdafx.obj
 0003:00005e78       ?pmField@?$CVarTypeInfo@PAE@ATL@@2QQtagVARIANT@@PAEQ3@ 0045ce78     stdafx.obj
 0003:00005e7c       ?VT@?$CVarTypeInfo@F@ATL@@2GB 0045ce7c     stdafx.obj
 0003:00005e80       ?pmField@?$CVarTypeInfo@F@ATL@@2QQtagVARIANT@@FQ3@ 0045ce80     stdafx.obj
 0003:00005e84       ?VT@?$CVarTypeInfo@PAF@ATL@@2GB 0045ce84     stdafx.obj
 0003:00005e88       ?pmField@?$CVarTypeInfo@PAF@ATL@@2QQtagVARIANT@@PAFQ3@ 0045ce88     stdafx.obj
 0003:00005e8c       ?VT@?$CVarTypeInfo@G@ATL@@2GB 0045ce8c     stdafx.obj
 0003:00005e90       ?pmField@?$CVarTypeInfo@G@ATL@@2QQtagVARIANT@@GQ3@ 0045ce90     stdafx.obj
 0003:00005e94       ?VT@?$CVarTypeInfo@PAG@ATL@@2GB 0045ce94     stdafx.obj
 0003:00005e98       ?pmField@?$CVarTypeInfo@PAG@ATL@@2QQtagVARIANT@@PAGQ3@ 0045ce98     stdafx.obj
 0003:00005e9c       ?VT@?$CVarTypeInfo@H@ATL@@2GB 0045ce9c     stdafx.obj
 0003:00005ea0       ?pmField@?$CVarTypeInfo@H@ATL@@2QQtagVARIANT@@HQ3@ 0045cea0     stdafx.obj
 0003:00005ea4       ?VT@?$CVarTypeInfo@PAH@ATL@@2GB 0045cea4     stdafx.obj
 0003:00005ea8       ?pmField@?$CVarTypeInfo@PAH@ATL@@2QQtagVARIANT@@PAHQ3@ 0045cea8     stdafx.obj
 0003:00005eac       ?VT@?$CVarTypeInfo@I@ATL@@2GB 0045ceac     stdafx.obj
 0003:00005eb0       ?pmField@?$CVarTypeInfo@I@ATL@@2QQtagVARIANT@@IQ3@ 0045ceb0     stdafx.obj
 0003:00005eb4       ?VT@?$CVarTypeInfo@PAI@ATL@@2GB 0045ceb4     stdafx.obj
 0003:00005eb8       ?pmField@?$CVarTypeInfo@PAI@ATL@@2QQtagVARIANT@@PAIQ3@ 0045ceb8     stdafx.obj
 0003:00005ebc       ?VT@?$CVarTypeInfo@J@ATL@@2GB 0045cebc     stdafx.obj
 0003:00005ec0       ?pmField@?$CVarTypeInfo@J@ATL@@2QQtagVARIANT@@JQ3@ 0045cec0     stdafx.obj
 0003:00005ec4       ?VT@?$CVarTypeInfo@PAJ@ATL@@2GB 0045cec4     stdafx.obj
 0003:00005ec8       ?pmField@?$CVarTypeInfo@PAJ@ATL@@2QQtagVARIANT@@PAJQ3@ 0045cec8     stdafx.obj
 0003:00005ecc       ?VT@?$CVarTypeInfo@K@ATL@@2GB 0045cecc     stdafx.obj
 0003:00005ed0       ?pmField@?$CVarTypeInfo@K@ATL@@2QQtagVARIANT@@KQ3@ 0045ced0     stdafx.obj
 0003:00005ed4       ?VT@?$CVarTypeInfo@PAK@ATL@@2GB 0045ced4     stdafx.obj
 0003:00005ed8       ?pmField@?$CVarTypeInfo@PAK@ATL@@2QQtagVARIANT@@PAKQ3@ 0045ced8     stdafx.obj
 0003:00005edc       ?VT@?$CVarTypeInfo@_J@ATL@@2GB 0045cedc     stdafx.obj
 0003:00005ee0       ?pmField@?$CVarTypeInfo@_J@ATL@@2QQtagVARIANT@@_JQ3@ 0045cee0     stdafx.obj
 0003:00005ee4       ?VT@?$CVarTypeInfo@PA_J@ATL@@2GB 0045cee4     stdafx.obj
 0003:00005ee8       ?pmField@?$CVarTypeInfo@PA_J@ATL@@2QQtagVARIANT@@PA_JQ3@ 0045cee8     stdafx.obj
 0003:00005eec       ?VT@?$CVarTypeInfo@_K@ATL@@2GB 0045ceec     stdafx.obj
 0003:00005ef0       ?pmField@?$CVarTypeInfo@_K@ATL@@2QQtagVARIANT@@_KQ3@ 0045cef0     stdafx.obj
 0003:00005ef4       ?VT@?$CVarTypeInfo@PA_K@ATL@@2GB 0045cef4     stdafx.obj
 0003:00005ef8       ?pmField@?$CVarTypeInfo@PA_K@ATL@@2QQtagVARIANT@@PA_KQ3@ 0045cef8     stdafx.obj
 0003:00005efc       ?VT@?$CVarTypeInfo@M@ATL@@2GB 0045cefc     stdafx.obj
 0003:00005f00       ?pmField@?$CVarTypeInfo@M@ATL@@2QQtagVARIANT@@MQ3@ 0045cf00     stdafx.obj
 0003:00005f04       ?VT@?$CVarTypeInfo@PAM@ATL@@2GB 0045cf04     stdafx.obj
 0003:00005f08       ?pmField@?$CVarTypeInfo@PAM@ATL@@2QQtagVARIANT@@PAMQ3@ 0045cf08     stdafx.obj
 0003:00005f0c       ?VT@?$CVarTypeInfo@N@ATL@@2GB 0045cf0c     stdafx.obj
 0003:00005f10       ?pmField@?$CVarTypeInfo@N@ATL@@2QQtagVARIANT@@NQ3@ 0045cf10     stdafx.obj
 0003:00005f14       ?VT@?$CVarTypeInfo@PAN@ATL@@2GB 0045cf14     stdafx.obj
 0003:00005f18       ?pmField@?$CVarTypeInfo@PAN@ATL@@2QQtagVARIANT@@PANQ3@ 0045cf18     stdafx.obj
 0003:00005f1c       ?VT@?$CVarTypeInfo@PAUtagVARIANT@@@ATL@@2GB 0045cf1c     stdafx.obj
 0003:00005f20       ?VT@?$CVarTypeInfo@PA_W@ATL@@2GB 0045cf20     stdafx.obj
 0003:00005f24       ?pmField@?$CVarTypeInfo@PA_W@ATL@@2QQtagVARIANT@@PA_WQ3@ 0045cf24     stdafx.obj
 0003:00005f28       ?VT@?$CVarTypeInfo@PAPA_W@ATL@@2GB 0045cf28     stdafx.obj
 0003:00005f2c       ?pmField@?$CVarTypeInfo@PAPA_W@ATL@@2QQtagVARIANT@@PAPA_WQ3@ 0045cf2c     stdafx.obj
 0003:00005f30       ?VT@?$CVarTypeInfo@PAUIUnknown@@@ATL@@2GB 0045cf30     stdafx.obj
 0003:00005f34       ?pmField@?$CVarTypeInfo@PAUIUnknown@@@ATL@@2QQtagVARIANT@@PAUIUnknown@@Q3@ 0045cf34     stdafx.obj
 0003:00005f38       ?VT@?$CVarTypeInfo@PAPAUIUnknown@@@ATL@@2GB 0045cf38     stdafx.obj
 0003:00005f3c       ?pmField@?$CVarTypeInfo@PAPAUIUnknown@@@ATL@@2QQtagVARIANT@@PAPAUIUnknown@@Q3@ 0045cf3c     stdafx.obj
 0003:00005f40       ?VT@?$CVarTypeInfo@PAUIDispatch@@@ATL@@2GB 0045cf40     stdafx.obj
 0003:00005f44       ?pmField@?$CVarTypeInfo@PAUIDispatch@@@ATL@@2QQtagVARIANT@@PAUIDispatch@@Q3@ 0045cf44     stdafx.obj
 0003:00005f48       ?VT@?$CVarTypeInfo@PAPAUIDispatch@@@ATL@@2GB 0045cf48     stdafx.obj
 0003:00005f4c       ?pmField@?$CVarTypeInfo@PAPAUIDispatch@@@ATL@@2QQtagVARIANT@@PAPAUIDispatch@@Q3@ 0045cf4c     stdafx.obj
 0003:00005f50       ?VT@?$CVarTypeInfo@TtagCY@@@ATL@@2GB 0045cf50     stdafx.obj
 0003:00005f54       ?pmField@?$CVarTypeInfo@TtagCY@@@ATL@@2QQtagVARIANT@@TtagCY@@Q3@ 0045cf54     stdafx.obj
 0003:00005f58       ?VT@?$CVarTypeInfo@PATtagCY@@@ATL@@2GB 0045cf58     stdafx.obj
 0003:00005f5c       ?pmField@?$CVarTypeInfo@PATtagCY@@@ATL@@2QQtagVARIANT@@PATtagCY@@Q3@ 0045cf5c     stdafx.obj
 0003:00005f60       ?c_bIsMFCDLLTraits@?$_MFCDLLTraitsCheck@DV?$StrTraitMFC_DLL@DV?$ChTraitsCRT@D@ATL@@@@@_CSTRING_IMPL_@ATL@@2_NB 0045cf60     stdafx.obj
 0003:00005f61       ?c_bIsMFCDLLTraits@?$_MFCDLLTraitsCheck@_WV?$StrTraitMFC_DLL@_WV?$ChTraitsCRT@_W@ATL@@@@@_CSTRING_IMPL_@ATL@@2_NB 0045cf61     stdafx.obj
 0003:00005f64       ?generic@CArchiveException@@2HB 0045cf64     stdafx.obj
 0003:00005f68       ?generic@CFileException@@2HB 0045cf68     stdafx.obj
 0003:00005f70       ?Millisecond@CFileTime@ATL@@2_KB 0045cf70     stdafx.obj
 0003:00005f80       ?Second@CFileTime@ATL@@2_KB 0045cf80     stdafx.obj
 0003:00005f90       ?Minute@CFileTime@ATL@@2_KB 0045cf90     stdafx.obj
 0003:00005fa0       ?Hour@CFileTime@ATL@@2_KB  0045cfa0     stdafx.obj
 0003:00005fb0       ?Day@CFileTime@ATL@@2_KB   0045cfb0     stdafx.obj
 0003:00005fc0       ?Week@CFileTime@ATL@@2_KB  0045cfc0     stdafx.obj
 0003:00005fcc       ?szInvalidDateTime@ATL@@3QB_WB 0045cfcc     stdafx.obj
 0003:00005fd0       ?szInvalidDateTimeSpan@ATL@@3QB_WB 0045cfd0     stdafx.obj
 0003:00005fd4       _LIBID_ATLLib              0045cfd4     stdafx.obj
 0003:00005fe8       _CLSID_Registrar           0045cfe8     stdafx.obj
 0003:00005ffc       _IID_IRegistrar            0045cffc     stdafx.obj
 0003:00006010       _IID_IAxWinHostWindow      0045d010     stdafx.obj
 0003:00006024       _IID_IAxWinAmbientDispatch 0045d024     stdafx.obj
 0003:00006038       _IID_IInternalConnection   0045d038     stdafx.obj
 0003:0000604c       _IID_IDocHostUIHandlerDispatch 0045d04c     stdafx.obj
 0003:00006060       _IID_IAxWinHostWindowLic   0045d060     stdafx.obj
 0003:00006074       _IID_IAxWinAmbientDispatchEx 0045d074     stdafx.obj
 0003:000060b0       ?MAX_VALUE@CRegParser@ATL@@1HB 0045d0b0     stdafx.obj
 0003:000060b4       ?MAX_TYPE@CRegParser@ATL@@1HB 0045d0b4     stdafx.obj
 0003:000060b8       ?rgszNeverDelete@CRegParser@ATL@@1QBQB_WB 0045d0b8     stdafx.obj
 0003:000060f4       ?cbNeverDelete@CRegParser@ATL@@1HB 0045d0f4     stdafx.obj
 0003:000060f8       ?c_bIsMFCDLLTraits@?$_MFCDLLTraitsCheck@DV?$StrTraitATL@DV?$ChTraitsCRT@D@ATL@@@ATL@@@_CSTRING_IMPL_@ATL@@2_NB 0045d0f8     stdafx.obj
 0003:000060f9       ?c_bIsMFCDLLTraits@?$_MFCDLLTraitsCheck@_WV?$StrTraitATL@_WV?$ChTraitsCRT@_W@ATL@@@ATL@@@_CSTRING_IMPL_@ATL@@2_NB 0045d0f9     stdafx.obj
 0003:000060fc       ?CLSID_WinFormsControl@@3U_GUID@@B 0045d0fc     stdafx.obj
 0003:00006110       ?createAlphaChannel@CImage@ATL@@2KB 0045d110     stdafx.obj
 0003:00006114       ?excludeGIF@CImage@ATL@@2KB 0045d114     stdafx.obj
 0003:00006118       ?excludeBMP@CImage@ATL@@2KB 0045d118     stdafx.obj
 0003:0000611c       ?excludeEMF@CImage@ATL@@2KB 0045d11c     stdafx.obj
 0003:00006120       ?excludeWMF@CImage@ATL@@2KB 0045d120     stdafx.obj
 0003:00006124       ?excludeJPEG@CImage@ATL@@2KB 0045d124     stdafx.obj
 0003:00006128       ?excludePNG@CImage@ATL@@2KB 0045d128     stdafx.obj
 0003:0000612c       ?excludeTIFF@CImage@ATL@@2KB 0045d12c     stdafx.obj
 0003:00006130       ?excludeIcon@CImage@ATL@@2KB 0045d130     stdafx.obj
 0003:00006134       ?excludeOther@CImage@ATL@@2KB 0045d134     stdafx.obj
 0003:00006138       ?excludeDefaultLoad@CImage@ATL@@2KB 0045d138     stdafx.obj
 0003:0000613c       ?excludeDefaultSave@CImage@ATL@@2KB 0045d13c     stdafx.obj
 0003:00006140       ?excludeValid@CImage@ATL@@2KB 0045d140     stdafx.obj
 0003:00006148       ??_7Thank_you@Define_the_symbol__ATL_MIXED@@6B@ 0045d148     stdafx.obj
 0003:00006150       ??_C@_15IALCAGAM@?$AA?$DL?$AA?5?$AA?$AA@ 0045d150     stdafx.obj
 0003:000061a8       ??_C@_1GA@EHAKPACL@?$AAf?$AA?3?$AA?2?$AAd?$AAd?$AA?2?$AAv?$AAc?$AAt?$AAo?$AAo?$AAl?$AAs?$AA?2?$AAc?$AAr?$AAt?$AA_?$AAb?$AAl?$AAd?$AA?2?$AAs?$AAe?$AAl?$AAf?$AA_?$AAx?$AA8?$AA6?$AA?2?$AAc@ 0045d1a8     msvcrtd:wcrtexew.obj
 0003:00006220       ??_C@_1FA@DALEHHGL@?$AA_?$AA_?$AAn?$AAa?$AAt?$AAi?$AAv?$AAe?$AA_?$AAs?$AAt?$AAa?$AAr?$AAt?$AAu?$AAp?$AA_?$AAs?$AAt?$AAa?$AAt?$AAe?$AA?5?$AA?$DN?$AA?$DN?$AA?5?$AA_?$AA_?$AAi?$AAn?$AAi?$AAt@ 0045d220     msvcrtd:wcrtexew.obj
 0003:00006284       ??_7type_info@@6B@         0045d284     msvcrtd:ti_inst.obj
 0003:0000628c       ??_C@_0BO@GNIAFIKK@Unknown?5Runtime?5Check?5Error?6?$AN?$AA@ 0045d28c     msvcrtd:_error_.obj
 0003:000062b0       ??_C@_0CM@NGINOKPC@Stack?5memory?5around?5_alloca?5was?5@ 0045d2b0     msvcrtd:_error_.obj
 0003:000062e4       ??_C@_0DG@HKJMLLLP@A?5local?5variable?5was?5used?5before@ 0045d2e4     msvcrtd:_error_.obj
 0003:00006324       ??_C@_0BN@FFOINMNJ@Stack?5memory?5was?5corrupted?6?$AN?$AA@ 0045d324     msvcrtd:_error_.obj
 0003:00006348       ??_C@_0BBN@GPMLNJCF@A?5cast?5to?5a?5smaller?5data?5type?5ha@ 0045d348     msvcrtd:_error_.obj
 0003:000064a0       ??_C@_0NN@NGPKDKPD@The?5value?5of?5ESP?5was?5not?5properl@ 0045d4a0     msvcrtd:_error_.obj
 0003:00006668       ??_C@_0CA@IODNCDPG@Run?9Time?5Check?5Failure?5?$CD?$CFd?5?9?5?$CFs?$AA@ 0045d668     msvcrtd:_error_.obj
 0003:00006690       ??_C@_0BE@GNBOBNCK@Unknown?5Module?5Name?$AA@ 0045d690     msvcrtd:_error_.obj
 0003:000066a8       ??_C@_0BB@PFFGGCJP@Unknown?5Filename?$AA@ 0045d6a8     msvcrtd:_error_.obj
 0003:000066c0       ??_C@_1EA@NFKNIFJP@?$AAR?$AAu?$AAn?$AA?9?$AAT?$AAi?$AAm?$AAe?$AA?5?$AAC?$AAh?$AAe?$AAc?$AAk?$AA?5?$AAF?$AAa?$AAi?$AAl?$AAu?$AAr?$AAe?$AA?5?$AA?$CD?$AA?$CF?$AAd?$AA?5?$AA?9?$AA?5?$AA?$CF?$AAs?$AA?$AA@ 0045d6c0     msvcrtd:_error_.obj
 0003:00006710       ??_C@_1GM@OLMCBDMB@?$AAR?$AAu?$AAn?$AAt?$AAi?$AAm?$AAe?$AA?5?$AAC?$AAh?$AAe?$AAc?$AAk?$AA?5?$AAE?$AAr?$AAr?$AAo?$AAr?$AA?4?$AA?6?$AA?$AN?$AA?5?$AAU?$AAn?$AAa?$AAb?$AAl?$AAe?$AA?5?$AAt?$AAo@ 0045d710     msvcrtd:_error_.obj
 0003:00006794       ??_C@_0CG@IAFNJNEE@Stack?5corrupted?5near?5unknown?5var@ 0045d794     msvcrtd:_error_.obj
 0003:000067c8       ??_C@_0EJ@LJKNEOLN@Stack?5area?5around?5_alloca?5memory@ 0045d7c8     msvcrtd:_error_.obj
 0003:00006820       ??_C@_08KJEDNCKC@?$CFs?$CFs?$CFs?$CFs?$AA@ 0045d820     msvcrtd:_error_.obj
 0003:0000682c       ??_C@_02LLMPMKNF@?$DO?5?$AA@ 0045d82c     msvcrtd:_error_.obj
 0003:00006830       ??_C@_01EEMJAFIK@?6?$AA@   0045d830     msvcrtd:_error_.obj
 0003:00006834       ??_C@_0BC@KIBAILCI@?$CFs?$CFs?$CFp?$CFs?$CFld?$CFs?$CFd?$CFs?$AA@ 0045d834     msvcrtd:_error_.obj
 0003:00006850       ??_C@_0EI@CLEPFNGI@Stack?5area?5around?5_alloca?5memory@ 0045d850     msvcrtd:_error_.obj
 0003:000068a8       ??_C@_0N@MHFFIMFG@?6Address?3?50x?$AA@ 0045d8a8     msvcrtd:_error_.obj
 0003:000068b8       ??_C@_07DFDJCKFN@?6Size?3?5?$AA@ 0045d8b8     msvcrtd:_error_.obj
 0003:000068c4       ??_C@_0CK@DKGBICFE@?6Allocation?5number?5within?5this?5f@ 0045d8c4     msvcrtd:_error_.obj
 0003:000068f8       ??_C@_08OMAHNMHJ@?6Data?3?5?$DM?$AA@ 0045d8f8     msvcrtd:_error_.obj
 0003:00006904       ??_C@_09FOPFMPEJ@wsprintfA?$AA@ 0045d904     msvcrtd:_error_.obj
 0003:00006910       ??_C@_1BG@OILDLIOJ@?$AAu?$AAs?$AAe?$AAr?$AA3?$AA2?$AA?4?$AAd?$AAl?$AAl?$AA?$AA@ 0045d910     msvcrtd:_error_.obj
 0003:0000692c       ??_C@_05MKKEDADM@?$CF?42X?5?$AA@ 0045d92c     msvcrtd:_error_.obj
 0003:00006934       ??_C@_0DE@OHJBPMBP@A?5variable?5is?5being?5used?5without@ 0045d934     msvcrtd:_error_.obj
 0003:00006974       ?ProcessDetach@NativeDll@<CrtImplementationDetails>@@0IB 0045d974     msvcrtd:unhandld.obj
 0003:00006978       ?ProcessAttach@NativeDll@<CrtImplementationDetails>@@0IB 0045d978     msvcrtd:unhandld.obj
 0003:0000697c       ?ThreadAttach@NativeDll@<CrtImplementationDetails>@@0IB 0045d97c     msvcrtd:unhandld.obj
 0003:00006980       ?ThreadDetach@NativeDll@<CrtImplementationDetails>@@0IB 0045d980     msvcrtd:unhandld.obj
 0003:00006984       ?ProcessVerifier@NativeDll@<CrtImplementationDetails>@@0IB 0045d984     msvcrtd:unhandld.obj
 0003:00006988       ??_C@_1GE@KOCFNGPB@?$AA_?$AAc?$AAo?$AAn?$AAt?$AAr?$AAo?$AAl?$AAf?$AAp?$AA_?$AAs?$AA?$CI?$AA?$CI?$AA?$CI?$AAv?$AAo?$AAi?$AAd?$AA?5?$AA?$CK?$AA?$CJ?$AA0?$AA?$CJ?$AA?0?$AA?5?$AA0?$AAx?$AA0?$AA0?$AA0?$AA1@ 0045d988     msvcrtd:fp8.obj
 0003:00006a00       ??_C@_1CK@JMKHCBEI@?$AA_?$AAs?$AAe?$AAt?$AAd?$AAe?$AAf?$AAa?$AAu?$AAl?$AAt?$AAp?$AAr?$AAe?$AAc?$AAi?$AAs?$AAi?$AAo?$AAn?$AA?$AA@ 0045da00     msvcrtd:fp8.obj
 0003:00006a38       ??_C@_1GG@PHGJJHBC@?$AAf?$AA?3?$AA?2?$AAd?$AAd?$AA?2?$AAv?$AAc?$AAt?$AAo?$AAo?$AAl?$AAs?$AA?2?$AAc?$AAr?$AAt?$AA_?$AAb?$AAl?$AAd?$AA?2?$AAs?$AAe?$AAl?$AAf?$AA_?$AAx?$AA8?$AA6?$AA?2?$AAc@ 0045da38     msvcrtd:fp8.obj
 0003:00006ab4       ??_C@_0BP@OGBCLIBO@Stack?5around?5_alloca?5corrupted?$AA@ 0045dab4     msvcrtd:_userapi_.obj
 0003:00006adc       ??_C@_0CK@CNLNOEPB@Local?5variable?5used?5before?5initi@ 0045dadc     msvcrtd:_userapi_.obj
 0003:00006b10       ??_C@_0BI@CIGMDCBH@Stack?5memory?5corruption?$AA@ 0045db10     msvcrtd:_userapi_.obj
 0003:00006b2c       ??_C@_0CK@FEGOIOPB@Cast?5to?5smaller?5type?5causing?5los@ 0045db2c     msvcrtd:_userapi_.obj
 0003:00006b60       ??_C@_0BJ@HEGAHDFO@Stack?5pointer?5corruption?$AA@ 0045db60     msvcrtd:_userapi_.obj
 0003:00006bc4       ??_C@_01KDCPPGHE@r?$AA@    0045dbc4     msvcrtd:_pdblkup_.obj
 0003:00006bc8       ??_C@_0BB@KCIACLNC@PDBOpenValidate5?$AA@ 0045dbc8     msvcrtd:_pdblkup_.obj
 0003:00006bdc       ??_C@_1CK@HHHCOJPD@?$AAE?$AAn?$AAv?$AAi?$AAr?$AAo?$AAn?$AAm?$AAe?$AAn?$AAt?$AAD?$AAi?$AAr?$AAe?$AAc?$AAt?$AAo?$AAr?$AAy?$AA?$AA@ 0045dbdc     msvcrtd:_pdblkup_.obj
 0003:00006c10       ??_C@_1FM@DNCABAP@?$AAS?$AAO?$AAF?$AAT?$AAW?$AAA?$AAR?$AAE?$AA?2?$AAM?$AAi?$AAc?$AAr?$AAo?$AAs?$AAo?$AAf?$AAt?$AA?2?$AAV?$AAi?$AAs?$AAu?$AAa?$AAl?$AAS?$AAt?$AAu?$AAd?$AAi?$AAo?$AA?2@ 0045dc10     msvcrtd:_pdblkup_.obj
 0003:00006c80       ??_C@_0M@HLOHPNFA@RegCloseKey?$AA@ 0045dc80     msvcrtd:_pdblkup_.obj
 0003:00006c90       ??_C@_0BB@GLNAEDBD@RegQueryValueExW?$AA@ 0045dc90     msvcrtd:_pdblkup_.obj
 0003:00006ca4       ??_C@_0O@COHOBMLB@RegOpenKeyExW?$AA@ 0045dca4     msvcrtd:_pdblkup_.obj
 0003:00006cb4       ??_C@_1BK@GAEMIDIL@?$AAA?$AAD?$AAV?$AAA?$AAP?$AAI?$AA3?$AA2?$AA?4?$AAD?$AAL?$AAL?$AA?$AA@ 0045dcb4     msvcrtd:_pdblkup_.obj
 0003:00006cd4       ??_C@_1BK@NHHHCKNA@?$AAm?$AA_?$AAt?$AAi?$AAm?$AAe?$AA?5?$AA?$CB?$AA?$DN?$AA?5?$AA?9?$AA1?$AA?$AA@ 0045dcd4     atlsd:atltime.obj
 0003:00006cf8       ??_C@_1GM@GOMCALCH@?$AAf?$AA?3?$AA?2?$AAd?$AAd?$AA?2?$AAv?$AAc?$AAt?$AAo?$AAo?$AAl?$AAs?$AA?2?$AAv?$AAc?$AA7?$AAl?$AAi?$AAb?$AAs?$AA?2?$AAs?$AAh?$AAi?$AAp?$AA?2?$AAa?$AAt?$AAl?$AAm?$AAf@ 0045dcf8     atlsd:atltime.obj
 0003:00006d7c       ??_C@_1BM@GBBOFEAE@?$AA_?$AA_?$AAa?$AAt?$AAl?$AA_?$AAc?$AAo?$AAn?$AAd?$AAV?$AAa?$AAl?$AA?$AA@ 0045dd7c     atlsd:atltime.obj
 0003:00006da0       ??_C@_1GM@OMLOBEGL@?$AAf?$AA?3?$AA?2?$AAd?$AAd?$AA?2?$AAv?$AAc?$AAt?$AAo?$AAo?$AAl?$AAs?$AA?2?$AAv?$AAc?$AA7?$AAl?$AAi?$AAb?$AAs?$AA?2?$AAs?$AAh?$AAi?$AAp?$AA?2?$AAa?$AAt?$AAl?$AAm?$AAf@ 0045dda0     atlsd:atltime.obj
 0003:00006e24       ??_C@_1M@HLGKFCJM@?$AAf?$AAa?$AAl?$AAs?$AAe?$AA?$AA@ 0045de24     atlsd:atltime.obj
 0003:00006e34       ??_C@_0DG@BLHODJEO@f?3?2dd?2vctools?2vc7libs?2ship?2atlmf@ 0045de34     atlsd:atltime.obj
 0003:00006e74       ??_C@_0BF@IAAKIJDJ@AtlThrow?3?5hr?5?$DN?50x?$CFx?6?$AA@ 0045de74     atlsd:atltime.obj
 0003:00006e90       ??_C@_0BA@MKMIKKJB@atlTraceGeneral?$AA@ 0045de90     atlsd:atltrace.obj
 0003:00006ea4       ??_C@_0M@DGPFJEBB@atlTraceCOM?$AA@ 0045dea4     atlsd:atltrace.obj
 0003:00006eb4       ??_C@_0L@LHELAKBP@atlTraceQI?$AA@ 0045deb4     atlsd:atltrace.obj
 0003:00006ec4       ??_C@_0BC@MALHFBAO@atlTraceRegistrar?$AA@ 0045dec4     atlsd:atltrace.obj
 0003:00006edc       ??_C@_0BB@ILPPDKFL@atlTraceRefcount?$AA@ 0045dedc     atlsd:atltrace.obj
 0003:00006ef0       ??_C@_0BC@DGHHNKDC@atlTraceWindowing?$AA@ 0045def0     atlsd:atltrace.obj
 0003:00006f08       ??_C@_0BB@GHKJKKIE@atlTraceControls?$AA@ 0045df08     atlsd:atltrace.obj
 0003:00006f1c       ??_C@_0BA@DKOAAGGM@atlTraceHosting?$AA@ 0045df1c     atlsd:atltrace.obj
 0003:00006f30       ??_C@_0BB@BEBMGMDO@atlTraceDBClient?$AA@ 0045df30     atlsd:atltrace.obj
 0003:00006f44       ??_C@_0BD@KOADKDIA@atlTraceDBProvider?$AA@ 0045df44     atlsd:atltrace.obj
 0003:00006f5c       ??_C@_0P@LNEGBOLO@atlTraceSnapin?$AA@ 0045df5c     atlsd:atltrace.obj
 0003:00006f70       ??_C@_0BA@MCBFIDIC@atlTraceNotImpl?$AA@ 0045df70     atlsd:atltrace.obj
 0003:00006f84       ??_C@_0BD@PJPCCAKP@atlTraceAllocation?$AA@ 0045df84     atlsd:atltrace.obj
 0003:00006f9c       ??_C@_0BC@PGMFNIFA@atlTraceException?$AA@ 0045df9c     atlsd:atltrace.obj
 0003:00006fb4       ??_C@_0N@BNNILHBE@atlTraceTime?$AA@ 0045dfb4     atlsd:atltrace.obj
 0003:00006fc4       ??_C@_0O@MEOJAOKK@atlTraceCache?$AA@ 0045dfc4     atlsd:atltrace.obj
 0003:00006fd4       ??_C@_0BA@IDBKCKK@atlTraceStencil?$AA@ 0045dfd4     atlsd:atltrace.obj
 0003:00006fe8       ??_C@_0P@MBNHGHMI@atlTraceString?$AA@ 0045dfe8     atlsd:atltrace.obj
 0003:00006ffc       ??_C@_0M@IOBBMAHG@atlTraceMap?$AA@ 0045dffc     atlsd:atltrace.obj
 0003:0000700c       ??_C@_0N@FEAAACHD@atlTraceUtil?$AA@ 0045e00c     atlsd:atltrace.obj
 0003:0000701c       ??_C@_0BB@DNJDADMG@atlTraceSecurity?$AA@ 0045e01c     atlsd:atltrace.obj
 0003:00007030       ??_C@_0N@KLPNCFEE@atlTraceSync?$AA@ 0045e030     atlsd:atltrace.obj
 0003:00007040       ??_C@_0O@KHOBHOBJ@atlTraceISAPI?$AA@ 0045e040     atlsd:atltrace.obj
 0003:00007050       ??_C@_0N@BEIMPMHB@atlTraceUser?$AA@ 0045e050     atlsd:atltrace.obj
 0003:00007060       ??_C@_0O@MKGGJJCH@atlTraceUser2?$AA@ 0045e060     atlsd:atltrace.obj
 0003:00007070       ??_C@_0O@NDHNKIGG@atlTraceUser3?$AA@ 0045e070     atlsd:atltrace.obj
 0003:00007080       ??_C@_0O@JMDMDOKB@atlTraceUser4?$AA@ 0045e080     atlsd:atltrace.obj
 0003:00007090       ??_C@_06JMICFIKN@?$CFs_?$CF0x?$AA@ 0045e090     atlsd:Externs.obj
 0003:00007098       ??_C@_0CM@OGPEFHLG@AtlDebugAllocator_FileMappingNam@ 0045e098     atlsd:Externs.obj
 0003:000070cc       ??_C@_0CN@PLNFEEEE@AtlTraceModuleManager_ProcessAdd@ 0045e0cc     atlsd:Externs.obj
 0003:00007108       ??_C@_1HO@MNFHLCLF@?$AAf?$AA?3?$AA?2?$AAd?$AAd?$AA?2?$AAv?$AAc?$AAt?$AAo?$AAo?$AAl?$AAs?$AA?2?$AAv?$AAc?$AA7?$AAl?$AAi?$AAb?$AAs?$AA?2?$AAs?$AAh?$AAi?$AAp?$AA?2?$AAa?$AAt?$AAl?$AAm?$AAf@ 0045e108     atlsd:AtlDebugAPI.obj
 0003:000071a0       ??_C@_1BK@LIHAAANN@?$AAp?$AAM?$AAo?$AAd?$AAu?$AAl?$AAe?$AA?5?$AA?$CB?$AA?$DN?$AA?5?$AA0?$AA?$AA@ 0045e1a0     atlsd:AtlDebugAPI.obj
 0003:000071c0       ??_C@_1BM@DFEBCPM@?$AAp?$AAP?$AAr?$AAo?$AAc?$AAe?$AAs?$AAs?$AA?5?$AA?$CB?$AA?$DN?$AA?5?$AA0?$AA?$AA@ 0045e1c0     atlsd:AtlDebugAPI.obj
 0003:000071e4       ??_C@_02DKCKIIND@?$CFs?$AA@ 0045e1e4     atlsd:AtlDebugAPI.obj
 0003:000071e8       ??_C@_04FFDMEMDO@?$CFS?3?5?$AA@ 0045e1e8     atlsd:AtlDebugAPI.obj
 0003:000071f0       ??_C@_09IIMHCEDG@?$CFs?$CI?$CFd?$CJ?5?3?5?$AA@ 0045e1f0     atlsd:AtlDebugAPI.obj
 0003:000071fc       ??_C@_02KPKOKMHB@?$CFS?$AA@ 0045e1fc     atlsd:AtlDebugAPI.obj
 0003:00007200       ??_C@_19JCANECJL@?$AA?$CF?$AAs?$AA?3?$AA?5?$AA?$AA@ 0045e200     atlsd:AtlDebugAPI.obj
 0003:0000720c       ??_C@_1BE@PGKGHBDF@?$AA?$CF?$AAS?$AA?$CI?$AA?$CF?$AAd?$AA?$CJ?$AA?5?$AA?3?$AA?5?$AA?$AA@ 0045e20c     atlsd:AtlDebugAPI.obj
 0003:00007224       ??_C@_1DA@NMHCLMEJ@?$AAp?$AAA?$AAl?$AAl?$AAo?$AAc?$AAa?$AAt?$AAo?$AAr?$AA?9?$AA?$DO?$AAm?$AA_?$AAb?$AAS?$AAn?$AAa?$AAp?$AAs?$AAh?$AAo?$AAt?$AA?$AA@ 0045e224     atlsd:AtlDebugAPI.obj
 0003:00007260       ??_C@_1CE@NDBHOLMF@?$AAp?$AAP?$AAr?$AAo?$AAc?$AAe?$AAs?$AAs?$AAI?$AAn?$AAf?$AAo?$AA?5?$AA?$CB?$AA?$DN?$AA?5?$AA0?$AA?$AA@ 0045e260     atlsd:AtlDebugAPI.obj
 0003:0000728c       ??_C@_1CC@ONKAHKMP@?$AAp?$AAM?$AAo?$AAd?$AAu?$AAl?$AAe?$AAI?$AAn?$AAf?$AAo?$AA?5?$AA?$CB?$AA?$DN?$AA?5?$AA0?$AA?$AA@ 0045e28c     atlsd:AtlDebugAPI.obj
 0003:000072b4       ??_C@_1CG@BANGGBIE@?$AAp?$AAC?$AAa?$AAt?$AAe?$AAg?$AAo?$AAr?$AAy?$AAI?$AAn?$AAf?$AAo?$AA?5?$AA?$CB?$AA?$DN?$AA?5?$AA0?$AA?$AA@ 0045e2b4     atlsd:AtlDebugAPI.obj
 0003:000072e4       ??_C@_1BC@JOPFIJLO@?$AAp?$AAP?$AAr?$AAo?$AAc?$AAe?$AAs?$AAs?$AA?$AA@ 0045e2e4     atlsd:AtlDebugAPI.obj
 0003:000072fc       ??_C@_1DM@CECLCIOA@?$AAp?$AAp?$AAC?$AAa?$AAt?$AAe?$AAg?$AAo?$AAr?$AAy?$AA?5?$AA?$CG?$AA?$CG?$AA?5?$AAp?$AAf?$AAn?$AAC?$AAr?$AAt?$AAD?$AAb?$AAg?$AAR?$AAe?$AAp?$AAo?$AAr?$AAt?$AA?$AA@ 0045e2fc     atlsd:AtlDebugAPI.obj
 0003:00007348       ??_C@_1HA@EFGOBFOA@?$AAf?$AA?3?$AA?2?$AAd?$AAd?$AA?2?$AAv?$AAc?$AAt?$AAo?$AAo?$AAl?$AAs?$AA?2?$AAv?$AAc?$AA7?$AAl?$AAi?$AAb?$AAs?$AA?2?$AAs?$AAh?$AAi?$AAp?$AA?2?$AAa?$AAt?$AAl?$AAm?$AAf@ 0045e348     atlsd:AtlDebugAPI.obj
 0003:000073d0       ??_C@_1EA@JHMKKLFC@?$AAn?$AAI?$AAn?$AAd?$AAe?$AAx?$AA?5?$AA?$DO?$AA?$DN?$AA?5?$AA0?$AA?5?$AA?$CG?$AA?$CG?$AA?5?$AAn?$AAI?$AAn?$AAd?$AAe?$AAx?$AA?5?$AA?$DM?$AA?5?$AAm?$AA_?$AAn?$AAS?$AAi?$AAz?$AAe?$AA?$AA@ 0045e3d0     atlsd:AtlDebugAPI.obj
 0003:00007420       ??_C@_1GI@CLJCGCPP@?$AAf?$AA?3?$AA?2?$AAd?$AAd?$AA?2?$AAv?$AAc?$AAt?$AAo?$AAo?$AAl?$AAs?$AA?2?$AAv?$AAc?$AA7?$AAl?$AAi?$AAb?$AAs?$AA?2?$AAs?$AAh?$AAi?$AAp?$AA?2?$AAa?$AAt?$AAl?$AAm?$AAf@ 0045e420     atlsd:AtlDebugAPI.obj
 0003:0000749c       ??_C@_1BC@PMINONJG@?$AAb?$AAS?$AAu?$AAc?$AAc?$AAe?$AAs?$AAs?$AA?$AA@ 0045e49c     atlsd:Allocate.obj
 0003:000074b8       ??_C@_1HI@MDMANKNC@?$AAf?$AA?3?$AA?2?$AAd?$AAd?$AA?2?$AAv?$AAc?$AAt?$AAo?$AAo?$AAl?$AAs?$AA?2?$AAv?$AAc?$AA7?$AAl?$AAi?$AAb?$AAs?$AA?2?$AAs?$AAh?$AAi?$AAp?$AA?2?$AAa?$AAt?$AAl?$AAm?$AAf@ 0045e4b8     atlsd:Allocate.obj
 0003:00007548       ??_C@_1DG@LHMNHOH@?$AA?$CB?$AAm?$AA_?$AAh?$AAM?$AAa?$AAp?$AA?5?$AA?$CG?$AA?$CG?$AA?5?$AA?$CB?$AAm?$AA_?$AAp?$AAB?$AAu?$AAf?$AAf?$AAe?$AAr?$AAS?$AAt?$AAa?$AAr?$AAt?$AA?$AA@ 0045e548     atlsd:Allocate.obj
 0003:00007588       ??_C@_1CC@JCNIBNON@?$AAi?$AAM?$AAo?$AAd?$AAu?$AAl?$AAe?$AA?5?$AA?$DM?$AA?5?$AAm?$AAo?$AAd?$AAc?$AAn?$AAt?$AA?$AA@ 0045e588     atlsd:Allocate.obj
 0003:000075b0       ??_C@_1HO@KONLCGL@?$AA?$CI?$AAi?$AAC?$AAa?$AAt?$AAe?$AAg?$AAo?$AAr?$AAy?$AA?5?$AA?$DM?$AA?5?$AAm?$AA_?$AAp?$AAP?$AAr?$AAo?$AAc?$AAe?$AAs?$AAs?$AA?9?$AA?$DO?$AAC?$AAa?$AAt?$AAe?$AAg?$AAo?$AAr@ 0045e5b0     atlsd:Allocate.obj
 0003:00007648       ??_C@_1BG@EIHNOMMF@?$AAm?$AA_?$AAp?$AAP?$AAr?$AAo?$AAc?$AAe?$AAs?$AAs?$AA?$AA@ 0045e648     atlsd:Allocate.obj
 0003:00007668       ??_C@_1IO@GJLKCBCE@?$AAf?$AA?3?$AA?2?$AAd?$AAd?$AA?2?$AAv?$AAc?$AAt?$AAo?$AAo?$AAl?$AAs?$AA?2?$AAv?$AAc?$AA7?$AAl?$AAi?$AAb?$AAs?$AA?2?$AAs?$AAh?$AAi?$AAp?$AA?2?$AAa?$AAt?$AAl?$AAm?$AAf@ 0045e668     atlsd:Allocate.obj
 0003:00007714       ??_C@_1BK@GFEAMNLJ@?$AAn?$AAC?$AAo?$AAo?$AAk?$AAi?$AAe?$AA?5?$AA?$CB?$AA?$DN?$AA?5?$AA0?$AA?$AA@ 0045e714     atlsd:Allocate.obj
 0003:00007734       ??_C@_1BO@OAGIAJOK@?$AAp?$AAC?$AAa?$AAt?$AAe?$AAg?$AAo?$AAr?$AAy?$AA?5?$AA?$CB?$AA?$DN?$AA?5?$AA0?$AA?$AA@ 0045e734     atlsd:Allocate.obj
 0003:00007780       ??_C@_0DH@EMOHNEGB@f?3?2dd?2vctools?2vc7libs?2ship?2atlmf@ 0045e780     mfcs100ud:appmodul.obj
 0003:00007cc0       ??_R4CComPort@LsComm@@6B@  0045ecc0     ComPort.obj
 0003:00007cd8       ??_R3CComPort@LsComm@@8    0045ecd8     ComPort.obj
 0003:00007cec       ??_R2CComPort@LsComm@@8    0045ecec     ComPort.obj
 0003:00007cf4       ??_R1A@?0A@EA@CComPort@LsComm@@8 0045ecf4     ComPort.obj
 0003:00007d18       ??_R4CReadComThread@LsComm@@6B@ 0045ed18     ComPort.obj
 0003:00007d30       ??_R3CReadComThread@LsComm@@8 0045ed30     ComPort.obj
 0003:00007d44       ??_R2CReadComThread@LsComm@@8 0045ed44     ComPort.obj
 0003:00007d4c       ??_R1A@?0A@EA@CReadComThread@LsComm@@8 0045ed4c     ComPort.obj
 0003:00007d70       ??_R4CDviceCtrlDlgApp@@6B@ 0045ed70     DviceCtrlDlg.obj
 0003:00007d88       ??_R3CDviceCtrlDlgApp@@8   0045ed88     DviceCtrlDlg.obj
 0003:00007d9c       ??_R2CDviceCtrlDlgApp@@8   0045ed9c     DviceCtrlDlg.obj
 0003:00007dbc       ??_R1A@?0A@EA@CDviceCtrlDlgApp@@8 0045edbc     DviceCtrlDlg.obj
 0003:00007de0       ??_R1A@?0A@EA@CWinAppEx@@8 0045ede0     DviceCtrlDlg.obj
 0003:00007e04       ??_R3CWinAppEx@@8          0045ee04     DviceCtrlDlg.obj
 0003:00007e18       ??_R2CWinAppEx@@8          0045ee18     DviceCtrlDlg.obj
 0003:00007e34       ??_R1A@?0A@EA@CWinApp@@8   0045ee34     DviceCtrlDlg.obj
 0003:00007e58       ??_R3CWinApp@@8            0045ee58     DviceCtrlDlg.obj
 0003:00007e6c       ??_R2CWinApp@@8            0045ee6c     DviceCtrlDlg.obj
 0003:00007e80       ??_R1A@?0A@EA@CWinThread@@8 0045ee80     DviceCtrlDlg.obj
 0003:00007ea4       ??_R3CWinThread@@8         0045eea4     DviceCtrlDlg.obj
 0003:00007eb8       ??_R2CWinThread@@8         0045eeb8     DviceCtrlDlg.obj
 0003:00007ec8       ??_R1A@?0A@EA@CCmdTarget@@8 0045eec8     DviceCtrlDlg.obj
 0003:00007eec       ??_R3CCmdTarget@@8         0045eeec     DviceCtrlDlg.obj
 0003:00007f00       ??_R2CCmdTarget@@8         0045ef00     DviceCtrlDlg.obj
 0003:00007f0c       ??_R1A@?0A@EA@CObject@@8   0045ef0c     DviceCtrlDlg.obj
 0003:00007f30       ??_R3CObject@@8            0045ef30     DviceCtrlDlg.obj
 0003:00007f44       ??_R2CObject@@8            0045ef44     DviceCtrlDlg.obj
 0003:00007f4c       ??_R4CAboutDlg@@6B@        0045ef4c     DviceCtrlDlgDlg.obj
 0003:00007f64       ??_R3CAboutDlg@@8          0045ef64     DviceCtrlDlgDlg.obj
 0003:00007f78       ??_R2CAboutDlg@@8          0045ef78     DviceCtrlDlgDlg.obj
 0003:00007f94       ??_R1A@?0A@EA@CAboutDlg@@8 0045ef94     DviceCtrlDlgDlg.obj
 0003:00007fb8       ??_R1A@?0A@EA@CDialog@@8   0045efb8     DviceCtrlDlgDlg.obj
 0003:00007fdc       ??_R3CDialog@@8            0045efdc     DviceCtrlDlgDlg.obj
 0003:00007ff0       ??_R2CDialog@@8            0045eff0     DviceCtrlDlgDlg.obj
 0003:00008004       ??_R1A@?0A@EA@CWnd@@8      0045f004     DviceCtrlDlgDlg.obj
 0003:00008028       ??_R3CWnd@@8               0045f028     DviceCtrlDlgDlg.obj
 0003:0000803c       ??_R2CWnd@@8               0045f03c     DviceCtrlDlgDlg.obj
 0003:0000804c       ??_R4CDviceCtrlDlgDlg@@6B@ 0045f04c     DviceCtrlDlgDlg.obj
 0003:00008064       ??_R3CDviceCtrlDlgDlg@@8   0045f064     DviceCtrlDlgDlg.obj
 0003:00008078       ??_R2CDviceCtrlDlgDlg@@8   0045f078     DviceCtrlDlgDlg.obj
 0003:00008094       ??_R1A@?0A@EA@CDviceCtrlDlgDlg@@8 0045f094     DviceCtrlDlgDlg.obj
 0003:000080b8       ??_R4bad_alloc@std@@6B@    0045f0b8     DviceCtrlDlgDlg.obj
 0003:000080d0       ??_R3bad_alloc@std@@8      0045f0d0     DviceCtrlDlgDlg.obj
 0003:000080e4       ??_R2bad_alloc@std@@8      0045f0e4     DviceCtrlDlgDlg.obj
 0003:000080f0       ??_R1A@?0A@EA@bad_alloc@std@@8 0045f0f0     DviceCtrlDlgDlg.obj
 0003:00008114       ??_R1A@?0A@EA@exception@std@@8 0045f114     DviceCtrlDlgDlg.obj
 0003:00008138       ??_R3exception@std@@8      0045f138     DviceCtrlDlgDlg.obj
 0003:0000814c       ??_R2exception@std@@8      0045f14c     DviceCtrlDlgDlg.obj
 0003:00008154       ??_R4CSerialException@@6B@ 0045f154     serialport.obj
 0003:0000816c       ??_R3CSerialException@@8   0045f16c     serialport.obj
 0003:00008180       ??_R2CSerialException@@8   0045f180     serialport.obj
 0003:00008190       ??_R1A@?0A@EA@CSerialException@@8 0045f190     serialport.obj
 0003:000081b4       ??_R1A@?0A@EA@CException@@8 0045f1b4     serialport.obj
 0003:000081d8       ??_R3CException@@8         0045f1d8     serialport.obj
 0003:000081ec       ??_R2CException@@8         0045f1ec     serialport.obj
 0003:000081f8       ??_R4CSerialPort@@6B@      0045f1f8     serialport.obj
 0003:00008210       ??_R3CSerialPort@@8        0045f210     serialport.obj
 0003:00008224       ??_R2CSerialPort@@8        0045f224     serialport.obj
 0003:00008230       ??_R1A@?0A@EA@CSerialPort@@8 0045f230     serialport.obj
 0003:00008254       ??_R4Thank_you@Define_the_symbol__ATL_MIXED@@6B@ 0045f254     stdafx.obj
 0003:0000826c       ??_R3Thank_you@Define_the_symbol__ATL_MIXED@@8 0045f26c     stdafx.obj
 0003:00008280       ??_R2Thank_you@Define_the_symbol__ATL_MIXED@@8 0045f280     stdafx.obj
 0003:00008288       ??_R1A@?0A@EA@Thank_you@Define_the_symbol__ATL_MIXED@@8 0045f288     stdafx.obj
 0003:000082ac       ??_R4type_info@@6B@        0045f2ac     msvcrtd:ti_inst.obj
 0003:000082c4       ??_R3type_info@@8          0045f2c4     msvcrtd:ti_inst.obj
 0003:000082d8       ??_R2type_info@@8          0045f2d8     msvcrtd:ti_inst.obj
 0003:000082e0       ??_R1A@?0A@EA@type_info@@8 0045f2e0     msvcrtd:ti_inst.obj
 0003:0000842c       ___rtc_iaa                 0045f42c     msvcrtd:_initsect_.obj
 0003:00008648       ___rtc_izz                 0045f648     msvcrtd:_initsect_.obj
 0003:0000874c       ___rtc_taa                 0045f74c     msvcrtd:_initsect_.obj
 0003:00008968       ___rtc_tzz                 0045f968     msvcrtd:_initsect_.obj
 0003:0000a590       __TI2?AVbad_alloc@std@@    00461590     DviceCtrlDlgDlg.obj
 0003:0000a5a4       __CTA2?AVbad_alloc@std@@   004615a4     DviceCtrlDlgDlg.obj
 0003:0000a5b4       __CT??_R0?AVbad_alloc@std@@@8??0bad_alloc@std@@QAE@ABV01@@Z12 004615b4     DviceCtrlDlgDlg.obj
 0003:0000a5d4       __CT??_R0?AVexception@std@@@8??0exception@std@@QAE@ABV01@@Z12 004615d4     DviceCtrlDlgDlg.obj
 0003:0000b5d8       __TI1?AVCAtlException@ATL@@ 004625d8     atlsd:Externs.obj
 0003:0000b5ec       __CTA1?AVCAtlException@ATL@@ 004625ec     atlsd:Externs.obj
 0003:0000b5f4       __CT??_R0?AVCAtlException@ATL@@@84 004625f4     atlsd:Externs.obj
 0003:0000bb8c       ___pobjMapEntryFirst       00462b8c     stdafx.obj
 0003:0000bc90       ___pobjMapEntryLast        00462c90     stdafx.obj
 0004:00000000       ??_R0?AVCComPort@LsComm@@@8 00463000     ComPort.obj
 0004:00000024       ??_R0PAVCSerialException@@@8 00463024     ComPort.obj
 0004:0000004c       ??_R0PA_W@8                0046304c     ComPort.obj
 0004:0000005c       ?__LINE__Var@?1??GetInput@CComPort@LsComm@@QAEKPAXKK@Z@4JA 0046305c     ComPort.obj
 0004:00000060       ?__LINE__Var@?1??GetSerialPort@CComPort@LsComm@@QAEPAVCSerialPort@@XZ@4JA 00463060     ComPort.obj
 0004:00000064       ?__LINE__Var@?1??GetCloseHandle@CComPort@LsComm@@QAEPAXXZ@4JA 00463064     ComPort.obj
 0004:00000068       ??_R0?AVCReadComThread@LsComm@@@8 00463068     ComPort.obj
 0004:00000094       ?__LINE__Var@?1??ThreadFunc@LsComm@@YGKPAX@Z@4JA 00463094     ComPort.obj
 0004:00000098       ?__LINE__Var@?1??BandSerialPort@CReadComThread@LsComm@@QAEXPAVCComPort@3@@Z@4JA 00463098     ComPort.obj
 0004:0000009c       ??_R0?AVCDviceCtrlDlgApp@@@8 0046309c     DviceCtrlDlg.obj
 0004:000000c4       ??_R0?AVCWinAppEx@@@8      004630c4     DviceCtrlDlg.obj
 0004:000000e0       ??_R0?AVCWinApp@@@8        004630e0     DviceCtrlDlg.obj
 0004:000000fc       ??_R0?AVCWinThread@@@8     004630fc     DviceCtrlDlg.obj
 0004:0000011c       ??_R0?AVCCmdTarget@@@8     0046311c     DviceCtrlDlg.obj
 0004:0000013c       ??_R0?AVCObject@@@8        0046313c     DviceCtrlDlg.obj
 0004:0000016c       ??_R0?AVCAboutDlg@@@8      0046316c     DviceCtrlDlgDlg.obj
 0004:00000188       ??_R0?AVCDialog@@@8        00463188     DviceCtrlDlgDlg.obj
 0004:000001a4       ??_R0?AVCWnd@@@8           004631a4     DviceCtrlDlgDlg.obj
 0004:000001bc       ??_R0?AVCDviceCtrlDlgDlg@@@8 004631bc     DviceCtrlDlgDlg.obj
 0004:000001e4       ?__LINE__Var@?1??OnInitDialog@CDviceCtrlDlgDlg@@MAEHXZ@4JA 004631e4     DviceCtrlDlgDlg.obj
 0004:000001e8       ?__LINE__Var@?1??AtlThrowImpl@ATL@@YGXJ@Z@4JA 004631e8     DviceCtrlDlgDlg.obj
 0004:000001ec       ??_R0?AVbad_alloc@std@@@8  004631ec     DviceCtrlDlgDlg.obj
 0004:00000210       ??_R0?AVexception@std@@@8  00463210     DviceCtrlDlgDlg.obj
 0004:00000270       ?__LINE__Var@?1???0_SERIAL_PORT_DATA@@QAE@XZ@4JA 00463270     serialport.obj
 0004:00000274       ?__LINE__Var@?1??AfxThrowSerialException@@YAXK@Z@4JA 00463274     serialport.obj
 0004:00000278       ?__LINE__Var@?1??GetErrorMessage@CSerialException@@UAEHPA_WIPAI@Z@4JA 00463278     serialport.obj
 0004:0000027c       ??_R0?AVCSerialException@@@8 0046327c     serialport.obj
 0004:000002a4       ??_R0?AVCException@@@8     004632a4     serialport.obj
 0004:000002c4       ??_R0?AVCSerialPort@@@8    004632c4     serialport.obj
 0004:000002e4       ?__LINE__Var@?1??Open@CSerialPort@@QAEXHKW4Parity@2@EW4StopBits@2@W4FlowControl@2@H@Z@4JA 004632e4     serialport.obj
 0004:000002e8       ?__LINE__Var@?1??Close@CSerialPort@@QAEXXZ@4JA 004632e8     serialport.obj
 0004:000002ec       ?__LINE__Var@?1??Attach@CSerialPort@@QAEXPAXH@Z@4JA 004632ec     serialport.obj
 0004:000002f0       ?__LINE__Var@?1??Read@CSerialPort@@QAEKPAXK@Z@4JA 004632f0     serialport.obj
 0004:000002f4       ?__LINE__Var@?1??Read@CSerialPort@@QAEHPAXKAAU_OVERLAPPED@@PAK@Z@4JA 004632f4     serialport.obj
 0004:000002f8       ?__LINE__Var@?1??Write@CSerialPort@@QAEKPBXK@Z@4JA 004632f8     serialport.obj
 0004:000002fc       ?__LINE__Var@?1??Write@CSerialPort@@QAEHPBXKAAU_OVERLAPPED@@PAK@Z@4JA 004632fc     serialport.obj
 0004:00000300       ?__LINE__Var@?1??GetOverlappedResult@CSerialPort@@QAE_NAAU_OVERLAPPED@@AAKH@Z@4JA 00463300     serialport.obj
 0004:00000304       ?__LINE__Var@?1??_OnCompletion@CSerialPort@@KGXKKPAU_OVERLAPPED@@@Z@4JA@249df390 00463304     serialport.obj
 0004:00000308       ?__LINE__Var@?1??CancelIo@CSerialPort@@QAEXXZ@4JA 00463308     serialport.obj
 0004:0000030c       ?__LINE__Var@?1??BytesWaiting@CSerialPort@@QAEKXZ@4JA 0046330c     serialport.obj
 0004:00000310       ?__LINE__Var@?1??DataWaiting@CSerialPort@@QAEHK@Z@4JA 00463310     serialport.obj
 0004:00000314       ?__LINE__Var@?1??WriteEx@CSerialPort@@QAEXPBXK@Z@4JA 00463314     serialport.obj
 0004:00000318       ?__LINE__Var@?1??ReadEx@CSerialPort@@QAEXPAXK@Z@4JA 00463318     serialport.obj
 0004:0000031c       ?__LINE__Var@?1??TransmitChar@CSerialPort@@QAEXD@Z@4JA 0046331c     serialport.obj
 0004:00000320       ?__LINE__Var@?1??GetConfig@CSerialPort@@QAEXAAU_COMMCONFIG@@@Z@4JA 00463320     serialport.obj
 0004:00000324       ?__LINE__Var@?1??SetConfig@CSerialPort@@QAEXAAU_COMMCONFIG@@@Z@4JA 00463324     serialport.obj
 0004:00000328       ?__LINE__Var@?1??SetBreak@CSerialPort@@QAEXXZ@4JA 00463328     serialport.obj
 0004:0000032c       ?__LINE__Var@?1??ClearBreak@CSerialPort@@QAEXXZ@4JA 0046332c     serialport.obj
 0004:00000330       ?__LINE__Var@?1??ClearError@CSerialPort@@QAEXAAK@Z@4JA 00463330     serialport.obj
 0004:00000334       ?__LINE__Var@?1??GetDefaultConfig@CSerialPort@@SAXHAAU_COMMCONFIG@@@Z@4JA@249df390 00463334     serialport.obj
 0004:00000338       ?__LINE__Var@?1??SetDefaultConfig@CSerialPort@@SAXHAAU_COMMCONFIG@@@Z@4JA@249df390 00463338     serialport.obj
 0004:0000033c       ?__LINE__Var@?1??GetStatus@CSerialPort@@QAEXAAU_COMSTAT@@@Z@4JA 0046333c     serialport.obj
 0004:00000340       ?__LINE__Var@?1??GetState@CSerialPort@@QAEXAAU_DCB@@@Z@4JA 00463340     serialport.obj
 0004:00000344       ?__LINE__Var@?1??SetState@CSerialPort@@QAEXAAU_DCB@@@Z@4JA 00463344     serialport.obj
 0004:00000348       ?__LINE__Var@?1??Escape@CSerialPort@@QAEXK@Z@4JA 00463348     serialport.obj
 0004:0000034c       ?__LINE__Var@?1??GetProperties@CSerialPort@@QAEXAAU_COMMPROP@@@Z@4JA 0046334c     serialport.obj
 0004:00000350       ?__LINE__Var@?1??GetModemStatus@CSerialPort@@QAEXAAK@Z@4JA 00463350     serialport.obj
 0004:00000354       ?__LINE__Var@?1??SetMask@CSerialPort@@QAEXK@Z@4JA 00463354     serialport.obj
 0004:00000358       ?__LINE__Var@?1??GetMask@CSerialPort@@QAEXAAK@Z@4JA 00463358     serialport.obj
 0004:0000035c       ?__LINE__Var@?1??Flush@CSerialPort@@QAEXXZ@4JA 0046335c     serialport.obj
 0004:00000360       ?__LINE__Var@?1??Purge@CSerialPort@@QAEXK@Z@4JA 00463360     serialport.obj
 0004:00000364       ?__LINE__Var@?1??Setup@CSerialPort@@QAEXKK@Z@4JA 00463364     serialport.obj
 0004:00000368       ?__LINE__Var@?1??SetTimeouts@CSerialPort@@QAEXAAU_COMMTIMEOUTS@@@Z@4JA 00463368     serialport.obj
 0004:0000036c       ?__LINE__Var@?1??GetTimeouts@CSerialPort@@QAEXAAU_COMMTIMEOUTS@@@Z@4JA 0046336c     serialport.obj
 0004:00000370       ?__LINE__Var@?1??WaitEvent@CSerialPort@@QAE_NAAK@Z@4JA 00463370     serialport.obj
 0004:00000374       ?__LINE__Var@?1??WaitEvent@CSerialPort@@QAEHAAKAAU_OVERLAPPED@@@Z@4JA 00463374     serialport.obj
 0004:00000378       __pIncludeInitManaged      00463378     stdafx.obj
 0004:0000037c       ??_R0?AUThank_you@Define_the_symbol__ATL_MIXED@@@8 0046337c     stdafx.obj
 0004:000003bc       ??_R0?AVtype_info@@@8      004633bc     msvcrtd:ti_inst.obj
 0004:000003d8       ___security_cookie         004633d8     msvcrtd:gs_cookie.obj
 0004:000003dc       ___security_cookie_complement 004633dc     msvcrtd:gs_cookie.obj
 0004:000003e0       ?_RTC_ErrorLevels@@3PAHA   004633e0     msvcrtd:_error_.obj
 0004:000003f8       ___globallocalestatus      004633f8     msvcrtd:xthdloc.obj
 0004:000003fc       ___defaultmatherr          004633fc     msvcrtd:merr.obj
 0004:00000400       ___native_dllmain_reason   00463400     msvcrtd:natstart.obj
 0004:00000404       ___native_vcclrit_reason   00463404     msvcrtd:natstart.obj
 0004:0000040c       ?g_pszUpdateEventName@@3PBDB 0046340c     atlsd:Externs.obj
 0004:00000410       ?g_pszAllocFileMapName@@3PBDB 00463410     atlsd:Externs.obj
 0004:00000414       ?g_pszKernelObjFmt@@3PBDB  00463414     atlsd:Externs.obj
 0004:0000041c       ??_R0?AVCAtlException@ATL@@@8 0046341c     atlsd:Externs.obj
 0004:00000b30       ?theApp@@3VCDviceCtrlDlgApp@@A 00463b30     DviceCtrlDlg.obj
 0004:00000d80       ?hReceiveEvent@@3PAXA      00463d80     DviceCtrlDlgDlg.obj
 0004:00001324       ?devOldSize@@3VCRect@@A    00464324     DviceCtrlDlgDlg.obj
 0004:00001334       ?devNewSize@@3VCRect@@A    00464334     DviceCtrlDlgDlg.obj
 0004:0000146c       ?_SerialPortData@@3V_SERIAL_PORT_DATA@@A 0046446c     serialport.obj
 0004:00001478       ?_pAtlAutoThreadModule@ATL@@3PAUIAtlAutoThreadModule@1@A 00464478     stdafx.obj
 0004:0000147c       ?s_pfnPrevHook@CNoUIAssertHook@ATL@@0P6AHHPADPAH@ZA 0046447c     stdafx.obj
 0004:00001480       ?m_bInitFailed@CAtlBaseModule@ATL@@2_NA 00464480     stdafx.obj
 0004:00001484       ?s_pLog@CFixedStringMgr@ATL@@2PAVIFixedStringLog@2@A 00464484     stdafx.obj
 0004:00001488       ?_pPerfRegFunc@ATL@@3P6AJPAUHINSTANCE__@@@ZA 00464488     stdafx.obj
 0004:0000148c       ?_pPerfUnRegFunc@ATL@@3P6AJXZA 0046448c     stdafx.obj
 0004:00001490       ?_AtlRegisterPerUser@ATL@@3_NA 00464490     stdafx.obj
 0004:00001494       ?_pAtlModule@ATL@@3PAVCAtlModule@1@A 00464494     stdafx.obj
 0004:00001498       ?m_libid@CAtlModule@ATL@@2U_GUID@@A 00464498     stdafx.obj
 0004:000014ac       ?_pModule@ATL@@3PAVCComModule@1@A 004644ac     stdafx.obj
 0004:000014b0       ?ATL_CREATE_OBJECT@CComApartment@ATL@@2IA 004644b0     stdafx.obj
 0004:000014f8       ?clash@Define_the_symbol__ATL_MIXED@@3UThank_you@1@A 004644f8     stdafx.obj
 0004:000014fc       ?clash@Inconsistent_definition_of_symbol__ATL_MIXED@@3U_Please_define_it_the_same_throughout_your_project@1@A 004644fc     stdafx.obj
 0004:00001500       __afxForceEXCLUDE          00464500     mfcs100ud:nolib.obj
 0004:00001504       ?WM_DESTROYMODELESS@CDHtmlDialog@@1IA 00464504     mfcs100ud:nolib.obj
 0004:00001508       __afxForceSTDAFX           00464508     mfcs100ud:stdafx.obj
 0004:00001534       ?wsprintffp@@3P6AHPADPBDZZA 00464534     msvcrtd:_error_.obj
 0004:00001538       __commode                  00464538     msvcrtd:xncommod.obj
 0004:0000153c       __fmode                    0046453c     msvcrtd:xtxtmode.obj
 0004:00001540       __dowildcard               00464540     msvcrtd:wildcard.obj
 0004:00001544       __newmode                  00464544     msvcrtd:_newmode.obj
 0004:00001924       ?atlTraceGeneral@ATL@@3VCTraceCategory@1@A 00464924     atlsd:atltrace.obj
 0004:00001928       ?atlTraceCOM@ATL@@3VCTraceCategory@1@A 00464928     atlsd:atltrace.obj
 0004:0000192c       ?atlTraceQI@ATL@@3VCTraceCategory@1@A 0046492c     atlsd:atltrace.obj
 0004:00001930       ?atlTraceRegistrar@ATL@@3VCTraceCategory@1@A 00464930     atlsd:atltrace.obj
 0004:00001934       ?atlTraceRefcount@ATL@@3VCTraceCategory@1@A 00464934     atlsd:atltrace.obj
 0004:00001938       ?atlTraceWindowing@ATL@@3VCTraceCategory@1@A 00464938     atlsd:atltrace.obj
 0004:0000193c       ?atlTraceControls@ATL@@3VCTraceCategory@1@A 0046493c     atlsd:atltrace.obj
 0004:00001940       ?atlTraceHosting@ATL@@3VCTraceCategory@1@A 00464940     atlsd:atltrace.obj
 0004:00001944       ?atlTraceDBClient@ATL@@3VCTraceCategory@1@A 00464944     atlsd:atltrace.obj
 0004:00001948       ?atlTraceDBProvider@ATL@@3VCTraceCategory@1@A 00464948     atlsd:atltrace.obj
 0004:0000194c       ?atlTraceSnapin@ATL@@3VCTraceCategory@1@A 0046494c     atlsd:atltrace.obj
 0004:00001950       ?atlTraceNotImpl@ATL@@3VCTraceCategory@1@A 00464950     atlsd:atltrace.obj
 0004:00001954       ?atlTraceAllocation@ATL@@3VCTraceCategory@1@A 00464954     atlsd:atltrace.obj
 0004:00001958       ?atlTraceException@ATL@@3VCTraceCategory@1@A 00464958     atlsd:atltrace.obj
 0004:0000195c       ?atlTraceTime@ATL@@3VCTraceCategory@1@A 0046495c     atlsd:atltrace.obj
 0004:00001960       ?atlTraceCache@ATL@@3VCTraceCategory@1@A 00464960     atlsd:atltrace.obj
 0004:00001964       ?atlTraceStencil@ATL@@3VCTraceCategory@1@A 00464964     atlsd:atltrace.obj
 0004:00001968       ?atlTraceString@ATL@@3VCTraceCategory@1@A 00464968     atlsd:atltrace.obj
 0004:0000196c       ?atlTraceMap@ATL@@3VCTraceCategory@1@A 0046496c     atlsd:atltrace.obj
 0004:00001970       ?atlTraceUtil@ATL@@3VCTraceCategory@1@A 00464970     atlsd:atltrace.obj
 0004:00001974       ?atlTraceSecurity@ATL@@3VCTraceCategory@1@A 00464974     atlsd:atltrace.obj
 0004:00001978       ?atlTraceSync@ATL@@3VCTraceCategory@1@A 00464978     atlsd:atltrace.obj
 0004:0000197c       ?atlTraceISAPI@ATL@@3VCTraceCategory@1@A 0046497c     atlsd:atltrace.obj
 0004:00001980       ?atlTraceUser@ATL@@3VCTraceCategory@1@A 00464980     atlsd:atltrace.obj
 0004:00001984       ?atlTraceUser2@ATL@@3VCTraceCategory@1@A 00464984     atlsd:atltrace.obj
 0004:00001988       ?atlTraceUser3@ATL@@3VCTraceCategory@1@A 00464988     atlsd:atltrace.obj
 0004:0000198c       ?atlTraceUser4@ATL@@3VCTraceCategory@1@A 0046498c     atlsd:atltrace.obj
 0004:000019a8       ?g_Allocator@@3VCAtlAllocator@@A 004649a8     atlsd:Externs.obj
 0004:000019dc       ?s_trace@CTrace@ATL@@2V12@A 004649dc     atlsd:Externs.obj
 0004:000019f0       ?_afxInitAppState@@3DA     004649f0     mfcs100ud:appmodul.obj
 0004:000019f4       ___sse2_available          004649f4     <common>
 0004:00001a00       ___native_startup_state    00464a00     <common>
 0004:00001a10       ___native_startup_lock     00464a10     <common>
 0004:00001a14       ___onexitend               00464a14     <common>
 0004:00001a24       ___onexitbegin             00464a24     <common>
 0004:00001a28       __NoHeapEnableTerminationOnCorruption 00464a28     <common>
 0004:00001a2c       ___dyn_tls_init_callback   00464a2c     <common>
 0005:00000000       __IMPORT_DESCRIPTOR_mfc100ud 00465000     mfc100ud:mfc100ud.dll
 0005:00000014       __IMPORT_DESCRIPTOR_MSVCR100D 00465014     msvcrtd:MSVCR100D.dll
 0005:00000028       __IMPORT_DESCRIPTOR_KERNEL32 00465028     kernel32:KERNEL32.dll
 0005:0000003c       __IMPORT_DESCRIPTOR_USER32 0046503c     user32:USER32.dll
 0005:00000050       __IMPORT_DESCRIPTOR_ADVAPI32 00465050     advapi32:ADVAPI32.dll
 0005:00000064       __IMPORT_DESCRIPTOR_COMCTL32 00465064     comctl32:COMCTL32.dll
 0005:00000078       __IMPORT_DESCRIPTOR_OLEAUT32 00465078     oleaut32:OLEAUT32.dll
 0005:0000008c       __IMPORT_DESCRIPTOR_MSVCP100D 0046508c     msvcprtd:MSVCP100D.dll
 0005:000000a0       __IMPORT_DESCRIPTOR_SETUPAPI 004650a0     setupapi:SETUPAPI.dll
 0005:000000b4       __NULL_IMPORT_DESCRIPTOR   004650b4     mfc100ud:mfc100ud.dll
 0005:00000ba4       __imp__OpenThreadToken@16  00465ba4     advapi32:ADVAPI32.dll
 0005:00000ba8       __imp__SetThreadToken@8    00465ba8     advapi32:ADVAPI32.dll
 0005:00000bac       __imp__RegOpenKeyExW@20    00465bac     advapi32:ADVAPI32.dll
 0005:00000bb0       __imp__RegEnumValueW@32    00465bb0     advapi32:ADVAPI32.dll
 0005:00000bb4       __imp__RegCloseKey@4       00465bb4     advapi32:ADVAPI32.dll
 0005:00000bb8       __imp__RevertToSelf@0      00465bb8     advapi32:ADVAPI32.dll
 0005:00000bbc       \177ADVAPI32_NULL_THUNK_DATA 00465bbc     advapi32:ADVAPI32.dll
 0005:00000bec       __imp__InitCommonControlsEx@4 00465bec     comctl32:COMCTL32.dll
 0005:00000bf0       \177COMCTL32_NULL_THUNK_DATA 00465bf0     comctl32:COMCTL32.dll
 0005:00000c1c       __imp__Sleep@4             00465c1c     kernel32:KERNEL32.dll
 0005:00000c20       __imp__SetEvent@4          00465c20     kernel32:KERNEL32.dll
 0005:00000c24       __imp__WaitForSingleObject@8 00465c24     kernel32:KERNEL32.dll
 0005:00000c28       __imp__GetLastError@0      00465c28     kernel32:KERNEL32.dll
 0005:00000c2c       __imp__ResetEvent@4        00465c2c     kernel32:KERNEL32.dll
 0005:00000c30       __imp__WaitForMultipleObjects@16 00465c30     kernel32:KERNEL32.dll
 0005:00000c34       __imp__SetThreadPriority@8 00465c34     kernel32:KERNEL32.dll
 0005:00000c38       __imp__CreateThread@24     00465c38     kernel32:KERNEL32.dll
 0005:00000c3c       __imp__InterlockedDecrement@4 00465c3c     kernel32:KERNEL32.dll
 0005:00000c40       __imp__InterlockedIncrement@4 00465c40     kernel32:KERNEL32.dll
 0005:00000c44       __imp__OpenFileMappingA@12 00465c44     kernel32:KERNEL32.dll
 0005:00000c48       __imp__GetCurrentThread@0  00465c48     kernel32:KERNEL32.dll
 0005:00000c4c       __imp__CreateFileMappingA@24 00465c4c     kernel32:KERNEL32.dll
 0005:00000c50       __imp__MapViewOfFile@20    00465c50     kernel32:KERNEL32.dll
 0005:00000c54       __imp__GetSystemInfo@4     00465c54     kernel32:KERNEL32.dll
 0005:00000c58       __imp__UnmapViewOfFile@4   00465c58     kernel32:KERNEL32.dll
 0005:00000c5c       __imp__VirtualAlloc@16     00465c5c     kernel32:KERNEL32.dll
 0005:00000c60       __imp__OutputDebugStringA@4 00465c60     kernel32:KERNEL32.dll
 0005:00000c64       __imp__OpenEventA@12       00465c64     kernel32:KERNEL32.dll
 0005:00000c68       __imp__LocalFileTimeToFileTime@8 00465c68     kernel32:KERNEL32.dll
 0005:00000c6c       __imp__FileTimeToLocalFileTime@8 00465c6c     kernel32:KERNEL32.dll
 0005:00000c70       __imp__FileTimeToSystemTime@8 00465c70     kernel32:KERNEL32.dll
 0005:00000c74       __imp__MulDiv@12           00465c74     kernel32:KERNEL32.dll
 0005:00000c78       __imp__ResumeThread@4      00465c78     kernel32:KERNEL32.dll
 0005:00000c7c       __imp__GetModuleFileNameW@12 00465c7c     kernel32:KERNEL32.dll
 0005:00000c80       __imp__OutputDebugStringW@4 00465c80     kernel32:KERNEL32.dll
 0005:00000c84       __imp__WideCharToMultiByte@32 00465c84     kernel32:KERNEL32.dll
 0005:00000c88       __imp__ExitThread@4        00465c88     kernel32:KERNEL32.dll
 0005:00000c8c       __imp__TerminateThread@8   00465c8c     kernel32:KERNEL32.dll
 0005:00000c90       __imp__CloseHandle@4       00465c90     kernel32:KERNEL32.dll
 0005:00000c94       __imp__IsDBCSLeadByte@4    00465c94     kernel32:KERNEL32.dll
 0005:00000c98       __imp__GetProcAddress@8    00465c98     kernel32:KERNEL32.dll
 0005:00000c9c       __imp__LoadLibraryW@4      00465c9c     kernel32:KERNEL32.dll
 0005:00000ca0       __imp__FreeLibrary@4       00465ca0     kernel32:KERNEL32.dll
 0005:00000ca4       __imp__LocalFree@4         00465ca4     kernel32:KERNEL32.dll
 0005:00000ca8       __imp__lstrcpynW@12        00465ca8     kernel32:KERNEL32.dll
 0005:00000cac       __imp__FormatMessageW@28   00465cac     kernel32:KERNEL32.dll
 0005:00000cb0       __imp__CreateFileW@28      00465cb0     kernel32:KERNEL32.dll
 0005:00000cb4       __imp__ReadFile@20         00465cb4     kernel32:KERNEL32.dll
 0005:00000cb8       __imp__ClearCommError@12   00465cb8     kernel32:KERNEL32.dll
 0005:00000cbc       __imp__WriteFile@20        00465cbc     kernel32:KERNEL32.dll
 0005:00000cc0       __imp__GetOverlappedResult@16 00465cc0     kernel32:KERNEL32.dll
 0005:00000cc4       __imp__WriteFileEx@20      00465cc4     kernel32:KERNEL32.dll
 0005:00000cc8       __imp__ReadFileEx@20       00465cc8     kernel32:KERNEL32.dll
 0005:00000ccc       __imp__TransmitCommChar@8  00465ccc     kernel32:KERNEL32.dll
 0005:00000cd0       __imp__GetCommConfig@12    00465cd0     kernel32:KERNEL32.dll
 0005:00000cd4       __imp__SetCommConfig@12    00465cd4     kernel32:KERNEL32.dll
 0005:00000cd8       __imp__SetCommBreak@4      00465cd8     kernel32:KERNEL32.dll
 0005:00000cdc       __imp__ClearCommBreak@4    00465cdc     kernel32:KERNEL32.dll
 0005:00000ce0       __imp__GetDefaultCommConfigW@12 00465ce0     kernel32:KERNEL32.dll
 0005:00000ce4       __imp__SetDefaultCommConfigW@12 00465ce4     kernel32:KERNEL32.dll
 0005:00000ce8       __imp__GetCommState@8      00465ce8     kernel32:KERNEL32.dll
 0005:00000cec       __imp__SetCommState@8      00465cec     kernel32:KERNEL32.dll
 0005:00000cf0       __imp__EscapeCommFunction@8 00465cf0     kernel32:KERNEL32.dll
 0005:00000cf4       __imp__GetCommProperties@8 00465cf4     kernel32:KERNEL32.dll
 0005:00000cf8       __imp__GetCommModemStatus@8 00465cf8     kernel32:KERNEL32.dll
 0005:00000cfc       __imp__SetCommMask@8       00465cfc     kernel32:KERNEL32.dll
 0005:00000d00       __imp__GetCommMask@8       00465d00     kernel32:KERNEL32.dll
 0005:00000d04       __imp__FlushFileBuffers@4  00465d04     kernel32:KERNEL32.dll
 0005:00000d08       __imp__PurgeComm@8         00465d08     kernel32:KERNEL32.dll
 0005:00000d0c       __imp__MultiByteToWideChar@24 00465d0c     kernel32:KERNEL32.dll
 0005:00000d10       __imp__WaitCommEvent@12    00465d10     kernel32:KERNEL32.dll
 0005:00000d14       __imp__SetupComm@12        00465d14     kernel32:KERNEL32.dll
 0005:00000d18       __imp__SetCommTimeouts@8   00465d18     kernel32:KERNEL32.dll
 0005:00000d1c       __imp__GetCommTimeouts@8   00465d1c     kernel32:KERNEL32.dll
 0005:00000d20       __imp__EncodePointer@4     00465d20     kernel32:KERNEL32.dll
 0005:00000d24       __imp__InterlockedExchange@8 00465d24     kernel32:KERNEL32.dll
 0005:00000d28       __imp__InterlockedCompareExchange@12 00465d28     kernel32:KERNEL32.dll
 0005:00000d2c       __imp__VirtualQuery@12     00465d2c     kernel32:KERNEL32.dll
 0005:00000d30       __imp__GetProcessHeap@0    00465d30     kernel32:KERNEL32.dll
 0005:00000d34       __imp__HeapAlloc@12        00465d34     kernel32:KERNEL32.dll
 0005:00000d38       __imp__HeapFree@12         00465d38     kernel32:KERNEL32.dll
 0005:00000d3c       __imp__IsProcessorFeaturePresent@4 00465d3c     kernel32:KERNEL32.dll
 0005:00000d40       __imp__UnhandledExceptionFilter@4 00465d40     kernel32:KERNEL32.dll
 0005:00000d44       __imp__GetCurrentProcess@0 00465d44     kernel32:KERNEL32.dll
 0005:00000d48       __imp__TerminateProcess@8  00465d48     kernel32:KERNEL32.dll
 0005:00000d4c       __imp__GetSystemTimeAsFileTime@4 00465d4c     kernel32:KERNEL32.dll
 0005:00000d50       __imp__GetCurrentProcessId@0 00465d50     kernel32:KERNEL32.dll
 0005:00000d54       __imp__GetCurrentThreadId@0 00465d54     kernel32:KERNEL32.dll
 0005:00000d58       __imp__GetTickCount@0      00465d58     kernel32:KERNEL32.dll
 0005:00000d5c       __imp__QueryPerformanceCounter@4 00465d5c     kernel32:KERNEL32.dll
 0005:00000d60       __imp__SetUnhandledExceptionFilter@4 00465d60     kernel32:KERNEL32.dll
 0005:00000d64       __imp__lstrlenA@4          00465d64     kernel32:KERNEL32.dll
 0005:00000d68       __imp__RaiseException@16   00465d68     kernel32:KERNEL32.dll
 0005:00000d6c       __imp__IsDebuggerPresent@0 00465d6c     kernel32:KERNEL32.dll
 0005:00000d70       __imp__DecodePointer@4     00465d70     kernel32:KERNEL32.dll
 0005:00000d74       __imp__GetStartupInfoW@4   00465d74     kernel32:KERNEL32.dll
 0005:00000d78       __imp__HeapSetInformation@16 00465d78     kernel32:KERNEL32.dll
 0005:00000d7c       __imp__CreateEventW@16     00465d7c     kernel32:KERNEL32.dll
 0005:00000d80       \177KERNEL32_NULL_THUNK_DATA 00465d80     kernel32:KERNEL32.dll
 0005:00000df0       __imp_?_Debug_message@std@@YAXPB_W0I@Z 00465df0     msvcprtd:MSVCP100D.dll
 0005:00000df4       __imp_?_Xlength_error@std@@YAXPBD@Z 00465df4     msvcprtd:MSVCP100D.dll
 0005:00000df8       __imp_??0_Container_base12@std@@QAE@XZ 00465df8     msvcprtd:MSVCP100D.dll
 0005:00000dfc       __imp_??0_Lockit@std@@QAE@H@Z 00465dfc     msvcprtd:MSVCP100D.dll
 0005:00000e00       __imp_?_Getpfirst@_Container_base12@std@@QBEPAPAU_Iterator_base12@2@XZ 00465e00     msvcprtd:MSVCP100D.dll
 0005:00000e04       __imp_??1_Lockit@std@@QAE@XZ 00465e04     msvcprtd:MSVCP100D.dll
 0005:00000e08       __imp_?_Xout_of_range@std@@YAXPBD@Z 00465e08     msvcprtd:MSVCP100D.dll
 0005:00000e0c       __imp_??1_Container_base12@std@@QAE@XZ 00465e0c     msvcprtd:MSVCP100D.dll
 0005:00000e10       __imp_?_Orphan_all@_Container_base12@std@@QAEXXZ 00465e10     msvcprtd:MSVCP100D.dll
 0005:00000e14       \177MSVCP100D_NULL_THUNK_DATA 00465e14     msvcprtd:MSVCP100D.dll
 0005:00000e44       __imp___configthreadlocale 00465e44     msvcrtd:MSVCR100D.dll
 0005:00000e48       __imp____setusermatherr    00465e48     msvcrtd:MSVCR100D.dll
 0005:00000e4c       __imp___commode            00465e4c     msvcrtd:MSVCR100D.dll
 0005:00000e50       __imp___fmode              00465e50     msvcrtd:MSVCR100D.dll
 0005:00000e54       __imp__memset              00465e54     msvcrtd:MSVCR100D.dll
 0005:00000e58       __imp____set_app_type      00465e58     msvcrtd:MSVCR100D.dll
 0005:00000e5c       __imp___amsg_exit          00465e5c     msvcrtd:MSVCR100D.dll
 0005:00000e60       __imp_??1exception@std@@UAE@XZ 00465e60     msvcrtd:MSVCR100D.dll
 0005:00000e64       __imp_?what@exception@std@@UBEPBDXZ 00465e64     msvcrtd:MSVCR100D.dll
 0005:00000e68       __imp_??0exception@std@@QAE@ABQBD@Z 00465e68     msvcrtd:MSVCR100D.dll
 0005:00000e6c       __imp_??0exception@std@@QAE@ABV01@@Z 00465e6c     msvcrtd:MSVCR100D.dll
 0005:00000e70       __imp___CxxThrowException@8 00465e70     msvcrtd:MSVCR100D.dll
 0005:00000e74       __imp___time64             00465e74     msvcrtd:MSVCR100D.dll
 0005:00000e78       __imp___mktime64           00465e78     msvcrtd:MSVCR100D.dll
 0005:00000e7c       __imp___gmtime64_s         00465e7c     msvcrtd:MSVCR100D.dll
 0005:00000e80       __imp___snprintf_s         00465e80     msvcrtd:MSVCR100D.dll
 0005:00000e84       __imp___errno              00465e84     msvcrtd:MSVCR100D.dll
 0005:00000e88       __imp___CrtDbgReport       00465e88     msvcrtd:MSVCR100D.dll
 0005:00000e8c       __imp__free                00465e8c     msvcrtd:MSVCR100D.dll
 0005:00000e90       __imp__strcpy              00465e90     msvcrtd:MSVCR100D.dll
 0005:00000e94       __imp__wcscpy              00465e94     msvcrtd:MSVCR100D.dll
 0005:00000e98       __imp___vsnprintf_s        00465e98     msvcrtd:MSVCR100D.dll
 0005:00000e9c       __imp___vsnwprintf_s       00465e9c     msvcrtd:MSVCR100D.dll
 0005:00000ea0       __imp___snwprintf_s        00465ea0     msvcrtd:MSVCR100D.dll
 0005:00000ea4       __imp__wcscpy_s            00465ea4     msvcrtd:MSVCR100D.dll
 0005:00000ea8       __imp__wcsncpy_s           00465ea8     msvcrtd:MSVCR100D.dll
 0005:00000eac       __imp__strcpy_s            00465eac     msvcrtd:MSVCR100D.dll
 0005:00000eb0       __imp__calloc              00465eb0     msvcrtd:MSVCR100D.dll
 0005:00000eb4       __imp___recalloc           00465eb4     msvcrtd:MSVCR100D.dll
 0005:00000eb8       __imp__memcmp              00465eb8     msvcrtd:MSVCR100D.dll
 0005:00000ebc       __imp___wcsicmp            00465ebc     msvcrtd:MSVCR100D.dll
 0005:00000ec0       __imp__memmove_s           00465ec0     msvcrtd:MSVCR100D.dll
 0005:00000ec4       __imp__wcslen              00465ec4     msvcrtd:MSVCR100D.dll
 0005:00000ec8       __imp__srand               00465ec8     msvcrtd:MSVCR100D.dll
 0005:00000ecc       __imp__rand                00465ecc     msvcrtd:MSVCR100D.dll
 0005:00000ed0       __imp__strlen              00465ed0     msvcrtd:MSVCR100D.dll
 0005:00000ed4       __imp___localtime64_s      00465ed4     msvcrtd:MSVCR100D.dll
 0005:00000ed8       __imp__wcsftime            00465ed8     msvcrtd:MSVCR100D.dll
 0005:00000edc       __imp__malloc              00465edc     msvcrtd:MSVCR100D.dll
 0005:00000ee0       __imp__memcpy              00465ee0     msvcrtd:MSVCR100D.dll
 0005:00000ee4       __imp___wtoi               00465ee4     msvcrtd:MSVCR100D.dll
 0005:00000ee8       __imp____CxxFrameHandler3  00465ee8     msvcrtd:MSVCR100D.dll
 0005:00000eec       __imp____wgetmainargs      00465eec     msvcrtd:MSVCR100D.dll
 0005:00000ef0       __imp___crt_debugger_hook  00465ef0     msvcrtd:MSVCR100D.dll
 0005:00000ef4       __imp_?_type_info_dtor_internal_method@type_info@@QAEXXZ 00465ef4     msvcrtd:MSVCR100D.dll
 0005:00000ef8       __imp___except_handler4_common 00465ef8     msvcrtd:MSVCR100D.dll
 0005:00000efc       __imp___invoke_watson      00465efc     msvcrtd:MSVCR100D.dll
 0005:00000f00       __imp___controlfp_s        00465f00     msvcrtd:MSVCR100D.dll
 0005:00000f04       __imp_?terminate@@YAXXZ    00465f04     msvcrtd:MSVCR100D.dll
 0005:00000f08       __imp___onexit             00465f08     msvcrtd:MSVCR100D.dll
 0005:00000f0c       __imp___lock               00465f0c     msvcrtd:MSVCR100D.dll
 0005:00000f10       __imp____dllonexit         00465f10     msvcrtd:MSVCR100D.dll
 0005:00000f14       __imp___unlock             00465f14     msvcrtd:MSVCR100D.dll
 0005:00000f18       __imp___CRT_RTC_INITW      00465f18     msvcrtd:MSVCR100D.dll
 0005:00000f1c       __imp___initterm_e         00465f1c     msvcrtd:MSVCR100D.dll
 0005:00000f20       __imp___initterm           00465f20     msvcrtd:MSVCR100D.dll
 0005:00000f24       __imp___CrtDbgReportW      00465f24     msvcrtd:MSVCR100D.dll
 0005:00000f28       __imp___CrtSetCheckCount   00465f28     msvcrtd:MSVCR100D.dll
 0005:00000f2c       __imp___wcmdln             00465f2c     msvcrtd:MSVCR100D.dll
 0005:00000f30       __imp__exit                00465f30     msvcrtd:MSVCR100D.dll
 0005:00000f34       __imp___cexit              00465f34     msvcrtd:MSVCR100D.dll
 0005:00000f38       __imp___XcptFilter         00465f38     msvcrtd:MSVCR100D.dll
 0005:00000f3c       __imp___exit               00465f3c     msvcrtd:MSVCR100D.dll
 0005:00000f40       \177MSVCR100D_NULL_THUNK_DATA 00465f40     msvcrtd:MSVCR100D.dll
 0005:00000f9c       __imp__SysFreeString@4     00465f9c     oleaut32:OLEAUT32.dll
 0005:00000fa0       \177OLEAUT32_NULL_THUNK_DATA 00465fa0     oleaut32:OLEAUT32.dll
 0005:00000fcc       __imp__SetupDiDestroyDeviceInfoList@4 00465fcc     setupapi:SETUPAPI.dll
 0005:00000fd0       __imp__SetupDiGetDeviceRegistryPropertyW@28 00465fd0     setupapi:SETUPAPI.dll
 0005:00000fd4       __imp__SetupDiEnumDeviceInfo@12 00465fd4     setupapi:SETUPAPI.dll
 0005:00000fd8       __imp__SetupDiGetClassDevsW@16 00465fd8     setupapi:SETUPAPI.dll
 0005:00000fdc       \177SETUPAPI_NULL_THUNK_DATA 00465fdc     setupapi:SETUPAPI.dll
 0005:00001008       __imp__GetSystemMetrics@4  00466008     user32:USER32.dll
 0005:0000100c       __imp__SetWindowPos@28     0046600c     user32:USER32.dll
 0005:00001010       __imp__wsprintfW           00466010     user32:USER32.dll
 0005:00001014       __imp__MessageBoxW@16      00466014     user32:USER32.dll
 0005:00001018       __imp__GetWindowLongW@8    00466018     user32:USER32.dll
 0005:0000101c       __imp__CopyRect@8          0046601c     user32:USER32.dll
 0005:00001020       __imp__IsRectEmpty@4       00466020     user32:USER32.dll
 0005:00001024       __imp__PtInRect@12         00466024     user32:USER32.dll
 0005:00001028       __imp__SetRect@20          00466028     user32:USER32.dll
 0005:0000102c       __imp__SetRectEmpty@4      0046602c     user32:USER32.dll
 0005:00001030       __imp__EqualRect@8         00466030     user32:USER32.dll
 0005:00001034       __imp__InflateRect@12      00466034     user32:USER32.dll
 0005:00001038       __imp__OffsetRect@12       00466038     user32:USER32.dll
 0005:0000103c       __imp__IntersectRect@12    0046603c     user32:USER32.dll
 0005:00001040       __imp__SubtractRect@12     00466040     user32:USER32.dll
 0005:00001044       __imp__UnionRect@12        00466044     user32:USER32.dll
 0005:00001048       \177USER32_NULL_THUNK_DATA 00466048     user32:USER32.dll
 0005:00001080       __imp_?Close@CStdioFile@@UAEXXZ 00466080     mfc100ud:mfc100ud.dll
 0005:00001084       __imp_??4?$CStringT@_WV?$StrTraitMFC_DLL@_WV?$ChTraitsCRT@_W@ATL@@@@@ATL@@QAEAAV01@PB_W@Z 00466084     mfc100ud:mfc100ud.dll
 0005:00001088       __imp_??0?$CStringT@_WV?$StrTraitMFC_DLL@_WV?$ChTraitsCRT@_W@ATL@@@@@ATL@@QAE@ABV01@@Z 00466088     mfc100ud:mfc100ud.dll
 0005:0000108c       __imp_?GetPosition@CStdioFile@@UBE_KXZ 0046608c     mfc100ud:mfc100ud.dll
 0005:00001090       __imp_?ReadString@CStdioFile@@UAEHAAV?$CStringT@_WV?$StrTraitMFC_DLL@_WV?$ChTraitsCRT@_W@ATL@@@@@ATL@@@Z 00466090     mfc100ud:mfc100ud.dll
 0005:00001094       __imp_?GetLength@CStdioFile@@UBE_KXZ 00466094     mfc100ud:mfc100ud.dll
 0005:00001098       __imp_?Open@CStdioFile@@UAEHPB_WIPAVCFileException@@@Z 00466098     mfc100ud:mfc100ud.dll
 0005:0000109c       __imp_??0CStdioFile@@QAE@XZ 0046609c     mfc100ud:mfc100ud.dll
 0005:000010a0       __imp_?FindFile@CFileFind@@UAEHPB_WK@Z 004660a0     mfc100ud:mfc100ud.dll
 0005:000010a4       __imp_??0CFileFind@@QAE@XZ 004660a4     mfc100ud:mfc100ud.dll
 0005:000010a8       __imp_??Y?$CStringT@_WV?$StrTraitMFC_DLL@_WV?$ChTraitsCRT@_W@ATL@@@@@ATL@@QAEAAV01@PB_W@Z 004660a8     mfc100ud:mfc100ud.dll
 0005:000010ac       __imp_??4?$CStringT@_WV?$StrTraitMFC_DLL@_WV?$ChTraitsCRT@_W@ATL@@@@@ATL@@QAEAAV01@ABV01@@Z 004660ac     mfc100ud:mfc100ud.dll
 0005:000010b0       __imp_?Left@?$CStringT@_WV?$StrTraitMFC_DLL@_WV?$ChTraitsCRT@_W@ATL@@@@@ATL@@QBE?AV12@H@Z 004660b0     mfc100ud:mfc100ud.dll
 0005:000010b4       __imp_?ReverseFind@?$CStringT@_WV?$StrTraitMFC_DLL@_WV?$ChTraitsCRT@_W@ATL@@@@@ATL@@QBEH_W@Z 004660b4     mfc100ud:mfc100ud.dll
 0005:000010b8       __imp_?ReleaseBuffer@?$CSimpleStringT@_W$00@ATL@@QAEXH@Z 004660b8     mfc100ud:mfc100ud.dll
 0005:000010bc       __imp_?GetBufferSetLength@?$CSimpleStringT@_W$00@ATL@@QAEPA_WH@Z 004660bc     mfc100ud:mfc100ud.dll
 0005:000010c0       __imp_?SetTimer@CWnd@@QAEIIIP6GXPAUHWND__@@IIK@Z@Z 004660c0     mfc100ud:mfc100ud.dll
 0005:000010c4       __imp_?SetPos@CSliderCtrl@@QAEXH@Z 004660c4     mfc100ud:mfc100ud.dll
 0005:000010c8       __imp_?SetRangeMin@CSliderCtrl@@QAEXHH@Z 004660c8     mfc100ud:mfc100ud.dll
 0005:000010cc       __imp_?SetRangeMax@CSliderCtrl@@QAEXHH@Z 004660cc     mfc100ud:mfc100ud.dll
 0005:000010d0       __imp_?SetIcon@CWnd@@QAEPAUHICON__@@PAU2@H@Z 004660d0     mfc100ud:mfc100ud.dll
 0005:000010d4       __imp_??B?$CSimpleStringT@_W$00@ATL@@QBEPB_WXZ 004660d4     mfc100ud:mfc100ud.dll
 0005:000010d8       __imp_?AppendMenuW@CMenu@@QAEHIIPB_W@Z 004660d8     mfc100ud:mfc100ud.dll
 0005:000010dc       __imp_?IsEmpty@?$CSimpleStringT@_W$00@ATL@@QBE_NXZ 004660dc     mfc100ud:mfc100ud.dll
 0005:000010e0       __imp_?LoadStringW@?$CStringT@_WV?$StrTraitMFC_DLL@_WV?$ChTraitsCRT@_W@ATL@@@@@ATL@@QAEHI@Z 004660e0     mfc100ud:mfc100ud.dll
 0005:000010e4       __imp_??0?$CStringT@_WV?$StrTraitMFC_DLL@_WV?$ChTraitsCRT@_W@ATL@@@@@ATL@@QAE@XZ 004660e4     mfc100ud:mfc100ud.dll
 0005:000010e8       __imp_?GetSystemMenu@CWnd@@QBEPAVCMenu@@H@Z 004660e8     mfc100ud:mfc100ud.dll
 0005:000010ec       __imp_?OnSysCommand@CWnd@@IAEXIJ@Z 004660ec     mfc100ud:mfc100ud.dll
 0005:000010f0       __imp_?OnPaint@CDialog@@IAEXXZ 004660f0     mfc100ud:mfc100ud.dll
 0005:000010f4       __imp_??1CPaintDC@@UAE@XZ  004660f4     mfc100ud:mfc100ud.dll
 0005:000010f8       __imp_?DrawIcon@CDC@@QAEHHHPAUHICON__@@@Z 004660f8     mfc100ud:mfc100ud.dll
 0005:000010fc       __imp_?GetClientRect@CWnd@@QBEXPAUtagRECT@@@Z 004660fc     mfc100ud:mfc100ud.dll
 0005:00001100       __imp_?SendMessageW@CWnd@@QBEJIIJ@Z 00466100     mfc100ud:mfc100ud.dll
 0005:00001104       __imp_?GetSafeHdc@CDC@@QBEPAUHDC__@@XZ 00466104     mfc100ud:mfc100ud.dll
 0005:00001108       __imp_??0CPaintDC@@QAE@PAVCWnd@@@Z 00466108     mfc100ud:mfc100ud.dll
 0005:0000110c       __imp_?IsIconic@CWnd@@QBEHXZ 0046610c     mfc100ud:mfc100ud.dll
 0005:00001110       __imp_?UpdateData@CWnd@@QAEHH@Z 00466110     mfc100ud:mfc100ud.dll
 0005:00001114       __imp_?GetFocus@CWnd@@SGPAV1@XZ 00466114     mfc100ud:mfc100ud.dll
 0005:00001118       __imp_?Right@?$CStringT@_WV?$StrTraitMFC_DLL@_WV?$ChTraitsCRT@_W@ATL@@@@@ATL@@QBE?AV12@H@Z 00466118     mfc100ud:mfc100ud.dll
 0005:0000111c       __imp_?GetLength@?$CSimpleStringT@_W$00@ATL@@QBEHXZ 0046611c     mfc100ud:mfc100ud.dll
 0005:00001120       __imp_?Find@?$CStringT@_WV?$StrTraitMFC_DLL@_WV?$ChTraitsCRT@_W@ATL@@@@@ATL@@QBEHPB_WH@Z 00466120     mfc100ud:mfc100ud.dll
 0005:00001124       __imp_?GetAt@?$CSimpleStringT@_W$00@ATL@@QBE_WH@Z 00466124     mfc100ud:mfc100ud.dll
 0005:00001128       __imp_??Y?$CStringT@_WV?$StrTraitMFC_DLL@_WV?$ChTraitsCRT@_W@ATL@@@@@ATL@@QAEAAV01@PBD@Z 00466128     mfc100ud:mfc100ud.dll
 0005:0000112c       __imp_?Replace@?$CStringT@_WV?$StrTraitMFC_DLL@_WV?$ChTraitsCRT@_W@ATL@@@@@ATL@@QAEHPB_W0@Z 0046612c     mfc100ud:mfc100ud.dll
 0005:00001130       __imp_?GetSize@CStringArray@@QBEHXZ 00466130     mfc100ud:mfc100ud.dll
 0005:00001134       __imp_?Add@CStringArray@@QAEHABV?$CStringT@_WV?$StrTraitMFC_DLL@_WV?$ChTraitsCRT@_W@ATL@@@@@ATL@@@Z 00466134     mfc100ud:mfc100ud.dll
 0005:00001138       __imp_?Find@?$CStringT@_WV?$StrTraitMFC_DLL@_WV?$ChTraitsCRT@_W@ATL@@@@@ATL@@QBEH_WH@Z 00466138     mfc100ud:mfc100ud.dll
 0005:0000113c       __imp_?RemoveAll@CStringArray@@QAEXXZ 0046613c     mfc100ud:mfc100ud.dll
 0005:00001140       __imp_?GetCount@CStringArray@@QBEHXZ 00466140     mfc100ud:mfc100ud.dll
 0005:00001144       __imp_??ACStringArray@@QAEAAV?$CStringT@_WV?$StrTraitMFC_DLL@_WV?$ChTraitsCRT@_W@ATL@@@@@ATL@@H@Z 00466144     mfc100ud:mfc100ud.dll
 0005:00001148       __imp_??1CStringArray@@UAE@XZ 00466148     mfc100ud:mfc100ud.dll
 0005:0000114c       __imp_??0CStringArray@@QAE@XZ 0046614c     mfc100ud:mfc100ud.dll
 0005:00001150       __imp_?Mid@?$CStringT@_WV?$StrTraitMFC_DLL@_WV?$ChTraitsCRT@_W@ATL@@@@@ATL@@QBE?AV12@HH@Z 00466150     mfc100ud:mfc100ud.dll
 0005:00001154       __imp_??1CFile@@UAE@XZ     00466154     mfc100ud:mfc100ud.dll
 0005:00001158       __imp_?Close@CFile@@UAEXXZ 00466158     mfc100ud:mfc100ud.dll
 0005:0000115c       __imp_?Write@CFile@@UAEXPBXI@Z 0046615c     mfc100ud:mfc100ud.dll
 0005:00001160       __imp_?AfxAssertFailedLine@@YGHPBDH@Z 00466160     mfc100ud:mfc100ud.dll
 0005:00001164       __imp_?Open@CFile@@UAEHPB_WIPAVCFileException@@@Z 00466164     mfc100ud:mfc100ud.dll
 0005:00001168       __imp_??1CStdioFile@@UAE@XZ 00466168     mfc100ud:mfc100ud.dll
 0005:0000116c       __imp_?GetWindowTextW@CWnd@@QBEXAAV?$CStringT@_WV?$StrTraitMFC_DLL@_WV?$ChTraitsCRT@_W@ATL@@@@@ATL@@@Z 0046616c     mfc100ud:mfc100ud.dll
 0005:00001170       __imp_?IsDlgButtonChecked@CWnd@@QBEIH@Z 00466170     mfc100ud:mfc100ud.dll
 0005:00001174       __imp_?GetPos@CSliderCtrl@@QBEHXZ 00466174     mfc100ud:mfc100ud.dll
 0005:00001178       __imp_?ReplaceSel@CEdit@@QAEXPB_WH@Z 00466178     mfc100ud:mfc100ud.dll
 0005:0000117c       __imp_?SetSel@CEdit@@QAEXHHH@Z 0046617c     mfc100ud:mfc100ud.dll
 0005:00001180       __imp_?GetLineCount@CEdit@@QBEHXZ 00466180     mfc100ud:mfc100ud.dll
 0005:00001184       __imp_?WriteString@CStdioFile@@UAEXPB_W@Z 00466184     mfc100ud:mfc100ud.dll
 0005:00001188       __imp_?Write@CStdioFile@@UAEXPBXI@Z 00466188     mfc100ud:mfc100ud.dll
 0005:0000118c       __imp_?Close@CFileFind@@QAEXXZ 0046618c     mfc100ud:mfc100ud.dll
 0005:00001190       __imp_?DeleteObject@CGdiObject@@QAEHXZ 00466190     mfc100ud:mfc100ud.dll
 0005:00001194       __imp_?TextOutW@CDC@@QAEHHHABV?$CStringT@_WV?$StrTraitMFC_DLL@_WV?$ChTraitsCRT@_W@ATL@@@@@ATL@@@Z 00466194     mfc100ud:mfc100ud.dll
 0005:00001198       __imp_?FillSolidRect@CDC@@QAEXPBUtagRECT@@K@Z 00466198     mfc100ud:mfc100ud.dll
 0005:0000119c       __imp_?SetBkMode@CDC@@QAEHH@Z 0046619c     mfc100ud:mfc100ud.dll
 0005:000011a0       __imp_??1CFont@@UAE@XZ     004661a0     mfc100ud:mfc100ud.dll
 0005:000011a4       __imp_??1CClientDC@@UAE@XZ 004661a4     mfc100ud:mfc100ud.dll
 0005:000011a8       __imp_?ReleaseDC@CWnd@@QAEHPAVCDC@@@Z 004661a8     mfc100ud:mfc100ud.dll
 0005:000011ac       __imp_?CreateFontW@CFont@@QAEHHHHHHEEEEEEEEPB_W@Z 004661ac     mfc100ud:mfc100ud.dll
 0005:000011b0       __imp_?GetDC@CWnd@@QAEPAVCDC@@XZ 004661b0     mfc100ud:mfc100ud.dll
 0005:000011b4       __imp_??0CClientDC@@QAE@PAVCWnd@@@Z 004661b4     mfc100ud:mfc100ud.dll
 0005:000011b8       __imp_??0CFont@@QAE@XZ     004661b8     mfc100ud:mfc100ud.dll
 0005:000011bc       __imp_?AfxThrowOleException@@YGXJ@Z 004661bc     mfc100ud:mfc100ud.dll
 0005:000011c0       __imp_?AfxThrowMemoryException@@YGXXZ 004661c0     mfc100ud:mfc100ud.dll
 0005:000011c4       __imp_?OnTimer@CWnd@@IAEXI@Z 004661c4     mfc100ud:mfc100ud.dll
 0005:000011c8       __imp_?KillTimer@CWnd@@QAEHI@Z 004661c8     mfc100ud:mfc100ud.dll
 0005:000011cc       __imp_?MessageBoxW@CWnd@@QAEHPB_W0I@Z 004661cc     mfc100ud:mfc100ud.dll
 0005:000011d0       __imp_?AppendChar@?$CSimpleStringT@_W$00@ATL@@QAEX_W@Z 004661d0     mfc100ud:mfc100ud.dll
 0005:000011d4       __imp_??A?$CSimpleStringT@_W$00@ATL@@QBE_WH@Z 004661d4     mfc100ud:mfc100ud.dll
 0005:000011d8       __imp_?SetWindowTextW@CWnd@@QAEXPB_W@Z 004661d8     mfc100ud:mfc100ud.dll
 0005:000011dc       __imp_?Concatenate@?$CSimpleStringT@_W$00@ATL@@KAXAAV12@PB_WH1H@Z 004661dc     mfc100ud:mfc100ud.dll
 0005:000011e0       __imp_??0?$CStringT@_WV?$StrTraitMFC_DLL@_WV?$ChTraitsCRT@_W@ATL@@@@@ATL@@QAE@PAUIAtlStringMgr@1@@Z 004661e0     mfc100ud:mfc100ud.dll
 0005:000011e4       __imp_?GetManager@?$CStringT@_WV?$StrTraitMFC_DLL@_WV?$ChTraitsCRT@_W@ATL@@@@@ATL@@QBEPAUIAtlStringMgr@2@XZ 004661e4     mfc100ud:mfc100ud.dll
 0005:000011e8       __imp_?StringLength@?$CSimpleStringT@_W$00@ATL@@SAHPB_W@Z 004661e8     mfc100ud:mfc100ud.dll
 0005:000011ec       __imp_?Compare@?$CStringT@_WV?$StrTraitMFC_DLL@_WV?$ChTraitsCRT@_W@ATL@@@@@ATL@@QBEHPB_W@Z 004661ec     mfc100ud:mfc100ud.dll
 0005:000011f0       __imp_?AfxIsValidString@@YGHPB_WH@Z 004661f0     mfc100ud:mfc100ud.dll
 0005:000011f4       __imp_?GetBuffer@?$CSimpleStringT@_W$00@ATL@@QAEPA_WH@Z 004661f4     mfc100ud:mfc100ud.dll
 0005:000011f8       __imp_??0CException@@QAE@XZ 004661f8     mfc100ud:mfc100ud.dll
 0005:000011fc       __imp_?AssertValid@CObject@@UBEXXZ 004661fc     mfc100ud:mfc100ud.dll
 0005:00001200       __imp_?GetErrorMessage@CException@@UBEHPA_WIPAI@Z 00466200     mfc100ud:mfc100ud.dll
 0005:00001204       __imp_?ReportError@CException@@UAEHII@Z 00466204     mfc100ud:mfc100ud.dll
 0005:00001208       __imp_??3CException@@SGXPAX@Z 00466208     mfc100ud:mfc100ud.dll
 0005:0000120c       __imp_??1CException@@UAE@XZ 0046620c     mfc100ud:mfc100ud.dll
 0005:00001210       __imp_?GetThisClass@CException@@SGPAUCRuntimeClass@@XZ 00466210     mfc100ud:mfc100ud.dll
 0005:00001214       __imp_??6CDumpContext@@QAEAAV0@K@Z 00466214     mfc100ud:mfc100ud.dll
 0005:00001218       __imp_??6CDumpContext@@QAEAAV0@PBD@Z 00466218     mfc100ud:mfc100ud.dll
 0005:0000121c       __imp_?Dump@CObject@@UBEXAAVCDumpContext@@@Z 0046621c     mfc100ud:mfc100ud.dll
 0005:00001220       __imp_??0CObject@@IAE@XZ   00466220     mfc100ud:mfc100ud.dll
 0005:00001224       __imp_??1CObject@@UAE@XZ   00466224     mfc100ud:mfc100ud.dll
 0005:00001228       __imp_?GetThisClass@CObject@@SGPAUCRuntimeClass@@XZ 00466228     mfc100ud:mfc100ud.dll
 0005:0000122c       __imp_??6CDumpContext@@QAEAAV0@H@Z 0046622c     mfc100ud:mfc100ud.dll
 0005:00001230       __imp_??6CDumpContext@@QAEAAV0@PBX@Z 00466230     mfc100ud:mfc100ud.dll
 0005:00001234       __imp_??6CDumpContext@@QAEAAV0@PB_W@Z 00466234     mfc100ud:mfc100ud.dll
 0005:00001238       __imp_?IsKindOf@CObject@@QBEHPBUCRuntimeClass@@@Z 00466238     mfc100ud:mfc100ud.dll
 0005:0000123c       __imp_??2@YAPAXIPBDH@Z     0046623c     mfc100ud:mfc100ud.dll
 0005:00001240       __imp_?GetWindowRect@CWnd@@QBEXPAUtagRECT@@@Z 00466240     mfc100ud:mfc100ud.dll
 0005:00001244       __imp_?GetDlgItem@CWnd@@QBEPAV1@H@Z 00466244     mfc100ud:mfc100ud.dll
 0005:00001248       __imp_?SetDlgItemTextW@CWnd@@QAEXHPB_W@Z 00466248     mfc100ud:mfc100ud.dll
 0005:0000124c       __imp_?EnableWindow@CWnd@@QAEHH@Z 0046624c     mfc100ud:mfc100ud.dll
 0005:00001250       __imp_??1CFileFind@@UAE@XZ 00466250     mfc100ud:mfc100ud.dll
 0005:00001254       __imp_?DDX_Radio@@YGXPAVCDataExchange@@HAAH@Z 00466254     mfc100ud:mfc100ud.dll
 0005:00001258       __imp_?DDX_Text@@YGXPAVCDataExchange@@HAAV?$CStringT@_WV?$StrTraitMFC_DLL@_WV?$ChTraitsCRT@_W@ATL@@@@@ATL@@@Z 00466258     mfc100ud:mfc100ud.dll
 0005:0000125c       __imp_?DDX_Control@@YGXPAVCDataExchange@@HAAVCWnd@@@Z 0046625c     mfc100ud:mfc100ud.dll
 0005:00001260       __imp_?DDX_Check@@YGXPAVCDataExchange@@HAAH@Z 00466260     mfc100ud:mfc100ud.dll
 0005:00001264       __imp_?DDX_Text@@YGXPAVCDataExchange@@HAAK@Z 00466264     mfc100ud:mfc100ud.dll
 0005:00001268       __imp_?DDV_MinMaxUInt@@YGXPAVCDataExchange@@III@Z 00466268     mfc100ud:mfc100ud.dll
 0005:0000126c       __imp_?DDX_Text@@YGXPAVCDataExchange@@HAAI@Z 0046626c     mfc100ud:mfc100ud.dll
 0005:00001270       __imp_??0CSliderCtrl@@QAE@XZ 00466270     mfc100ud:mfc100ud.dll
 0005:00001274       __imp_??0CEdit@@QAE@XZ     00466274     mfc100ud:mfc100ud.dll
 0005:00001278       __imp_??0CStatic@@QAE@XZ   00466278     mfc100ud:mfc100ud.dll
 0005:0000127c       __imp_?AfxGetApp@@YGPAVCWinApp@@XZ 0046627c     mfc100ud:mfc100ud.dll
 0005:00001280       __imp_?LoadIconW@CWinApp@@QBEPAUHICON__@@I@Z 00466280     mfc100ud:mfc100ud.dll
 0005:00001284       __imp_?DoDataExchange@CWnd@@MAEXPAVCDataExchange@@@Z 00466284     mfc100ud:mfc100ud.dll
 0005:00001288       __imp_?PreInitDialog@CDialog@@MAEXXZ 00466288     mfc100ud:mfc100ud.dll
 0005:0000128c       __imp_?OnCancel@CDialog@@MAEXXZ 0046628c     mfc100ud:mfc100ud.dll
 0005:00001290       __imp_?OnOK@CDialog@@MAEXXZ 00466290     mfc100ud:mfc100ud.dll
 0005:00001294       __imp_?OnSetFont@CDialog@@UAEXPAVCFont@@@Z 00466294     mfc100ud:mfc100ud.dll
 0005:00001298       __imp_?OnInitDialog@CDialog@@UAEHXZ 00466298     mfc100ud:mfc100ud.dll
 0005:0000129c       __imp_?CreateIndirect@CDialog@@UAEHPBUDLGTEMPLATE@@PAVCWnd@@PAX@Z 0046629c     mfc100ud:mfc100ud.dll
 0005:000012a0       __imp_?CreateIndirect@CDialog@@UAEHPAXPAVCWnd@@@Z 004662a0     mfc100ud:mfc100ud.dll
 0005:000012a4       __imp_?Create@CDialog@@UAEHPB_WPAVCWnd@@@Z 004662a4     mfc100ud:mfc100ud.dll
 0005:000012a8       __imp_?Create@CDialog@@UAEHIPAVCWnd@@@Z 004662a8     mfc100ud:mfc100ud.dll
 0005:000012ac       __imp_?GetOccDialogInfo@CDialog@@MAEPAU_AFX_OCC_DIALOG_INFO@@XZ 004662ac     mfc100ud:mfc100ud.dll
 0005:000012b0       __imp_?SetOccDialogInfo@CDialog@@MAEHPAU_AFX_OCC_DIALOG_INFO@@@Z 004662b0     mfc100ud:mfc100ud.dll
 0005:000012b4       __imp_?CreateControlSite@CWnd@@MAEHPAVCOleControlContainer@@PAPAVCOleControlSite@@IABU_GUID@@@Z 004662b4     mfc100ud:mfc100ud.dll
 0005:000012b8       __imp_?CreateControlContainer@CWnd@@MAEHPAPAVCOleControlContainer@@@Z 004662b8     mfc100ud:mfc100ud.dll
 0005:000012bc       __imp_?IsFrameWnd@CWnd@@UBEHXZ 004662bc     mfc100ud:mfc100ud.dll
 0005:000012c0       __imp_?CheckAutoCenter@CDialog@@UAEHXZ 004662c0     mfc100ud:mfc100ud.dll
 0005:000012c4       __imp_?OnGesturePressAndTap@CWnd@@MAEHVCPoint@@J@Z 004662c4     mfc100ud:mfc100ud.dll
 0005:000012c8       __imp_?OnGestureTwoFingerTap@CWnd@@MAEHVCPoint@@@Z 004662c8     mfc100ud:mfc100ud.dll
 0005:000012cc       __imp_?OnGestureRotate@CWnd@@MAEHVCPoint@@N@Z 004662cc     mfc100ud:mfc100ud.dll
 0005:000012d0       __imp_?OnGesturePan@CWnd@@MAEHVCPoint@@0@Z 004662d0     mfc100ud:mfc100ud.dll
 0005:000012d4       __imp_?OnGestureZoom@CWnd@@MAEHVCPoint@@J@Z 004662d4     mfc100ud:mfc100ud.dll
 0005:000012d8       __imp_?GetGestureStatus@CWnd@@MAEKVCPoint@@@Z 004662d8     mfc100ud:mfc100ud.dll
 0005:000012dc       __imp_?OnTouchInput@CWnd@@MAEHVCPoint@@HHPAUtagTOUCHINPUT@@@Z 004662dc     mfc100ud:mfc100ud.dll
 0005:000012e0       __imp_?OnTouchInputs@CWnd@@MAEHIPAUtagTOUCHINPUT@@@Z 004662e0     mfc100ud:mfc100ud.dll
 0005:000012e4       __imp_?OnChildNotify@CWnd@@MAEHIIJPAJ@Z 004662e4     mfc100ud:mfc100ud.dll
 0005:000012e8       __imp_?PostNcDestroy@CWnd@@MAEXXZ 004662e8     mfc100ud:mfc100ud.dll
 0005:000012ec       __imp_?DefWindowProcW@CWnd@@MAEJIIJ@Z 004662ec     mfc100ud:mfc100ud.dll
 0005:000012f0       __imp_?OnWndMsg@CWnd@@MAEHIIJPAJ@Z 004662f0     mfc100ud:mfc100ud.dll
 0005:000012f4       __imp_?WindowProc@CWnd@@MAEJIIJ@Z 004662f4     mfc100ud:mfc100ud.dll
 0005:000012f8       __imp_?OnAmbientProperty@CWnd@@UAEHPAVCOleControlSite@@JPAUtagVARIANT@@@Z 004662f8     mfc100ud:mfc100ud.dll
 0005:000012fc       __imp_?PreTranslateMessage@CDialog@@UAEHPAUtagMSG@@@Z 004662fc     mfc100ud:mfc100ud.dll
 0005:00001300       __imp_?EndModalState@CWnd@@UAEXXZ 00466300     mfc100ud:mfc100ud.dll
 0005:00001304       __imp_?BeginModalState@CWnd@@UAEXXZ 00466304     mfc100ud:mfc100ud.dll
 0005:00001308       __imp_?GetSuperWndProcAddr@CWnd@@MAEPAP6GJPAUHWND__@@IIJ@ZXZ 00466308     mfc100ud:mfc100ud.dll
 0005:0000130c       __imp_?OnNotify@CWnd@@MAEHIJPAJ@Z 0046630c     mfc100ud:mfc100ud.dll
 0005:00001310       __imp_?OnCommand@CWnd@@MAEHIJ@Z 00466310     mfc100ud:mfc100ud.dll
 0005:00001314       __imp_?CreateAccessibleProxy@CWnd@@UAEJIJPAJ@Z 00466314     mfc100ud:mfc100ud.dll
 0005:00001318       __imp_?SetProxy@CWnd@@UAEJPAUIAccessibleProxy@@@Z 00466318     mfc100ud:mfc100ud.dll
 0005:0000131c       __imp_?put_accValue@CWnd@@UAEJUtagVARIANT@@PA_W@Z 0046631c     mfc100ud:mfc100ud.dll
 0005:00001320       __imp_?put_accName@CWnd@@UAEJUtagVARIANT@@PA_W@Z 00466320     mfc100ud:mfc100ud.dll
 0005:00001324       __imp_?accDoDefaultAction@CWnd@@UAEJUtagVARIANT@@@Z 00466324     mfc100ud:mfc100ud.dll
 0005:00001328       __imp_?accHitTest@CWnd@@UAEJJJPAUtagVARIANT@@@Z 00466328     mfc100ud:mfc100ud.dll
 0005:0000132c       __imp_?accNavigate@CWnd@@UAEJJUtagVARIANT@@PAU2@@Z 0046632c     mfc100ud:mfc100ud.dll
 0005:00001330       __imp_?accLocation@CWnd@@UAEJPAJ000UtagVARIANT@@@Z 00466330     mfc100ud:mfc100ud.dll
 0005:00001334       __imp_?accSelect@CWnd@@UAEJJUtagVARIANT@@@Z 00466334     mfc100ud:mfc100ud.dll
 0005:00001338       __imp_?get_accDefaultAction@CWnd@@UAEJUtagVARIANT@@PAPA_W@Z 00466338     mfc100ud:mfc100ud.dll
 0005:0000133c       __imp_?get_accSelection@CWnd@@UAEJPAUtagVARIANT@@@Z 0046633c     mfc100ud:mfc100ud.dll
 0005:00001340       __imp_?get_accFocus@CWnd@@UAEJPAUtagVARIANT@@@Z 00466340     mfc100ud:mfc100ud.dll
 0005:00001344       __imp_?get_accKeyboardShortcut@CWnd@@UAEJUtagVARIANT@@PAPA_W@Z 00466344     mfc100ud:mfc100ud.dll
 0005:00001348       __imp_?get_accHelpTopic@CWnd@@UAEJPAPA_WUtagVARIANT@@PAJ@Z 00466348     mfc100ud:mfc100ud.dll
 0005:0000134c       __imp_?get_accHelp@CWnd@@UAEJUtagVARIANT@@PAPA_W@Z 0046634c     mfc100ud:mfc100ud.dll
 0005:00001350       __imp_?get_accState@CWnd@@UAEJUtagVARIANT@@PAU2@@Z 00466350     mfc100ud:mfc100ud.dll
 0005:00001354       __imp_?get_accRole@CWnd@@UAEJUtagVARIANT@@PAU2@@Z 00466354     mfc100ud:mfc100ud.dll
 0005:00001358       __imp_?get_accDescription@CWnd@@UAEJUtagVARIANT@@PAPA_W@Z 00466358     mfc100ud:mfc100ud.dll
 0005:0000135c       __imp_?get_accValue@CWnd@@UAEJUtagVARIANT@@PAPA_W@Z 0046635c     mfc100ud:mfc100ud.dll
 0005:00001360       __imp_?get_accName@CWnd@@UAEJUtagVARIANT@@PAPA_W@Z 00466360     mfc100ud:mfc100ud.dll
 0005:00001364       __imp_?get_accChild@CWnd@@UAEJUtagVARIANT@@PAPAUIDispatch@@@Z 00466364     mfc100ud:mfc100ud.dll
 0005:00001368       __imp_?get_accChildCount@CWnd@@UAEJPAJ@Z 00466368     mfc100ud:mfc100ud.dll
 0005:0000136c       __imp_?get_accParent@CWnd@@UAEJPAPAUIDispatch@@@Z 0046636c     mfc100ud:mfc100ud.dll
 0005:00001370       __imp_?EnsureStdObj@CWnd@@UAEJXZ 00466370     mfc100ud:mfc100ud.dll
 0005:00001374       __imp_?OnDrawIconicThumbnailOrLivePreview@CWnd@@UAEXAAVCDC@@VCRect@@VCSize@@HAAH@Z 00466374     mfc100ud:mfc100ud.dll
 0005:00001378       __imp_?EndModalLoop@CWnd@@UAEXH@Z 00466378     mfc100ud:mfc100ud.dll
 0005:0000137c       __imp_?ContinueModal@CWnd@@UAEHXZ 0046637c     mfc100ud:mfc100ud.dll
 0005:00001380       __imp_?WinHelpInternal@CWnd@@UAEXKI@Z 00466380     mfc100ud:mfc100ud.dll
 0005:00001384       __imp_?HtmlHelpW@CWnd@@UAEXKI@Z 00466384     mfc100ud:mfc100ud.dll
 0005:00001388       __imp_?WinHelpW@CWnd@@UAEXKI@Z 00466388     mfc100ud:mfc100ud.dll
 0005:0000138c       __imp_?GetScrollBarCtrl@CWnd@@UBEPAVCScrollBar@@H@Z 0046638c     mfc100ud:mfc100ud.dll
 0005:00001390       __imp_?OnToolHitTest@CWnd@@UBEHVCPoint@@PAUtagTOOLINFOW@@@Z 00466390     mfc100ud:mfc100ud.dll
 0005:00001394       __imp_?SetMenu@CWnd@@UAEHPAVCMenu@@@Z 00466394     mfc100ud:mfc100ud.dll
 0005:00001398       __imp_?GetMenu@CWnd@@UBEPAVCMenu@@XZ 00466398     mfc100ud:mfc100ud.dll
 0005:0000139c       __imp_?CalcWindowRect@CWnd@@UAEXPAUtagRECT@@I@Z 0046639c     mfc100ud:mfc100ud.dll
 0005:000013a0       __imp_?PreCreateWindow@CWnd@@UAEHAAUtagCREATESTRUCTW@@@Z 004663a0     mfc100ud:mfc100ud.dll
 0005:000013a4       __imp_?DestroyWindow@CWnd@@UAEHXZ 004663a4     mfc100ud:mfc100ud.dll
 0005:000013a8       __imp_?CreateEx@CWnd@@UAEHKPB_W0KHHHHPAUHWND__@@PAUHMENU__@@PAX@Z 004663a8     mfc100ud:mfc100ud.dll
 0005:000013ac       __imp_?CreateEx@CWnd@@UAEHKPB_W0KABUtagRECT@@PAV1@IPAX@Z 004663ac     mfc100ud:mfc100ud.dll
 0005:000013b0       __imp_?Create@CWnd@@UAEHPB_W0KABUtagRECT@@PAV1@IPAUCCreateContext@@@Z 004663b0     mfc100ud:mfc100ud.dll
 0005:000013b4       __imp_?PreSubclassWindow@CWnd@@UAEXXZ 004663b4     mfc100ud:mfc100ud.dll
 0005:000013b8       __imp_?GetInterfaceMap@CWnd@@MBEPBUAFX_INTERFACEMAP@@XZ 004663b8     mfc100ud:mfc100ud.dll
 0005:000013bc       __imp_?OnFinalRelease@CWnd@@UAEXXZ 004663bc     mfc100ud:mfc100ud.dll
 0005:000013c0       __imp_?OnCmdMsg@CDialog@@UAEHIHPAXPAUAFX_CMDHANDLERINFO@@@Z 004663c0     mfc100ud:mfc100ud.dll
 0005:000013c4       __imp_?Dump@CDialog@@UBEXAAVCDumpContext@@@Z 004663c4     mfc100ud:mfc100ud.dll
 0005:000013c8       __imp_?AssertValid@CDialog@@UBEXXZ 004663c8     mfc100ud:mfc100ud.dll
 0005:000013cc       __imp_?GetRuntimeClass@CDialog@@UBEPAUCRuntimeClass@@XZ 004663cc     mfc100ud:mfc100ud.dll
 0005:000013d0       __imp_??0CDialog@@QAE@IPAVCWnd@@@Z 004663d0     mfc100ud:mfc100ud.dll
 0005:000013d4       __imp_?GetThisMessageMap@CDialog@@KGPBUAFX_MSGMAP@@XZ 004663d4     mfc100ud:mfc100ud.dll
 0005:000013d8       __imp_?OnActivate@CWnd@@IAEXIPAV1@H@Z 004663d8     mfc100ud:mfc100ud.dll
 0005:000013dc       __imp_??1CStatic@@UAE@XZ   004663dc     mfc100ud:mfc100ud.dll
 0005:000013e0       __imp_??1CEdit@@UAE@XZ     004663e0     mfc100ud:mfc100ud.dll
 0005:000013e4       __imp_??1CSliderCtrl@@UAE@XZ 004663e4     mfc100ud:mfc100ud.dll
 0005:000013e8       __imp_??1CDialog@@UAE@XZ   004663e8     mfc100ud:mfc100ud.dll
 0005:000013ec       __imp_?InitInstance@CWinApp@@UAEHXZ 004663ec     mfc100ud:mfc100ud.dll
 0005:000013f0       __imp_?AfxEnableControlContainer@@YAXPAVCOccManager@@@Z 004663f0     mfc100ud:mfc100ud.dll
 0005:000013f4       __imp_?SetRegistryKey@CWinApp@@IAEXPB_W@Z 004663f4     mfc100ud:mfc100ud.dll
 0005:000013f8       __imp_?DoModal@CDialog@@UAEHXZ 004663f8     mfc100ud:mfc100ud.dll
 0005:000013fc       __imp_??1CWinAppEx@@UAE@XZ 004663fc     mfc100ud:mfc100ud.dll
 0005:00001400       __imp_?ReloadWindowPlacement@CWinAppEx@@MAEHPAVCFrameWnd@@@Z 00466400     mfc100ud:mfc100ud.dll
 0005:00001404       __imp_?StoreWindowPlacement@CWinAppEx@@MAEHABVCRect@@HH@Z 00466404     mfc100ud:mfc100ud.dll
 0005:00001408       __imp_?LoadWindowPlacement@CWinAppEx@@MAEHAAVCRect@@AAH1@Z 00466408     mfc100ud:mfc100ud.dll
 0005:0000140c       __imp_?OnClosingMainFrame@CWinAppEx@@MAEXPAVCFrameImpl@@@Z 0046640c     mfc100ud:mfc100ud.dll
 0005:00001410       __imp_?OnAppContextHelp@CWinAppEx@@UAEXPAVCWnd@@QBK@Z 00466410     mfc100ud:mfc100ud.dll
 0005:00001414       __imp_?ShowPopupMenu@CWinAppEx@@UAEHIABVCPoint@@PAVCWnd@@@Z 00466414     mfc100ud:mfc100ud.dll
 0005:00001418       __imp_?OnViewDoubleClick@CWinAppEx@@UAEHPAVCWnd@@H@Z 00466418     mfc100ud:mfc100ud.dll
 0005:0000141c       __imp_?SaveState@CWinAppEx@@UAEHPB_WPAVCFrameImpl@@@Z 0046641c     mfc100ud:mfc100ud.dll
 0005:00001420       __imp_?CleanState@CWinAppEx@@UAEHPB_W@Z 00466420     mfc100ud:mfc100ud.dll
 0005:00001424       __imp_?LoadState@CWinAppEx@@UAEHPB_WPAVCFrameImpl@@@Z 00466424     mfc100ud:mfc100ud.dll
 0005:00001428       __imp_?LoadSysPolicies@CWinApp@@UAEHXZ 00466428     mfc100ud:mfc100ud.dll
 0005:0000142c       __imp_?LoadAppLangResourceDLL@CWinApp@@UAEPAUHINSTANCE__@@XZ 0046642c     mfc100ud:mfc100ud.dll
 0005:00001430       __imp_?RestartInstance@CWinApp@@UAEHXZ 00466430     mfc100ud:mfc100ud.dll
 0005:00001434       __imp_?AfxMessageBox@@YGHPB_WII@Z 00466434     mfc100ud:mfc100ud.dll
 0005:00001438       __imp_??2CObject@@SGPAXI@Z 00466438     mfc100ud:mfc100ud.dll
 0005:0000143c       __imp_?Delete@CException@@QAEXXZ 0046643c     mfc100ud:mfc100ud.dll
 0005:00001440       __imp_??2@YAPAXI@Z         00466440     mfc100ud:mfc100ud.dll
 0005:00001444       __imp_?IsTaskbarInteractionEnabled@CWinApp@@UAEHXZ 00466444     mfc100ud:mfc100ud.dll
 0005:00001448       __imp_?GetDataRecoveryHandler@CWinApp@@UAEPAVCDataRecoveryHandler@@XZ 00466448     mfc100ud:mfc100ud.dll
 0005:0000144c       __imp_?ApplicationRecoveryCallback@CWinApp@@UAEKPAX@Z 0046644c     mfc100ud:mfc100ud.dll
 0005:00001450       __imp_?RegisterWithRestartManager@CWinApp@@UAEJHABV?$CStringT@_WV?$StrTraitMFC_DLL@_WV?$ChTraitsCRT@_W@ATL@@@@@ATL@@@Z 00466450     mfc100ud:mfc100ud.dll
 0005:00001454       __imp_?RegisterWithRestartManager@CWinApp@@UAEJPB_WKP6GKPAX@Z1KK@Z 00466454     mfc100ud:mfc100ud.dll
 0005:00001458       __imp_?WinHelpInternal@CWinApp@@UAEXKI@Z 00466458     mfc100ud:mfc100ud.dll
 0005:0000145c       __imp_?HtmlHelpW@CWinApp@@UAEXKI@Z 0046645c     mfc100ud:mfc100ud.dll
 0005:00001460       __imp_?WinHelpW@CWinApp@@UAEXKI@Z 00466460     mfc100ud:mfc100ud.dll
 0005:00001464       __imp_?OnDDECommand@CWinApp@@UAEHPA_W@Z 00466464     mfc100ud:mfc100ud.dll
 0005:00001468       __imp_?DoWaitCursor@CWinApp@@UAEXH@Z 00466468     mfc100ud:mfc100ud.dll
 0005:0000146c       __imp_?DoMessageBox@CWinApp@@UAEHPB_WII@Z 0046646c     mfc100ud:mfc100ud.dll
 0005:00001470       __imp_?SaveAllModified@CWinApp@@UAEHXZ 00466470     mfc100ud:mfc100ud.dll
 0005:00001474       __imp_?InitApplication@CWinApp@@UAEHXZ 00466474     mfc100ud:mfc100ud.dll
 0005:00001478       __imp_?AddToRecentFileList@CWinApp@@UAEXPB_W@Z 00466478     mfc100ud:mfc100ud.dll
 0005:0000147c       __imp_?OpenDocumentFile@CWinApp@@UAEPAVCDocument@@PB_W@Z 0046647c     mfc100ud:mfc100ud.dll
 0005:00001480       __imp_?OpenDocumentFile@CWinApp@@UAEPAVCDocument@@PB_WH@Z 00466480     mfc100ud:mfc100ud.dll
 0005:00001484       __imp_?Unregister@CWinApp@@UAEHXZ 00466484     mfc100ud:mfc100ud.dll
 0005:00001488       __imp_?Register@CWinApp@@UAEHXZ 00466488     mfc100ud:mfc100ud.dll
 0005:0000148c       __imp_?InitLibId@CWinApp@@UAEXXZ 0046648c     mfc100ud:mfc100ud.dll
 0005:00001490       __imp_?WriteProfileBinary@CWinApp@@UAEHPB_W0PAEI@Z 00466490     mfc100ud:mfc100ud.dll
 0005:00001494       __imp_?GetProfileBinary@CWinApp@@UAEHPB_W0PAPAEPAI@Z 00466494     mfc100ud:mfc100ud.dll
 0005:00001498       __imp_?WriteProfileStringW@CWinApp@@UAEHPB_W00@Z 00466498     mfc100ud:mfc100ud.dll
 0005:0000149c       __imp_?GetProfileStringW@CWinApp@@UAE?AV?$CStringT@_WV?$StrTraitMFC_DLL@_WV?$ChTraitsCRT@_W@ATL@@@@@ATL@@PB_W00@Z 0046649c     mfc100ud:mfc100ud.dll
 0005:000014a0       __imp_?WriteProfileInt@CWinApp@@UAEHPB_W0H@Z 004664a0     mfc100ud:mfc100ud.dll
 0005:000014a4       __imp_?GetProfileIntW@CWinApp@@UAEIPB_W0H@Z 004664a4     mfc100ud:mfc100ud.dll
 0005:000014a8       __imp_?Delete@CWinThread@@UAEXXZ 004664a8     mfc100ud:mfc100ud.dll
 0005:000014ac       __imp_?GetMainWnd@CWinThread@@UAEPAVCWnd@@XZ 004664ac     mfc100ud:mfc100ud.dll
 0005:000014b0       __imp_?ProcessMessageFilter@CWinThread@@UAEHHPAUtagMSG@@@Z 004664b0     mfc100ud:mfc100ud.dll
 0005:000014b4       __imp_?ProcessWndProcException@CWinApp@@UAEJPAVCException@@PBUtagMSG@@@Z 004664b4     mfc100ud:mfc100ud.dll
 0005:000014b8       __imp_?ExitInstance@CWinAppEx@@UAEHXZ 004664b8     mfc100ud:mfc100ud.dll
 0005:000014bc       __imp_?IsIdleMessage@CWinThread@@UAEHPAUtagMSG@@@Z 004664bc     mfc100ud:mfc100ud.dll
 0005:000014c0       __imp_?OnIdle@CWinApp@@UAEHJ@Z 004664c0     mfc100ud:mfc100ud.dll
 0005:000014c4       __imp_?PumpMessage@CWinThread@@UAEHXZ 004664c4     mfc100ud:mfc100ud.dll
 0005:000014c8       __imp_?PreTranslateMessage@CWinThread@@UAEHPAUtagMSG@@@Z 004664c8     mfc100ud:mfc100ud.dll
 0005:000014cc       __imp_?Run@CWinApp@@UAEHXZ 004664cc     mfc100ud:mfc100ud.dll
 0005:000014d0       __imp_?GetConnectionHook@CCmdTarget@@MAEPAUIConnectionPoint@@ABU_GUID@@@Z 004664d0     mfc100ud:mfc100ud.dll
 0005:000014d4       __imp_?GetExtraConnectionPoints@CCmdTarget@@MAEHPAVCPtrArray@@@Z 004664d4     mfc100ud:mfc100ud.dll
 0005:000014d8       __imp_?GetInterfaceHook@CCmdTarget@@UAEPAUIUnknown@@PBX@Z 004664d8     mfc100ud:mfc100ud.dll
 0005:000014dc       __imp_?OnCreateAggregates@CCmdTarget@@UAEHXZ 004664dc     mfc100ud:mfc100ud.dll
 0005:000014e0       __imp_?GetEventSinkMap@CCmdTarget@@MBEPBUAFX_EVENTSINKMAP@@XZ 004664e0     mfc100ud:mfc100ud.dll
 0005:000014e4       __imp_?GetInterfaceMap@CCmdTarget@@MBEPBUAFX_INTERFACEMAP@@XZ 004664e4     mfc100ud:mfc100ud.dll
 0005:000014e8       __imp_?GetConnectionMap@CCmdTarget@@MBEPBUAFX_CONNECTIONMAP@@XZ 004664e8     mfc100ud:mfc100ud.dll
 0005:000014ec       __imp_?GetDispatchMap@CCmdTarget@@MBEPBUAFX_DISPMAP@@XZ 004664ec     mfc100ud:mfc100ud.dll
 0005:000014f0       __imp_?GetCommandMap@CCmdTarget@@MBEPBUAFX_OLECMDMAP@@XZ 004664f0     mfc100ud:mfc100ud.dll
 0005:000014f4       __imp_?GetTypeLib@CCmdTarget@@UAEJKPAPAUITypeLib@@@Z 004664f4     mfc100ud:mfc100ud.dll
 0005:000014f8       __imp_?GetTypeLibCache@CCmdTarget@@UAEPAVCTypeLibCache@@XZ 004664f8     mfc100ud:mfc100ud.dll
 0005:000014fc       __imp_?GetTypeInfoCount@CCmdTarget@@UAEIXZ 004664fc     mfc100ud:mfc100ud.dll
 0005:00001500       __imp_?GetDispatchIID@CCmdTarget@@UAEHPAU_GUID@@@Z 00466500     mfc100ud:mfc100ud.dll
 0005:00001504       __imp_?IsInvokeAllowed@CCmdTarget@@UAEHJ@Z 00466504     mfc100ud:mfc100ud.dll
 0005:00001508       __imp_?OnFinalRelease@CCmdTarget@@UAEXXZ 00466508     mfc100ud:mfc100ud.dll
 0005:0000150c       __imp_?OnCmdMsg@CCmdTarget@@UAEHIHPAXPAUAFX_CMDHANDLERINFO@@@Z 0046650c     mfc100ud:mfc100ud.dll
 0005:00001510       __imp_?Dump@CWinApp@@UBEXAAVCDumpContext@@@Z 00466510     mfc100ud:mfc100ud.dll
 0005:00001514       __imp_?AssertValid@CWinApp@@UBEXXZ 00466514     mfc100ud:mfc100ud.dll
 0005:00001518       __imp_?Serialize@CObject@@UAEXAAVCArchive@@@Z 00466518     mfc100ud:mfc100ud.dll
 0005:0000151c       __imp_?GetRuntimeClass@CWinAppEx@@UBEPAUCRuntimeClass@@XZ 0046651c     mfc100ud:mfc100ud.dll
 0005:00001520       __imp_??0CWinAppEx@@QAE@H@Z 00466520     mfc100ud:mfc100ud.dll
 0005:00001524       __imp_?OnHelp@CWinApp@@IAEXXZ 00466524     mfc100ud:mfc100ud.dll
 0005:00001528       __imp_?GetThisMessageMap@CWinApp@@KGPBUAFX_MSGMAP@@XZ 00466528     mfc100ud:mfc100ud.dll
 0005:0000152c       __imp_??_U@YAPAXI@Z        0046652c     mfc100ud:mfc100ud.dll
 0005:00001530       __imp_??_V@YAXPAX@Z        00466530     mfc100ud:mfc100ud.dll
 0005:00001534       __imp_??0?$CStringT@_WV?$StrTraitMFC_DLL@_WV?$ChTraitsCRT@_W@ATL@@@@@ATL@@QAE@PB_W@Z 00466534     mfc100ud:mfc100ud.dll
 0005:00001538       __imp_?Format@?$CStringT@_WV?$StrTraitMFC_DLL@_WV?$ChTraitsCRT@_W@ATL@@@@@ATL@@QAAXPB_WZZ 00466538     mfc100ud:mfc100ud.dll
 0005:0000153c       __imp_??Y?$CStringT@_WV?$StrTraitMFC_DLL@_WV?$ChTraitsCRT@_W@ATL@@@@@ATL@@QAEAAV01@ABV?$CSimpleStringT@_W$00@1@@Z 0046653c     mfc100ud:mfc100ud.dll
 0005:00001540       __imp_??0CFile@@QAE@XZ     00466540     mfc100ud:mfc100ud.dll
 0005:00001544       __imp_??1?$CStringT@_WV?$StrTraitMFC_DLL@_WV?$ChTraitsCRT@_W@ATL@@@@@ATL@@QAE@XZ 00466544     mfc100ud:mfc100ud.dll
 0005:00001548       __imp_??3CObject@@SGXPAX@Z 00466548     mfc100ud:mfc100ud.dll
 0005:0000154c       __imp_?SeekToEnd@CFile@@QAE_KXZ 0046654c     mfc100ud:mfc100ud.dll
 0005:00001550       __imp_??3@YAXPAX@Z         00466550     mfc100ud:mfc100ud.dll
 0005:00001554       __imp_?AfxWinMain@@YGHPAUHINSTANCE__@@0PA_WH@Z 00466554     mfc100ud:mfc100ud.dll
 0005:00001558       __imp_?AfxGetModuleState@@YGPAVAFX_MODULE_STATE@@XZ 00466558     mfc100ud:mfc100ud.dll
 0005:0000155c       \177mfc100ud_NULL_THUNK_DATA 0046655c     mfc100ud:mfc100ud.dll

 entry point at        0002:000016a3

