; Listing generated by Microsoft (R) Optimizing Compiler Version 16.00.30319.01 

	TITLE	E:\cz\VS\DviceCtrlDlg_new_signal_1\DviceCtrlDlg.cpp
	.686P
	.XMM
	include listing.inc
	.model	flat

INCLUDELIB LIBCMTD
INCLUDELIB OLDNAMES

PUBLIC	?has_denorm@_Num_base@std@@2W4float_denorm_style@2@B ; std::_Num_base::has_denorm
PUBLIC	?has_denorm_loss@_Num_base@std@@2_NB		; std::_Num_base::has_denorm_loss
PUBLIC	?has_infinity@_Num_base@std@@2_NB		; std::_Num_base::has_infinity
PUBLIC	?has_quiet_NaN@_Num_base@std@@2_NB		; std::_Num_base::has_quiet_NaN
PUBLIC	?has_signaling_NaN@_Num_base@std@@2_NB		; std::_Num_base::has_signaling_NaN
PUBLIC	?is_bounded@_Num_base@std@@2_NB			; std::_Num_base::is_bounded
PUBLIC	?is_exact@_Num_base@std@@2_NB			; std::_Num_base::is_exact
PUBLIC	?is_iec559@_Num_base@std@@2_NB			; std::_Num_base::is_iec559
PUBLIC	?is_integer@_Num_base@std@@2_NB			; std::_Num_base::is_integer
PUBLIC	?is_modulo@_Num_base@std@@2_NB			; std::_Num_base::is_modulo
PUBLIC	?is_signed@_Num_base@std@@2_NB			; std::_Num_base::is_signed
PUBLIC	?is_specialized@_Num_base@std@@2_NB		; std::_Num_base::is_specialized
PUBLIC	?tinyness_before@_Num_base@std@@2_NB		; std::_Num_base::tinyness_before
PUBLIC	?traps@_Num_base@std@@2_NB			; std::_Num_base::traps
PUBLIC	?round_style@_Num_base@std@@2W4float_round_style@2@B ; std::_Num_base::round_style
PUBLIC	?digits@_Num_base@std@@2HB			; std::_Num_base::digits
PUBLIC	?digits10@_Num_base@std@@2HB			; std::_Num_base::digits10
PUBLIC	?max_digits10@_Num_base@std@@2HB		; std::_Num_base::max_digits10
PUBLIC	?max_exponent@_Num_base@std@@2HB		; std::_Num_base::max_exponent
PUBLIC	?max_exponent10@_Num_base@std@@2HB		; std::_Num_base::max_exponent10
PUBLIC	?min_exponent@_Num_base@std@@2HB		; std::_Num_base::min_exponent
PUBLIC	?min_exponent10@_Num_base@std@@2HB		; std::_Num_base::min_exponent10
PUBLIC	?radix@_Num_base@std@@2HB			; std::_Num_base::radix
PUBLIC	?is_bounded@_Num_int_base@std@@2_NB		; std::_Num_int_base::is_bounded
PUBLIC	?is_exact@_Num_int_base@std@@2_NB		; std::_Num_int_base::is_exact
PUBLIC	?is_integer@_Num_int_base@std@@2_NB		; std::_Num_int_base::is_integer
PUBLIC	?is_modulo@_Num_int_base@std@@2_NB		; std::_Num_int_base::is_modulo
PUBLIC	?is_specialized@_Num_int_base@std@@2_NB		; std::_Num_int_base::is_specialized
PUBLIC	?radix@_Num_int_base@std@@2HB			; std::_Num_int_base::radix
PUBLIC	?has_denorm@_Num_float_base@std@@2W4float_denorm_style@2@B ; std::_Num_float_base::has_denorm
PUBLIC	?has_denorm_loss@_Num_float_base@std@@2_NB	; std::_Num_float_base::has_denorm_loss
PUBLIC	?has_infinity@_Num_float_base@std@@2_NB		; std::_Num_float_base::has_infinity
PUBLIC	?has_quiet_NaN@_Num_float_base@std@@2_NB	; std::_Num_float_base::has_quiet_NaN
PUBLIC	?has_signaling_NaN@_Num_float_base@std@@2_NB	; std::_Num_float_base::has_signaling_NaN
PUBLIC	?is_bounded@_Num_float_base@std@@2_NB		; std::_Num_float_base::is_bounded
PUBLIC	?is_exact@_Num_float_base@std@@2_NB		; std::_Num_float_base::is_exact
PUBLIC	?is_iec559@_Num_float_base@std@@2_NB		; std::_Num_float_base::is_iec559
PUBLIC	?is_integer@_Num_float_base@std@@2_NB		; std::_Num_float_base::is_integer
PUBLIC	?is_modulo@_Num_float_base@std@@2_NB		; std::_Num_float_base::is_modulo
PUBLIC	?is_signed@_Num_float_base@std@@2_NB		; std::_Num_float_base::is_signed
PUBLIC	?is_specialized@_Num_float_base@std@@2_NB	; std::_Num_float_base::is_specialized
PUBLIC	?tinyness_before@_Num_float_base@std@@2_NB	; std::_Num_float_base::tinyness_before
PUBLIC	?traps@_Num_float_base@std@@2_NB		; std::_Num_float_base::traps
PUBLIC	?round_style@_Num_float_base@std@@2W4float_round_style@2@B ; std::_Num_float_base::round_style
PUBLIC	?radix@_Num_float_base@std@@2HB			; std::_Num_float_base::radix
PUBLIC	?is_signed@?$numeric_limits@D@std@@2_NB		; std::numeric_limits<char>::is_signed
PUBLIC	?digits@?$numeric_limits@D@std@@2HB		; std::numeric_limits<char>::digits
PUBLIC	?digits10@?$numeric_limits@D@std@@2HB		; std::numeric_limits<char>::digits10
PUBLIC	?max_digits10@?$numeric_limits@D@std@@2HB	; std::numeric_limits<char>::max_digits10
PUBLIC	?is_signed@?$numeric_limits@_W@std@@2_NB	; std::numeric_limits<wchar_t>::is_signed
PUBLIC	?digits@?$numeric_limits@_W@std@@2HB		; std::numeric_limits<wchar_t>::digits
PUBLIC	?digits10@?$numeric_limits@_W@std@@2HB		; std::numeric_limits<wchar_t>::digits10
PUBLIC	?max_digits10@?$numeric_limits@_W@std@@2HB	; std::numeric_limits<wchar_t>::max_digits10
PUBLIC	?is_modulo@?$numeric_limits@_N@std@@2_NB	; std::numeric_limits<bool>::is_modulo
PUBLIC	?is_signed@?$numeric_limits@_N@std@@2_NB	; std::numeric_limits<bool>::is_signed
PUBLIC	?digits@?$numeric_limits@_N@std@@2HB		; std::numeric_limits<bool>::digits
PUBLIC	?digits10@?$numeric_limits@_N@std@@2HB		; std::numeric_limits<bool>::digits10
PUBLIC	?max_digits10@?$numeric_limits@_N@std@@2HB	; std::numeric_limits<bool>::max_digits10
PUBLIC	?is_signed@?$numeric_limits@C@std@@2_NB		; std::numeric_limits<signed char>::is_signed
PUBLIC	?digits@?$numeric_limits@C@std@@2HB		; std::numeric_limits<signed char>::digits
PUBLIC	?digits10@?$numeric_limits@C@std@@2HB		; std::numeric_limits<signed char>::digits10
PUBLIC	?max_digits10@?$numeric_limits@C@std@@2HB	; std::numeric_limits<signed char>::max_digits10
PUBLIC	?is_signed@?$numeric_limits@E@std@@2_NB		; std::numeric_limits<unsigned char>::is_signed
PUBLIC	?digits@?$numeric_limits@E@std@@2HB		; std::numeric_limits<unsigned char>::digits
PUBLIC	?digits10@?$numeric_limits@E@std@@2HB		; std::numeric_limits<unsigned char>::digits10
PUBLIC	?max_digits10@?$numeric_limits@E@std@@2HB	; std::numeric_limits<unsigned char>::max_digits10
PUBLIC	?is_signed@?$numeric_limits@F@std@@2_NB		; std::numeric_limits<short>::is_signed
PUBLIC	?digits@?$numeric_limits@F@std@@2HB		; std::numeric_limits<short>::digits
PUBLIC	?digits10@?$numeric_limits@F@std@@2HB		; std::numeric_limits<short>::digits10
PUBLIC	?max_digits10@?$numeric_limits@F@std@@2HB	; std::numeric_limits<short>::max_digits10
PUBLIC	?is_signed@?$numeric_limits@G@std@@2_NB		; std::numeric_limits<unsigned short>::is_signed
PUBLIC	?digits@?$numeric_limits@G@std@@2HB		; std::numeric_limits<unsigned short>::digits
PUBLIC	?digits10@?$numeric_limits@G@std@@2HB		; std::numeric_limits<unsigned short>::digits10
PUBLIC	?max_digits10@?$numeric_limits@G@std@@2HB	; std::numeric_limits<unsigned short>::max_digits10
PUBLIC	?is_signed@?$numeric_limits@H@std@@2_NB		; std::numeric_limits<int>::is_signed
PUBLIC	?digits@?$numeric_limits@H@std@@2HB		; std::numeric_limits<int>::digits
PUBLIC	?digits10@?$numeric_limits@H@std@@2HB		; std::numeric_limits<int>::digits10
PUBLIC	?max_digits10@?$numeric_limits@H@std@@2HB	; std::numeric_limits<int>::max_digits10
PUBLIC	?is_signed@?$numeric_limits@I@std@@2_NB		; std::numeric_limits<unsigned int>::is_signed
PUBLIC	?digits@?$numeric_limits@I@std@@2HB		; std::numeric_limits<unsigned int>::digits
PUBLIC	?digits10@?$numeric_limits@I@std@@2HB		; std::numeric_limits<unsigned int>::digits10
PUBLIC	?max_digits10@?$numeric_limits@I@std@@2HB	; std::numeric_limits<unsigned int>::max_digits10
PUBLIC	?is_signed@?$numeric_limits@J@std@@2_NB		; std::numeric_limits<long>::is_signed
PUBLIC	?digits@?$numeric_limits@J@std@@2HB		; std::numeric_limits<long>::digits
PUBLIC	?digits10@?$numeric_limits@J@std@@2HB		; std::numeric_limits<long>::digits10
PUBLIC	?max_digits10@?$numeric_limits@J@std@@2HB	; std::numeric_limits<long>::max_digits10
PUBLIC	?is_signed@?$numeric_limits@K@std@@2_NB		; std::numeric_limits<unsigned long>::is_signed
PUBLIC	?digits@?$numeric_limits@K@std@@2HB		; std::numeric_limits<unsigned long>::digits
PUBLIC	?digits10@?$numeric_limits@K@std@@2HB		; std::numeric_limits<unsigned long>::digits10
PUBLIC	?max_digits10@?$numeric_limits@K@std@@2HB	; std::numeric_limits<unsigned long>::max_digits10
PUBLIC	?is_signed@?$numeric_limits@_J@std@@2_NB	; std::numeric_limits<__int64>::is_signed
PUBLIC	?digits@?$numeric_limits@_J@std@@2HB		; std::numeric_limits<__int64>::digits
PUBLIC	?digits10@?$numeric_limits@_J@std@@2HB		; std::numeric_limits<__int64>::digits10
PUBLIC	?max_digits10@?$numeric_limits@_J@std@@2HB	; std::numeric_limits<__int64>::max_digits10
PUBLIC	?is_signed@?$numeric_limits@_K@std@@2_NB	; std::numeric_limits<unsigned __int64>::is_signed
PUBLIC	?digits@?$numeric_limits@_K@std@@2HB		; std::numeric_limits<unsigned __int64>::digits
PUBLIC	?digits10@?$numeric_limits@_K@std@@2HB		; std::numeric_limits<unsigned __int64>::digits10
PUBLIC	?max_digits10@?$numeric_limits@_K@std@@2HB	; std::numeric_limits<unsigned __int64>::max_digits10
PUBLIC	?digits@?$numeric_limits@M@std@@2HB		; std::numeric_limits<float>::digits
PUBLIC	?digits10@?$numeric_limits@M@std@@2HB		; std::numeric_limits<float>::digits10
PUBLIC	?max_digits10@?$numeric_limits@M@std@@2HB	; std::numeric_limits<float>::max_digits10
PUBLIC	?max_exponent@?$numeric_limits@M@std@@2HB	; std::numeric_limits<float>::max_exponent
PUBLIC	?max_exponent10@?$numeric_limits@M@std@@2HB	; std::numeric_limits<float>::max_exponent10
PUBLIC	?min_exponent@?$numeric_limits@M@std@@2HB	; std::numeric_limits<float>::min_exponent
PUBLIC	?min_exponent10@?$numeric_limits@M@std@@2HB	; std::numeric_limits<float>::min_exponent10
PUBLIC	?digits@?$numeric_limits@N@std@@2HB		; std::numeric_limits<double>::digits
PUBLIC	?digits10@?$numeric_limits@N@std@@2HB		; std::numeric_limits<double>::digits10
PUBLIC	?max_digits10@?$numeric_limits@N@std@@2HB	; std::numeric_limits<double>::max_digits10
PUBLIC	?max_exponent@?$numeric_limits@N@std@@2HB	; std::numeric_limits<double>::max_exponent
PUBLIC	?max_exponent10@?$numeric_limits@N@std@@2HB	; std::numeric_limits<double>::max_exponent10
PUBLIC	?min_exponent@?$numeric_limits@N@std@@2HB	; std::numeric_limits<double>::min_exponent
PUBLIC	?min_exponent10@?$numeric_limits@N@std@@2HB	; std::numeric_limits<double>::min_exponent10
PUBLIC	?digits@?$numeric_limits@O@std@@2HB		; std::numeric_limits<long double>::digits
PUBLIC	?digits10@?$numeric_limits@O@std@@2HB		; std::numeric_limits<long double>::digits10
PUBLIC	?max_digits10@?$numeric_limits@O@std@@2HB	; std::numeric_limits<long double>::max_digits10
PUBLIC	?max_exponent@?$numeric_limits@O@std@@2HB	; std::numeric_limits<long double>::max_exponent
PUBLIC	?max_exponent10@?$numeric_limits@O@std@@2HB	; std::numeric_limits<long double>::max_exponent10
PUBLIC	?min_exponent@?$numeric_limits@O@std@@2HB	; std::numeric_limits<long double>::min_exponent
PUBLIC	?min_exponent10@?$numeric_limits@O@std@@2HB	; std::numeric_limits<long double>::min_exponent10
PUBLIC	?value@?$integral_constant@_N$0A@@tr1@std@@2_NB	; std::tr1::integral_constant<bool,0>::value
PUBLIC	?value@?$integral_constant@_N$00@tr1@std@@2_NB	; std::tr1::integral_constant<bool,1>::value
PUBLIC	?value@?$integral_constant@I$0A@@tr1@std@@2IB	; std::tr1::integral_constant<unsigned int,0>::value
PUBLIC	?_Rank@?$_Arithmetic_traits@_N@std@@2HB		; std::_Arithmetic_traits<bool>::_Rank
PUBLIC	?_Rank@?$_Arithmetic_traits@D@std@@2HB		; std::_Arithmetic_traits<char>::_Rank
PUBLIC	?_Rank@?$_Arithmetic_traits@C@std@@2HB		; std::_Arithmetic_traits<signed char>::_Rank
PUBLIC	?_Rank@?$_Arithmetic_traits@E@std@@2HB		; std::_Arithmetic_traits<unsigned char>::_Rank
PUBLIC	?_Rank@?$_Arithmetic_traits@F@std@@2HB		; std::_Arithmetic_traits<short>::_Rank
PUBLIC	?_Rank@?$_Arithmetic_traits@G@std@@2HB		; std::_Arithmetic_traits<unsigned short>::_Rank
PUBLIC	?_Rank@?$_Arithmetic_traits@H@std@@2HB		; std::_Arithmetic_traits<int>::_Rank
PUBLIC	?_Rank@?$_Arithmetic_traits@I@std@@2HB		; std::_Arithmetic_traits<unsigned int>::_Rank
PUBLIC	?_Rank@?$_Arithmetic_traits@J@std@@2HB		; std::_Arithmetic_traits<long>::_Rank
PUBLIC	?_Rank@?$_Arithmetic_traits@K@std@@2HB		; std::_Arithmetic_traits<unsigned long>::_Rank
PUBLIC	?_Rank@?$_Arithmetic_traits@_J@std@@2HB		; std::_Arithmetic_traits<__int64>::_Rank
PUBLIC	?_Rank@?$_Arithmetic_traits@_K@std@@2HB		; std::_Arithmetic_traits<unsigned __int64>::_Rank
PUBLIC	?_Rank@?$_Arithmetic_traits@M@std@@2HB		; std::_Arithmetic_traits<float>::_Rank
PUBLIC	?_Rank@?$_Arithmetic_traits@N@std@@2HB		; std::_Arithmetic_traits<double>::_Rank
PUBLIC	?_Rank@?$_Arithmetic_traits@O@std@@2HB		; std::_Arithmetic_traits<long double>::_Rank
EXTRN	?GetThisMessageMap@CWinApp@@KGPBUAFX_MSGMAP@@XZ:PROC ; CWinApp::GetThisMessageMap
EXTRN	?OnHelp@CWinApp@@IAEXXZ:PROC			; CWinApp::OnHelp
CONST	SEGMENT
?_messageEntries@?1??GetThisMessageMap@CDviceCtrlDlgApp@@KGPBUAFX_MSGMAP@@XZ@4QBUAFX_MSGMAP_ENTRY@@B DD 0111H ; `CDviceCtrlDlgApp::GetThisMessageMap'::`2'::_messageEntries
	DD	00H
	DD	0e146H
	DD	0e146H
	DD	039H
	DD	FLAT:?OnHelp@CWinApp@@IAEXXZ
	DD	00H
	DD	00H
	DD	00H
	DD	00H
	DD	00H
	DD	00H
?messageMap@?1??GetThisMessageMap@CDviceCtrlDlgApp@@KGPBUAFX_MSGMAP@@XZ@4U3@B DD FLAT:?GetThisMessageMap@CWinApp@@KGPBUAFX_MSGMAP@@XZ ; `CDviceCtrlDlgApp::GetThisMessageMap'::`2'::messageMap
	DD	FLAT:?_messageEntries@?1??GetThisMessageMap@CDviceCtrlDlgApp@@KGPBUAFX_MSGMAP@@XZ@4QBUAFX_MSGMAP_ENTRY@@B
CONST	ENDS
;	COMDAT ?_Rank@?$_Arithmetic_traits@O@std@@2HB
CONST	SEGMENT
?_Rank@?$_Arithmetic_traits@O@std@@2HB DD 09H		; std::_Arithmetic_traits<long double>::_Rank
CONST	ENDS
;	COMDAT ?_Rank@?$_Arithmetic_traits@N@std@@2HB
CONST	SEGMENT
?_Rank@?$_Arithmetic_traits@N@std@@2HB DD 08H		; std::_Arithmetic_traits<double>::_Rank
CONST	ENDS
;	COMDAT ?_Rank@?$_Arithmetic_traits@M@std@@2HB
CONST	SEGMENT
?_Rank@?$_Arithmetic_traits@M@std@@2HB DD 07H		; std::_Arithmetic_traits<float>::_Rank
CONST	ENDS
;	COMDAT ?_Rank@?$_Arithmetic_traits@_K@std@@2HB
CONST	SEGMENT
?_Rank@?$_Arithmetic_traits@_K@std@@2HB DD 06H		; std::_Arithmetic_traits<unsigned __int64>::_Rank
CONST	ENDS
;	COMDAT ?_Rank@?$_Arithmetic_traits@_J@std@@2HB
CONST	SEGMENT
?_Rank@?$_Arithmetic_traits@_J@std@@2HB DD 06H		; std::_Arithmetic_traits<__int64>::_Rank
CONST	ENDS
;	COMDAT ?_Rank@?$_Arithmetic_traits@K@std@@2HB
CONST	SEGMENT
?_Rank@?$_Arithmetic_traits@K@std@@2HB DD 05H		; std::_Arithmetic_traits<unsigned long>::_Rank
CONST	ENDS
;	COMDAT ?_Rank@?$_Arithmetic_traits@J@std@@2HB
CONST	SEGMENT
?_Rank@?$_Arithmetic_traits@J@std@@2HB DD 05H		; std::_Arithmetic_traits<long>::_Rank
CONST	ENDS
;	COMDAT ?_Rank@?$_Arithmetic_traits@I@std@@2HB
CONST	SEGMENT
?_Rank@?$_Arithmetic_traits@I@std@@2HB DD 04H		; std::_Arithmetic_traits<unsigned int>::_Rank
CONST	ENDS
;	COMDAT ?_Rank@?$_Arithmetic_traits@H@std@@2HB
CONST	SEGMENT
?_Rank@?$_Arithmetic_traits@H@std@@2HB DD 04H		; std::_Arithmetic_traits<int>::_Rank
CONST	ENDS
;	COMDAT ?_Rank@?$_Arithmetic_traits@G@std@@2HB
CONST	SEGMENT
?_Rank@?$_Arithmetic_traits@G@std@@2HB DD 03H		; std::_Arithmetic_traits<unsigned short>::_Rank
CONST	ENDS
;	COMDAT ?_Rank@?$_Arithmetic_traits@F@std@@2HB
CONST	SEGMENT
?_Rank@?$_Arithmetic_traits@F@std@@2HB DD 03H		; std::_Arithmetic_traits<short>::_Rank
CONST	ENDS
;	COMDAT ?_Rank@?$_Arithmetic_traits@E@std@@2HB
CONST	SEGMENT
?_Rank@?$_Arithmetic_traits@E@std@@2HB DD 02H		; std::_Arithmetic_traits<unsigned char>::_Rank
CONST	ENDS
;	COMDAT ?_Rank@?$_Arithmetic_traits@C@std@@2HB
CONST	SEGMENT
?_Rank@?$_Arithmetic_traits@C@std@@2HB DD 02H		; std::_Arithmetic_traits<signed char>::_Rank
CONST	ENDS
;	COMDAT ?_Rank@?$_Arithmetic_traits@D@std@@2HB
CONST	SEGMENT
?_Rank@?$_Arithmetic_traits@D@std@@2HB DD 02H		; std::_Arithmetic_traits<char>::_Rank
CONST	ENDS
;	COMDAT ?_Rank@?$_Arithmetic_traits@_N@std@@2HB
CONST	SEGMENT
?_Rank@?$_Arithmetic_traits@_N@std@@2HB DD 01H		; std::_Arithmetic_traits<bool>::_Rank
CONST	ENDS
;	COMDAT ?value@?$integral_constant@I$0A@@tr1@std@@2IB
CONST	SEGMENT
?value@?$integral_constant@I$0A@@tr1@std@@2IB DD 00H	; std::tr1::integral_constant<unsigned int,0>::value
CONST	ENDS
;	COMDAT ?value@?$integral_constant@_N$00@tr1@std@@2_NB
CONST	SEGMENT
?value@?$integral_constant@_N$00@tr1@std@@2_NB DB 01H	; std::tr1::integral_constant<bool,1>::value
CONST	ENDS
;	COMDAT ?value@?$integral_constant@_N$0A@@tr1@std@@2_NB
CONST	SEGMENT
?value@?$integral_constant@_N$0A@@tr1@std@@2_NB DB 00H	; std::tr1::integral_constant<bool,0>::value
CONST	ENDS
;	COMDAT ?min_exponent10@?$numeric_limits@O@std@@2HB
CONST	SEGMENT
?min_exponent10@?$numeric_limits@O@std@@2HB DD 0fffffecdH ; std::numeric_limits<long double>::min_exponent10
CONST	ENDS
;	COMDAT ?min_exponent@?$numeric_limits@O@std@@2HB
CONST	SEGMENT
?min_exponent@?$numeric_limits@O@std@@2HB DD 0fffffc03H	; std::numeric_limits<long double>::min_exponent
CONST	ENDS
;	COMDAT ?max_exponent10@?$numeric_limits@O@std@@2HB
CONST	SEGMENT
?max_exponent10@?$numeric_limits@O@std@@2HB DD 0134H	; std::numeric_limits<long double>::max_exponent10
CONST	ENDS
;	COMDAT ?max_exponent@?$numeric_limits@O@std@@2HB
CONST	SEGMENT
?max_exponent@?$numeric_limits@O@std@@2HB DD 0400H	; std::numeric_limits<long double>::max_exponent
CONST	ENDS
;	COMDAT ?max_digits10@?$numeric_limits@O@std@@2HB
CONST	SEGMENT
?max_digits10@?$numeric_limits@O@std@@2HB DD 011H	; std::numeric_limits<long double>::max_digits10
CONST	ENDS
;	COMDAT ?digits10@?$numeric_limits@O@std@@2HB
CONST	SEGMENT
?digits10@?$numeric_limits@O@std@@2HB DD 0fH		; std::numeric_limits<long double>::digits10
CONST	ENDS
;	COMDAT ?digits@?$numeric_limits@O@std@@2HB
CONST	SEGMENT
?digits@?$numeric_limits@O@std@@2HB DD 035H		; std::numeric_limits<long double>::digits
CONST	ENDS
;	COMDAT ?min_exponent10@?$numeric_limits@N@std@@2HB
CONST	SEGMENT
?min_exponent10@?$numeric_limits@N@std@@2HB DD 0fffffecdH ; std::numeric_limits<double>::min_exponent10
CONST	ENDS
;	COMDAT ?min_exponent@?$numeric_limits@N@std@@2HB
CONST	SEGMENT
?min_exponent@?$numeric_limits@N@std@@2HB DD 0fffffc03H	; std::numeric_limits<double>::min_exponent
CONST	ENDS
;	COMDAT ?max_exponent10@?$numeric_limits@N@std@@2HB
CONST	SEGMENT
?max_exponent10@?$numeric_limits@N@std@@2HB DD 0134H	; std::numeric_limits<double>::max_exponent10
CONST	ENDS
;	COMDAT ?max_exponent@?$numeric_limits@N@std@@2HB
CONST	SEGMENT
?max_exponent@?$numeric_limits@N@std@@2HB DD 0400H	; std::numeric_limits<double>::max_exponent
CONST	ENDS
;	COMDAT ?max_digits10@?$numeric_limits@N@std@@2HB
CONST	SEGMENT
?max_digits10@?$numeric_limits@N@std@@2HB DD 011H	; std::numeric_limits<double>::max_digits10
CONST	ENDS
;	COMDAT ?digits10@?$numeric_limits@N@std@@2HB
CONST	SEGMENT
?digits10@?$numeric_limits@N@std@@2HB DD 0fH		; std::numeric_limits<double>::digits10
CONST	ENDS
;	COMDAT ?digits@?$numeric_limits@N@std@@2HB
CONST	SEGMENT
?digits@?$numeric_limits@N@std@@2HB DD 035H		; std::numeric_limits<double>::digits
CONST	ENDS
;	COMDAT ?min_exponent10@?$numeric_limits@M@std@@2HB
CONST	SEGMENT
?min_exponent10@?$numeric_limits@M@std@@2HB DD 0ffffffdbH ; std::numeric_limits<float>::min_exponent10
CONST	ENDS
;	COMDAT ?min_exponent@?$numeric_limits@M@std@@2HB
CONST	SEGMENT
?min_exponent@?$numeric_limits@M@std@@2HB DD 0ffffff83H	; std::numeric_limits<float>::min_exponent
CONST	ENDS
;	COMDAT ?max_exponent10@?$numeric_limits@M@std@@2HB
CONST	SEGMENT
?max_exponent10@?$numeric_limits@M@std@@2HB DD 026H	; std::numeric_limits<float>::max_exponent10
CONST	ENDS
;	COMDAT ?max_exponent@?$numeric_limits@M@std@@2HB
CONST	SEGMENT
?max_exponent@?$numeric_limits@M@std@@2HB DD 080H	; std::numeric_limits<float>::max_exponent
CONST	ENDS
;	COMDAT ?max_digits10@?$numeric_limits@M@std@@2HB
CONST	SEGMENT
?max_digits10@?$numeric_limits@M@std@@2HB DD 08H	; std::numeric_limits<float>::max_digits10
CONST	ENDS
;	COMDAT ?digits10@?$numeric_limits@M@std@@2HB
CONST	SEGMENT
?digits10@?$numeric_limits@M@std@@2HB DD 06H		; std::numeric_limits<float>::digits10
CONST	ENDS
;	COMDAT ?digits@?$numeric_limits@M@std@@2HB
CONST	SEGMENT
?digits@?$numeric_limits@M@std@@2HB DD 018H		; std::numeric_limits<float>::digits
CONST	ENDS
;	COMDAT ?max_digits10@?$numeric_limits@_K@std@@2HB
CONST	SEGMENT
?max_digits10@?$numeric_limits@_K@std@@2HB DD 015H	; std::numeric_limits<unsigned __int64>::max_digits10
CONST	ENDS
;	COMDAT ?digits10@?$numeric_limits@_K@std@@2HB
CONST	SEGMENT
?digits10@?$numeric_limits@_K@std@@2HB DD 013H		; std::numeric_limits<unsigned __int64>::digits10
CONST	ENDS
;	COMDAT ?digits@?$numeric_limits@_K@std@@2HB
CONST	SEGMENT
?digits@?$numeric_limits@_K@std@@2HB DD 040H		; std::numeric_limits<unsigned __int64>::digits
CONST	ENDS
;	COMDAT ?is_signed@?$numeric_limits@_K@std@@2_NB
CONST	SEGMENT
?is_signed@?$numeric_limits@_K@std@@2_NB DB 00H		; std::numeric_limits<unsigned __int64>::is_signed
CONST	ENDS
;	COMDAT ?max_digits10@?$numeric_limits@_J@std@@2HB
CONST	SEGMENT
?max_digits10@?$numeric_limits@_J@std@@2HB DD 014H	; std::numeric_limits<__int64>::max_digits10
CONST	ENDS
;	COMDAT ?digits10@?$numeric_limits@_J@std@@2HB
CONST	SEGMENT
?digits10@?$numeric_limits@_J@std@@2HB DD 012H		; std::numeric_limits<__int64>::digits10
CONST	ENDS
;	COMDAT ?digits@?$numeric_limits@_J@std@@2HB
CONST	SEGMENT
?digits@?$numeric_limits@_J@std@@2HB DD 03fH		; std::numeric_limits<__int64>::digits
CONST	ENDS
;	COMDAT ?is_signed@?$numeric_limits@_J@std@@2_NB
CONST	SEGMENT
?is_signed@?$numeric_limits@_J@std@@2_NB DB 01H		; std::numeric_limits<__int64>::is_signed
CONST	ENDS
;	COMDAT ?max_digits10@?$numeric_limits@K@std@@2HB
CONST	SEGMENT
?max_digits10@?$numeric_limits@K@std@@2HB DD 0bH	; std::numeric_limits<unsigned long>::max_digits10
CONST	ENDS
;	COMDAT ?digits10@?$numeric_limits@K@std@@2HB
CONST	SEGMENT
?digits10@?$numeric_limits@K@std@@2HB DD 09H		; std::numeric_limits<unsigned long>::digits10
CONST	ENDS
;	COMDAT ?digits@?$numeric_limits@K@std@@2HB
CONST	SEGMENT
?digits@?$numeric_limits@K@std@@2HB DD 020H		; std::numeric_limits<unsigned long>::digits
CONST	ENDS
;	COMDAT ?is_signed@?$numeric_limits@K@std@@2_NB
CONST	SEGMENT
?is_signed@?$numeric_limits@K@std@@2_NB DB 00H		; std::numeric_limits<unsigned long>::is_signed
CONST	ENDS
;	COMDAT ?max_digits10@?$numeric_limits@J@std@@2HB
CONST	SEGMENT
?max_digits10@?$numeric_limits@J@std@@2HB DD 0bH	; std::numeric_limits<long>::max_digits10
CONST	ENDS
;	COMDAT ?digits10@?$numeric_limits@J@std@@2HB
CONST	SEGMENT
?digits10@?$numeric_limits@J@std@@2HB DD 09H		; std::numeric_limits<long>::digits10
CONST	ENDS
;	COMDAT ?digits@?$numeric_limits@J@std@@2HB
CONST	SEGMENT
?digits@?$numeric_limits@J@std@@2HB DD 01fH		; std::numeric_limits<long>::digits
CONST	ENDS
;	COMDAT ?is_signed@?$numeric_limits@J@std@@2_NB
CONST	SEGMENT
?is_signed@?$numeric_limits@J@std@@2_NB DB 01H		; std::numeric_limits<long>::is_signed
CONST	ENDS
;	COMDAT ?max_digits10@?$numeric_limits@I@std@@2HB
CONST	SEGMENT
?max_digits10@?$numeric_limits@I@std@@2HB DD 0bH	; std::numeric_limits<unsigned int>::max_digits10
CONST	ENDS
;	COMDAT ?digits10@?$numeric_limits@I@std@@2HB
CONST	SEGMENT
?digits10@?$numeric_limits@I@std@@2HB DD 09H		; std::numeric_limits<unsigned int>::digits10
CONST	ENDS
;	COMDAT ?digits@?$numeric_limits@I@std@@2HB
CONST	SEGMENT
?digits@?$numeric_limits@I@std@@2HB DD 020H		; std::numeric_limits<unsigned int>::digits
CONST	ENDS
;	COMDAT ?is_signed@?$numeric_limits@I@std@@2_NB
CONST	SEGMENT
?is_signed@?$numeric_limits@I@std@@2_NB DB 00H		; std::numeric_limits<unsigned int>::is_signed
CONST	ENDS
;	COMDAT ?max_digits10@?$numeric_limits@H@std@@2HB
CONST	SEGMENT
?max_digits10@?$numeric_limits@H@std@@2HB DD 0bH	; std::numeric_limits<int>::max_digits10
CONST	ENDS
;	COMDAT ?digits10@?$numeric_limits@H@std@@2HB
CONST	SEGMENT
?digits10@?$numeric_limits@H@std@@2HB DD 09H		; std::numeric_limits<int>::digits10
CONST	ENDS
;	COMDAT ?digits@?$numeric_limits@H@std@@2HB
CONST	SEGMENT
?digits@?$numeric_limits@H@std@@2HB DD 01fH		; std::numeric_limits<int>::digits
CONST	ENDS
;	COMDAT ?is_signed@?$numeric_limits@H@std@@2_NB
CONST	SEGMENT
?is_signed@?$numeric_limits@H@std@@2_NB DB 01H		; std::numeric_limits<int>::is_signed
CONST	ENDS
;	COMDAT ?max_digits10@?$numeric_limits@G@std@@2HB
CONST	SEGMENT
?max_digits10@?$numeric_limits@G@std@@2HB DD 06H	; std::numeric_limits<unsigned short>::max_digits10
CONST	ENDS
;	COMDAT ?digits10@?$numeric_limits@G@std@@2HB
CONST	SEGMENT
?digits10@?$numeric_limits@G@std@@2HB DD 04H		; std::numeric_limits<unsigned short>::digits10
CONST	ENDS
;	COMDAT ?digits@?$numeric_limits@G@std@@2HB
CONST	SEGMENT
?digits@?$numeric_limits@G@std@@2HB DD 010H		; std::numeric_limits<unsigned short>::digits
CONST	ENDS
;	COMDAT ?is_signed@?$numeric_limits@G@std@@2_NB
CONST	SEGMENT
?is_signed@?$numeric_limits@G@std@@2_NB DB 00H		; std::numeric_limits<unsigned short>::is_signed
CONST	ENDS
;	COMDAT ?max_digits10@?$numeric_limits@F@std@@2HB
CONST	SEGMENT
?max_digits10@?$numeric_limits@F@std@@2HB DD 06H	; std::numeric_limits<short>::max_digits10
CONST	ENDS
;	COMDAT ?digits10@?$numeric_limits@F@std@@2HB
CONST	SEGMENT
?digits10@?$numeric_limits@F@std@@2HB DD 04H		; std::numeric_limits<short>::digits10
CONST	ENDS
;	COMDAT ?digits@?$numeric_limits@F@std@@2HB
CONST	SEGMENT
?digits@?$numeric_limits@F@std@@2HB DD 0fH		; std::numeric_limits<short>::digits
CONST	ENDS
;	COMDAT ?is_signed@?$numeric_limits@F@std@@2_NB
CONST	SEGMENT
?is_signed@?$numeric_limits@F@std@@2_NB DB 01H		; std::numeric_limits<short>::is_signed
CONST	ENDS
;	COMDAT ?max_digits10@?$numeric_limits@E@std@@2HB
CONST	SEGMENT
?max_digits10@?$numeric_limits@E@std@@2HB DD 04H	; std::numeric_limits<unsigned char>::max_digits10
CONST	ENDS
;	COMDAT ?digits10@?$numeric_limits@E@std@@2HB
CONST	SEGMENT
?digits10@?$numeric_limits@E@std@@2HB DD 02H		; std::numeric_limits<unsigned char>::digits10
CONST	ENDS
;	COMDAT ?digits@?$numeric_limits@E@std@@2HB
CONST	SEGMENT
?digits@?$numeric_limits@E@std@@2HB DD 08H		; std::numeric_limits<unsigned char>::digits
CONST	ENDS
;	COMDAT ?is_signed@?$numeric_limits@E@std@@2_NB
CONST	SEGMENT
?is_signed@?$numeric_limits@E@std@@2_NB DB 00H		; std::numeric_limits<unsigned char>::is_signed
CONST	ENDS
;	COMDAT ?max_digits10@?$numeric_limits@C@std@@2HB
CONST	SEGMENT
?max_digits10@?$numeric_limits@C@std@@2HB DD 04H	; std::numeric_limits<signed char>::max_digits10
CONST	ENDS
;	COMDAT ?digits10@?$numeric_limits@C@std@@2HB
CONST	SEGMENT
?digits10@?$numeric_limits@C@std@@2HB DD 02H		; std::numeric_limits<signed char>::digits10
CONST	ENDS
;	COMDAT ?digits@?$numeric_limits@C@std@@2HB
CONST	SEGMENT
?digits@?$numeric_limits@C@std@@2HB DD 07H		; std::numeric_limits<signed char>::digits
CONST	ENDS
;	COMDAT ?is_signed@?$numeric_limits@C@std@@2_NB
CONST	SEGMENT
?is_signed@?$numeric_limits@C@std@@2_NB DB 01H		; std::numeric_limits<signed char>::is_signed
CONST	ENDS
;	COMDAT ?max_digits10@?$numeric_limits@_N@std@@2HB
CONST	SEGMENT
?max_digits10@?$numeric_limits@_N@std@@2HB DD 00H	; std::numeric_limits<bool>::max_digits10
CONST	ENDS
;	COMDAT ?digits10@?$numeric_limits@_N@std@@2HB
CONST	SEGMENT
?digits10@?$numeric_limits@_N@std@@2HB DD 00H		; std::numeric_limits<bool>::digits10
CONST	ENDS
;	COMDAT ?digits@?$numeric_limits@_N@std@@2HB
CONST	SEGMENT
?digits@?$numeric_limits@_N@std@@2HB DD 01H		; std::numeric_limits<bool>::digits
CONST	ENDS
;	COMDAT ?is_signed@?$numeric_limits@_N@std@@2_NB
CONST	SEGMENT
?is_signed@?$numeric_limits@_N@std@@2_NB DB 00H		; std::numeric_limits<bool>::is_signed
CONST	ENDS
;	COMDAT ?is_modulo@?$numeric_limits@_N@std@@2_NB
CONST	SEGMENT
?is_modulo@?$numeric_limits@_N@std@@2_NB DB 00H		; std::numeric_limits<bool>::is_modulo
CONST	ENDS
;	COMDAT ?max_digits10@?$numeric_limits@_W@std@@2HB
CONST	SEGMENT
?max_digits10@?$numeric_limits@_W@std@@2HB DD 06H	; std::numeric_limits<wchar_t>::max_digits10
CONST	ENDS
;	COMDAT ?digits10@?$numeric_limits@_W@std@@2HB
CONST	SEGMENT
?digits10@?$numeric_limits@_W@std@@2HB DD 04H		; std::numeric_limits<wchar_t>::digits10
CONST	ENDS
;	COMDAT ?digits@?$numeric_limits@_W@std@@2HB
CONST	SEGMENT
?digits@?$numeric_limits@_W@std@@2HB DD 010H		; std::numeric_limits<wchar_t>::digits
CONST	ENDS
;	COMDAT ?is_signed@?$numeric_limits@_W@std@@2_NB
CONST	SEGMENT
?is_signed@?$numeric_limits@_W@std@@2_NB DB 00H		; std::numeric_limits<wchar_t>::is_signed
CONST	ENDS
;	COMDAT ?max_digits10@?$numeric_limits@D@std@@2HB
CONST	SEGMENT
?max_digits10@?$numeric_limits@D@std@@2HB DD 04H	; std::numeric_limits<char>::max_digits10
CONST	ENDS
;	COMDAT ?digits10@?$numeric_limits@D@std@@2HB
CONST	SEGMENT
?digits10@?$numeric_limits@D@std@@2HB DD 02H		; std::numeric_limits<char>::digits10
CONST	ENDS
;	COMDAT ?digits@?$numeric_limits@D@std@@2HB
CONST	SEGMENT
?digits@?$numeric_limits@D@std@@2HB DD 07H		; std::numeric_limits<char>::digits
CONST	ENDS
;	COMDAT ?is_signed@?$numeric_limits@D@std@@2_NB
CONST	SEGMENT
?is_signed@?$numeric_limits@D@std@@2_NB DB 01H		; std::numeric_limits<char>::is_signed
CONST	ENDS
;	COMDAT ?radix@_Num_float_base@std@@2HB
CONST	SEGMENT
?radix@_Num_float_base@std@@2HB DD 02H			; std::_Num_float_base::radix
CONST	ENDS
;	COMDAT ?round_style@_Num_float_base@std@@2W4float_round_style@2@B
CONST	SEGMENT
?round_style@_Num_float_base@std@@2W4float_round_style@2@B DD 01H ; std::_Num_float_base::round_style
CONST	ENDS
;	COMDAT ?traps@_Num_float_base@std@@2_NB
CONST	SEGMENT
?traps@_Num_float_base@std@@2_NB DB 01H			; std::_Num_float_base::traps
CONST	ENDS
;	COMDAT ?tinyness_before@_Num_float_base@std@@2_NB
CONST	SEGMENT
?tinyness_before@_Num_float_base@std@@2_NB DB 01H	; std::_Num_float_base::tinyness_before
CONST	ENDS
;	COMDAT ?is_specialized@_Num_float_base@std@@2_NB
CONST	SEGMENT
?is_specialized@_Num_float_base@std@@2_NB DB 01H	; std::_Num_float_base::is_specialized
CONST	ENDS
;	COMDAT ?is_signed@_Num_float_base@std@@2_NB
CONST	SEGMENT
?is_signed@_Num_float_base@std@@2_NB DB 01H		; std::_Num_float_base::is_signed
CONST	ENDS
;	COMDAT ?is_modulo@_Num_float_base@std@@2_NB
CONST	SEGMENT
?is_modulo@_Num_float_base@std@@2_NB DB 00H		; std::_Num_float_base::is_modulo
CONST	ENDS
;	COMDAT ?is_integer@_Num_float_base@std@@2_NB
CONST	SEGMENT
?is_integer@_Num_float_base@std@@2_NB DB 00H		; std::_Num_float_base::is_integer
CONST	ENDS
;	COMDAT ?is_iec559@_Num_float_base@std@@2_NB
CONST	SEGMENT
?is_iec559@_Num_float_base@std@@2_NB DB 01H		; std::_Num_float_base::is_iec559
CONST	ENDS
;	COMDAT ?is_exact@_Num_float_base@std@@2_NB
CONST	SEGMENT
?is_exact@_Num_float_base@std@@2_NB DB 00H		; std::_Num_float_base::is_exact
CONST	ENDS
;	COMDAT ?is_bounded@_Num_float_base@std@@2_NB
CONST	SEGMENT
?is_bounded@_Num_float_base@std@@2_NB DB 01H		; std::_Num_float_base::is_bounded
CONST	ENDS
;	COMDAT ?has_signaling_NaN@_Num_float_base@std@@2_NB
CONST	SEGMENT
?has_signaling_NaN@_Num_float_base@std@@2_NB DB 01H	; std::_Num_float_base::has_signaling_NaN
CONST	ENDS
;	COMDAT ?has_quiet_NaN@_Num_float_base@std@@2_NB
CONST	SEGMENT
?has_quiet_NaN@_Num_float_base@std@@2_NB DB 01H		; std::_Num_float_base::has_quiet_NaN
CONST	ENDS
;	COMDAT ?has_infinity@_Num_float_base@std@@2_NB
CONST	SEGMENT
?has_infinity@_Num_float_base@std@@2_NB DB 01H		; std::_Num_float_base::has_infinity
CONST	ENDS
;	COMDAT ?has_denorm_loss@_Num_float_base@std@@2_NB
CONST	SEGMENT
?has_denorm_loss@_Num_float_base@std@@2_NB DB 01H	; std::_Num_float_base::has_denorm_loss
CONST	ENDS
;	COMDAT ?has_denorm@_Num_float_base@std@@2W4float_denorm_style@2@B
CONST	SEGMENT
?has_denorm@_Num_float_base@std@@2W4float_denorm_style@2@B DD 01H ; std::_Num_float_base::has_denorm
CONST	ENDS
;	COMDAT ?radix@_Num_int_base@std@@2HB
CONST	SEGMENT
?radix@_Num_int_base@std@@2HB DD 02H			; std::_Num_int_base::radix
CONST	ENDS
;	COMDAT ?is_specialized@_Num_int_base@std@@2_NB
CONST	SEGMENT
?is_specialized@_Num_int_base@std@@2_NB DB 01H		; std::_Num_int_base::is_specialized
CONST	ENDS
;	COMDAT ?is_modulo@_Num_int_base@std@@2_NB
CONST	SEGMENT
?is_modulo@_Num_int_base@std@@2_NB DB 01H		; std::_Num_int_base::is_modulo
CONST	ENDS
;	COMDAT ?is_integer@_Num_int_base@std@@2_NB
CONST	SEGMENT
?is_integer@_Num_int_base@std@@2_NB DB 01H		; std::_Num_int_base::is_integer
CONST	ENDS
;	COMDAT ?is_exact@_Num_int_base@std@@2_NB
CONST	SEGMENT
?is_exact@_Num_int_base@std@@2_NB DB 01H		; std::_Num_int_base::is_exact
CONST	ENDS
;	COMDAT ?is_bounded@_Num_int_base@std@@2_NB
CONST	SEGMENT
?is_bounded@_Num_int_base@std@@2_NB DB 01H		; std::_Num_int_base::is_bounded
CONST	ENDS
;	COMDAT ?radix@_Num_base@std@@2HB
CONST	SEGMENT
?radix@_Num_base@std@@2HB DD 00H			; std::_Num_base::radix
CONST	ENDS
;	COMDAT ?min_exponent10@_Num_base@std@@2HB
CONST	SEGMENT
?min_exponent10@_Num_base@std@@2HB DD 00H		; std::_Num_base::min_exponent10
CONST	ENDS
;	COMDAT ?min_exponent@_Num_base@std@@2HB
CONST	SEGMENT
?min_exponent@_Num_base@std@@2HB DD 00H			; std::_Num_base::min_exponent
CONST	ENDS
;	COMDAT ?max_exponent10@_Num_base@std@@2HB
CONST	SEGMENT
?max_exponent10@_Num_base@std@@2HB DD 00H		; std::_Num_base::max_exponent10
CONST	ENDS
;	COMDAT ?max_exponent@_Num_base@std@@2HB
CONST	SEGMENT
?max_exponent@_Num_base@std@@2HB DD 00H			; std::_Num_base::max_exponent
CONST	ENDS
;	COMDAT ?max_digits10@_Num_base@std@@2HB
CONST	SEGMENT
?max_digits10@_Num_base@std@@2HB DD 00H			; std::_Num_base::max_digits10
CONST	ENDS
;	COMDAT ?digits10@_Num_base@std@@2HB
CONST	SEGMENT
?digits10@_Num_base@std@@2HB DD 00H			; std::_Num_base::digits10
CONST	ENDS
;	COMDAT ?digits@_Num_base@std@@2HB
CONST	SEGMENT
?digits@_Num_base@std@@2HB DD 00H			; std::_Num_base::digits
CONST	ENDS
;	COMDAT ?round_style@_Num_base@std@@2W4float_round_style@2@B
CONST	SEGMENT
?round_style@_Num_base@std@@2W4float_round_style@2@B DD 00H ; std::_Num_base::round_style
CONST	ENDS
;	COMDAT ?traps@_Num_base@std@@2_NB
CONST	SEGMENT
?traps@_Num_base@std@@2_NB DB 00H			; std::_Num_base::traps
CONST	ENDS
;	COMDAT ?tinyness_before@_Num_base@std@@2_NB
CONST	SEGMENT
?tinyness_before@_Num_base@std@@2_NB DB 00H		; std::_Num_base::tinyness_before
CONST	ENDS
;	COMDAT ?is_specialized@_Num_base@std@@2_NB
CONST	SEGMENT
?is_specialized@_Num_base@std@@2_NB DB 00H		; std::_Num_base::is_specialized
CONST	ENDS
;	COMDAT ?is_signed@_Num_base@std@@2_NB
CONST	SEGMENT
?is_signed@_Num_base@std@@2_NB DB 00H			; std::_Num_base::is_signed
CONST	ENDS
;	COMDAT ?is_modulo@_Num_base@std@@2_NB
CONST	SEGMENT
?is_modulo@_Num_base@std@@2_NB DB 00H			; std::_Num_base::is_modulo
CONST	ENDS
;	COMDAT ?is_integer@_Num_base@std@@2_NB
CONST	SEGMENT
?is_integer@_Num_base@std@@2_NB DB 00H			; std::_Num_base::is_integer
CONST	ENDS
;	COMDAT ?is_iec559@_Num_base@std@@2_NB
CONST	SEGMENT
?is_iec559@_Num_base@std@@2_NB DB 00H			; std::_Num_base::is_iec559
CONST	ENDS
;	COMDAT ?is_exact@_Num_base@std@@2_NB
CONST	SEGMENT
?is_exact@_Num_base@std@@2_NB DB 00H			; std::_Num_base::is_exact
CONST	ENDS
;	COMDAT ?is_bounded@_Num_base@std@@2_NB
CONST	SEGMENT
?is_bounded@_Num_base@std@@2_NB DB 00H			; std::_Num_base::is_bounded
CONST	ENDS
;	COMDAT ?has_signaling_NaN@_Num_base@std@@2_NB
CONST	SEGMENT
?has_signaling_NaN@_Num_base@std@@2_NB DB 00H		; std::_Num_base::has_signaling_NaN
CONST	ENDS
;	COMDAT ?has_quiet_NaN@_Num_base@std@@2_NB
CONST	SEGMENT
?has_quiet_NaN@_Num_base@std@@2_NB DB 00H		; std::_Num_base::has_quiet_NaN
CONST	ENDS
;	COMDAT ?has_infinity@_Num_base@std@@2_NB
CONST	SEGMENT
?has_infinity@_Num_base@std@@2_NB DB 00H		; std::_Num_base::has_infinity
CONST	ENDS
;	COMDAT ?has_denorm_loss@_Num_base@std@@2_NB
CONST	SEGMENT
?has_denorm_loss@_Num_base@std@@2_NB DB 00H		; std::_Num_base::has_denorm_loss
CONST	ENDS
;	COMDAT ?has_denorm@_Num_base@std@@2W4float_denorm_style@2@B
CONST	SEGMENT
?has_denorm@_Num_base@std@@2W4float_denorm_style@2@B DD 00H ; std::_Num_base::has_denorm
CONST	ENDS
PUBLIC	?GetThisMessageMap@CDviceCtrlDlgApp@@KGPBUAFX_MSGMAP@@XZ ; CDviceCtrlDlgApp::GetThisMessageMap
PUBLIC	?GetMessageMap@CDviceCtrlDlgApp@@MBEPBUAFX_MSGMAP@@XZ ; CDviceCtrlDlgApp::GetMessageMap
EXTRN	__RTC_CheckEsp:PROC
EXTRN	__RTC_Shutdown:PROC
EXTRN	__RTC_InitBase:PROC
;	COMDAT rtc$TMZ
; File e:\cz\vs\dvicectrldlg_new_signal_1\dvicectrldlg.cpp
rtc$TMZ	SEGMENT
__RTC_Shutdown.rtc$TMZ DD FLAT:__RTC_Shutdown
rtc$TMZ	ENDS
;	COMDAT rtc$IMZ
rtc$IMZ	SEGMENT
__RTC_InitBase.rtc$IMZ DD FLAT:__RTC_InitBase
; Function compile flags: /Odtp /RTCsu /ZI
rtc$IMZ	ENDS
;	COMDAT ?GetMessageMap@CDviceCtrlDlgApp@@MBEPBUAFX_MSGMAP@@XZ
_TEXT	SEGMENT
_this$ = -8						; size = 4
?GetMessageMap@CDviceCtrlDlgApp@@MBEPBUAFX_MSGMAP@@XZ PROC ; CDviceCtrlDlgApp::GetMessageMap, COMDAT
; _this$ = ecx

  00000	55		 push	 ebp
  00001	8b ec		 mov	 ebp, esp
  00003	81 ec cc 00 00
	00		 sub	 esp, 204		; 000000ccH
  00009	53		 push	 ebx
  0000a	56		 push	 esi
  0000b	57		 push	 edi
  0000c	51		 push	 ecx
  0000d	8d bd 34 ff ff
	ff		 lea	 edi, DWORD PTR [ebp-204]
  00013	b9 33 00 00 00	 mov	 ecx, 51			; 00000033H
  00018	b8 cc cc cc cc	 mov	 eax, -858993460		; ccccccccH
  0001d	f3 ab		 rep stosd
  0001f	59		 pop	 ecx
  00020	89 4d f8	 mov	 DWORD PTR _this$[ebp], ecx
  00023	e8 00 00 00 00	 call	 ?GetThisMessageMap@CDviceCtrlDlgApp@@KGPBUAFX_MSGMAP@@XZ ; CDviceCtrlDlgApp::GetThisMessageMap
  00028	5f		 pop	 edi
  00029	5e		 pop	 esi
  0002a	5b		 pop	 ebx
  0002b	81 c4 cc 00 00
	00		 add	 esp, 204		; 000000ccH
  00031	3b ec		 cmp	 ebp, esp
  00033	e8 00 00 00 00	 call	 __RTC_CheckEsp
  00038	8b e5		 mov	 esp, ebp
  0003a	5d		 pop	 ebp
  0003b	c3		 ret	 0
?GetMessageMap@CDviceCtrlDlgApp@@MBEPBUAFX_MSGMAP@@XZ ENDP ; CDviceCtrlDlgApp::GetMessageMap
; Function compile flags: /Odtp /RTCsu /ZI
_TEXT	ENDS
;	COMDAT ?GetThisMessageMap@CDviceCtrlDlgApp@@KGPBUAFX_MSGMAP@@XZ
_TEXT	SEGMENT
?GetThisMessageMap@CDviceCtrlDlgApp@@KGPBUAFX_MSGMAP@@XZ PROC ; CDviceCtrlDlgApp::GetThisMessageMap, COMDAT

  00000	55		 push	 ebp
  00001	8b ec		 mov	 ebp, esp
  00003	81 ec c0 00 00
	00		 sub	 esp, 192		; 000000c0H
  00009	53		 push	 ebx
  0000a	56		 push	 esi
  0000b	57		 push	 edi
  0000c	8d bd 40 ff ff
	ff		 lea	 edi, DWORD PTR [ebp-192]
  00012	b9 30 00 00 00	 mov	 ecx, 48			; 00000030H
  00017	b8 cc cc cc cc	 mov	 eax, -858993460		; ccccccccH
  0001c	f3 ab		 rep stosd

  0001e	b8 00 00 00 00	 mov	 eax, OFFSET ?messageMap@?1??GetThisMessageMap@CDviceCtrlDlgApp@@KGPBUAFX_MSGMAP@@XZ@4U3@B
  00023	5f		 pop	 edi
  00024	5e		 pop	 esi
  00025	5b		 pop	 ebx
  00026	8b e5		 mov	 esp, ebp
  00028	5d		 pop	 ebp
  00029	c3		 ret	 0
?GetThisMessageMap@CDviceCtrlDlgApp@@KGPBUAFX_MSGMAP@@XZ ENDP ; CDviceCtrlDlgApp::GetThisMessageMap
_TEXT	ENDS
PUBLIC	??_7CDviceCtrlDlgApp@@6B@			; CDviceCtrlDlgApp::`vftable'
PUBLIC	??0CDviceCtrlDlgApp@@QAE@XZ			; CDviceCtrlDlgApp::CDviceCtrlDlgApp
PUBLIC	??_R4CDviceCtrlDlgApp@@6B@			; CDviceCtrlDlgApp::`RTTI Complete Object Locator'
PUBLIC	??_R0?AVCDviceCtrlDlgApp@@@8			; CDviceCtrlDlgApp `RTTI Type Descriptor'
PUBLIC	??_R3CDviceCtrlDlgApp@@8			; CDviceCtrlDlgApp::`RTTI Class Hierarchy Descriptor'
PUBLIC	??_R2CDviceCtrlDlgApp@@8			; CDviceCtrlDlgApp::`RTTI Base Class Array'
PUBLIC	??_R1A@?0A@EA@CDviceCtrlDlgApp@@8		; CDviceCtrlDlgApp::`RTTI Base Class Descriptor at (0,-1,0,64)'
PUBLIC	??_R1A@?0A@EA@CWinAppEx@@8			; CWinAppEx::`RTTI Base Class Descriptor at (0,-1,0,64)'
PUBLIC	??_R0?AVCWinAppEx@@@8				; CWinAppEx `RTTI Type Descriptor'
PUBLIC	??_R3CWinAppEx@@8				; CWinAppEx::`RTTI Class Hierarchy Descriptor'
PUBLIC	??_R2CWinAppEx@@8				; CWinAppEx::`RTTI Base Class Array'
PUBLIC	??_R1A@?0A@EA@CWinApp@@8			; CWinApp::`RTTI Base Class Descriptor at (0,-1,0,64)'
PUBLIC	??_R0?AVCWinApp@@@8				; CWinApp `RTTI Type Descriptor'
PUBLIC	??_R3CWinApp@@8					; CWinApp::`RTTI Class Hierarchy Descriptor'
PUBLIC	??_R2CWinApp@@8					; CWinApp::`RTTI Base Class Array'
PUBLIC	??_R1A@?0A@EA@CWinThread@@8			; CWinThread::`RTTI Base Class Descriptor at (0,-1,0,64)'
PUBLIC	??_R0?AVCWinThread@@@8				; CWinThread `RTTI Type Descriptor'
PUBLIC	??_R3CWinThread@@8				; CWinThread::`RTTI Class Hierarchy Descriptor'
PUBLIC	??_R2CWinThread@@8				; CWinThread::`RTTI Base Class Array'
PUBLIC	??_R1A@?0A@EA@CCmdTarget@@8			; CCmdTarget::`RTTI Base Class Descriptor at (0,-1,0,64)'
PUBLIC	??_R0?AVCCmdTarget@@@8				; CCmdTarget `RTTI Type Descriptor'
PUBLIC	??_R3CCmdTarget@@8				; CCmdTarget::`RTTI Class Hierarchy Descriptor'
PUBLIC	??_R2CCmdTarget@@8				; CCmdTarget::`RTTI Base Class Array'
PUBLIC	??_R1A@?0A@EA@CObject@@8			; CObject::`RTTI Base Class Descriptor at (0,-1,0,64)'
PUBLIC	??_R0?AVCObject@@@8				; CObject `RTTI Type Descriptor'
PUBLIC	??_R3CObject@@8					; CObject::`RTTI Class Hierarchy Descriptor'
PUBLIC	??_R2CObject@@8					; CObject::`RTTI Base Class Array'
PUBLIC	?InitInstance@CDviceCtrlDlgApp@@UAEHXZ		; CDviceCtrlDlgApp::InitInstance
PUBLIC	?SupportsRestartManager@CWinApp@@UBEHXZ		; CWinApp::SupportsRestartManager
PUBLIC	?SupportsApplicationRecovery@CWinApp@@UBEHXZ	; CWinApp::SupportsApplicationRecovery
PUBLIC	?SupportsAutosaveAtRestart@CWinApp@@UBEHXZ	; CWinApp::SupportsAutosaveAtRestart
PUBLIC	?SupportsAutosaveAtInterval@CWinApp@@UBEHXZ	; CWinApp::SupportsAutosaveAtInterval
PUBLIC	?ReopenPreviousFilesAtRestart@CWinApp@@UBEHXZ	; CWinApp::ReopenPreviousFilesAtRestart
PUBLIC	?RestoreAutosavedFilesAtRestart@CWinApp@@UBEHXZ	; CWinApp::RestoreAutosavedFilesAtRestart
PUBLIC	?GetApplicationRestartFlags@CWinApp@@UAEKXZ	; CWinApp::GetApplicationRestartFlags
PUBLIC	?GetApplicationRecoveryParameter@CWinApp@@UAEPAXXZ ; CWinApp::GetApplicationRecoveryParameter
PUBLIC	?GetApplicationRecoveryPingInterval@CWinApp@@UAEKXZ ; CWinApp::GetApplicationRecoveryPingInterval
PUBLIC	?OnWorkspaceIdle@CWinAppEx@@UAEHPAVCWnd@@@Z	; CWinAppEx::OnWorkspaceIdle
PUBLIC	?PreLoadState@CWinAppEx@@MAEXXZ			; CWinAppEx::PreLoadState
PUBLIC	?LoadCustomState@CWinAppEx@@MAEXXZ		; CWinAppEx::LoadCustomState
PUBLIC	?PreSaveState@CWinAppEx@@MAEXXZ			; CWinAppEx::PreSaveState
PUBLIC	?SaveCustomState@CWinAppEx@@MAEXXZ		; CWinAppEx::SaveCustomState
EXTRN	??0CWinAppEx@@QAE@H@Z:PROC			; CWinAppEx::CWinAppEx
EXTRN	??_7type_info@@6B@:QWORD			; type_info::`vftable'
EXTRN	?GetRuntimeClass@CWinAppEx@@UBEPAUCRuntimeClass@@XZ:PROC ; CWinAppEx::GetRuntimeClass
EXTRN	??_ECDviceCtrlDlgApp@@UAEPAXI@Z:PROC		; CDviceCtrlDlgApp::`vector deleting destructor'
EXTRN	?Serialize@CObject@@UAEXAAVCArchive@@@Z:PROC	; CObject::Serialize
EXTRN	?AssertValid@CWinApp@@UBEXXZ:PROC		; CWinApp::AssertValid
EXTRN	?Dump@CWinApp@@UBEXAAVCDumpContext@@@Z:PROC	; CWinApp::Dump
EXTRN	?OnCmdMsg@CCmdTarget@@UAEHIHPAXPAUAFX_CMDHANDLERINFO@@@Z:PROC ; CCmdTarget::OnCmdMsg
EXTRN	?OnFinalRelease@CCmdTarget@@UAEXXZ:PROC		; CCmdTarget::OnFinalRelease
EXTRN	?IsInvokeAllowed@CCmdTarget@@UAEHJ@Z:PROC	; CCmdTarget::IsInvokeAllowed
EXTRN	?GetDispatchIID@CCmdTarget@@UAEHPAU_GUID@@@Z:PROC ; CCmdTarget::GetDispatchIID
EXTRN	?GetTypeInfoCount@CCmdTarget@@UAEIXZ:PROC	; CCmdTarget::GetTypeInfoCount
EXTRN	?GetTypeLibCache@CCmdTarget@@UAEPAVCTypeLibCache@@XZ:PROC ; CCmdTarget::GetTypeLibCache
EXTRN	?GetTypeLib@CCmdTarget@@UAEJKPAPAUITypeLib@@@Z:PROC ; CCmdTarget::GetTypeLib
EXTRN	?GetCommandMap@CCmdTarget@@MBEPBUAFX_OLECMDMAP@@XZ:PROC ; CCmdTarget::GetCommandMap
EXTRN	?GetDispatchMap@CCmdTarget@@MBEPBUAFX_DISPMAP@@XZ:PROC ; CCmdTarget::GetDispatchMap
EXTRN	?GetConnectionMap@CCmdTarget@@MBEPBUAFX_CONNECTIONMAP@@XZ:PROC ; CCmdTarget::GetConnectionMap
EXTRN	?GetInterfaceMap@CCmdTarget@@MBEPBUAFX_INTERFACEMAP@@XZ:PROC ; CCmdTarget::GetInterfaceMap
EXTRN	?GetEventSinkMap@CCmdTarget@@MBEPBUAFX_EVENTSINKMAP@@XZ:PROC ; CCmdTarget::GetEventSinkMap
EXTRN	?OnCreateAggregates@CCmdTarget@@UAEHXZ:PROC	; CCmdTarget::OnCreateAggregates
EXTRN	?GetInterfaceHook@CCmdTarget@@UAEPAUIUnknown@@PBX@Z:PROC ; CCmdTarget::GetInterfaceHook
EXTRN	?GetExtraConnectionPoints@CCmdTarget@@MAEHPAVCPtrArray@@@Z:PROC ; CCmdTarget::GetExtraConnectionPoints
EXTRN	?GetConnectionHook@CCmdTarget@@MAEPAUIConnectionPoint@@ABU_GUID@@@Z:PROC ; CCmdTarget::GetConnectionHook
EXTRN	?Run@CWinApp@@UAEHXZ:PROC			; CWinApp::Run
EXTRN	?PreTranslateMessage@CWinThread@@UAEHPAUtagMSG@@@Z:PROC ; CWinThread::PreTranslateMessage
EXTRN	?PumpMessage@CWinThread@@UAEHXZ:PROC		; CWinThread::PumpMessage
EXTRN	?OnIdle@CWinApp@@UAEHJ@Z:PROC			; CWinApp::OnIdle
EXTRN	?IsIdleMessage@CWinThread@@UAEHPAUtagMSG@@@Z:PROC ; CWinThread::IsIdleMessage
EXTRN	?ExitInstance@CWinAppEx@@UAEHXZ:PROC		; CWinAppEx::ExitInstance
EXTRN	?ProcessWndProcException@CWinApp@@UAEJPAVCException@@PBUtagMSG@@@Z:PROC ; CWinApp::ProcessWndProcException
EXTRN	?ProcessMessageFilter@CWinThread@@UAEHHPAUtagMSG@@@Z:PROC ; CWinThread::ProcessMessageFilter
EXTRN	?GetMainWnd@CWinThread@@UAEPAVCWnd@@XZ:PROC	; CWinThread::GetMainWnd
EXTRN	?Delete@CWinThread@@UAEXXZ:PROC			; CWinThread::Delete
EXTRN	?GetProfileIntW@CWinApp@@UAEIPB_W0H@Z:PROC	; CWinApp::GetProfileIntW
EXTRN	?WriteProfileInt@CWinApp@@UAEHPB_W0H@Z:PROC	; CWinApp::WriteProfileInt
EXTRN	?GetProfileStringW@CWinApp@@UAE?AV?$CStringT@_WV?$StrTraitMFC@_WV?$ChTraitsCRT@_W@ATL@@@@@ATL@@PB_W00@Z:PROC ; CWinApp::GetProfileStringW
EXTRN	?WriteProfileStringW@CWinApp@@UAEHPB_W00@Z:PROC	; CWinApp::WriteProfileStringW
EXTRN	?GetProfileBinary@CWinApp@@UAEHPB_W0PAPAEPAI@Z:PROC ; CWinApp::GetProfileBinary
EXTRN	?WriteProfileBinary@CWinApp@@UAEHPB_W0PAEI@Z:PROC ; CWinApp::WriteProfileBinary
EXTRN	?InitLibId@CWinApp@@UAEXXZ:PROC			; CWinApp::InitLibId
EXTRN	?Register@CWinApp@@UAEHXZ:PROC			; CWinApp::Register
EXTRN	?Unregister@CWinApp@@UAEHXZ:PROC		; CWinApp::Unregister
EXTRN	?OpenDocumentFile@CWinApp@@UAEPAVCDocument@@PB_WH@Z:PROC ; CWinApp::OpenDocumentFile
EXTRN	?OpenDocumentFile@CWinApp@@UAEPAVCDocument@@PB_W@Z:PROC ; CWinApp::OpenDocumentFile
EXTRN	?AddToRecentFileList@CWinApp@@UAEXPB_W@Z:PROC	; CWinApp::AddToRecentFileList
EXTRN	?InitApplication@CWinApp@@UAEHXZ:PROC		; CWinApp::InitApplication
EXTRN	?SaveAllModified@CWinApp@@UAEHXZ:PROC		; CWinApp::SaveAllModified
EXTRN	?DoMessageBox@CWinApp@@UAEHPB_WII@Z:PROC	; CWinApp::DoMessageBox
EXTRN	?DoWaitCursor@CWinApp@@UAEXH@Z:PROC		; CWinApp::DoWaitCursor
EXTRN	?OnDDECommand@CWinApp@@UAEHPA_W@Z:PROC		; CWinApp::OnDDECommand
EXTRN	?WinHelpW@CWinApp@@UAEXKI@Z:PROC		; CWinApp::WinHelpW
EXTRN	?HtmlHelpW@CWinApp@@UAEXKI@Z:PROC		; CWinApp::HtmlHelpW
EXTRN	?WinHelpInternal@CWinApp@@UAEXKI@Z:PROC		; CWinApp::WinHelpInternal
EXTRN	?RegisterWithRestartManager@CWinApp@@UAEJPB_WKP6GKPAX@Z1KK@Z:PROC ; CWinApp::RegisterWithRestartManager
EXTRN	?RegisterWithRestartManager@CWinApp@@UAEJHABV?$CStringT@_WV?$StrTraitMFC@_WV?$ChTraitsCRT@_W@ATL@@@@@ATL@@@Z:PROC ; CWinApp::RegisterWithRestartManager
EXTRN	?ApplicationRecoveryCallback@CWinApp@@UAEKPAX@Z:PROC ; CWinApp::ApplicationRecoveryCallback
EXTRN	?GetDataRecoveryHandler@CWinApp@@UAEPAVCDataRecoveryHandler@@XZ:PROC ; CWinApp::GetDataRecoveryHandler
EXTRN	?IsTaskbarInteractionEnabled@CWinApp@@UAEHXZ:PROC ; CWinApp::IsTaskbarInteractionEnabled
EXTRN	?RestartInstance@CWinApp@@UAEHXZ:PROC		; CWinApp::RestartInstance
EXTRN	?LoadAppLangResourceDLL@CWinApp@@UAEPAUHINSTANCE__@@XZ:PROC ; CWinApp::LoadAppLangResourceDLL
EXTRN	?LoadSysPolicies@CWinApp@@UAEHXZ:PROC		; CWinApp::LoadSysPolicies
EXTRN	?LoadState@CWinAppEx@@UAEHPB_WPAVCFrameImpl@@@Z:PROC ; CWinAppEx::LoadState
EXTRN	?CleanState@CWinAppEx@@UAEHPB_W@Z:PROC		; CWinAppEx::CleanState
EXTRN	?SaveState@CWinAppEx@@UAEHPB_WPAVCFrameImpl@@@Z:PROC ; CWinAppEx::SaveState
EXTRN	?OnViewDoubleClick@CWinAppEx@@UAEHPAVCWnd@@H@Z:PROC ; CWinAppEx::OnViewDoubleClick
EXTRN	?ShowPopupMenu@CWinAppEx@@UAEHIABVCPoint@@PAVCWnd@@@Z:PROC ; CWinAppEx::ShowPopupMenu
EXTRN	?OnAppContextHelp@CWinAppEx@@UAEXPAVCWnd@@QBK@Z:PROC ; CWinAppEx::OnAppContextHelp
EXTRN	?OnClosingMainFrame@CWinAppEx@@MAEXPAVCFrameImpl@@@Z:PROC ; CWinAppEx::OnClosingMainFrame
EXTRN	?LoadWindowPlacement@CWinAppEx@@MAEHAAVCRect@@AAH1@Z:PROC ; CWinAppEx::LoadWindowPlacement
EXTRN	?StoreWindowPlacement@CWinAppEx@@MAEHABVCRect@@HH@Z:PROC ; CWinAppEx::StoreWindowPlacement
EXTRN	?ReloadWindowPlacement@CWinAppEx@@MAEHPAVCFrameWnd@@@Z:PROC ; CWinAppEx::ReloadWindowPlacement
;	COMDAT ??_R2CObject@@8
rdata$r	SEGMENT
??_R2CObject@@8 DD FLAT:??_R1A@?0A@EA@CObject@@8	; CObject::`RTTI Base Class Array'
rdata$r	ENDS
;	COMDAT ??_R3CObject@@8
rdata$r	SEGMENT
??_R3CObject@@8 DD 00H					; CObject::`RTTI Class Hierarchy Descriptor'
	DD	00H
	DD	01H
	DD	FLAT:??_R2CObject@@8
rdata$r	ENDS
;	COMDAT ??_R0?AVCObject@@@8
_DATA	SEGMENT
??_R0?AVCObject@@@8 DD FLAT:??_7type_info@@6B@		; CObject `RTTI Type Descriptor'
	DD	00H
	DB	'.?AVCObject@@', 00H
_DATA	ENDS
;	COMDAT ??_R1A@?0A@EA@CObject@@8
rdata$r	SEGMENT
??_R1A@?0A@EA@CObject@@8 DD FLAT:??_R0?AVCObject@@@8	; CObject::`RTTI Base Class Descriptor at (0,-1,0,64)'
	DD	00H
	DD	00H
	DD	0ffffffffH
	DD	00H
	DD	040H
	DD	FLAT:??_R3CObject@@8
rdata$r	ENDS
;	COMDAT ??_R2CCmdTarget@@8
rdata$r	SEGMENT
??_R2CCmdTarget@@8 DD FLAT:??_R1A@?0A@EA@CCmdTarget@@8	; CCmdTarget::`RTTI Base Class Array'
	DD	FLAT:??_R1A@?0A@EA@CObject@@8
rdata$r	ENDS
;	COMDAT ??_R3CCmdTarget@@8
rdata$r	SEGMENT
??_R3CCmdTarget@@8 DD 00H				; CCmdTarget::`RTTI Class Hierarchy Descriptor'
	DD	00H
	DD	02H
	DD	FLAT:??_R2CCmdTarget@@8
rdata$r	ENDS
;	COMDAT ??_R0?AVCCmdTarget@@@8
_DATA	SEGMENT
??_R0?AVCCmdTarget@@@8 DD FLAT:??_7type_info@@6B@	; CCmdTarget `RTTI Type Descriptor'
	DD	00H
	DB	'.?AVCCmdTarget@@', 00H
_DATA	ENDS
;	COMDAT ??_R1A@?0A@EA@CCmdTarget@@8
rdata$r	SEGMENT
??_R1A@?0A@EA@CCmdTarget@@8 DD FLAT:??_R0?AVCCmdTarget@@@8 ; CCmdTarget::`RTTI Base Class Descriptor at (0,-1,0,64)'
	DD	01H
	DD	00H
	DD	0ffffffffH
	DD	00H
	DD	040H
	DD	FLAT:??_R3CCmdTarget@@8
rdata$r	ENDS
;	COMDAT ??_R2CWinThread@@8
rdata$r	SEGMENT
??_R2CWinThread@@8 DD FLAT:??_R1A@?0A@EA@CWinThread@@8	; CWinThread::`RTTI Base Class Array'
	DD	FLAT:??_R1A@?0A@EA@CCmdTarget@@8
	DD	FLAT:??_R1A@?0A@EA@CObject@@8
rdata$r	ENDS
;	COMDAT ??_R3CWinThread@@8
rdata$r	SEGMENT
??_R3CWinThread@@8 DD 00H				; CWinThread::`RTTI Class Hierarchy Descriptor'
	DD	00H
	DD	03H
	DD	FLAT:??_R2CWinThread@@8
rdata$r	ENDS
;	COMDAT ??_R0?AVCWinThread@@@8
_DATA	SEGMENT
??_R0?AVCWinThread@@@8 DD FLAT:??_7type_info@@6B@	; CWinThread `RTTI Type Descriptor'
	DD	00H
	DB	'.?AVCWinThread@@', 00H
_DATA	ENDS
;	COMDAT ??_R1A@?0A@EA@CWinThread@@8
rdata$r	SEGMENT
??_R1A@?0A@EA@CWinThread@@8 DD FLAT:??_R0?AVCWinThread@@@8 ; CWinThread::`RTTI Base Class Descriptor at (0,-1,0,64)'
	DD	02H
	DD	00H
	DD	0ffffffffH
	DD	00H
	DD	040H
	DD	FLAT:??_R3CWinThread@@8
rdata$r	ENDS
;	COMDAT ??_R2CWinApp@@8
rdata$r	SEGMENT
??_R2CWinApp@@8 DD FLAT:??_R1A@?0A@EA@CWinApp@@8	; CWinApp::`RTTI Base Class Array'
	DD	FLAT:??_R1A@?0A@EA@CWinThread@@8
	DD	FLAT:??_R1A@?0A@EA@CCmdTarget@@8
	DD	FLAT:??_R1A@?0A@EA@CObject@@8
rdata$r	ENDS
;	COMDAT ??_R3CWinApp@@8
rdata$r	SEGMENT
??_R3CWinApp@@8 DD 00H					; CWinApp::`RTTI Class Hierarchy Descriptor'
	DD	00H
	DD	04H
	DD	FLAT:??_R2CWinApp@@8
rdata$r	ENDS
;	COMDAT ??_R0?AVCWinApp@@@8
_DATA	SEGMENT
??_R0?AVCWinApp@@@8 DD FLAT:??_7type_info@@6B@		; CWinApp `RTTI Type Descriptor'
	DD	00H
	DB	'.?AVCWinApp@@', 00H
_DATA	ENDS
;	COMDAT ??_R1A@?0A@EA@CWinApp@@8
rdata$r	SEGMENT
??_R1A@?0A@EA@CWinApp@@8 DD FLAT:??_R0?AVCWinApp@@@8	; CWinApp::`RTTI Base Class Descriptor at (0,-1,0,64)'
	DD	03H
	DD	00H
	DD	0ffffffffH
	DD	00H
	DD	040H
	DD	FLAT:??_R3CWinApp@@8
rdata$r	ENDS
;	COMDAT ??_R2CWinAppEx@@8
rdata$r	SEGMENT
??_R2CWinAppEx@@8 DD FLAT:??_R1A@?0A@EA@CWinAppEx@@8	; CWinAppEx::`RTTI Base Class Array'
	DD	FLAT:??_R1A@?0A@EA@CWinApp@@8
	DD	FLAT:??_R1A@?0A@EA@CWinThread@@8
	DD	FLAT:??_R1A@?0A@EA@CCmdTarget@@8
	DD	FLAT:??_R1A@?0A@EA@CObject@@8
rdata$r	ENDS
;	COMDAT ??_R3CWinAppEx@@8
rdata$r	SEGMENT
??_R3CWinAppEx@@8 DD 00H				; CWinAppEx::`RTTI Class Hierarchy Descriptor'
	DD	00H
	DD	05H
	DD	FLAT:??_R2CWinAppEx@@8
rdata$r	ENDS
;	COMDAT ??_R0?AVCWinAppEx@@@8
_DATA	SEGMENT
??_R0?AVCWinAppEx@@@8 DD FLAT:??_7type_info@@6B@	; CWinAppEx `RTTI Type Descriptor'
	DD	00H
	DB	'.?AVCWinAppEx@@', 00H
_DATA	ENDS
;	COMDAT ??_R1A@?0A@EA@CWinAppEx@@8
rdata$r	SEGMENT
??_R1A@?0A@EA@CWinAppEx@@8 DD FLAT:??_R0?AVCWinAppEx@@@8 ; CWinAppEx::`RTTI Base Class Descriptor at (0,-1,0,64)'
	DD	04H
	DD	00H
	DD	0ffffffffH
	DD	00H
	DD	040H
	DD	FLAT:??_R3CWinAppEx@@8
rdata$r	ENDS
;	COMDAT ??_R1A@?0A@EA@CDviceCtrlDlgApp@@8
rdata$r	SEGMENT
??_R1A@?0A@EA@CDviceCtrlDlgApp@@8 DD FLAT:??_R0?AVCDviceCtrlDlgApp@@@8 ; CDviceCtrlDlgApp::`RTTI Base Class Descriptor at (0,-1,0,64)'
	DD	05H
	DD	00H
	DD	0ffffffffH
	DD	00H
	DD	040H
	DD	FLAT:??_R3CDviceCtrlDlgApp@@8
rdata$r	ENDS
;	COMDAT ??_R2CDviceCtrlDlgApp@@8
rdata$r	SEGMENT
??_R2CDviceCtrlDlgApp@@8 DD FLAT:??_R1A@?0A@EA@CDviceCtrlDlgApp@@8 ; CDviceCtrlDlgApp::`RTTI Base Class Array'
	DD	FLAT:??_R1A@?0A@EA@CWinAppEx@@8
	DD	FLAT:??_R1A@?0A@EA@CWinApp@@8
	DD	FLAT:??_R1A@?0A@EA@CWinThread@@8
	DD	FLAT:??_R1A@?0A@EA@CCmdTarget@@8
	DD	FLAT:??_R1A@?0A@EA@CObject@@8
rdata$r	ENDS
;	COMDAT ??_R3CDviceCtrlDlgApp@@8
rdata$r	SEGMENT
??_R3CDviceCtrlDlgApp@@8 DD 00H				; CDviceCtrlDlgApp::`RTTI Class Hierarchy Descriptor'
	DD	00H
	DD	06H
	DD	FLAT:??_R2CDviceCtrlDlgApp@@8
rdata$r	ENDS
;	COMDAT ??_R0?AVCDviceCtrlDlgApp@@@8
_DATA	SEGMENT
??_R0?AVCDviceCtrlDlgApp@@@8 DD FLAT:??_7type_info@@6B@	; CDviceCtrlDlgApp `RTTI Type Descriptor'
	DD	00H
	DB	'.?AVCDviceCtrlDlgApp@@', 00H
_DATA	ENDS
;	COMDAT ??_R4CDviceCtrlDlgApp@@6B@
rdata$r	SEGMENT
??_R4CDviceCtrlDlgApp@@6B@ DD 00H			; CDviceCtrlDlgApp::`RTTI Complete Object Locator'
	DD	00H
	DD	00H
	DD	FLAT:??_R0?AVCDviceCtrlDlgApp@@@8
	DD	FLAT:??_R3CDviceCtrlDlgApp@@8
rdata$r	ENDS
;	COMDAT ??_7CDviceCtrlDlgApp@@6B@
CONST	SEGMENT
??_7CDviceCtrlDlgApp@@6B@ DD FLAT:??_R4CDviceCtrlDlgApp@@6B@ ; CDviceCtrlDlgApp::`vftable'
	DD	FLAT:?GetRuntimeClass@CWinAppEx@@UBEPAUCRuntimeClass@@XZ
	DD	FLAT:??_ECDviceCtrlDlgApp@@UAEPAXI@Z
	DD	FLAT:?Serialize@CObject@@UAEXAAVCArchive@@@Z
	DD	FLAT:?AssertValid@CWinApp@@UBEXXZ
	DD	FLAT:?Dump@CWinApp@@UBEXAAVCDumpContext@@@Z
	DD	FLAT:?OnCmdMsg@CCmdTarget@@UAEHIHPAXPAUAFX_CMDHANDLERINFO@@@Z
	DD	FLAT:?OnFinalRelease@CCmdTarget@@UAEXXZ
	DD	FLAT:?IsInvokeAllowed@CCmdTarget@@UAEHJ@Z
	DD	FLAT:?GetDispatchIID@CCmdTarget@@UAEHPAU_GUID@@@Z
	DD	FLAT:?GetTypeInfoCount@CCmdTarget@@UAEIXZ
	DD	FLAT:?GetTypeLibCache@CCmdTarget@@UAEPAVCTypeLibCache@@XZ
	DD	FLAT:?GetTypeLib@CCmdTarget@@UAEJKPAPAUITypeLib@@@Z
	DD	FLAT:?GetMessageMap@CDviceCtrlDlgApp@@MBEPBUAFX_MSGMAP@@XZ
	DD	FLAT:?GetCommandMap@CCmdTarget@@MBEPBUAFX_OLECMDMAP@@XZ
	DD	FLAT:?GetDispatchMap@CCmdTarget@@MBEPBUAFX_DISPMAP@@XZ
	DD	FLAT:?GetConnectionMap@CCmdTarget@@MBEPBUAFX_CONNECTIONMAP@@XZ
	DD	FLAT:?GetInterfaceMap@CCmdTarget@@MBEPBUAFX_INTERFACEMAP@@XZ
	DD	FLAT:?GetEventSinkMap@CCmdTarget@@MBEPBUAFX_EVENTSINKMAP@@XZ
	DD	FLAT:?OnCreateAggregates@CCmdTarget@@UAEHXZ
	DD	FLAT:?GetInterfaceHook@CCmdTarget@@UAEPAUIUnknown@@PBX@Z
	DD	FLAT:?GetExtraConnectionPoints@CCmdTarget@@MAEHPAVCPtrArray@@@Z
	DD	FLAT:?GetConnectionHook@CCmdTarget@@MAEPAUIConnectionPoint@@ABU_GUID@@@Z
	DD	FLAT:?InitInstance@CDviceCtrlDlgApp@@UAEHXZ
	DD	FLAT:?Run@CWinApp@@UAEHXZ
	DD	FLAT:?PreTranslateMessage@CWinThread@@UAEHPAUtagMSG@@@Z
	DD	FLAT:?PumpMessage@CWinThread@@UAEHXZ
	DD	FLAT:?OnIdle@CWinApp@@UAEHJ@Z
	DD	FLAT:?IsIdleMessage@CWinThread@@UAEHPAUtagMSG@@@Z
	DD	FLAT:?ExitInstance@CWinAppEx@@UAEHXZ
	DD	FLAT:?ProcessWndProcException@CWinApp@@UAEJPAVCException@@PBUtagMSG@@@Z
	DD	FLAT:?ProcessMessageFilter@CWinThread@@UAEHHPAUtagMSG@@@Z
	DD	FLAT:?GetMainWnd@CWinThread@@UAEPAVCWnd@@XZ
	DD	FLAT:?Delete@CWinThread@@UAEXXZ
	DD	FLAT:?GetProfileIntW@CWinApp@@UAEIPB_W0H@Z
	DD	FLAT:?WriteProfileInt@CWinApp@@UAEHPB_W0H@Z
	DD	FLAT:?GetProfileStringW@CWinApp@@UAE?AV?$CStringT@_WV?$StrTraitMFC@_WV?$ChTraitsCRT@_W@ATL@@@@@ATL@@PB_W00@Z
	DD	FLAT:?WriteProfileStringW@CWinApp@@UAEHPB_W00@Z
	DD	FLAT:?GetProfileBinary@CWinApp@@UAEHPB_W0PAPAEPAI@Z
	DD	FLAT:?WriteProfileBinary@CWinApp@@UAEHPB_W0PAEI@Z
	DD	FLAT:?InitLibId@CWinApp@@UAEXXZ
	DD	FLAT:?Register@CWinApp@@UAEHXZ
	DD	FLAT:?Unregister@CWinApp@@UAEHXZ
	DD	FLAT:?OpenDocumentFile@CWinApp@@UAEPAVCDocument@@PB_WH@Z
	DD	FLAT:?OpenDocumentFile@CWinApp@@UAEPAVCDocument@@PB_W@Z
	DD	FLAT:?AddToRecentFileList@CWinApp@@UAEXPB_W@Z
	DD	FLAT:?InitApplication@CWinApp@@UAEHXZ
	DD	FLAT:?SaveAllModified@CWinApp@@UAEHXZ
	DD	FLAT:?DoMessageBox@CWinApp@@UAEHPB_WII@Z
	DD	FLAT:?DoWaitCursor@CWinApp@@UAEXH@Z
	DD	FLAT:?OnDDECommand@CWinApp@@UAEHPA_W@Z
	DD	FLAT:?WinHelpW@CWinApp@@UAEXKI@Z
	DD	FLAT:?HtmlHelpW@CWinApp@@UAEXKI@Z
	DD	FLAT:?WinHelpInternal@CWinApp@@UAEXKI@Z
	DD	FLAT:?RegisterWithRestartManager@CWinApp@@UAEJPB_WKP6GKPAX@Z1KK@Z
	DD	FLAT:?RegisterWithRestartManager@CWinApp@@UAEJHABV?$CStringT@_WV?$StrTraitMFC@_WV?$ChTraitsCRT@_W@ATL@@@@@ATL@@@Z
	DD	FLAT:?ApplicationRecoveryCallback@CWinApp@@UAEKPAX@Z
	DD	FLAT:?SupportsRestartManager@CWinApp@@UBEHXZ
	DD	FLAT:?SupportsApplicationRecovery@CWinApp@@UBEHXZ
	DD	FLAT:?SupportsAutosaveAtRestart@CWinApp@@UBEHXZ
	DD	FLAT:?SupportsAutosaveAtInterval@CWinApp@@UBEHXZ
	DD	FLAT:?ReopenPreviousFilesAtRestart@CWinApp@@UBEHXZ
	DD	FLAT:?RestoreAutosavedFilesAtRestart@CWinApp@@UBEHXZ
	DD	FLAT:?GetApplicationRestartFlags@CWinApp@@UAEKXZ
	DD	FLAT:?GetApplicationRecoveryParameter@CWinApp@@UAEPAXXZ
	DD	FLAT:?GetApplicationRecoveryPingInterval@CWinApp@@UAEKXZ
	DD	FLAT:?GetDataRecoveryHandler@CWinApp@@UAEPAVCDataRecoveryHandler@@XZ
	DD	FLAT:?IsTaskbarInteractionEnabled@CWinApp@@UAEHXZ
	DD	FLAT:?RestartInstance@CWinApp@@UAEHXZ
	DD	FLAT:?LoadAppLangResourceDLL@CWinApp@@UAEPAUHINSTANCE__@@XZ
	DD	FLAT:?LoadSysPolicies@CWinApp@@UAEHXZ
	DD	FLAT:?LoadState@CWinAppEx@@UAEHPB_WPAVCFrameImpl@@@Z
	DD	FLAT:?CleanState@CWinAppEx@@UAEHPB_W@Z
	DD	FLAT:?SaveState@CWinAppEx@@UAEHPB_WPAVCFrameImpl@@@Z
	DD	FLAT:?OnViewDoubleClick@CWinAppEx@@UAEHPAVCWnd@@H@Z
	DD	FLAT:?ShowPopupMenu@CWinAppEx@@UAEHIABVCPoint@@PAVCWnd@@@Z
	DD	FLAT:?OnAppContextHelp@CWinAppEx@@UAEXPAVCWnd@@QBK@Z
	DD	FLAT:?OnWorkspaceIdle@CWinAppEx@@UAEHPAVCWnd@@@Z
	DD	FLAT:?OnClosingMainFrame@CWinAppEx@@MAEXPAVCFrameImpl@@@Z
	DD	FLAT:?PreLoadState@CWinAppEx@@MAEXXZ
	DD	FLAT:?LoadCustomState@CWinAppEx@@MAEXXZ
	DD	FLAT:?PreSaveState@CWinAppEx@@MAEXXZ
	DD	FLAT:?SaveCustomState@CWinAppEx@@MAEXXZ
	DD	FLAT:?LoadWindowPlacement@CWinAppEx@@MAEHAAVCRect@@AAH1@Z
	DD	FLAT:?StoreWindowPlacement@CWinAppEx@@MAEHABVCRect@@HH@Z
	DD	FLAT:?ReloadWindowPlacement@CWinAppEx@@MAEHPAVCFrameWnd@@@Z
; Function compile flags: /Odtp /RTCsu /ZI
CONST	ENDS
;	COMDAT ??0CDviceCtrlDlgApp@@QAE@XZ
_TEXT	SEGMENT
_this$ = -8						; size = 4
??0CDviceCtrlDlgApp@@QAE@XZ PROC			; CDviceCtrlDlgApp::CDviceCtrlDlgApp, COMDAT
; _this$ = ecx

  00000	55		 push	 ebp
  00001	8b ec		 mov	 ebp, esp
  00003	81 ec cc 00 00
	00		 sub	 esp, 204		; 000000ccH
  00009	53		 push	 ebx
  0000a	56		 push	 esi
  0000b	57		 push	 edi
  0000c	51		 push	 ecx
  0000d	8d bd 34 ff ff
	ff		 lea	 edi, DWORD PTR [ebp-204]
  00013	b9 33 00 00 00	 mov	 ecx, 51			; 00000033H
  00018	b8 cc cc cc cc	 mov	 eax, -858993460		; ccccccccH
  0001d	f3 ab		 rep stosd
  0001f	59		 pop	 ecx
  00020	89 4d f8	 mov	 DWORD PTR _this$[ebp], ecx
  00023	6a 01		 push	 1
  00025	8b 4d f8	 mov	 ecx, DWORD PTR _this$[ebp]
  00028	e8 00 00 00 00	 call	 ??0CWinAppEx@@QAE@H@Z	; CWinAppEx::CWinAppEx
  0002d	8b 45 f8	 mov	 eax, DWORD PTR _this$[ebp]
  00030	c7 00 00 00 00
	00		 mov	 DWORD PTR [eax], OFFSET ??_7CDviceCtrlDlgApp@@6B@

  00036	8b 45 f8	 mov	 eax, DWORD PTR _this$[ebp]
  00039	5f		 pop	 edi
  0003a	5e		 pop	 esi
  0003b	5b		 pop	 ebx
  0003c	81 c4 cc 00 00
	00		 add	 esp, 204		; 000000ccH
  00042	3b ec		 cmp	 ebp, esp
  00044	e8 00 00 00 00	 call	 __RTC_CheckEsp
  00049	8b e5		 mov	 esp, ebp
  0004b	5d		 pop	 ebp
  0004c	c3		 ret	 0
??0CDviceCtrlDlgApp@@QAE@XZ ENDP			; CDviceCtrlDlgApp::CDviceCtrlDlgApp
_TEXT	ENDS
PUBLIC	??1CDviceCtrlDlgApp@@UAE@XZ			; CDviceCtrlDlgApp::~CDviceCtrlDlgApp
EXTRN	??3CObject@@SGXPAX@Z:PROC			; CObject::operator delete
; Function compile flags: /Odtp /RTCsu /ZI
;	COMDAT ??_GCDviceCtrlDlgApp@@UAEPAXI@Z
_TEXT	SEGMENT
_this$ = -8						; size = 4
___flags$ = 8						; size = 4
??_GCDviceCtrlDlgApp@@UAEPAXI@Z PROC			; CDviceCtrlDlgApp::`scalar deleting destructor', COMDAT
; _this$ = ecx
  00000	55		 push	 ebp
  00001	8b ec		 mov	 ebp, esp
  00003	81 ec cc 00 00
	00		 sub	 esp, 204		; 000000ccH
  00009	53		 push	 ebx
  0000a	56		 push	 esi
  0000b	57		 push	 edi
  0000c	51		 push	 ecx
  0000d	8d bd 34 ff ff
	ff		 lea	 edi, DWORD PTR [ebp-204]
  00013	b9 33 00 00 00	 mov	 ecx, 51			; 00000033H
  00018	b8 cc cc cc cc	 mov	 eax, -858993460		; ccccccccH
  0001d	f3 ab		 rep stosd
  0001f	59		 pop	 ecx
  00020	89 4d f8	 mov	 DWORD PTR _this$[ebp], ecx
  00023	8b 4d f8	 mov	 ecx, DWORD PTR _this$[ebp]
  00026	e8 00 00 00 00	 call	 ??1CDviceCtrlDlgApp@@UAE@XZ
  0002b	8b 45 08	 mov	 eax, DWORD PTR ___flags$[ebp]
  0002e	83 e0 01	 and	 eax, 1
  00031	74 09		 je	 SHORT $LN1@scalar
  00033	8b 45 f8	 mov	 eax, DWORD PTR _this$[ebp]
  00036	50		 push	 eax
  00037	e8 00 00 00 00	 call	 ??3CObject@@SGXPAX@Z	; CObject::operator delete
$LN1@scalar:
  0003c	8b 45 f8	 mov	 eax, DWORD PTR _this$[ebp]
  0003f	5f		 pop	 edi
  00040	5e		 pop	 esi
  00041	5b		 pop	 ebx
  00042	81 c4 cc 00 00
	00		 add	 esp, 204		; 000000ccH
  00048	3b ec		 cmp	 ebp, esp
  0004a	e8 00 00 00 00	 call	 __RTC_CheckEsp
  0004f	8b e5		 mov	 esp, ebp
  00051	5d		 pop	 ebp
  00052	c2 04 00	 ret	 4
??_GCDviceCtrlDlgApp@@UAEPAXI@Z ENDP			; CDviceCtrlDlgApp::`scalar deleting destructor'
_TEXT	ENDS
EXTRN	??1CWinAppEx@@UAE@XZ:PROC			; CWinAppEx::~CWinAppEx
; Function compile flags: /Odtp /RTCsu /ZI
;	COMDAT ??1CDviceCtrlDlgApp@@UAE@XZ
_TEXT	SEGMENT
_this$ = -8						; size = 4
??1CDviceCtrlDlgApp@@UAE@XZ PROC			; CDviceCtrlDlgApp::~CDviceCtrlDlgApp, COMDAT
; _this$ = ecx
  00000	55		 push	 ebp
  00001	8b ec		 mov	 ebp, esp
  00003	81 ec cc 00 00
	00		 sub	 esp, 204		; 000000ccH
  00009	53		 push	 ebx
  0000a	56		 push	 esi
  0000b	57		 push	 edi
  0000c	51		 push	 ecx
  0000d	8d bd 34 ff ff
	ff		 lea	 edi, DWORD PTR [ebp-204]
  00013	b9 33 00 00 00	 mov	 ecx, 51			; 00000033H
  00018	b8 cc cc cc cc	 mov	 eax, -858993460		; ccccccccH
  0001d	f3 ab		 rep stosd
  0001f	59		 pop	 ecx
  00020	89 4d f8	 mov	 DWORD PTR _this$[ebp], ecx
  00023	8b 4d f8	 mov	 ecx, DWORD PTR _this$[ebp]
  00026	e8 00 00 00 00	 call	 ??1CWinAppEx@@UAE@XZ	; CWinAppEx::~CWinAppEx
  0002b	5f		 pop	 edi
  0002c	5e		 pop	 esi
  0002d	5b		 pop	 ebx
  0002e	81 c4 cc 00 00
	00		 add	 esp, 204		; 000000ccH
  00034	3b ec		 cmp	 ebp, esp
  00036	e8 00 00 00 00	 call	 __RTC_CheckEsp
  0003b	8b e5		 mov	 esp, ebp
  0003d	5d		 pop	 ebp
  0003e	c3		 ret	 0
??1CDviceCtrlDlgApp@@UAE@XZ ENDP			; CDviceCtrlDlgApp::~CDviceCtrlDlgApp
_TEXT	ENDS
PUBLIC	??1CDviceCtrlDlgDlg@@UAE@XZ			; CDviceCtrlDlgDlg::~CDviceCtrlDlgDlg
PUBLIC	??_C@_19OPBLLBOM@?$IL?$LOY?$AHd?MO?2?$AA?$AA@	; `string'
PUBLIC	__$ArrayPad$
EXTRN	?DoModal@CDialog@@UAEHXZ:PROC			; CDialog::DoModal
EXTRN	??0CDviceCtrlDlgDlg@@QAE@PAVCWnd@@@Z:PROC	; CDviceCtrlDlgDlg::CDviceCtrlDlgDlg
EXTRN	?SetRegistryKey@CWinApp@@IAEXPB_W@Z:PROC	; CWinApp::SetRegistryKey
EXTRN	?AfxEnableControlContainer@@YAXPAVCOccManager@@@Z:PROC ; AfxEnableControlContainer
EXTRN	?InitInstance@CWinApp@@UAEHXZ:PROC		; CWinApp::InitInstance
EXTRN	__imp__InitCommonControlsEx@4:PROC
EXTRN	___security_cookie:DWORD
EXTRN	___CxxFrameHandler3:PROC
EXTRN	@__security_check_cookie@4:PROC
EXTRN	@_RTC_CheckStackVars@8:PROC
;	COMDAT ??_C@_19OPBLLBOM@?$IL?$LOY?$AHd?MO?2?$AA?$AA@
CONST	SEGMENT
??_C@_19OPBLLBOM@?$IL?$LOY?$AHd?MO?2?$AA?$AA@ DB 0beH, 08bH, 07H, 'Y', 0cdH
	DB	'd\O', 00H, 00H				; `string'
CONST	ENDS
;	COMDAT xdata$x
xdata$x	SEGMENT
__unwindtable$?InitInstance@CDviceCtrlDlgApp@@UAEHXZ DD 0ffffffffH
	DD	FLAT:__unwindfunclet$?InitInstance@CDviceCtrlDlgApp@@UAEHXZ$0
__ehfuncinfo$?InitInstance@CDviceCtrlDlgApp@@UAEHXZ DD 019930522H
	DD	01H
	DD	FLAT:__unwindtable$?InitInstance@CDviceCtrlDlgApp@@UAEHXZ
	DD	2 DUP(00H)
	DD	2 DUP(00H)
	DD	00H
	DD	01H
; Function compile flags: /Odtp /RTCsu /ZI
xdata$x	ENDS
;	COMDAT ?InitInstance@CDviceCtrlDlgApp@@UAEHXZ
_TEXT	SEGMENT
$T230829 = -3152					; size = 4
_nResponse$ = -2948					; size = 4
_dlg$ = -2936						; size = 2888
_InitCtrls$ = -40					; size = 8
_this$ = -24						; size = 4
__$ArrayPad$ = -16					; size = 4
__$EHRec$ = -12						; size = 12
?InitInstance@CDviceCtrlDlgApp@@UAEHXZ PROC		; CDviceCtrlDlgApp::InitInstance, COMDAT
; _this$ = ecx

  00000	55		 push	 ebp
  00001	8b ec		 mov	 ebp, esp
  00003	6a ff		 push	 -1
  00005	68 00 00 00 00	 push	 __ehhandler$?InitInstance@CDviceCtrlDlgApp@@UAEHXZ
  0000a	64 a1 00 00 00
	00		 mov	 eax, DWORD PTR fs:0
  00010	50		 push	 eax
  00011	81 ec 48 0c 00
	00		 sub	 esp, 3144		; 00000c48H
  00017	53		 push	 ebx
  00018	56		 push	 esi
  00019	57		 push	 edi
  0001a	51		 push	 ecx
  0001b	8d bd ac f3 ff
	ff		 lea	 edi, DWORD PTR [ebp-3156]
  00021	b9 12 03 00 00	 mov	 ecx, 786		; 00000312H
  00026	b8 cc cc cc cc	 mov	 eax, -858993460		; ccccccccH
  0002b	f3 ab		 rep stosd
  0002d	59		 pop	 ecx
  0002e	a1 00 00 00 00	 mov	 eax, DWORD PTR ___security_cookie
  00033	33 c5		 xor	 eax, ebp
  00035	89 45 f0	 mov	 DWORD PTR __$ArrayPad$[ebp], eax
  00038	50		 push	 eax
  00039	8d 45 f4	 lea	 eax, DWORD PTR __$EHRec$[ebp]
  0003c	64 a3 00 00 00
	00		 mov	 DWORD PTR fs:0, eax
  00042	89 4d e8	 mov	 DWORD PTR _this$[ebp], ecx

  00045	c7 45 d8 08 00
	00 00		 mov	 DWORD PTR _InitCtrls$[ebp], 8

  0004c	c7 45 dc ff 00
	00 00		 mov	 DWORD PTR _InitCtrls$[ebp+4], 255 ; 000000ffH

  00053	8b f4		 mov	 esi, esp
  00055	8d 45 d8	 lea	 eax, DWORD PTR _InitCtrls$[ebp]
  00058	50		 push	 eax
  00059	ff 15 00 00 00
	00		 call	 DWORD PTR __imp__InitCommonControlsEx@4
  0005f	3b f4		 cmp	 esi, esp
  00061	e8 00 00 00 00	 call	 __RTC_CheckEsp

  00066	8b 4d e8	 mov	 ecx, DWORD PTR _this$[ebp]
  00069	e8 00 00 00 00	 call	 ?InitInstance@CWinApp@@UAEHXZ ; CWinApp::InitInstance

  0006e	6a 00		 push	 0
  00070	e8 00 00 00 00	 call	 ?AfxEnableControlContainer@@YAXPAVCOccManager@@@Z ; AfxEnableControlContainer
  00075	83 c4 04	 add	 esp, 4

  00078	68 00 00 00 00	 push	 OFFSET ??_C@_19OPBLLBOM@?$IL?$LOY?$AHd?MO?2?$AA?$AA@
  0007d	8b 4d e8	 mov	 ecx, DWORD PTR _this$[ebp]
  00080	e8 00 00 00 00	 call	 ?SetRegistryKey@CWinApp@@IAEXPB_W@Z ; CWinApp::SetRegistryKey

  00085	6a 00		 push	 0
  00087	8d 8d 88 f4 ff
	ff		 lea	 ecx, DWORD PTR _dlg$[ebp]
  0008d	e8 00 00 00 00	 call	 ??0CDviceCtrlDlgDlg@@QAE@PAVCWnd@@@Z ; CDviceCtrlDlgDlg::CDviceCtrlDlgDlg
  00092	c7 45 fc 00 00
	00 00		 mov	 DWORD PTR __$EHRec$[ebp+8], 0

  00099	8b 45 e8	 mov	 eax, DWORD PTR _this$[ebp]
  0009c	8d 8d 88 f4 ff
	ff		 lea	 ecx, DWORD PTR _dlg$[ebp]
  000a2	89 48 20	 mov	 DWORD PTR [eax+32], ecx

  000a5	8d 8d 88 f4 ff
	ff		 lea	 ecx, DWORD PTR _dlg$[ebp]
  000ab	e8 00 00 00 00	 call	 ?DoModal@CDialog@@UAEHXZ ; CDialog::DoModal
  000b0	89 85 7c f4 ff
	ff		 mov	 DWORD PTR _nResponse$[ebp], eax

  000b6	c7 85 b0 f3 ff
	ff 00 00 00 00	 mov	 DWORD PTR $T230829[ebp], 0
  000c0	c7 45 fc ff ff
	ff ff		 mov	 DWORD PTR __$EHRec$[ebp+8], -1
  000c7	8d 8d 88 f4 ff
	ff		 lea	 ecx, DWORD PTR _dlg$[ebp]
  000cd	e8 00 00 00 00	 call	 ??1CDviceCtrlDlgDlg@@UAE@XZ
  000d2	8b 85 b0 f3 ff
	ff		 mov	 eax, DWORD PTR $T230829[ebp]

  000d8	52		 push	 edx
  000d9	8b cd		 mov	 ecx, ebp
  000db	50		 push	 eax
  000dc	8d 15 00 00 00
	00		 lea	 edx, DWORD PTR $LN11@InitInstan
  000e2	e8 00 00 00 00	 call	 @_RTC_CheckStackVars@8
  000e7	58		 pop	 eax
  000e8	5a		 pop	 edx
  000e9	8b 4d f4	 mov	 ecx, DWORD PTR __$EHRec$[ebp]
  000ec	64 89 0d 00 00
	00 00		 mov	 DWORD PTR fs:0, ecx
  000f3	59		 pop	 ecx
  000f4	5f		 pop	 edi
  000f5	5e		 pop	 esi
  000f6	5b		 pop	 ebx
  000f7	8b 4d f0	 mov	 ecx, DWORD PTR __$ArrayPad$[ebp]
  000fa	33 cd		 xor	 ecx, ebp
  000fc	e8 00 00 00 00	 call	 @__security_check_cookie@4
  00101	81 c4 54 0c 00
	00		 add	 esp, 3156		; 00000c54H
  00107	3b ec		 cmp	 ebp, esp
  00109	e8 00 00 00 00	 call	 __RTC_CheckEsp
  0010e	8b e5		 mov	 esp, ebp
  00110	5d		 pop	 ebp
  00111	c3		 ret	 0
  00112	8b ff		 npad	 2
$LN11@InitInstan:
  00114	02 00 00 00	 DD	 2
  00118	00 00 00 00	 DD	 $LN10@InitInstan
$LN10@InitInstan:
  0011c	d8 ff ff ff	 DD	 -40			; ffffffd8H
  00120	08 00 00 00	 DD	 8
  00124	00 00 00 00	 DD	 $LN7@InitInstan
  00128	88 f4 ff ff	 DD	 -2936			; fffff488H
  0012c	48 0b 00 00	 DD	 2888			; 00000b48H
  00130	00 00 00 00	 DD	 $LN8@InitInstan
$LN8@InitInstan:
  00134	64		 DB	 100			; 00000064H
  00135	6c		 DB	 108			; 0000006cH
  00136	67		 DB	 103			; 00000067H
  00137	00		 DB	 0
$LN7@InitInstan:
  00138	49		 DB	 73			; 00000049H
  00139	6e		 DB	 110			; 0000006eH
  0013a	69		 DB	 105			; 00000069H
  0013b	74		 DB	 116			; 00000074H
  0013c	43		 DB	 67			; 00000043H
  0013d	74		 DB	 116			; 00000074H
  0013e	72		 DB	 114			; 00000072H
  0013f	6c		 DB	 108			; 0000006cH
  00140	73		 DB	 115			; 00000073H
  00141	00		 DB	 0
_TEXT	ENDS
;	COMDAT text$x
text$x	SEGMENT
__unwindfunclet$?InitInstance@CDviceCtrlDlgApp@@UAEHXZ$0:
  00000	8d 8d 88 f4 ff
	ff		 lea	 ecx, DWORD PTR _dlg$[ebp]
  00006	e9 00 00 00 00	 jmp	 ??1CDviceCtrlDlgDlg@@UAE@XZ
__ehhandler$?InitInstance@CDviceCtrlDlgApp@@UAEHXZ:
  0000b	8b 54 24 08	 mov	 edx, DWORD PTR [esp+8]
  0000f	8d 42 0c	 lea	 eax, DWORD PTR [edx+12]
  00012	8b 8a a8 f3 ff
	ff		 mov	 ecx, DWORD PTR [edx-3160]
  00018	33 c8		 xor	 ecx, eax
  0001a	e8 00 00 00 00	 call	 @__security_check_cookie@4
  0001f	8b 4a fc	 mov	 ecx, DWORD PTR [edx-4]
  00022	33 c8		 xor	 ecx, eax
  00024	e8 00 00 00 00	 call	 @__security_check_cookie@4
  00029	b8 00 00 00 00	 mov	 eax, OFFSET __ehfuncinfo$?InitInstance@CDviceCtrlDlgApp@@UAEHXZ
  0002e	e9 00 00 00 00	 jmp	 ___CxxFrameHandler3
text$x	ENDS
?InitInstance@CDviceCtrlDlgApp@@UAEHXZ ENDP		; CDviceCtrlDlgApp::InitInstance
PUBLIC	??1?$CStringT@_WV?$StrTraitMFC@_WV?$ChTraitsCRT@_W@ATL@@@@@ATL@@QAE@XZ ; ATL::CStringT<wchar_t,StrTraitMFC<wchar_t,ATL::ChTraitsCRT<wchar_t> > >::~CStringT<wchar_t,StrTraitMFC<wchar_t,ATL::ChTraitsCRT<wchar_t> > >
PUBLIC	??1?$vector@V?$CStringT@_WV?$StrTraitMFC@_WV?$ChTraitsCRT@_W@ATL@@@@@ATL@@V?$allocator@V?$CStringT@_WV?$StrTraitMFC@_WV?$ChTraitsCRT@_W@ATL@@@@@ATL@@@std@@@std@@QAE@XZ ; std::vector<ATL::CStringT<wchar_t,StrTraitMFC<wchar_t,ATL::ChTraitsCRT<wchar_t> > >,std::allocator<ATL::CStringT<wchar_t,StrTraitMFC<wchar_t,ATL::ChTraitsCRT<wchar_t> > > > >::~vector<ATL::CStringT<wchar_t,StrTraitMFC<wchar_t,ATL::ChTraitsCRT<wchar_t> > >,std::allocator<ATL::CStringT<wchar_t,StrTraitMFC<wchar_t,ATL::ChTraitsCRT<wchar_t> > > > >
EXTRN	??1CDialog@@UAE@XZ:PROC				; CDialog::~CDialog
EXTRN	??1CComPort@LsComm@@UAE@XZ:PROC			; LsComm::CComPort::~CComPort
EXTRN	??1CSliderCtrl@@UAE@XZ:PROC			; CSliderCtrl::~CSliderCtrl
EXTRN	??1CEdit@@UAE@XZ:PROC				; CEdit::~CEdit
EXTRN	??1CStatic@@UAE@XZ:PROC				; CStatic::~CStatic
;	COMDAT xdata$x
xdata$x	SEGMENT
__ehfuncinfo$??1CDviceCtrlDlgDlg@@UAE@XZ DD 019930522H
	DD	06H
	DD	FLAT:__unwindtable$??1CDviceCtrlDlgDlg@@UAE@XZ
	DD	2 DUP(00H)
	DD	2 DUP(00H)
	DD	00H
	DD	01H
__unwindtable$??1CDviceCtrlDlgDlg@@UAE@XZ DD 0ffffffffH
	DD	FLAT:__unwindfunclet$??1CDviceCtrlDlgDlg@@UAE@XZ$0
	DD	00H
	DD	FLAT:__unwindfunclet$??1CDviceCtrlDlgDlg@@UAE@XZ$1
	DD	01H
	DD	FLAT:__unwindfunclet$??1CDviceCtrlDlgDlg@@UAE@XZ$2
	DD	02H
	DD	FLAT:__unwindfunclet$??1CDviceCtrlDlgDlg@@UAE@XZ$3
	DD	03H
	DD	FLAT:__unwindfunclet$??1CDviceCtrlDlgDlg@@UAE@XZ$4
	DD	04H
	DD	FLAT:__unwindfunclet$??1CDviceCtrlDlgDlg@@UAE@XZ$5
; Function compile flags: /Odtp /RTCsu /ZI
xdata$x	ENDS
;	COMDAT ??1CDviceCtrlDlgDlg@@UAE@XZ
_TEXT	SEGMENT
_this$ = -20						; size = 4
__$EHRec$ = -12						; size = 12
??1CDviceCtrlDlgDlg@@UAE@XZ PROC			; CDviceCtrlDlgDlg::~CDviceCtrlDlgDlg, COMDAT
; _this$ = ecx
  00000	55		 push	 ebp
  00001	8b ec		 mov	 ebp, esp
  00003	6a ff		 push	 -1
  00005	68 00 00 00 00	 push	 __ehhandler$??1CDviceCtrlDlgDlg@@UAE@XZ
  0000a	64 a1 00 00 00
	00		 mov	 eax, DWORD PTR fs:0
  00010	50		 push	 eax
  00011	81 ec cc 00 00
	00		 sub	 esp, 204		; 000000ccH
  00017	53		 push	 ebx
  00018	56		 push	 esi
  00019	57		 push	 edi
  0001a	51		 push	 ecx
  0001b	8d bd 28 ff ff
	ff		 lea	 edi, DWORD PTR [ebp-216]
  00021	b9 33 00 00 00	 mov	 ecx, 51			; 00000033H
  00026	b8 cc cc cc cc	 mov	 eax, -858993460		; ccccccccH
  0002b	f3 ab		 rep stosd
  0002d	59		 pop	 ecx
  0002e	a1 00 00 00 00	 mov	 eax, DWORD PTR ___security_cookie
  00033	33 c5		 xor	 eax, ebp
  00035	50		 push	 eax
  00036	8d 45 f4	 lea	 eax, DWORD PTR __$EHRec$[ebp]
  00039	64 a3 00 00 00
	00		 mov	 DWORD PTR fs:0, eax
  0003f	89 4d ec	 mov	 DWORD PTR _this$[ebp], ecx
  00042	c7 45 fc 05 00
	00 00		 mov	 DWORD PTR __$EHRec$[ebp+8], 5
  00049	8b 4d ec	 mov	 ecx, DWORD PTR _this$[ebp]
  0004c	81 c1 18 0b 00
	00		 add	 ecx, 2840		; 00000b18H
  00052	e8 00 00 00 00	 call	 ??1?$vector@V?$CStringT@_WV?$StrTraitMFC@_WV?$ChTraitsCRT@_W@ATL@@@@@ATL@@V?$allocator@V?$CStringT@_WV?$StrTraitMFC@_WV?$ChTraitsCRT@_W@ATL@@@@@ATL@@@std@@@std@@QAE@XZ ; std::vector<ATL::CStringT<wchar_t,StrTraitMFC<wchar_t,ATL::ChTraitsCRT<wchar_t> > >,std::allocator<ATL::CStringT<wchar_t,StrTraitMFC<wchar_t,ATL::ChTraitsCRT<wchar_t> > > > >::~vector<ATL::CStringT<wchar_t,StrTraitMFC<wchar_t,ATL::ChTraitsCRT<wchar_t> > >,std::allocator<ATL::CStringT<wchar_t,StrTraitMFC<wchar_t,ATL::ChTraitsCRT<wchar_t> > > > >
  00057	c6 45 fc 04	 mov	 BYTE PTR __$EHRec$[ebp+8], 4
  0005b	8b 4d ec	 mov	 ecx, DWORD PTR _this$[ebp]
  0005e	81 c1 88 0a 00
	00		 add	 ecx, 2696		; 00000a88H
  00064	e8 00 00 00 00	 call	 ??1CStatic@@UAE@XZ	; CStatic::~CStatic
  00069	c6 45 fc 03	 mov	 BYTE PTR __$EHRec$[ebp+8], 3
  0006d	8b 4d ec	 mov	 ecx, DWORD PTR _this$[ebp]
  00070	81 c1 14 0a 00
	00		 add	 ecx, 2580		; 00000a14H
  00076	e8 00 00 00 00	 call	 ??1CEdit@@UAE@XZ	; CEdit::~CEdit
  0007b	c6 45 fc 02	 mov	 BYTE PTR __$EHRec$[ebp+8], 2
  0007f	8b 4d ec	 mov	 ecx, DWORD PTR _this$[ebp]
  00082	81 c1 9c 09 00
	00		 add	 ecx, 2460		; 0000099cH
  00088	e8 00 00 00 00	 call	 ??1CSliderCtrl@@UAE@XZ	; CSliderCtrl::~CSliderCtrl
  0008d	c6 45 fc 01	 mov	 BYTE PTR __$EHRec$[ebp+8], 1
  00091	8b 4d ec	 mov	 ecx, DWORD PTR _this$[ebp]
  00094	81 c1 98 09 00
	00		 add	 ecx, 2456		; 00000998H
  0009a	e8 00 00 00 00	 call	 ??1?$CStringT@_WV?$StrTraitMFC@_WV?$ChTraitsCRT@_W@ATL@@@@@ATL@@QAE@XZ ; ATL::CStringT<wchar_t,StrTraitMFC<wchar_t,ATL::ChTraitsCRT<wchar_t> > >::~CStringT<wchar_t,StrTraitMFC<wchar_t,ATL::ChTraitsCRT<wchar_t> > >
  0009f	c6 45 fc 00	 mov	 BYTE PTR __$EHRec$[ebp+8], 0
  000a3	8b 4d ec	 mov	 ecx, DWORD PTR _this$[ebp]
  000a6	81 c1 30 01 00
	00		 add	 ecx, 304		; 00000130H
  000ac	e8 00 00 00 00	 call	 ??1CComPort@LsComm@@UAE@XZ ; LsComm::CComPort::~CComPort
  000b1	c7 45 fc ff ff
	ff ff		 mov	 DWORD PTR __$EHRec$[ebp+8], -1
  000b8	8b 4d ec	 mov	 ecx, DWORD PTR _this$[ebp]
  000bb	e8 00 00 00 00	 call	 ??1CDialog@@UAE@XZ	; CDialog::~CDialog
  000c0	8b 4d f4	 mov	 ecx, DWORD PTR __$EHRec$[ebp]
  000c3	64 89 0d 00 00
	00 00		 mov	 DWORD PTR fs:0, ecx
  000ca	59		 pop	 ecx
  000cb	5f		 pop	 edi
  000cc	5e		 pop	 esi
  000cd	5b		 pop	 ebx
  000ce	81 c4 d8 00 00
	00		 add	 esp, 216		; 000000d8H
  000d4	3b ec		 cmp	 ebp, esp
  000d6	e8 00 00 00 00	 call	 __RTC_CheckEsp
  000db	8b e5		 mov	 esp, ebp
  000dd	5d		 pop	 ebp
  000de	c3		 ret	 0
_TEXT	ENDS
;	COMDAT text$x
text$x	SEGMENT
__unwindfunclet$??1CDviceCtrlDlgDlg@@UAE@XZ$0:
  00000	8b 4d ec	 mov	 ecx, DWORD PTR _this$[ebp]
  00003	e9 00 00 00 00	 jmp	 ??1CDialog@@UAE@XZ	; CDialog::~CDialog
__unwindfunclet$??1CDviceCtrlDlgDlg@@UAE@XZ$1:
  00008	8b 4d ec	 mov	 ecx, DWORD PTR _this$[ebp]
  0000b	81 c1 30 01 00
	00		 add	 ecx, 304		; 00000130H
  00011	e9 00 00 00 00	 jmp	 ??1CComPort@LsComm@@UAE@XZ ; LsComm::CComPort::~CComPort
__unwindfunclet$??1CDviceCtrlDlgDlg@@UAE@XZ$2:
  00016	8b 4d ec	 mov	 ecx, DWORD PTR _this$[ebp]
  00019	81 c1 98 09 00
	00		 add	 ecx, 2456		; 00000998H
  0001f	e9 00 00 00 00	 jmp	 ??1?$CStringT@_WV?$StrTraitMFC@_WV?$ChTraitsCRT@_W@ATL@@@@@ATL@@QAE@XZ ; ATL::CStringT<wchar_t,StrTraitMFC<wchar_t,ATL::ChTraitsCRT<wchar_t> > >::~CStringT<wchar_t,StrTraitMFC<wchar_t,ATL::ChTraitsCRT<wchar_t> > >
__unwindfunclet$??1CDviceCtrlDlgDlg@@UAE@XZ$3:
  00024	8b 4d ec	 mov	 ecx, DWORD PTR _this$[ebp]
  00027	81 c1 9c 09 00
	00		 add	 ecx, 2460		; 0000099cH
  0002d	e9 00 00 00 00	 jmp	 ??1CSliderCtrl@@UAE@XZ	; CSliderCtrl::~CSliderCtrl
__unwindfunclet$??1CDviceCtrlDlgDlg@@UAE@XZ$4:
  00032	8b 4d ec	 mov	 ecx, DWORD PTR _this$[ebp]
  00035	81 c1 14 0a 00
	00		 add	 ecx, 2580		; 00000a14H
  0003b	e9 00 00 00 00	 jmp	 ??1CEdit@@UAE@XZ	; CEdit::~CEdit
__unwindfunclet$??1CDviceCtrlDlgDlg@@UAE@XZ$5:
  00040	8b 4d ec	 mov	 ecx, DWORD PTR _this$[ebp]
  00043	81 c1 88 0a 00
	00		 add	 ecx, 2696		; 00000a88H
  00049	e9 00 00 00 00	 jmp	 ??1CStatic@@UAE@XZ	; CStatic::~CStatic
__ehhandler$??1CDviceCtrlDlgDlg@@UAE@XZ:
  0004e	8b 54 24 08	 mov	 edx, DWORD PTR [esp+8]
  00052	8d 42 0c	 lea	 eax, DWORD PTR [edx+12]
  00055	8b 8a 24 ff ff
	ff		 mov	 ecx, DWORD PTR [edx-220]
  0005b	33 c8		 xor	 ecx, eax
  0005d	e8 00 00 00 00	 call	 @__security_check_cookie@4
  00062	b8 00 00 00 00	 mov	 eax, OFFSET __ehfuncinfo$??1CDviceCtrlDlgDlg@@UAE@XZ
  00067	e9 00 00 00 00	 jmp	 ___CxxFrameHandler3
text$x	ENDS
??1CDviceCtrlDlgDlg@@UAE@XZ ENDP			; CDviceCtrlDlgDlg::~CDviceCtrlDlgDlg
PUBLIC	??1?$_Vector_val@V?$CStringT@_WV?$StrTraitMFC@_WV?$ChTraitsCRT@_W@ATL@@@@@ATL@@V?$allocator@V?$CStringT@_WV?$StrTraitMFC@_WV?$ChTraitsCRT@_W@ATL@@@@@ATL@@@std@@@std@@QAE@XZ ; std::_Vector_val<ATL::CStringT<wchar_t,StrTraitMFC<wchar_t,ATL::ChTraitsCRT<wchar_t> > >,std::allocator<ATL::CStringT<wchar_t,StrTraitMFC<wchar_t,ATL::ChTraitsCRT<wchar_t> > > > >::~_Vector_val<ATL::CStringT<wchar_t,StrTraitMFC<wchar_t,ATL::ChTraitsCRT<wchar_t> > >,std::allocator<ATL::CStringT<wchar_t,StrTraitMFC<wchar_t,ATL::ChTraitsCRT<wchar_t> > > > >
PUBLIC	?_Tidy@?$vector@V?$CStringT@_WV?$StrTraitMFC@_WV?$ChTraitsCRT@_W@ATL@@@@@ATL@@V?$allocator@V?$CStringT@_WV?$StrTraitMFC@_WV?$ChTraitsCRT@_W@ATL@@@@@ATL@@@std@@@std@@IAEXXZ ; std::vector<ATL::CStringT<wchar_t,StrTraitMFC<wchar_t,ATL::ChTraitsCRT<wchar_t> > >,std::allocator<ATL::CStringT<wchar_t,StrTraitMFC<wchar_t,ATL::ChTraitsCRT<wchar_t> > > > >::_Tidy
;	COMDAT xdata$x
; File c:\program files\microsoft visual studio 10.0\vc\include\vector
xdata$x	SEGMENT
__unwindtable$??1?$vector@V?$CStringT@_WV?$StrTraitMFC@_WV?$ChTraitsCRT@_W@ATL@@@@@ATL@@V?$allocator@V?$CStringT@_WV?$StrTraitMFC@_WV?$ChTraitsCRT@_W@ATL@@@@@ATL@@@std@@@std@@QAE@XZ DD 0ffffffffH
	DD	FLAT:__unwindfunclet$??1?$vector@V?$CStringT@_WV?$StrTraitMFC@_WV?$ChTraitsCRT@_W@ATL@@@@@ATL@@V?$allocator@V?$CStringT@_WV?$StrTraitMFC@_WV?$ChTraitsCRT@_W@ATL@@@@@ATL@@@std@@@std@@QAE@XZ$0
__ehfuncinfo$??1?$vector@V?$CStringT@_WV?$StrTraitMFC@_WV?$ChTraitsCRT@_W@ATL@@@@@ATL@@V?$allocator@V?$CStringT@_WV?$StrTraitMFC@_WV?$ChTraitsCRT@_W@ATL@@@@@ATL@@@std@@@std@@QAE@XZ DD 019930522H
	DD	01H
	DD	FLAT:__unwindtable$??1?$vector@V?$CStringT@_WV?$StrTraitMFC@_WV?$ChTraitsCRT@_W@ATL@@@@@ATL@@V?$allocator@V?$CStringT@_WV?$StrTraitMFC@_WV?$ChTraitsCRT@_W@ATL@@@@@ATL@@@std@@@std@@QAE@XZ
	DD	2 DUP(00H)
	DD	2 DUP(00H)
	DD	00H
	DD	01H
; Function compile flags: /Odtp /RTCsu /ZI
xdata$x	ENDS
;	COMDAT ??1?$vector@V?$CStringT@_WV?$StrTraitMFC@_WV?$ChTraitsCRT@_W@ATL@@@@@ATL@@V?$allocator@V?$CStringT@_WV?$StrTraitMFC@_WV?$ChTraitsCRT@_W@ATL@@@@@ATL@@@std@@@std@@QAE@XZ
_TEXT	SEGMENT
_this$ = -20						; size = 4
__$EHRec$ = -12						; size = 12
??1?$vector@V?$CStringT@_WV?$StrTraitMFC@_WV?$ChTraitsCRT@_W@ATL@@@@@ATL@@V?$allocator@V?$CStringT@_WV?$StrTraitMFC@_WV?$ChTraitsCRT@_W@ATL@@@@@ATL@@@std@@@std@@QAE@XZ PROC ; std::vector<ATL::CStringT<wchar_t,StrTraitMFC<wchar_t,ATL::ChTraitsCRT<wchar_t> > >,std::allocator<ATL::CStringT<wchar_t,StrTraitMFC<wchar_t,ATL::ChTraitsCRT<wchar_t> > > > >::~vector<ATL::CStringT<wchar_t,StrTraitMFC<wchar_t,ATL::ChTraitsCRT<wchar_t> > >,std::allocator<ATL::CStringT<wchar_t,StrTraitMFC<wchar_t,ATL::ChTraitsCRT<wchar_t> > > > >, COMDAT
; _this$ = ecx

; 704  : 		{	// destroy the object

  00000	55		 push	 ebp
  00001	8b ec		 mov	 ebp, esp
  00003	6a ff		 push	 -1
  00005	68 00 00 00 00	 push	 __ehhandler$??1?$vector@V?$CStringT@_WV?$StrTraitMFC@_WV?$ChTraitsCRT@_W@ATL@@@@@ATL@@V?$allocator@V?$CStringT@_WV?$StrTraitMFC@_WV?$ChTraitsCRT@_W@ATL@@@@@ATL@@@std@@@std@@QAE@XZ
  0000a	64 a1 00 00 00
	00		 mov	 eax, DWORD PTR fs:0
  00010	50		 push	 eax
  00011	81 ec cc 00 00
	00		 sub	 esp, 204		; 000000ccH
  00017	53		 push	 ebx
  00018	56		 push	 esi
  00019	57		 push	 edi
  0001a	51		 push	 ecx
  0001b	8d bd 28 ff ff
	ff		 lea	 edi, DWORD PTR [ebp-216]
  00021	b9 33 00 00 00	 mov	 ecx, 51			; 00000033H
  00026	b8 cc cc cc cc	 mov	 eax, -858993460		; ccccccccH
  0002b	f3 ab		 rep stosd
  0002d	59		 pop	 ecx
  0002e	a1 00 00 00 00	 mov	 eax, DWORD PTR ___security_cookie
  00033	33 c5		 xor	 eax, ebp
  00035	50		 push	 eax
  00036	8d 45 f4	 lea	 eax, DWORD PTR __$EHRec$[ebp]
  00039	64 a3 00 00 00
	00		 mov	 DWORD PTR fs:0, eax
  0003f	89 4d ec	 mov	 DWORD PTR _this$[ebp], ecx
  00042	c7 45 fc 00 00
	00 00		 mov	 DWORD PTR __$EHRec$[ebp+8], 0

; 705  : 		_Tidy();

  00049	8b 4d ec	 mov	 ecx, DWORD PTR _this$[ebp]
  0004c	e8 00 00 00 00	 call	 ?_Tidy@?$vector@V?$CStringT@_WV?$StrTraitMFC@_WV?$ChTraitsCRT@_W@ATL@@@@@ATL@@V?$allocator@V?$CStringT@_WV?$StrTraitMFC@_WV?$ChTraitsCRT@_W@ATL@@@@@ATL@@@std@@@std@@IAEXXZ ; std::vector<ATL::CStringT<wchar_t,StrTraitMFC<wchar_t,ATL::ChTraitsCRT<wchar_t> > >,std::allocator<ATL::CStringT<wchar_t,StrTraitMFC<wchar_t,ATL::ChTraitsCRT<wchar_t> > > > >::_Tidy

; 706  : 		}

  00051	c7 45 fc ff ff
	ff ff		 mov	 DWORD PTR __$EHRec$[ebp+8], -1
  00058	8b 4d ec	 mov	 ecx, DWORD PTR _this$[ebp]
  0005b	e8 00 00 00 00	 call	 ??1?$_Vector_val@V?$CStringT@_WV?$StrTraitMFC@_WV?$ChTraitsCRT@_W@ATL@@@@@ATL@@V?$allocator@V?$CStringT@_WV?$StrTraitMFC@_WV?$ChTraitsCRT@_W@ATL@@@@@ATL@@@std@@@std@@QAE@XZ ; std::_Vector_val<ATL::CStringT<wchar_t,StrTraitMFC<wchar_t,ATL::ChTraitsCRT<wchar_t> > >,std::allocator<ATL::CStringT<wchar_t,StrTraitMFC<wchar_t,ATL::ChTraitsCRT<wchar_t> > > > >::~_Vector_val<ATL::CStringT<wchar_t,StrTraitMFC<wchar_t,ATL::ChTraitsCRT<wchar_t> > >,std::allocator<ATL::CStringT<wchar_t,StrTraitMFC<wchar_t,ATL::ChTraitsCRT<wchar_t> > > > >
  00060	8b 4d f4	 mov	 ecx, DWORD PTR __$EHRec$[ebp]
  00063	64 89 0d 00 00
	00 00		 mov	 DWORD PTR fs:0, ecx
  0006a	59		 pop	 ecx
  0006b	5f		 pop	 edi
  0006c	5e		 pop	 esi
  0006d	5b		 pop	 ebx
  0006e	81 c4 d8 00 00
	00		 add	 esp, 216		; 000000d8H
  00074	3b ec		 cmp	 ebp, esp
  00076	e8 00 00 00 00	 call	 __RTC_CheckEsp
  0007b	8b e5		 mov	 esp, ebp
  0007d	5d		 pop	 ebp
  0007e	c3		 ret	 0
_TEXT	ENDS
;	COMDAT text$x
text$x	SEGMENT
__unwindfunclet$??1?$vector@V?$CStringT@_WV?$StrTraitMFC@_WV?$ChTraitsCRT@_W@ATL@@@@@ATL@@V?$allocator@V?$CStringT@_WV?$StrTraitMFC@_WV?$ChTraitsCRT@_W@ATL@@@@@ATL@@@std@@@std@@QAE@XZ$0:
  00000	8b 4d ec	 mov	 ecx, DWORD PTR _this$[ebp]
  00003	e9 00 00 00 00	 jmp	 ??1?$_Vector_val@V?$CStringT@_WV?$StrTraitMFC@_WV?$ChTraitsCRT@_W@ATL@@@@@ATL@@V?$allocator@V?$CStringT@_WV?$StrTraitMFC@_WV?$ChTraitsCRT@_W@ATL@@@@@ATL@@@std@@@std@@QAE@XZ ; std::_Vector_val<ATL::CStringT<wchar_t,StrTraitMFC<wchar_t,ATL::ChTraitsCRT<wchar_t> > >,std::allocator<ATL::CStringT<wchar_t,StrTraitMFC<wchar_t,ATL::ChTraitsCRT<wchar_t> > > > >::~_Vector_val<ATL::CStringT<wchar_t,StrTraitMFC<wchar_t,ATL::ChTraitsCRT<wchar_t> > >,std::allocator<ATL::CStringT<wchar_t,StrTraitMFC<wchar_t,ATL::ChTraitsCRT<wchar_t> > > > >
__ehhandler$??1?$vector@V?$CStringT@_WV?$StrTraitMFC@_WV?$ChTraitsCRT@_W@ATL@@@@@ATL@@V?$allocator@V?$CStringT@_WV?$StrTraitMFC@_WV?$ChTraitsCRT@_W@ATL@@@@@ATL@@@std@@@std@@QAE@XZ:
  00008	8b 54 24 08	 mov	 edx, DWORD PTR [esp+8]
  0000c	8d 42 0c	 lea	 eax, DWORD PTR [edx+12]
  0000f	8b 8a 24 ff ff
	ff		 mov	 ecx, DWORD PTR [edx-220]
  00015	33 c8		 xor	 ecx, eax
  00017	e8 00 00 00 00	 call	 @__security_check_cookie@4
  0001c	b8 00 00 00 00	 mov	 eax, OFFSET __ehfuncinfo$??1?$vector@V?$CStringT@_WV?$StrTraitMFC@_WV?$ChTraitsCRT@_W@ATL@@@@@ATL@@V?$allocator@V?$CStringT@_WV?$StrTraitMFC@_WV?$ChTraitsCRT@_W@ATL@@@@@ATL@@@std@@@std@@QAE@XZ
  00021	e9 00 00 00 00	 jmp	 ___CxxFrameHandler3
text$x	ENDS
??1?$vector@V?$CStringT@_WV?$StrTraitMFC@_WV?$ChTraitsCRT@_W@ATL@@@@@ATL@@V?$allocator@V?$CStringT@_WV?$StrTraitMFC@_WV?$ChTraitsCRT@_W@ATL@@@@@ATL@@@std@@@std@@QAE@XZ ENDP ; std::vector<ATL::CStringT<wchar_t,StrTraitMFC<wchar_t,ATL::ChTraitsCRT<wchar_t> > >,std::allocator<ATL::CStringT<wchar_t,StrTraitMFC<wchar_t,ATL::ChTraitsCRT<wchar_t> > > > >::~vector<ATL::CStringT<wchar_t,StrTraitMFC<wchar_t,ATL::ChTraitsCRT<wchar_t> > >,std::allocator<ATL::CStringT<wchar_t,StrTraitMFC<wchar_t,ATL::ChTraitsCRT<wchar_t> > > > >
PUBLIC	?deallocate@?$allocator@V?$CStringT@_WV?$StrTraitMFC@_WV?$ChTraitsCRT@_W@ATL@@@@@ATL@@@std@@QAEXPAV?$CStringT@_WV?$StrTraitMFC@_WV?$ChTraitsCRT@_W@ATL@@@@@ATL@@I@Z ; std::allocator<ATL::CStringT<wchar_t,StrTraitMFC<wchar_t,ATL::ChTraitsCRT<wchar_t> > > >::deallocate
PUBLIC	?_Destroy@?$vector@V?$CStringT@_WV?$StrTraitMFC@_WV?$ChTraitsCRT@_W@ATL@@@@@ATL@@V?$allocator@V?$CStringT@_WV?$StrTraitMFC@_WV?$ChTraitsCRT@_W@ATL@@@@@ATL@@@std@@@std@@IAEXPAV?$CStringT@_WV?$StrTraitMFC@_WV?$ChTraitsCRT@_W@ATL@@@@@ATL@@0@Z ; std::vector<ATL::CStringT<wchar_t,StrTraitMFC<wchar_t,ATL::ChTraitsCRT<wchar_t> > >,std::allocator<ATL::CStringT<wchar_t,StrTraitMFC<wchar_t,ATL::ChTraitsCRT<wchar_t> > > > >::_Destroy
PUBLIC	?_Orphan_all@_Container_base12@std@@QAEXXZ	; std::_Container_base12::_Orphan_all
; Function compile flags: /Odtp /RTCsu /ZI
;	COMDAT ?_Tidy@?$vector@V?$CStringT@_WV?$StrTraitMFC@_WV?$ChTraitsCRT@_W@ATL@@@@@ATL@@V?$allocator@V?$CStringT@_WV?$StrTraitMFC@_WV?$ChTraitsCRT@_W@ATL@@@@@ATL@@@std@@@std@@IAEXXZ
_TEXT	SEGMENT
_this$ = -8						; size = 4
?_Tidy@?$vector@V?$CStringT@_WV?$StrTraitMFC@_WV?$ChTraitsCRT@_W@ATL@@@@@ATL@@V?$allocator@V?$CStringT@_WV?$StrTraitMFC@_WV?$ChTraitsCRT@_W@ATL@@@@@ATL@@@std@@@std@@IAEXXZ PROC ; std::vector<ATL::CStringT<wchar_t,StrTraitMFC<wchar_t,ATL::ChTraitsCRT<wchar_t> > >,std::allocator<ATL::CStringT<wchar_t,StrTraitMFC<wchar_t,ATL::ChTraitsCRT<wchar_t> > > > >::_Tidy, COMDAT
; _this$ = ecx

; 1301 : 		{	// free all storage

  00000	55		 push	 ebp
  00001	8b ec		 mov	 ebp, esp
  00003	81 ec cc 00 00
	00		 sub	 esp, 204		; 000000ccH
  00009	53		 push	 ebx
  0000a	56		 push	 esi
  0000b	57		 push	 edi
  0000c	51		 push	 ecx
  0000d	8d bd 34 ff ff
	ff		 lea	 edi, DWORD PTR [ebp-204]
  00013	b9 33 00 00 00	 mov	 ecx, 51			; 00000033H
  00018	b8 cc cc cc cc	 mov	 eax, -858993460		; ccccccccH
  0001d	f3 ab		 rep stosd
  0001f	59		 pop	 ecx
  00020	89 4d f8	 mov	 DWORD PTR _this$[ebp], ecx

; 1302 : 		if (this->_Myfirst != 0)

  00023	8b 45 f8	 mov	 eax, DWORD PTR _this$[ebp]
  00026	83 78 04 00	 cmp	 DWORD PTR [eax+4], 0
  0002a	74 40		 je	 SHORT $LN1@Tidy

; 1303 : 			{	// something to free, destroy and deallocate it
; 1304 : 			this->_Orphan_all();

  0002c	8b 4d f8	 mov	 ecx, DWORD PTR _this$[ebp]
  0002f	e8 00 00 00 00	 call	 ?_Orphan_all@_Container_base12@std@@QAEXXZ ; std::_Container_base12::_Orphan_all

; 1305 : 			_Destroy(this->_Myfirst, this->_Mylast);

  00034	8b 45 f8	 mov	 eax, DWORD PTR _this$[ebp]
  00037	8b 48 08	 mov	 ecx, DWORD PTR [eax+8]
  0003a	51		 push	 ecx
  0003b	8b 55 f8	 mov	 edx, DWORD PTR _this$[ebp]
  0003e	8b 42 04	 mov	 eax, DWORD PTR [edx+4]
  00041	50		 push	 eax
  00042	8b 4d f8	 mov	 ecx, DWORD PTR _this$[ebp]
  00045	e8 00 00 00 00	 call	 ?_Destroy@?$vector@V?$CStringT@_WV?$StrTraitMFC@_WV?$ChTraitsCRT@_W@ATL@@@@@ATL@@V?$allocator@V?$CStringT@_WV?$StrTraitMFC@_WV?$ChTraitsCRT@_W@ATL@@@@@ATL@@@std@@@std@@IAEXPAV?$CStringT@_WV?$StrTraitMFC@_WV?$ChTraitsCRT@_W@ATL@@@@@ATL@@0@Z ; std::vector<ATL::CStringT<wchar_t,StrTraitMFC<wchar_t,ATL::ChTraitsCRT<wchar_t> > >,std::allocator<ATL::CStringT<wchar_t,StrTraitMFC<wchar_t,ATL::ChTraitsCRT<wchar_t> > > > >::_Destroy

; 1306 : 			this->_Alval.deallocate(this->_Myfirst,
; 1307 : 				this->_Myend - this->_Myfirst);

  0004a	8b 45 f8	 mov	 eax, DWORD PTR _this$[ebp]
  0004d	8b 4d f8	 mov	 ecx, DWORD PTR _this$[ebp]
  00050	8b 50 0c	 mov	 edx, DWORD PTR [eax+12]
  00053	2b 51 04	 sub	 edx, DWORD PTR [ecx+4]
  00056	c1 fa 02	 sar	 edx, 2
  00059	52		 push	 edx
  0005a	8b 45 f8	 mov	 eax, DWORD PTR _this$[ebp]
  0005d	8b 48 04	 mov	 ecx, DWORD PTR [eax+4]
  00060	51		 push	 ecx
  00061	8b 4d f8	 mov	 ecx, DWORD PTR _this$[ebp]
  00064	83 c1 10	 add	 ecx, 16			; 00000010H
  00067	e8 00 00 00 00	 call	 ?deallocate@?$allocator@V?$CStringT@_WV?$StrTraitMFC@_WV?$ChTraitsCRT@_W@ATL@@@@@ATL@@@std@@QAEXPAV?$CStringT@_WV?$StrTraitMFC@_WV?$ChTraitsCRT@_W@ATL@@@@@ATL@@I@Z ; std::allocator<ATL::CStringT<wchar_t,StrTraitMFC<wchar_t,ATL::ChTraitsCRT<wchar_t> > > >::deallocate
$LN1@Tidy:

; 1308 : 			}
; 1309 : 		this->_Myfirst = 0;

  0006c	8b 45 f8	 mov	 eax, DWORD PTR _this$[ebp]
  0006f	c7 40 04 00 00
	00 00		 mov	 DWORD PTR [eax+4], 0

; 1310 : 		this->_Mylast = 0;

  00076	8b 45 f8	 mov	 eax, DWORD PTR _this$[ebp]
  00079	c7 40 08 00 00
	00 00		 mov	 DWORD PTR [eax+8], 0

; 1311 : 		this->_Myend = 0;

  00080	8b 45 f8	 mov	 eax, DWORD PTR _this$[ebp]
  00083	c7 40 0c 00 00
	00 00		 mov	 DWORD PTR [eax+12], 0

; 1312 : 		}

  0008a	5f		 pop	 edi
  0008b	5e		 pop	 esi
  0008c	5b		 pop	 ebx
  0008d	81 c4 cc 00 00
	00		 add	 esp, 204		; 000000ccH
  00093	3b ec		 cmp	 ebp, esp
  00095	e8 00 00 00 00	 call	 __RTC_CheckEsp
  0009a	8b e5		 mov	 esp, ebp
  0009c	5d		 pop	 ebp
  0009d	c3		 ret	 0
?_Tidy@?$vector@V?$CStringT@_WV?$StrTraitMFC@_WV?$ChTraitsCRT@_W@ATL@@@@@ATL@@V?$allocator@V?$CStringT@_WV?$StrTraitMFC@_WV?$ChTraitsCRT@_W@ATL@@@@@ATL@@@std@@@std@@IAEXXZ ENDP ; std::vector<ATL::CStringT<wchar_t,StrTraitMFC<wchar_t,ATL::ChTraitsCRT<wchar_t> > >,std::allocator<ATL::CStringT<wchar_t,StrTraitMFC<wchar_t,ATL::ChTraitsCRT<wchar_t> > > > >::_Tidy
_TEXT	ENDS
EXTRN	??1_Lockit@std@@QAE@XZ:PROC			; std::_Lockit::~_Lockit
EXTRN	??0_Lockit@std@@QAE@H@Z:PROC			; std::_Lockit::_Lockit
; Function compile flags: /Odtp /RTCsu /ZI
; File c:\program files\microsoft visual studio 10.0\vc\include\xutility
;	COMDAT ?_Orphan_all@_Container_base12@std@@QAEXXZ
_TEXT	SEGMENT
__Pnext$216531 = -32					; size = 4
__Lock$216530 = -20					; size = 4
_this$ = -8						; size = 4
?_Orphan_all@_Container_base12@std@@QAEXXZ PROC		; std::_Container_base12::_Orphan_all, COMDAT
; _this$ = ecx

; 194  : 	{	// orphan all iterators

  00000	55		 push	 ebp
  00001	8b ec		 mov	 ebp, esp
  00003	81 ec e4 00 00
	00		 sub	 esp, 228		; 000000e4H
  00009	53		 push	 ebx
  0000a	56		 push	 esi
  0000b	57		 push	 edi
  0000c	51		 push	 ecx
  0000d	8d bd 1c ff ff
	ff		 lea	 edi, DWORD PTR [ebp-228]
  00013	b9 39 00 00 00	 mov	 ecx, 57			; 00000039H
  00018	b8 cc cc cc cc	 mov	 eax, -858993460		; ccccccccH
  0001d	f3 ab		 rep stosd
  0001f	59		 pop	 ecx
  00020	89 4d f8	 mov	 DWORD PTR _this$[ebp], ecx

; 195  :  #if _ITERATOR_DEBUG_LEVEL == 2
; 196  : 	if (_Myproxy != 0)

  00023	8b 45 f8	 mov	 eax, DWORD PTR _this$[ebp]
  00026	83 38 00	 cmp	 DWORD PTR [eax], 0
  00029	74 4d		 je	 SHORT $LN5@Orphan_all

; 197  : 		{	// proxy allocated, drain it
; 198  : 		_Lockit _Lock(_LOCK_DEBUG);

  0002b	6a 03		 push	 3
  0002d	8d 4d ec	 lea	 ecx, DWORD PTR __Lock$216530[ebp]
  00030	e8 00 00 00 00	 call	 ??0_Lockit@std@@QAE@H@Z	; std::_Lockit::_Lockit

; 199  : 
; 200  : 		for (_Iterator_base12 **_Pnext = &_Myproxy->_Myfirstiter;

  00035	8b 45 f8	 mov	 eax, DWORD PTR _this$[ebp]
  00038	8b 08		 mov	 ecx, DWORD PTR [eax]
  0003a	83 c1 04	 add	 ecx, 4
  0003d	89 4d e0	 mov	 DWORD PTR __Pnext$216531[ebp], ecx
  00040	eb 0d		 jmp	 SHORT $LN3@Orphan_all
$LN2@Orphan_all:

; 201  : 			*_Pnext != 0; *_Pnext = (*_Pnext)->_Mynextiter)

  00042	8b 45 e0	 mov	 eax, DWORD PTR __Pnext$216531[ebp]
  00045	8b 08		 mov	 ecx, DWORD PTR [eax]
  00047	8b 55 e0	 mov	 edx, DWORD PTR __Pnext$216531[ebp]
  0004a	8b 41 04	 mov	 eax, DWORD PTR [ecx+4]
  0004d	89 02		 mov	 DWORD PTR [edx], eax
$LN3@Orphan_all:
  0004f	8b 45 e0	 mov	 eax, DWORD PTR __Pnext$216531[ebp]
  00052	83 38 00	 cmp	 DWORD PTR [eax], 0
  00055	74 0d		 je	 SHORT $LN1@Orphan_all

; 202  : 			(*_Pnext)->_Myproxy = 0;

  00057	8b 45 e0	 mov	 eax, DWORD PTR __Pnext$216531[ebp]
  0005a	8b 08		 mov	 ecx, DWORD PTR [eax]
  0005c	c7 01 00 00 00
	00		 mov	 DWORD PTR [ecx], 0
  00062	eb de		 jmp	 SHORT $LN2@Orphan_all
$LN1@Orphan_all:

; 203  : 		_Myproxy->_Myfirstiter = 0;

  00064	8b 45 f8	 mov	 eax, DWORD PTR _this$[ebp]
  00067	8b 08		 mov	 ecx, DWORD PTR [eax]
  00069	c7 41 04 00 00
	00 00		 mov	 DWORD PTR [ecx+4], 0

; 204  : 		}

  00070	8d 4d ec	 lea	 ecx, DWORD PTR __Lock$216530[ebp]
  00073	e8 00 00 00 00	 call	 ??1_Lockit@std@@QAE@XZ	; std::_Lockit::~_Lockit
$LN5@Orphan_all:

; 205  :  #endif /* _ITERATOR_DEBUG_LEVEL == 2 */
; 206  : 	}

  00078	52		 push	 edx
  00079	8b cd		 mov	 ecx, ebp
  0007b	50		 push	 eax
  0007c	8d 15 00 00 00
	00		 lea	 edx, DWORD PTR $LN10@Orphan_all
  00082	e8 00 00 00 00	 call	 @_RTC_CheckStackVars@8
  00087	58		 pop	 eax
  00088	5a		 pop	 edx
  00089	5f		 pop	 edi
  0008a	5e		 pop	 esi
  0008b	5b		 pop	 ebx
  0008c	81 c4 e4 00 00
	00		 add	 esp, 228		; 000000e4H
  00092	3b ec		 cmp	 ebp, esp
  00094	e8 00 00 00 00	 call	 __RTC_CheckEsp
  00099	8b e5		 mov	 esp, ebp
  0009b	5d		 pop	 ebp
  0009c	c3		 ret	 0
  0009d	8d 49 00	 npad	 3
$LN10@Orphan_all:
  000a0	01 00 00 00	 DD	 1
  000a4	00 00 00 00	 DD	 $LN9@Orphan_all
$LN9@Orphan_all:
  000a8	ec ff ff ff	 DD	 -20			; ffffffecH
  000ac	04 00 00 00	 DD	 4
  000b0	00 00 00 00	 DD	 $LN8@Orphan_all
$LN8@Orphan_all:
  000b4	5f		 DB	 95			; 0000005fH
  000b5	4c		 DB	 76			; 0000004cH
  000b6	6f		 DB	 111			; 0000006fH
  000b7	63		 DB	 99			; 00000063H
  000b8	6b		 DB	 107			; 0000006bH
  000b9	00		 DB	 0
?_Orphan_all@_Container_base12@std@@QAEXXZ ENDP		; std::_Container_base12::_Orphan_all
_TEXT	ENDS
PUBLIC	??1_Container_base12@std@@QAE@XZ		; std::_Container_base12::~_Container_base12
PUBLIC	?deallocate@?$allocator@U_Container_proxy@std@@@std@@QAEXPAU_Container_proxy@2@I@Z ; std::allocator<std::_Container_proxy>::deallocate
PUBLIC	??$_Dest_val@V?$allocator@U_Container_proxy@std@@@std@@U_Container_proxy@2@@std@@YAXAAV?$allocator@U_Container_proxy@std@@@0@PAU_Container_proxy@0@@Z ; std::_Dest_val<std::allocator<std::_Container_proxy>,std::_Container_proxy>
PUBLIC	??$?0V?$CStringT@_WV?$StrTraitMFC@_WV?$ChTraitsCRT@_W@ATL@@@@@ATL@@@?$allocator@U_Container_proxy@std@@@std@@QAE@ABV?$allocator@V?$CStringT@_WV?$StrTraitMFC@_WV?$ChTraitsCRT@_W@ATL@@@@@ATL@@@1@@Z ; std::allocator<std::_Container_proxy>::allocator<std::_Container_proxy><ATL::CStringT<wchar_t,StrTraitMFC<wchar_t,ATL::ChTraitsCRT<wchar_t> > > >
;	COMDAT xdata$x
; File c:\program files\microsoft visual studio 10.0\vc\include\vector
xdata$x	SEGMENT
__unwindtable$??1?$_Vector_val@V?$CStringT@_WV?$StrTraitMFC@_WV?$ChTraitsCRT@_W@ATL@@@@@ATL@@V?$allocator@V?$CStringT@_WV?$StrTraitMFC@_WV?$ChTraitsCRT@_W@ATL@@@@@ATL@@@std@@@std@@QAE@XZ DD 0ffffffffH
	DD	FLAT:__unwindfunclet$??1?$_Vector_val@V?$CStringT@_WV?$StrTraitMFC@_WV?$ChTraitsCRT@_W@ATL@@@@@ATL@@V?$allocator@V?$CStringT@_WV?$StrTraitMFC@_WV?$ChTraitsCRT@_W@ATL@@@@@ATL@@@std@@@std@@QAE@XZ$0
__ehfuncinfo$??1?$_Vector_val@V?$CStringT@_WV?$StrTraitMFC@_WV?$ChTraitsCRT@_W@ATL@@@@@ATL@@V?$allocator@V?$CStringT@_WV?$StrTraitMFC@_WV?$ChTraitsCRT@_W@ATL@@@@@ATL@@@std@@@std@@QAE@XZ DD 019930522H
	DD	01H
	DD	FLAT:__unwindtable$??1?$_Vector_val@V?$CStringT@_WV?$StrTraitMFC@_WV?$ChTraitsCRT@_W@ATL@@@@@ATL@@V?$allocator@V?$CStringT@_WV?$StrTraitMFC@_WV?$ChTraitsCRT@_W@ATL@@@@@ATL@@@std@@@std@@QAE@XZ
	DD	2 DUP(00H)
	DD	2 DUP(00H)
	DD	00H
	DD	01H
; Function compile flags: /Odtp /RTCsu /ZI
xdata$x	ENDS
;	COMDAT ??1?$_Vector_val@V?$CStringT@_WV?$StrTraitMFC@_WV?$ChTraitsCRT@_W@ATL@@@@@ATL@@V?$allocator@V?$CStringT@_WV?$StrTraitMFC@_WV?$ChTraitsCRT@_W@ATL@@@@@ATL@@@std@@@std@@QAE@XZ
_TEXT	SEGMENT
__Alproxy$ = -29					; size = 1
_this$ = -20						; size = 4
__$EHRec$ = -12						; size = 12
??1?$_Vector_val@V?$CStringT@_WV?$StrTraitMFC@_WV?$ChTraitsCRT@_W@ATL@@@@@ATL@@V?$allocator@V?$CStringT@_WV?$StrTraitMFC@_WV?$ChTraitsCRT@_W@ATL@@@@@ATL@@@std@@@std@@QAE@XZ PROC ; std::_Vector_val<ATL::CStringT<wchar_t,StrTraitMFC<wchar_t,ATL::ChTraitsCRT<wchar_t> > >,std::allocator<ATL::CStringT<wchar_t,StrTraitMFC<wchar_t,ATL::ChTraitsCRT<wchar_t> > > > >::~_Vector_val<ATL::CStringT<wchar_t,StrTraitMFC<wchar_t,ATL::ChTraitsCRT<wchar_t> > >,std::allocator<ATL::CStringT<wchar_t,StrTraitMFC<wchar_t,ATL::ChTraitsCRT<wchar_t> > > > >, COMDAT
; _this$ = ecx

; 452  : 		{	// destroy proxy

  00000	55		 push	 ebp
  00001	8b ec		 mov	 ebp, esp
  00003	6a ff		 push	 -1
  00005	68 00 00 00 00	 push	 __ehhandler$??1?$_Vector_val@V?$CStringT@_WV?$StrTraitMFC@_WV?$ChTraitsCRT@_W@ATL@@@@@ATL@@V?$allocator@V?$CStringT@_WV?$StrTraitMFC@_WV?$ChTraitsCRT@_W@ATL@@@@@ATL@@@std@@@std@@QAE@XZ
  0000a	64 a1 00 00 00
	00		 mov	 eax, DWORD PTR fs:0
  00010	50		 push	 eax
  00011	81 ec d8 00 00
	00		 sub	 esp, 216		; 000000d8H
  00017	53		 push	 ebx
  00018	56		 push	 esi
  00019	57		 push	 edi
  0001a	51		 push	 ecx
  0001b	8d bd 1c ff ff
	ff		 lea	 edi, DWORD PTR [ebp-228]
  00021	b9 36 00 00 00	 mov	 ecx, 54			; 00000036H
  00026	b8 cc cc cc cc	 mov	 eax, -858993460		; ccccccccH
  0002b	f3 ab		 rep stosd
  0002d	59		 pop	 ecx
  0002e	a1 00 00 00 00	 mov	 eax, DWORD PTR ___security_cookie
  00033	33 c5		 xor	 eax, ebp
  00035	50		 push	 eax
  00036	8d 45 f4	 lea	 eax, DWORD PTR __$EHRec$[ebp]
  00039	64 a3 00 00 00
	00		 mov	 DWORD PTR fs:0, eax
  0003f	89 4d ec	 mov	 DWORD PTR _this$[ebp], ecx
  00042	c7 45 fc 00 00
	00 00		 mov	 DWORD PTR __$EHRec$[ebp+8], 0

; 453  : 		typename _Alloc::template rebind<_Container_proxy>::other
; 454  : 			_Alproxy(_Alval);

  00049	8b 45 ec	 mov	 eax, DWORD PTR _this$[ebp]
  0004c	83 c0 10	 add	 eax, 16			; 00000010H
  0004f	50		 push	 eax
  00050	8d 4d e3	 lea	 ecx, DWORD PTR __Alproxy$[ebp]
  00053	e8 00 00 00 00	 call	 ??$?0V?$CStringT@_WV?$StrTraitMFC@_WV?$ChTraitsCRT@_W@ATL@@@@@ATL@@@?$allocator@U_Container_proxy@std@@@std@@QAE@ABV?$allocator@V?$CStringT@_WV?$StrTraitMFC@_WV?$ChTraitsCRT@_W@ATL@@@@@ATL@@@1@@Z ; std::allocator<std::_Container_proxy>::allocator<std::_Container_proxy><ATL::CStringT<wchar_t,StrTraitMFC<wchar_t,ATL::ChTraitsCRT<wchar_t> > > >

; 455  : 		this->_Orphan_all();

  00058	8b 4d ec	 mov	 ecx, DWORD PTR _this$[ebp]
  0005b	e8 00 00 00 00	 call	 ?_Orphan_all@_Container_base12@std@@QAEXXZ ; std::_Container_base12::_Orphan_all

; 456  : 		_Dest_val(_Alproxy, this->_Myproxy);

  00060	8b 45 ec	 mov	 eax, DWORD PTR _this$[ebp]
  00063	8b 08		 mov	 ecx, DWORD PTR [eax]
  00065	51		 push	 ecx
  00066	8d 55 e3	 lea	 edx, DWORD PTR __Alproxy$[ebp]
  00069	52		 push	 edx
  0006a	e8 00 00 00 00	 call	 ??$_Dest_val@V?$allocator@U_Container_proxy@std@@@std@@U_Container_proxy@2@@std@@YAXAAV?$allocator@U_Container_proxy@std@@@0@PAU_Container_proxy@0@@Z ; std::_Dest_val<std::allocator<std::_Container_proxy>,std::_Container_proxy>
  0006f	83 c4 08	 add	 esp, 8

; 457  : 		_Alproxy.deallocate(this->_Myproxy, 1);

  00072	6a 01		 push	 1
  00074	8b 45 ec	 mov	 eax, DWORD PTR _this$[ebp]
  00077	8b 08		 mov	 ecx, DWORD PTR [eax]
  00079	51		 push	 ecx
  0007a	8d 4d e3	 lea	 ecx, DWORD PTR __Alproxy$[ebp]
  0007d	e8 00 00 00 00	 call	 ?deallocate@?$allocator@U_Container_proxy@std@@@std@@QAEXPAU_Container_proxy@2@I@Z ; std::allocator<std::_Container_proxy>::deallocate

; 458  : 		this->_Myproxy = 0;

  00082	8b 45 ec	 mov	 eax, DWORD PTR _this$[ebp]
  00085	c7 00 00 00 00
	00		 mov	 DWORD PTR [eax], 0

; 459  : 		}

  0008b	c7 45 fc ff ff
	ff ff		 mov	 DWORD PTR __$EHRec$[ebp+8], -1
  00092	8b 4d ec	 mov	 ecx, DWORD PTR _this$[ebp]
  00095	e8 00 00 00 00	 call	 ??1_Container_base12@std@@QAE@XZ ; std::_Container_base12::~_Container_base12
  0009a	52		 push	 edx
  0009b	8b cd		 mov	 ecx, ebp
  0009d	50		 push	 eax
  0009e	8d 15 00 00 00
	00		 lea	 edx, DWORD PTR $LN7@Vector_val
  000a4	e8 00 00 00 00	 call	 @_RTC_CheckStackVars@8
  000a9	58		 pop	 eax
  000aa	5a		 pop	 edx
  000ab	8b 4d f4	 mov	 ecx, DWORD PTR __$EHRec$[ebp]
  000ae	64 89 0d 00 00
	00 00		 mov	 DWORD PTR fs:0, ecx
  000b5	59		 pop	 ecx
  000b6	5f		 pop	 edi
  000b7	5e		 pop	 esi
  000b8	5b		 pop	 ebx
  000b9	81 c4 e4 00 00
	00		 add	 esp, 228		; 000000e4H
  000bf	3b ec		 cmp	 ebp, esp
  000c1	e8 00 00 00 00	 call	 __RTC_CheckEsp
  000c6	8b e5		 mov	 esp, ebp
  000c8	5d		 pop	 ebp
  000c9	c3		 ret	 0
  000ca	8b ff		 npad	 2
$LN7@Vector_val:
  000cc	01 00 00 00	 DD	 1
  000d0	00 00 00 00	 DD	 $LN6@Vector_val
$LN6@Vector_val:
  000d4	e3 ff ff ff	 DD	 -29			; ffffffe3H
  000d8	01 00 00 00	 DD	 1
  000dc	00 00 00 00	 DD	 $LN4@Vector_val
$LN4@Vector_val:
  000e0	5f		 DB	 95			; 0000005fH
  000e1	41		 DB	 65			; 00000041H
  000e2	6c		 DB	 108			; 0000006cH
  000e3	70		 DB	 112			; 00000070H
  000e4	72		 DB	 114			; 00000072H
  000e5	6f		 DB	 111			; 0000006fH
  000e6	78		 DB	 120			; 00000078H
  000e7	79		 DB	 121			; 00000079H
  000e8	00		 DB	 0
_TEXT	ENDS
;	COMDAT text$x
text$x	SEGMENT
__unwindfunclet$??1?$_Vector_val@V?$CStringT@_WV?$StrTraitMFC@_WV?$ChTraitsCRT@_W@ATL@@@@@ATL@@V?$allocator@V?$CStringT@_WV?$StrTraitMFC@_WV?$ChTraitsCRT@_W@ATL@@@@@ATL@@@std@@@std@@QAE@XZ$0:
  00000	8b 4d ec	 mov	 ecx, DWORD PTR _this$[ebp]
  00003	e9 00 00 00 00	 jmp	 ??1_Container_base12@std@@QAE@XZ ; std::_Container_base12::~_Container_base12
__ehhandler$??1?$_Vector_val@V?$CStringT@_WV?$StrTraitMFC@_WV?$ChTraitsCRT@_W@ATL@@@@@ATL@@V?$allocator@V?$CStringT@_WV?$StrTraitMFC@_WV?$ChTraitsCRT@_W@ATL@@@@@ATL@@@std@@@std@@QAE@XZ:
  00008	8b 54 24 08	 mov	 edx, DWORD PTR [esp+8]
  0000c	8d 42 0c	 lea	 eax, DWORD PTR [edx+12]
  0000f	8b 8a 18 ff ff
	ff		 mov	 ecx, DWORD PTR [edx-232]
  00015	33 c8		 xor	 ecx, eax
  00017	e8 00 00 00 00	 call	 @__security_check_cookie@4
  0001c	b8 00 00 00 00	 mov	 eax, OFFSET __ehfuncinfo$??1?$_Vector_val@V?$CStringT@_WV?$StrTraitMFC@_WV?$ChTraitsCRT@_W@ATL@@@@@ATL@@V?$allocator@V?$CStringT@_WV?$StrTraitMFC@_WV?$ChTraitsCRT@_W@ATL@@@@@ATL@@@std@@@std@@QAE@XZ
  00021	e9 00 00 00 00	 jmp	 ___CxxFrameHandler3
text$x	ENDS
??1?$_Vector_val@V?$CStringT@_WV?$StrTraitMFC@_WV?$ChTraitsCRT@_W@ATL@@@@@ATL@@V?$allocator@V?$CStringT@_WV?$StrTraitMFC@_WV?$ChTraitsCRT@_W@ATL@@@@@ATL@@@std@@@std@@QAE@XZ ENDP ; std::_Vector_val<ATL::CStringT<wchar_t,StrTraitMFC<wchar_t,ATL::ChTraitsCRT<wchar_t> > >,std::allocator<ATL::CStringT<wchar_t,StrTraitMFC<wchar_t,ATL::ChTraitsCRT<wchar_t> > > > >::~_Vector_val<ATL::CStringT<wchar_t,StrTraitMFC<wchar_t,ATL::ChTraitsCRT<wchar_t> > >,std::allocator<ATL::CStringT<wchar_t,StrTraitMFC<wchar_t,ATL::ChTraitsCRT<wchar_t> > > > >
; Function compile flags: /Odtp /RTCsu /ZI
; File c:\program files\microsoft visual studio 10.0\vc\include\xutility
;	COMDAT ??1_Container_base12@std@@QAE@XZ
_TEXT	SEGMENT
_this$ = -8						; size = 4
??1_Container_base12@std@@QAE@XZ PROC			; std::_Container_base12::~_Container_base12, COMDAT
; _this$ = ecx

; 91   : 		{	// destroy the container

  00000	55		 push	 ebp
  00001	8b ec		 mov	 ebp, esp
  00003	81 ec cc 00 00
	00		 sub	 esp, 204		; 000000ccH
  00009	53		 push	 ebx
  0000a	56		 push	 esi
  0000b	57		 push	 edi
  0000c	51		 push	 ecx
  0000d	8d bd 34 ff ff
	ff		 lea	 edi, DWORD PTR [ebp-204]
  00013	b9 33 00 00 00	 mov	 ecx, 51			; 00000033H
  00018	b8 cc cc cc cc	 mov	 eax, -858993460		; ccccccccH
  0001d	f3 ab		 rep stosd
  0001f	59		 pop	 ecx
  00020	89 4d f8	 mov	 DWORD PTR _this$[ebp], ecx

; 92   : 		_Orphan_all();

  00023	8b 4d f8	 mov	 ecx, DWORD PTR _this$[ebp]
  00026	e8 00 00 00 00	 call	 ?_Orphan_all@_Container_base12@std@@QAEXXZ ; std::_Container_base12::_Orphan_all

; 93   : 		}

  0002b	5f		 pop	 edi
  0002c	5e		 pop	 esi
  0002d	5b		 pop	 ebx
  0002e	81 c4 cc 00 00
	00		 add	 esp, 204		; 000000ccH
  00034	3b ec		 cmp	 ebp, esp
  00036	e8 00 00 00 00	 call	 __RTC_CheckEsp
  0003b	8b e5		 mov	 esp, ebp
  0003d	5d		 pop	 ebp
  0003e	c3		 ret	 0
??1_Container_base12@std@@QAE@XZ ENDP			; std::_Container_base12::~_Container_base12
_TEXT	ENDS
PUBLIC	??$_Destroy_range@V?$allocator@V?$CStringT@_WV?$StrTraitMFC@_WV?$ChTraitsCRT@_W@ATL@@@@@ATL@@@std@@@std@@YAXPAV?$CStringT@_WV?$StrTraitMFC@_WV?$ChTraitsCRT@_W@ATL@@@@@ATL@@0AAV?$allocator@V?$CStringT@_WV?$StrTraitMFC@_WV?$ChTraitsCRT@_W@ATL@@@@@ATL@@@0@@Z ; std::_Destroy_range<std::allocator<ATL::CStringT<wchar_t,StrTraitMFC<wchar_t,ATL::ChTraitsCRT<wchar_t> > > > >
; Function compile flags: /Odtp /RTCsu /ZI
; File c:\program files\microsoft visual studio 10.0\vc\include\vector
;	COMDAT ?_Destroy@?$vector@V?$CStringT@_WV?$StrTraitMFC@_WV?$ChTraitsCRT@_W@ATL@@@@@ATL@@V?$allocator@V?$CStringT@_WV?$StrTraitMFC@_WV?$ChTraitsCRT@_W@ATL@@@@@ATL@@@std@@@std@@IAEXPAV?$CStringT@_WV?$StrTraitMFC@_WV?$ChTraitsCRT@_W@ATL@@@@@ATL@@0@Z
_TEXT	SEGMENT
_this$ = -8						; size = 4
__First$ = 8						; size = 4
__Last$ = 12						; size = 4
?_Destroy@?$vector@V?$CStringT@_WV?$StrTraitMFC@_WV?$ChTraitsCRT@_W@ATL@@@@@ATL@@V?$allocator@V?$CStringT@_WV?$StrTraitMFC@_WV?$ChTraitsCRT@_W@ATL@@@@@ATL@@@std@@@std@@IAEXPAV?$CStringT@_WV?$StrTraitMFC@_WV?$ChTraitsCRT@_W@ATL@@@@@ATL@@0@Z PROC ; std::vector<ATL::CStringT<wchar_t,StrTraitMFC<wchar_t,ATL::ChTraitsCRT<wchar_t> > >,std::allocator<ATL::CStringT<wchar_t,StrTraitMFC<wchar_t,ATL::ChTraitsCRT<wchar_t> > > > >::_Destroy, COMDAT
; _this$ = ecx

; 1269 : 		{	// destroy [_First, _Last) using allocator

  00000	55		 push	 ebp
  00001	8b ec		 mov	 ebp, esp
  00003	81 ec cc 00 00
	00		 sub	 esp, 204		; 000000ccH
  00009	53		 push	 ebx
  0000a	56		 push	 esi
  0000b	57		 push	 edi
  0000c	51		 push	 ecx
  0000d	8d bd 34 ff ff
	ff		 lea	 edi, DWORD PTR [ebp-204]
  00013	b9 33 00 00 00	 mov	 ecx, 51			; 00000033H
  00018	b8 cc cc cc cc	 mov	 eax, -858993460		; ccccccccH
  0001d	f3 ab		 rep stosd
  0001f	59		 pop	 ecx
  00020	89 4d f8	 mov	 DWORD PTR _this$[ebp], ecx

; 1270 : 		_Destroy_range(_First, _Last, this->_Alval);

  00023	8b 45 f8	 mov	 eax, DWORD PTR _this$[ebp]
  00026	83 c0 10	 add	 eax, 16			; 00000010H
  00029	50		 push	 eax
  0002a	8b 4d 0c	 mov	 ecx, DWORD PTR __Last$[ebp]
  0002d	51		 push	 ecx
  0002e	8b 55 08	 mov	 edx, DWORD PTR __First$[ebp]
  00031	52		 push	 edx
  00032	e8 00 00 00 00	 call	 ??$_Destroy_range@V?$allocator@V?$CStringT@_WV?$StrTraitMFC@_WV?$ChTraitsCRT@_W@ATL@@@@@ATL@@@std@@@std@@YAXPAV?$CStringT@_WV?$StrTraitMFC@_WV?$ChTraitsCRT@_W@ATL@@@@@ATL@@0AAV?$allocator@V?$CStringT@_WV?$StrTraitMFC@_WV?$ChTraitsCRT@_W@ATL@@@@@ATL@@@0@@Z ; std::_Destroy_range<std::allocator<ATL::CStringT<wchar_t,StrTraitMFC<wchar_t,ATL::ChTraitsCRT<wchar_t> > > > >
  00037	83 c4 0c	 add	 esp, 12			; 0000000cH

; 1271 : 		}

  0003a	5f		 pop	 edi
  0003b	5e		 pop	 esi
  0003c	5b		 pop	 ebx
  0003d	81 c4 cc 00 00
	00		 add	 esp, 204		; 000000ccH
  00043	3b ec		 cmp	 ebp, esp
  00045	e8 00 00 00 00	 call	 __RTC_CheckEsp
  0004a	8b e5		 mov	 esp, ebp
  0004c	5d		 pop	 ebp
  0004d	c2 08 00	 ret	 8
?_Destroy@?$vector@V?$CStringT@_WV?$StrTraitMFC@_WV?$ChTraitsCRT@_W@ATL@@@@@ATL@@V?$allocator@V?$CStringT@_WV?$StrTraitMFC@_WV?$ChTraitsCRT@_W@ATL@@@@@ATL@@@std@@@std@@IAEXPAV?$CStringT@_WV?$StrTraitMFC@_WV?$ChTraitsCRT@_W@ATL@@@@@ATL@@0@Z ENDP ; std::vector<ATL::CStringT<wchar_t,StrTraitMFC<wchar_t,ATL::ChTraitsCRT<wchar_t> > >,std::allocator<ATL::CStringT<wchar_t,StrTraitMFC<wchar_t,ATL::ChTraitsCRT<wchar_t> > > > >::_Destroy
_TEXT	ENDS
EXTRN	??3@YAXPAX@Z:PROC				; operator delete
; Function compile flags: /Odtp /RTCsu /ZI
; File c:\program files\microsoft visual studio 10.0\vc\include\xmemory
;	COMDAT ?deallocate@?$allocator@V?$CStringT@_WV?$StrTraitMFC@_WV?$ChTraitsCRT@_W@ATL@@@@@ATL@@@std@@QAEXPAV?$CStringT@_WV?$StrTraitMFC@_WV?$ChTraitsCRT@_W@ATL@@@@@ATL@@I@Z
_TEXT	SEGMENT
_this$ = -8						; size = 4
__Ptr$ = 8						; size = 4
___formal$ = 12						; size = 4
?deallocate@?$allocator@V?$CStringT@_WV?$StrTraitMFC@_WV?$ChTraitsCRT@_W@ATL@@@@@ATL@@@std@@QAEXPAV?$CStringT@_WV?$StrTraitMFC@_WV?$ChTraitsCRT@_W@ATL@@@@@ATL@@I@Z PROC ; std::allocator<ATL::CStringT<wchar_t,StrTraitMFC<wchar_t,ATL::ChTraitsCRT<wchar_t> > > >::deallocate, COMDAT
; _this$ = ecx

; 181  : 		{	// deallocate object at _Ptr, ignore size

  00000	55		 push	 ebp
  00001	8b ec		 mov	 ebp, esp
  00003	81 ec cc 00 00
	00		 sub	 esp, 204		; 000000ccH
  00009	53		 push	 ebx
  0000a	56		 push	 esi
  0000b	57		 push	 edi
  0000c	51		 push	 ecx
  0000d	8d bd 34 ff ff
	ff		 lea	 edi, DWORD PTR [ebp-204]
  00013	b9 33 00 00 00	 mov	 ecx, 51			; 00000033H
  00018	b8 cc cc cc cc	 mov	 eax, -858993460		; ccccccccH
  0001d	f3 ab		 rep stosd
  0001f	59		 pop	 ecx
  00020	89 4d f8	 mov	 DWORD PTR _this$[ebp], ecx

; 182  : 		::operator delete(_Ptr);

  00023	8b 45 08	 mov	 eax, DWORD PTR __Ptr$[ebp]
  00026	50		 push	 eax
  00027	e8 00 00 00 00	 call	 ??3@YAXPAX@Z		; operator delete
  0002c	83 c4 04	 add	 esp, 4

; 183  : 		}

  0002f	5f		 pop	 edi
  00030	5e		 pop	 esi
  00031	5b		 pop	 ebx
  00032	81 c4 cc 00 00
	00		 add	 esp, 204		; 000000ccH
  00038	3b ec		 cmp	 ebp, esp
  0003a	e8 00 00 00 00	 call	 __RTC_CheckEsp
  0003f	8b e5		 mov	 esp, ebp
  00041	5d		 pop	 ebp
  00042	c2 08 00	 ret	 8
?deallocate@?$allocator@V?$CStringT@_WV?$StrTraitMFC@_WV?$ChTraitsCRT@_W@ATL@@@@@ATL@@@std@@QAEXPAV?$CStringT@_WV?$StrTraitMFC@_WV?$ChTraitsCRT@_W@ATL@@@@@ATL@@I@Z ENDP ; std::allocator<ATL::CStringT<wchar_t,StrTraitMFC<wchar_t,ATL::ChTraitsCRT<wchar_t> > > >::deallocate
; Function compile flags: /Odtp /RTCsu /ZI
_TEXT	ENDS
;	COMDAT ?deallocate@?$allocator@U_Container_proxy@std@@@std@@QAEXPAU_Container_proxy@2@I@Z
_TEXT	SEGMENT
_this$ = -8						; size = 4
__Ptr$ = 8						; size = 4
___formal$ = 12						; size = 4
?deallocate@?$allocator@U_Container_proxy@std@@@std@@QAEXPAU_Container_proxy@2@I@Z PROC ; std::allocator<std::_Container_proxy>::deallocate, COMDAT
; _this$ = ecx

; 181  : 		{	// deallocate object at _Ptr, ignore size

  00000	55		 push	 ebp
  00001	8b ec		 mov	 ebp, esp
  00003	81 ec cc 00 00
	00		 sub	 esp, 204		; 000000ccH
  00009	53		 push	 ebx
  0000a	56		 push	 esi
  0000b	57		 push	 edi
  0000c	51		 push	 ecx
  0000d	8d bd 34 ff ff
	ff		 lea	 edi, DWORD PTR [ebp-204]
  00013	b9 33 00 00 00	 mov	 ecx, 51			; 00000033H
  00018	b8 cc cc cc cc	 mov	 eax, -858993460		; ccccccccH
  0001d	f3 ab		 rep stosd
  0001f	59		 pop	 ecx
  00020	89 4d f8	 mov	 DWORD PTR _this$[ebp], ecx

; 182  : 		::operator delete(_Ptr);

  00023	8b 45 08	 mov	 eax, DWORD PTR __Ptr$[ebp]
  00026	50		 push	 eax
  00027	e8 00 00 00 00	 call	 ??3@YAXPAX@Z		; operator delete
  0002c	83 c4 04	 add	 esp, 4

; 183  : 		}

  0002f	5f		 pop	 edi
  00030	5e		 pop	 esi
  00031	5b		 pop	 ebx
  00032	81 c4 cc 00 00
	00		 add	 esp, 204		; 000000ccH
  00038	3b ec		 cmp	 ebp, esp
  0003a	e8 00 00 00 00	 call	 __RTC_CheckEsp
  0003f	8b e5		 mov	 esp, ebp
  00041	5d		 pop	 ebp
  00042	c2 08 00	 ret	 8
?deallocate@?$allocator@U_Container_proxy@std@@@std@@QAEXPAU_Container_proxy@2@I@Z ENDP ; std::allocator<std::_Container_proxy>::deallocate
; Function compile flags: /Odtp /RTCsu /ZI
_TEXT	ENDS
;	COMDAT ??$?0V?$CStringT@_WV?$StrTraitMFC@_WV?$ChTraitsCRT@_W@ATL@@@@@ATL@@@?$allocator@U_Container_proxy@std@@@std@@QAE@ABV?$allocator@V?$CStringT@_WV?$StrTraitMFC@_WV?$ChTraitsCRT@_W@ATL@@@@@ATL@@@1@@Z
_TEXT	SEGMENT
_this$ = -8						; size = 4
___formal$ = 8						; size = 4
??$?0V?$CStringT@_WV?$StrTraitMFC@_WV?$ChTraitsCRT@_W@ATL@@@@@ATL@@@?$allocator@U_Container_proxy@std@@@std@@QAE@ABV?$allocator@V?$CStringT@_WV?$StrTraitMFC@_WV?$ChTraitsCRT@_W@ATL@@@@@ATL@@@1@@Z PROC ; std::allocator<std::_Container_proxy>::allocator<std::_Container_proxy><ATL::CStringT<wchar_t,StrTraitMFC<wchar_t,ATL::ChTraitsCRT<wchar_t> > > >, COMDAT
; _this$ = ecx

; 170  : 		_ALLOCATOR(const _ALLOCATOR<_Other>&) _THROW0()

  00000	55		 push	 ebp
  00001	8b ec		 mov	 ebp, esp
  00003	81 ec cc 00 00
	00		 sub	 esp, 204		; 000000ccH
  00009	53		 push	 ebx
  0000a	56		 push	 esi
  0000b	57		 push	 edi
  0000c	51		 push	 ecx
  0000d	8d bd 34 ff ff
	ff		 lea	 edi, DWORD PTR [ebp-204]
  00013	b9 33 00 00 00	 mov	 ecx, 51			; 00000033H
  00018	b8 cc cc cc cc	 mov	 eax, -858993460		; ccccccccH
  0001d	f3 ab		 rep stosd
  0001f	59		 pop	 ecx
  00020	89 4d f8	 mov	 DWORD PTR _this$[ebp], ecx

; 171  : 		{	// construct from a related allocator (do nothing)
; 172  : 		}

  00023	8b 45 f8	 mov	 eax, DWORD PTR _this$[ebp]
  00026	5f		 pop	 edi
  00027	5e		 pop	 esi
  00028	5b		 pop	 ebx
  00029	8b e5		 mov	 esp, ebp
  0002b	5d		 pop	 ebp
  0002c	c2 04 00	 ret	 4
??$?0V?$CStringT@_WV?$StrTraitMFC@_WV?$ChTraitsCRT@_W@ATL@@@@@ATL@@@?$allocator@U_Container_proxy@std@@@std@@QAE@ABV?$allocator@V?$CStringT@_WV?$StrTraitMFC@_WV?$ChTraitsCRT@_W@ATL@@@@@ATL@@@1@@Z ENDP ; std::allocator<std::_Container_proxy>::allocator<std::_Container_proxy><ATL::CStringT<wchar_t,StrTraitMFC<wchar_t,ATL::ChTraitsCRT<wchar_t> > > >
_TEXT	ENDS
PUBLIC	?destroy@?$allocator@U_Container_proxy@std@@@std@@QAEXPAU_Container_proxy@2@@Z ; std::allocator<std::_Container_proxy>::destroy
; Function compile flags: /Odtp /RTCsu /ZI
;	COMDAT ??$_Dest_val@V?$allocator@U_Container_proxy@std@@@std@@U_Container_proxy@2@@std@@YAXAAV?$allocator@U_Container_proxy@std@@@0@PAU_Container_proxy@0@@Z
_TEXT	SEGMENT
__Alval$ = 8						; size = 4
__Pdest$ = 12						; size = 4
??$_Dest_val@V?$allocator@U_Container_proxy@std@@@std@@U_Container_proxy@2@@std@@YAXAAV?$allocator@U_Container_proxy@std@@@0@PAU_Container_proxy@0@@Z PROC ; std::_Dest_val<std::allocator<std::_Container_proxy>,std::_Container_proxy>, COMDAT

; 286  : 	{	// destroy using allocator

  00000	55		 push	 ebp
  00001	8b ec		 mov	 ebp, esp
  00003	81 ec c0 00 00
	00		 sub	 esp, 192		; 000000c0H
  00009	53		 push	 ebx
  0000a	56		 push	 esi
  0000b	57		 push	 edi
  0000c	8d bd 40 ff ff
	ff		 lea	 edi, DWORD PTR [ebp-192]
  00012	b9 30 00 00 00	 mov	 ecx, 48			; 00000030H
  00017	b8 cc cc cc cc	 mov	 eax, -858993460		; ccccccccH
  0001c	f3 ab		 rep stosd

; 287  : 	_Alval.destroy(_Pdest);

  0001e	8b 45 0c	 mov	 eax, DWORD PTR __Pdest$[ebp]
  00021	50		 push	 eax
  00022	8b 4d 08	 mov	 ecx, DWORD PTR __Alval$[ebp]
  00025	e8 00 00 00 00	 call	 ?destroy@?$allocator@U_Container_proxy@std@@@std@@QAEXPAU_Container_proxy@2@@Z ; std::allocator<std::_Container_proxy>::destroy

; 288  : 	}

  0002a	5f		 pop	 edi
  0002b	5e		 pop	 esi
  0002c	5b		 pop	 ebx
  0002d	81 c4 c0 00 00
	00		 add	 esp, 192		; 000000c0H
  00033	3b ec		 cmp	 ebp, esp
  00035	e8 00 00 00 00	 call	 __RTC_CheckEsp
  0003a	8b e5		 mov	 esp, ebp
  0003c	5d		 pop	 ebp
  0003d	c3		 ret	 0
??$_Dest_val@V?$allocator@U_Container_proxy@std@@@std@@U_Container_proxy@2@@std@@YAXAAV?$allocator@U_Container_proxy@std@@@0@PAU_Container_proxy@0@@Z ENDP ; std::_Dest_val<std::allocator<std::_Container_proxy>,std::_Container_proxy>
_TEXT	ENDS
PUBLIC	??$_Destroy_range@V?$allocator@V?$CStringT@_WV?$StrTraitMFC@_WV?$ChTraitsCRT@_W@ATL@@@@@ATL@@@std@@@std@@YAXPAV?$CStringT@_WV?$StrTraitMFC@_WV?$ChTraitsCRT@_W@ATL@@@@@ATL@@0AAV?$allocator@V?$CStringT@_WV?$StrTraitMFC@_WV?$ChTraitsCRT@_W@ATL@@@@@ATL@@@0@U_Nonscalar_ptr_iterator_tag@0@@Z ; std::_Destroy_range<std::allocator<ATL::CStringT<wchar_t,StrTraitMFC<wchar_t,ATL::ChTraitsCRT<wchar_t> > > > >
PUBLIC	??$_Ptr_cat@V?$CStringT@_WV?$StrTraitMFC@_WV?$ChTraitsCRT@_W@ATL@@@@@ATL@@V12@@std@@YA?AU_Nonscalar_ptr_iterator_tag@0@PAV?$CStringT@_WV?$StrTraitMFC@_WV?$ChTraitsCRT@_W@ATL@@@@@ATL@@0@Z ; std::_Ptr_cat<ATL::CStringT<wchar_t,StrTraitMFC<wchar_t,ATL::ChTraitsCRT<wchar_t> > >,ATL::CStringT<wchar_t,StrTraitMFC<wchar_t,ATL::ChTraitsCRT<wchar_t> > > >
; Function compile flags: /Odtp /RTCsu /ZI
;	COMDAT ??$_Destroy_range@V?$allocator@V?$CStringT@_WV?$StrTraitMFC@_WV?$ChTraitsCRT@_W@ATL@@@@@ATL@@@std@@@std@@YAXPAV?$CStringT@_WV?$StrTraitMFC@_WV?$ChTraitsCRT@_W@ATL@@@@@ATL@@0AAV?$allocator@V?$CStringT@_WV?$StrTraitMFC@_WV?$ChTraitsCRT@_W@ATL@@@@@ATL@@@0@@Z
_TEXT	SEGMENT
$T230905 = -197						; size = 1
__First$ = 8						; size = 4
__Last$ = 12						; size = 4
__Al$ = 16						; size = 4
??$_Destroy_range@V?$allocator@V?$CStringT@_WV?$StrTraitMFC@_WV?$ChTraitsCRT@_W@ATL@@@@@ATL@@@std@@@std@@YAXPAV?$CStringT@_WV?$StrTraitMFC@_WV?$ChTraitsCRT@_W@ATL@@@@@ATL@@0AAV?$allocator@V?$CStringT@_WV?$StrTraitMFC@_WV?$ChTraitsCRT@_W@ATL@@@@@ATL@@@0@@Z PROC ; std::_Destroy_range<std::allocator<ATL::CStringT<wchar_t,StrTraitMFC<wchar_t,ATL::ChTraitsCRT<wchar_t> > > > >, COMDAT

; 87   : 	{	// destroy [_First, _Last)

  00000	55		 push	 ebp
  00001	8b ec		 mov	 ebp, esp
  00003	81 ec cc 00 00
	00		 sub	 esp, 204		; 000000ccH
  00009	53		 push	 ebx
  0000a	56		 push	 esi
  0000b	57		 push	 edi
  0000c	8d bd 34 ff ff
	ff		 lea	 edi, DWORD PTR [ebp-204]
  00012	b9 33 00 00 00	 mov	 ecx, 51			; 00000033H
  00017	b8 cc cc cc cc	 mov	 eax, -858993460		; ccccccccH
  0001c	f3 ab		 rep stosd

; 88   : 	_Destroy_range(_First, _Last, _Al, _Ptr_cat(_First, _Last));

  0001e	8b 45 0c	 mov	 eax, DWORD PTR __Last$[ebp]
  00021	50		 push	 eax
  00022	8b 4d 08	 mov	 ecx, DWORD PTR __First$[ebp]
  00025	51		 push	 ecx
  00026	e8 00 00 00 00	 call	 ??$_Ptr_cat@V?$CStringT@_WV?$StrTraitMFC@_WV?$ChTraitsCRT@_W@ATL@@@@@ATL@@V12@@std@@YA?AU_Nonscalar_ptr_iterator_tag@0@PAV?$CStringT@_WV?$StrTraitMFC@_WV?$ChTraitsCRT@_W@ATL@@@@@ATL@@0@Z ; std::_Ptr_cat<ATL::CStringT<wchar_t,StrTraitMFC<wchar_t,ATL::ChTraitsCRT<wchar_t> > >,ATL::CStringT<wchar_t,StrTraitMFC<wchar_t,ATL::ChTraitsCRT<wchar_t> > > >
  0002b	83 c4 08	 add	 esp, 8
  0002e	88 85 3b ff ff
	ff		 mov	 BYTE PTR $T230905[ebp], al
  00034	0f b6 95 3b ff
	ff ff		 movzx	 edx, BYTE PTR $T230905[ebp]
  0003b	52		 push	 edx
  0003c	8b 45 10	 mov	 eax, DWORD PTR __Al$[ebp]
  0003f	50		 push	 eax
  00040	8b 4d 0c	 mov	 ecx, DWORD PTR __Last$[ebp]
  00043	51		 push	 ecx
  00044	8b 55 08	 mov	 edx, DWORD PTR __First$[ebp]
  00047	52		 push	 edx
  00048	e8 00 00 00 00	 call	 ??$_Destroy_range@V?$allocator@V?$CStringT@_WV?$StrTraitMFC@_WV?$ChTraitsCRT@_W@ATL@@@@@ATL@@@std@@@std@@YAXPAV?$CStringT@_WV?$StrTraitMFC@_WV?$ChTraitsCRT@_W@ATL@@@@@ATL@@0AAV?$allocator@V?$CStringT@_WV?$StrTraitMFC@_WV?$ChTraitsCRT@_W@ATL@@@@@ATL@@@0@U_Nonscalar_ptr_iterator_tag@0@@Z ; std::_Destroy_range<std::allocator<ATL::CStringT<wchar_t,StrTraitMFC<wchar_t,ATL::ChTraitsCRT<wchar_t> > > > >
  0004d	83 c4 10	 add	 esp, 16			; 00000010H

; 89   : 	}

  00050	5f		 pop	 edi
  00051	5e		 pop	 esi
  00052	5b		 pop	 ebx
  00053	81 c4 cc 00 00
	00		 add	 esp, 204		; 000000ccH
  00059	3b ec		 cmp	 ebp, esp
  0005b	e8 00 00 00 00	 call	 __RTC_CheckEsp
  00060	8b e5		 mov	 esp, ebp
  00062	5d		 pop	 ebp
  00063	c3		 ret	 0
??$_Destroy_range@V?$allocator@V?$CStringT@_WV?$StrTraitMFC@_WV?$ChTraitsCRT@_W@ATL@@@@@ATL@@@std@@@std@@YAXPAV?$CStringT@_WV?$StrTraitMFC@_WV?$ChTraitsCRT@_W@ATL@@@@@ATL@@0AAV?$allocator@V?$CStringT@_WV?$StrTraitMFC@_WV?$ChTraitsCRT@_W@ATL@@@@@ATL@@@0@@Z ENDP ; std::_Destroy_range<std::allocator<ATL::CStringT<wchar_t,StrTraitMFC<wchar_t,ATL::ChTraitsCRT<wchar_t> > > > >
_TEXT	ENDS
PUBLIC	??$_Destroy@U_Container_proxy@std@@@std@@YAXPAU_Container_proxy@0@@Z ; std::_Destroy<std::_Container_proxy>
; Function compile flags: /Odtp /RTCsu /ZI
;	COMDAT ?destroy@?$allocator@U_Container_proxy@std@@@std@@QAEXPAU_Container_proxy@2@@Z
_TEXT	SEGMENT
_this$ = -8						; size = 4
__Ptr$ = 8						; size = 4
?destroy@?$allocator@U_Container_proxy@std@@@std@@QAEXPAU_Container_proxy@2@@Z PROC ; std::allocator<std::_Container_proxy>::destroy, COMDAT
; _this$ = ecx

; 212  : 		{	// destroy object at _Ptr

  00000	55		 push	 ebp
  00001	8b ec		 mov	 ebp, esp
  00003	81 ec cc 00 00
	00		 sub	 esp, 204		; 000000ccH
  00009	53		 push	 ebx
  0000a	56		 push	 esi
  0000b	57		 push	 edi
  0000c	51		 push	 ecx
  0000d	8d bd 34 ff ff
	ff		 lea	 edi, DWORD PTR [ebp-204]
  00013	b9 33 00 00 00	 mov	 ecx, 51			; 00000033H
  00018	b8 cc cc cc cc	 mov	 eax, -858993460		; ccccccccH
  0001d	f3 ab		 rep stosd
  0001f	59		 pop	 ecx
  00020	89 4d f8	 mov	 DWORD PTR _this$[ebp], ecx

; 213  : 		_Destroy(_Ptr);

  00023	8b 45 08	 mov	 eax, DWORD PTR __Ptr$[ebp]
  00026	50		 push	 eax
  00027	e8 00 00 00 00	 call	 ??$_Destroy@U_Container_proxy@std@@@std@@YAXPAU_Container_proxy@0@@Z ; std::_Destroy<std::_Container_proxy>
  0002c	83 c4 04	 add	 esp, 4

; 214  : 		}

  0002f	5f		 pop	 edi
  00030	5e		 pop	 esi
  00031	5b		 pop	 ebx
  00032	81 c4 cc 00 00
	00		 add	 esp, 204		; 000000ccH
  00038	3b ec		 cmp	 ebp, esp
  0003a	e8 00 00 00 00	 call	 __RTC_CheckEsp
  0003f	8b e5		 mov	 esp, ebp
  00041	5d		 pop	 ebp
  00042	c2 04 00	 ret	 4
?destroy@?$allocator@U_Container_proxy@std@@@std@@QAEXPAU_Container_proxy@2@@Z ENDP ; std::allocator<std::_Container_proxy>::destroy
; Function compile flags: /Odtp /RTCsu /ZI
; File c:\program files\microsoft visual studio 10.0\vc\include\xutility
_TEXT	ENDS
;	COMDAT ??$_Ptr_cat@V?$CStringT@_WV?$StrTraitMFC@_WV?$ChTraitsCRT@_W@ATL@@@@@ATL@@V12@@std@@YA?AU_Nonscalar_ptr_iterator_tag@0@PAV?$CStringT@_WV?$StrTraitMFC@_WV?$ChTraitsCRT@_W@ATL@@@@@ATL@@0@Z
_TEXT	SEGMENT
__Cat$ = -5						; size = 1
___formal$ = 8						; size = 4
___formal$ = 12						; size = 4
??$_Ptr_cat@V?$CStringT@_WV?$StrTraitMFC@_WV?$ChTraitsCRT@_W@ATL@@@@@ATL@@V12@@std@@YA?AU_Nonscalar_ptr_iterator_tag@0@PAV?$CStringT@_WV?$StrTraitMFC@_WV?$ChTraitsCRT@_W@ATL@@@@@ATL@@0@Z PROC ; std::_Ptr_cat<ATL::CStringT<wchar_t,StrTraitMFC<wchar_t,ATL::ChTraitsCRT<wchar_t> > >,ATL::CStringT<wchar_t,StrTraitMFC<wchar_t,ATL::ChTraitsCRT<wchar_t> > > >, COMDAT

; 516  : 	{	// return pointer category from pointers

  00000	55		 push	 ebp
  00001	8b ec		 mov	 ebp, esp
  00003	81 ec cc 00 00
	00		 sub	 esp, 204		; 000000ccH
  00009	53		 push	 ebx
  0000a	56		 push	 esi
  0000b	57		 push	 edi
  0000c	8d bd 34 ff ff
	ff		 lea	 edi, DWORD PTR [ebp-204]
  00012	b9 33 00 00 00	 mov	 ecx, 51			; 00000033H
  00017	b8 cc cc cc cc	 mov	 eax, -858993460		; ccccccccH
  0001c	f3 ab		 rep stosd

; 517  : 	typename _Ptr_cat_helper<_Elem1, _Elem2>::_Type _Cat;
; 518  : 	return (_Cat);

  0001e	8a 45 fb	 mov	 al, BYTE PTR __Cat$[ebp]

; 519  : 	}

  00021	52		 push	 edx
  00022	8b cd		 mov	 ecx, ebp
  00024	50		 push	 eax
  00025	8d 15 00 00 00
	00		 lea	 edx, DWORD PTR $LN5@Ptr_cat
  0002b	e8 00 00 00 00	 call	 @_RTC_CheckStackVars@8
  00030	58		 pop	 eax
  00031	5a		 pop	 edx
  00032	5f		 pop	 edi
  00033	5e		 pop	 esi
  00034	5b		 pop	 ebx
  00035	8b e5		 mov	 esp, ebp
  00037	5d		 pop	 ebp
  00038	c3		 ret	 0
  00039	8d 49 00	 npad	 3
$LN5@Ptr_cat:
  0003c	01 00 00 00	 DD	 1
  00040	00 00 00 00	 DD	 $LN4@Ptr_cat
$LN4@Ptr_cat:
  00044	fb ff ff ff	 DD	 -5			; fffffffbH
  00048	01 00 00 00	 DD	 1
  0004c	00 00 00 00	 DD	 $LN3@Ptr_cat
$LN3@Ptr_cat:
  00050	5f		 DB	 95			; 0000005fH
  00051	43		 DB	 67			; 00000043H
  00052	61		 DB	 97			; 00000061H
  00053	74		 DB	 116			; 00000074H
  00054	00		 DB	 0
??$_Ptr_cat@V?$CStringT@_WV?$StrTraitMFC@_WV?$ChTraitsCRT@_W@ATL@@@@@ATL@@V12@@std@@YA?AU_Nonscalar_ptr_iterator_tag@0@PAV?$CStringT@_WV?$StrTraitMFC@_WV?$ChTraitsCRT@_W@ATL@@@@@ATL@@0@Z ENDP ; std::_Ptr_cat<ATL::CStringT<wchar_t,StrTraitMFC<wchar_t,ATL::ChTraitsCRT<wchar_t> > >,ATL::CStringT<wchar_t,StrTraitMFC<wchar_t,ATL::ChTraitsCRT<wchar_t> > > >
_TEXT	ENDS
PUBLIC	??$_Dest_val@V?$allocator@V?$CStringT@_WV?$StrTraitMFC@_WV?$ChTraitsCRT@_W@ATL@@@@@ATL@@@std@@V?$CStringT@_WV?$StrTraitMFC@_WV?$ChTraitsCRT@_W@ATL@@@@@ATL@@@std@@YAXAAV?$allocator@V?$CStringT@_WV?$StrTraitMFC@_WV?$ChTraitsCRT@_W@ATL@@@@@ATL@@@0@PAV?$CStringT@_WV?$StrTraitMFC@_WV?$ChTraitsCRT@_W@ATL@@@@@ATL@@@Z ; std::_Dest_val<std::allocator<ATL::CStringT<wchar_t,StrTraitMFC<wchar_t,ATL::ChTraitsCRT<wchar_t> > > >,ATL::CStringT<wchar_t,StrTraitMFC<wchar_t,ATL::ChTraitsCRT<wchar_t> > > >
; Function compile flags: /Odtp /RTCsu /ZI
; File c:\program files\microsoft visual studio 10.0\vc\include\xmemory
;	COMDAT ??$_Destroy_range@V?$allocator@V?$CStringT@_WV?$StrTraitMFC@_WV?$ChTraitsCRT@_W@ATL@@@@@ATL@@@std@@@std@@YAXPAV?$CStringT@_WV?$StrTraitMFC@_WV?$ChTraitsCRT@_W@ATL@@@@@ATL@@0AAV?$allocator@V?$CStringT@_WV?$StrTraitMFC@_WV?$ChTraitsCRT@_W@ATL@@@@@ATL@@@0@U_Nonscalar_ptr_iterator_tag@0@@Z
_TEXT	SEGMENT
__First$ = 8						; size = 4
__Last$ = 12						; size = 4
__Al$ = 16						; size = 4
___formal$ = 20						; size = 1
??$_Destroy_range@V?$allocator@V?$CStringT@_WV?$StrTraitMFC@_WV?$ChTraitsCRT@_W@ATL@@@@@ATL@@@std@@@std@@YAXPAV?$CStringT@_WV?$StrTraitMFC@_WV?$ChTraitsCRT@_W@ATL@@@@@ATL@@0AAV?$allocator@V?$CStringT@_WV?$StrTraitMFC@_WV?$ChTraitsCRT@_W@ATL@@@@@ATL@@@0@U_Nonscalar_ptr_iterator_tag@0@@Z PROC ; std::_Destroy_range<std::allocator<ATL::CStringT<wchar_t,StrTraitMFC<wchar_t,ATL::ChTraitsCRT<wchar_t> > > > >, COMDAT

; 95   : 	{	// destroy [_First, _Last), arbitrary type

  00000	55		 push	 ebp
  00001	8b ec		 mov	 ebp, esp
  00003	81 ec c0 00 00
	00		 sub	 esp, 192		; 000000c0H
  00009	53		 push	 ebx
  0000a	56		 push	 esi
  0000b	57		 push	 edi
  0000c	8d bd 40 ff ff
	ff		 lea	 edi, DWORD PTR [ebp-192]
  00012	b9 30 00 00 00	 mov	 ecx, 48			; 00000030H
  00017	b8 cc cc cc cc	 mov	 eax, -858993460		; ccccccccH
  0001c	f3 ab		 rep stosd

; 96   : 	for (; _First != _Last; ++_First)

  0001e	eb 09		 jmp	 SHORT $LN3@Destroy_ra
$LN2@Destroy_ra:
  00020	8b 45 08	 mov	 eax, DWORD PTR __First$[ebp]
  00023	83 c0 04	 add	 eax, 4
  00026	89 45 08	 mov	 DWORD PTR __First$[ebp], eax
$LN3@Destroy_ra:
  00029	8b 45 08	 mov	 eax, DWORD PTR __First$[ebp]
  0002c	3b 45 0c	 cmp	 eax, DWORD PTR __Last$[ebp]
  0002f	74 12		 je	 SHORT $LN4@Destroy_ra

; 97   : 		_Dest_val(_Al, _First);

  00031	8b 45 08	 mov	 eax, DWORD PTR __First$[ebp]
  00034	50		 push	 eax
  00035	8b 4d 10	 mov	 ecx, DWORD PTR __Al$[ebp]
  00038	51		 push	 ecx
  00039	e8 00 00 00 00	 call	 ??$_Dest_val@V?$allocator@V?$CStringT@_WV?$StrTraitMFC@_WV?$ChTraitsCRT@_W@ATL@@@@@ATL@@@std@@V?$CStringT@_WV?$StrTraitMFC@_WV?$ChTraitsCRT@_W@ATL@@@@@ATL@@@std@@YAXAAV?$allocator@V?$CStringT@_WV?$StrTraitMFC@_WV?$ChTraitsCRT@_W@ATL@@@@@ATL@@@0@PAV?$CStringT@_WV?$StrTraitMFC@_WV?$ChTraitsCRT@_W@ATL@@@@@ATL@@@Z ; std::_Dest_val<std::allocator<ATL::CStringT<wchar_t,StrTraitMFC<wchar_t,ATL::ChTraitsCRT<wchar_t> > > >,ATL::CStringT<wchar_t,StrTraitMFC<wchar_t,ATL::ChTraitsCRT<wchar_t> > > >
  0003e	83 c4 08	 add	 esp, 8
  00041	eb dd		 jmp	 SHORT $LN2@Destroy_ra
$LN4@Destroy_ra:

; 98   : 	}

  00043	5f		 pop	 edi
  00044	5e		 pop	 esi
  00045	5b		 pop	 ebx
  00046	81 c4 c0 00 00
	00		 add	 esp, 192		; 000000c0H
  0004c	3b ec		 cmp	 ebp, esp
  0004e	e8 00 00 00 00	 call	 __RTC_CheckEsp
  00053	8b e5		 mov	 esp, ebp
  00055	5d		 pop	 ebp
  00056	c3		 ret	 0
??$_Destroy_range@V?$allocator@V?$CStringT@_WV?$StrTraitMFC@_WV?$ChTraitsCRT@_W@ATL@@@@@ATL@@@std@@@std@@YAXPAV?$CStringT@_WV?$StrTraitMFC@_WV?$ChTraitsCRT@_W@ATL@@@@@ATL@@0AAV?$allocator@V?$CStringT@_WV?$StrTraitMFC@_WV?$ChTraitsCRT@_W@ATL@@@@@ATL@@@0@U_Nonscalar_ptr_iterator_tag@0@@Z ENDP ; std::_Destroy_range<std::allocator<ATL::CStringT<wchar_t,StrTraitMFC<wchar_t,ATL::ChTraitsCRT<wchar_t> > > > >
; Function compile flags: /Odtp /RTCsu /ZI
_TEXT	ENDS
;	COMDAT ??$_Destroy@U_Container_proxy@std@@@std@@YAXPAU_Container_proxy@0@@Z
_TEXT	SEGMENT
__Ptr$ = 8						; size = 4
??$_Destroy@U_Container_proxy@std@@@std@@YAXPAU_Container_proxy@0@@Z PROC ; std::_Destroy<std::_Container_proxy>, COMDAT

; 62   : 	{	// destroy object at _Ptr

  00000	55		 push	 ebp
  00001	8b ec		 mov	 ebp, esp
  00003	81 ec c0 00 00
	00		 sub	 esp, 192		; 000000c0H
  00009	53		 push	 ebx
  0000a	56		 push	 esi
  0000b	57		 push	 edi
  0000c	8d bd 40 ff ff
	ff		 lea	 edi, DWORD PTR [ebp-192]
  00012	b9 30 00 00 00	 mov	 ecx, 48			; 00000030H
  00017	b8 cc cc cc cc	 mov	 eax, -858993460		; ccccccccH
  0001c	f3 ab		 rep stosd

; 63   : 	_Ptr->~_Ty();
; 64   : 	}

  0001e	5f		 pop	 edi
  0001f	5e		 pop	 esi
  00020	5b		 pop	 ebx
  00021	8b e5		 mov	 esp, ebp
  00023	5d		 pop	 ebp
  00024	c3		 ret	 0
??$_Destroy@U_Container_proxy@std@@@std@@YAXPAU_Container_proxy@0@@Z ENDP ; std::_Destroy<std::_Container_proxy>
_TEXT	ENDS
PUBLIC	?destroy@?$allocator@V?$CStringT@_WV?$StrTraitMFC@_WV?$ChTraitsCRT@_W@ATL@@@@@ATL@@@std@@QAEXPAV?$CStringT@_WV?$StrTraitMFC@_WV?$ChTraitsCRT@_W@ATL@@@@@ATL@@@Z ; std::allocator<ATL::CStringT<wchar_t,StrTraitMFC<wchar_t,ATL::ChTraitsCRT<wchar_t> > > >::destroy
; Function compile flags: /Odtp /RTCsu /ZI
;	COMDAT ??$_Dest_val@V?$allocator@V?$CStringT@_WV?$StrTraitMFC@_WV?$ChTraitsCRT@_W@ATL@@@@@ATL@@@std@@V?$CStringT@_WV?$StrTraitMFC@_WV?$ChTraitsCRT@_W@ATL@@@@@ATL@@@std@@YAXAAV?$allocator@V?$CStringT@_WV?$StrTraitMFC@_WV?$ChTraitsCRT@_W@ATL@@@@@ATL@@@0@PAV?$CStringT@_WV?$StrTraitMFC@_WV?$ChTraitsCRT@_W@ATL@@@@@ATL@@@Z
_TEXT	SEGMENT
__Alval$ = 8						; size = 4
__Pdest$ = 12						; size = 4
??$_Dest_val@V?$allocator@V?$CStringT@_WV?$StrTraitMFC@_WV?$ChTraitsCRT@_W@ATL@@@@@ATL@@@std@@V?$CStringT@_WV?$StrTraitMFC@_WV?$ChTraitsCRT@_W@ATL@@@@@ATL@@@std@@YAXAAV?$allocator@V?$CStringT@_WV?$StrTraitMFC@_WV?$ChTraitsCRT@_W@ATL@@@@@ATL@@@0@PAV?$CStringT@_WV?$StrTraitMFC@_WV?$ChTraitsCRT@_W@ATL@@@@@ATL@@@Z PROC ; std::_Dest_val<std::allocator<ATL::CStringT<wchar_t,StrTraitMFC<wchar_t,ATL::ChTraitsCRT<wchar_t> > > >,ATL::CStringT<wchar_t,StrTraitMFC<wchar_t,ATL::ChTraitsCRT<wchar_t> > > >, COMDAT

; 286  : 	{	// destroy using allocator

  00000	55		 push	 ebp
  00001	8b ec		 mov	 ebp, esp
  00003	81 ec c0 00 00
	00		 sub	 esp, 192		; 000000c0H
  00009	53		 push	 ebx
  0000a	56		 push	 esi
  0000b	57		 push	 edi
  0000c	8d bd 40 ff ff
	ff		 lea	 edi, DWORD PTR [ebp-192]
  00012	b9 30 00 00 00	 mov	 ecx, 48			; 00000030H
  00017	b8 cc cc cc cc	 mov	 eax, -858993460		; ccccccccH
  0001c	f3 ab		 rep stosd

; 287  : 	_Alval.destroy(_Pdest);

  0001e	8b 45 0c	 mov	 eax, DWORD PTR __Pdest$[ebp]
  00021	50		 push	 eax
  00022	8b 4d 08	 mov	 ecx, DWORD PTR __Alval$[ebp]
  00025	e8 00 00 00 00	 call	 ?destroy@?$allocator@V?$CStringT@_WV?$StrTraitMFC@_WV?$ChTraitsCRT@_W@ATL@@@@@ATL@@@std@@QAEXPAV?$CStringT@_WV?$StrTraitMFC@_WV?$ChTraitsCRT@_W@ATL@@@@@ATL@@@Z ; std::allocator<ATL::CStringT<wchar_t,StrTraitMFC<wchar_t,ATL::ChTraitsCRT<wchar_t> > > >::destroy

; 288  : 	}

  0002a	5f		 pop	 edi
  0002b	5e		 pop	 esi
  0002c	5b		 pop	 ebx
  0002d	81 c4 c0 00 00
	00		 add	 esp, 192		; 000000c0H
  00033	3b ec		 cmp	 ebp, esp
  00035	e8 00 00 00 00	 call	 __RTC_CheckEsp
  0003a	8b e5		 mov	 esp, ebp
  0003c	5d		 pop	 ebp
  0003d	c3		 ret	 0
??$_Dest_val@V?$allocator@V?$CStringT@_WV?$StrTraitMFC@_WV?$ChTraitsCRT@_W@ATL@@@@@ATL@@@std@@V?$CStringT@_WV?$StrTraitMFC@_WV?$ChTraitsCRT@_W@ATL@@@@@ATL@@@std@@YAXAAV?$allocator@V?$CStringT@_WV?$StrTraitMFC@_WV?$ChTraitsCRT@_W@ATL@@@@@ATL@@@0@PAV?$CStringT@_WV?$StrTraitMFC@_WV?$ChTraitsCRT@_W@ATL@@@@@ATL@@@Z ENDP ; std::_Dest_val<std::allocator<ATL::CStringT<wchar_t,StrTraitMFC<wchar_t,ATL::ChTraitsCRT<wchar_t> > > >,ATL::CStringT<wchar_t,StrTraitMFC<wchar_t,ATL::ChTraitsCRT<wchar_t> > > >
_TEXT	ENDS
PUBLIC	??$_Destroy@V?$CStringT@_WV?$StrTraitMFC@_WV?$ChTraitsCRT@_W@ATL@@@@@ATL@@@std@@YAXPAV?$CStringT@_WV?$StrTraitMFC@_WV?$ChTraitsCRT@_W@ATL@@@@@ATL@@@Z ; std::_Destroy<ATL::CStringT<wchar_t,StrTraitMFC<wchar_t,ATL::ChTraitsCRT<wchar_t> > > >
; Function compile flags: /Odtp /RTCsu /ZI
;	COMDAT ?destroy@?$allocator@V?$CStringT@_WV?$StrTraitMFC@_WV?$ChTraitsCRT@_W@ATL@@@@@ATL@@@std@@QAEXPAV?$CStringT@_WV?$StrTraitMFC@_WV?$ChTraitsCRT@_W@ATL@@@@@ATL@@@Z
_TEXT	SEGMENT
_this$ = -8						; size = 4
__Ptr$ = 8						; size = 4
?destroy@?$allocator@V?$CStringT@_WV?$StrTraitMFC@_WV?$ChTraitsCRT@_W@ATL@@@@@ATL@@@std@@QAEXPAV?$CStringT@_WV?$StrTraitMFC@_WV?$ChTraitsCRT@_W@ATL@@@@@ATL@@@Z PROC ; std::allocator<ATL::CStringT<wchar_t,StrTraitMFC<wchar_t,ATL::ChTraitsCRT<wchar_t> > > >::destroy, COMDAT
; _this$ = ecx

; 212  : 		{	// destroy object at _Ptr

  00000	55		 push	 ebp
  00001	8b ec		 mov	 ebp, esp
  00003	81 ec cc 00 00
	00		 sub	 esp, 204		; 000000ccH
  00009	53		 push	 ebx
  0000a	56		 push	 esi
  0000b	57		 push	 edi
  0000c	51		 push	 ecx
  0000d	8d bd 34 ff ff
	ff		 lea	 edi, DWORD PTR [ebp-204]
  00013	b9 33 00 00 00	 mov	 ecx, 51			; 00000033H
  00018	b8 cc cc cc cc	 mov	 eax, -858993460		; ccccccccH
  0001d	f3 ab		 rep stosd
  0001f	59		 pop	 ecx
  00020	89 4d f8	 mov	 DWORD PTR _this$[ebp], ecx

; 213  : 		_Destroy(_Ptr);

  00023	8b 45 08	 mov	 eax, DWORD PTR __Ptr$[ebp]
  00026	50		 push	 eax
  00027	e8 00 00 00 00	 call	 ??$_Destroy@V?$CStringT@_WV?$StrTraitMFC@_WV?$ChTraitsCRT@_W@ATL@@@@@ATL@@@std@@YAXPAV?$CStringT@_WV?$StrTraitMFC@_WV?$ChTraitsCRT@_W@ATL@@@@@ATL@@@Z ; std::_Destroy<ATL::CStringT<wchar_t,StrTraitMFC<wchar_t,ATL::ChTraitsCRT<wchar_t> > > >
  0002c	83 c4 04	 add	 esp, 4

; 214  : 		}

  0002f	5f		 pop	 edi
  00030	5e		 pop	 esi
  00031	5b		 pop	 ebx
  00032	81 c4 cc 00 00
	00		 add	 esp, 204		; 000000ccH
  00038	3b ec		 cmp	 ebp, esp
  0003a	e8 00 00 00 00	 call	 __RTC_CheckEsp
  0003f	8b e5		 mov	 esp, ebp
  00041	5d		 pop	 ebp
  00042	c2 04 00	 ret	 4
?destroy@?$allocator@V?$CStringT@_WV?$StrTraitMFC@_WV?$ChTraitsCRT@_W@ATL@@@@@ATL@@@std@@QAEXPAV?$CStringT@_WV?$StrTraitMFC@_WV?$ChTraitsCRT@_W@ATL@@@@@ATL@@@Z ENDP ; std::allocator<ATL::CStringT<wchar_t,StrTraitMFC<wchar_t,ATL::ChTraitsCRT<wchar_t> > > >::destroy
_TEXT	ENDS
PUBLIC	??_G?$CStringT@_WV?$StrTraitMFC@_WV?$ChTraitsCRT@_W@ATL@@@@@ATL@@QAEPAXI@Z ; ATL::CStringT<wchar_t,StrTraitMFC<wchar_t,ATL::ChTraitsCRT<wchar_t> > >::`scalar deleting destructor'
; Function compile flags: /Odtp /RTCsu /ZI
;	COMDAT ??$_Destroy@V?$CStringT@_WV?$StrTraitMFC@_WV?$ChTraitsCRT@_W@ATL@@@@@ATL@@@std@@YAXPAV?$CStringT@_WV?$StrTraitMFC@_WV?$ChTraitsCRT@_W@ATL@@@@@ATL@@@Z
_TEXT	SEGMENT
__Ptr$ = 8						; size = 4
??$_Destroy@V?$CStringT@_WV?$StrTraitMFC@_WV?$ChTraitsCRT@_W@ATL@@@@@ATL@@@std@@YAXPAV?$CStringT@_WV?$StrTraitMFC@_WV?$ChTraitsCRT@_W@ATL@@@@@ATL@@@Z PROC ; std::_Destroy<ATL::CStringT<wchar_t,StrTraitMFC<wchar_t,ATL::ChTraitsCRT<wchar_t> > > >, COMDAT

; 62   : 	{	// destroy object at _Ptr

  00000	55		 push	 ebp
  00001	8b ec		 mov	 ebp, esp
  00003	81 ec c0 00 00
	00		 sub	 esp, 192		; 000000c0H
  00009	53		 push	 ebx
  0000a	56		 push	 esi
  0000b	57		 push	 edi
  0000c	8d bd 40 ff ff
	ff		 lea	 edi, DWORD PTR [ebp-192]
  00012	b9 30 00 00 00	 mov	 ecx, 48			; 00000030H
  00017	b8 cc cc cc cc	 mov	 eax, -858993460		; ccccccccH
  0001c	f3 ab		 rep stosd

; 63   : 	_Ptr->~_Ty();

  0001e	6a 00		 push	 0
  00020	8b 4d 08	 mov	 ecx, DWORD PTR __Ptr$[ebp]
  00023	e8 00 00 00 00	 call	 ??_G?$CStringT@_WV?$StrTraitMFC@_WV?$ChTraitsCRT@_W@ATL@@@@@ATL@@QAEPAXI@Z

; 64   : 	}

  00028	5f		 pop	 edi
  00029	5e		 pop	 esi
  0002a	5b		 pop	 ebx
  0002b	81 c4 c0 00 00
	00		 add	 esp, 192		; 000000c0H
  00031	3b ec		 cmp	 ebp, esp
  00033	e8 00 00 00 00	 call	 __RTC_CheckEsp
  00038	8b e5		 mov	 esp, ebp
  0003a	5d		 pop	 ebp
  0003b	c3		 ret	 0
??$_Destroy@V?$CStringT@_WV?$StrTraitMFC@_WV?$ChTraitsCRT@_W@ATL@@@@@ATL@@@std@@YAXPAV?$CStringT@_WV?$StrTraitMFC@_WV?$ChTraitsCRT@_W@ATL@@@@@ATL@@@Z ENDP ; std::_Destroy<ATL::CStringT<wchar_t,StrTraitMFC<wchar_t,ATL::ChTraitsCRT<wchar_t> > > >
; Function compile flags: /Odtp /RTCsu /ZI
_TEXT	ENDS
;	COMDAT ??_G?$CStringT@_WV?$StrTraitMFC@_WV?$ChTraitsCRT@_W@ATL@@@@@ATL@@QAEPAXI@Z
_TEXT	SEGMENT
_this$ = -8						; size = 4
___flags$ = 8						; size = 4
??_G?$CStringT@_WV?$StrTraitMFC@_WV?$ChTraitsCRT@_W@ATL@@@@@ATL@@QAEPAXI@Z PROC ; ATL::CStringT<wchar_t,StrTraitMFC<wchar_t,ATL::ChTraitsCRT<wchar_t> > >::`scalar deleting destructor', COMDAT
; _this$ = ecx
  00000	55		 push	 ebp
  00001	8b ec		 mov	 ebp, esp
  00003	81 ec cc 00 00
	00		 sub	 esp, 204		; 000000ccH
  00009	53		 push	 ebx
  0000a	56		 push	 esi
  0000b	57		 push	 edi
  0000c	51		 push	 ecx
  0000d	8d bd 34 ff ff
	ff		 lea	 edi, DWORD PTR [ebp-204]
  00013	b9 33 00 00 00	 mov	 ecx, 51			; 00000033H
  00018	b8 cc cc cc cc	 mov	 eax, -858993460		; ccccccccH
  0001d	f3 ab		 rep stosd
  0001f	59		 pop	 ecx
  00020	89 4d f8	 mov	 DWORD PTR _this$[ebp], ecx
  00023	8b 4d f8	 mov	 ecx, DWORD PTR _this$[ebp]
  00026	e8 00 00 00 00	 call	 ??1?$CStringT@_WV?$StrTraitMFC@_WV?$ChTraitsCRT@_W@ATL@@@@@ATL@@QAE@XZ ; ATL::CStringT<wchar_t,StrTraitMFC<wchar_t,ATL::ChTraitsCRT<wchar_t> > >::~CStringT<wchar_t,StrTraitMFC<wchar_t,ATL::ChTraitsCRT<wchar_t> > >
  0002b	8b 45 08	 mov	 eax, DWORD PTR ___flags$[ebp]
  0002e	83 e0 01	 and	 eax, 1
  00031	74 0c		 je	 SHORT $LN1@scalar@2
  00033	8b 45 f8	 mov	 eax, DWORD PTR _this$[ebp]
  00036	50		 push	 eax
  00037	e8 00 00 00 00	 call	 ??3@YAXPAX@Z		; operator delete
  0003c	83 c4 04	 add	 esp, 4
$LN1@scalar@2:
  0003f	8b 45 f8	 mov	 eax, DWORD PTR _this$[ebp]
  00042	5f		 pop	 edi
  00043	5e		 pop	 esi
  00044	5b		 pop	 ebx
  00045	81 c4 cc 00 00
	00		 add	 esp, 204		; 000000ccH
  0004b	3b ec		 cmp	 ebp, esp
  0004d	e8 00 00 00 00	 call	 __RTC_CheckEsp
  00052	8b e5		 mov	 esp, ebp
  00054	5d		 pop	 ebp
  00055	c2 04 00	 ret	 4
??_G?$CStringT@_WV?$StrTraitMFC@_WV?$ChTraitsCRT@_W@ATL@@@@@ATL@@QAEPAXI@Z ENDP ; ATL::CStringT<wchar_t,StrTraitMFC<wchar_t,ATL::ChTraitsCRT<wchar_t> > >::`scalar deleting destructor'
; Function compile flags: /Odtp /RTCsu /ZI
; File c:\program files\microsoft visual studio 10.0\vc\atlmfc\include\afxwin.h
_TEXT	ENDS
;	COMDAT ?SupportsRestartManager@CWinApp@@UBEHXZ
_TEXT	SEGMENT
_this$ = -8						; size = 4
?SupportsRestartManager@CWinApp@@UBEHXZ PROC		; CWinApp::SupportsRestartManager, COMDAT
; _this$ = ecx

; 5476 : 	virtual BOOL SupportsRestartManager() const { return m_dwRestartManagerSupportFlags & AFX_RESTART_MANAGER_SUPPORT_RESTART; }

  00000	55		 push	 ebp
  00001	8b ec		 mov	 ebp, esp
  00003	81 ec cc 00 00
	00		 sub	 esp, 204		; 000000ccH
  00009	53		 push	 ebx
  0000a	56		 push	 esi
  0000b	57		 push	 edi
  0000c	51		 push	 ecx
  0000d	8d bd 34 ff ff
	ff		 lea	 edi, DWORD PTR [ebp-204]
  00013	b9 33 00 00 00	 mov	 ecx, 51			; 00000033H
  00018	b8 cc cc cc cc	 mov	 eax, -858993460		; ccccccccH
  0001d	f3 ab		 rep stosd
  0001f	59		 pop	 ecx
  00020	89 4d f8	 mov	 DWORD PTR _this$[ebp], ecx
  00023	8b 45 f8	 mov	 eax, DWORD PTR _this$[ebp]
  00026	8b 80 ac 00 00
	00		 mov	 eax, DWORD PTR [eax+172]
  0002c	83 e0 01	 and	 eax, 1
  0002f	5f		 pop	 edi
  00030	5e		 pop	 esi
  00031	5b		 pop	 ebx
  00032	8b e5		 mov	 esp, ebp
  00034	5d		 pop	 ebp
  00035	c3		 ret	 0
?SupportsRestartManager@CWinApp@@UBEHXZ ENDP		; CWinApp::SupportsRestartManager
; Function compile flags: /Odtp /RTCsu /ZI
_TEXT	ENDS
;	COMDAT ?SupportsApplicationRecovery@CWinApp@@UBEHXZ
_TEXT	SEGMENT
_this$ = -8						; size = 4
?SupportsApplicationRecovery@CWinApp@@UBEHXZ PROC	; CWinApp::SupportsApplicationRecovery, COMDAT
; _this$ = ecx

; 5477 : 	virtual BOOL SupportsApplicationRecovery() const { return m_dwRestartManagerSupportFlags & AFX_RESTART_MANAGER_SUPPORT_RECOVERY; }

  00000	55		 push	 ebp
  00001	8b ec		 mov	 ebp, esp
  00003	81 ec cc 00 00
	00		 sub	 esp, 204		; 000000ccH
  00009	53		 push	 ebx
  0000a	56		 push	 esi
  0000b	57		 push	 edi
  0000c	51		 push	 ecx
  0000d	8d bd 34 ff ff
	ff		 lea	 edi, DWORD PTR [ebp-204]
  00013	b9 33 00 00 00	 mov	 ecx, 51			; 00000033H
  00018	b8 cc cc cc cc	 mov	 eax, -858993460		; ccccccccH
  0001d	f3 ab		 rep stosd
  0001f	59		 pop	 ecx
  00020	89 4d f8	 mov	 DWORD PTR _this$[ebp], ecx
  00023	8b 45 f8	 mov	 eax, DWORD PTR _this$[ebp]
  00026	8b 80 ac 00 00
	00		 mov	 eax, DWORD PTR [eax+172]
  0002c	83 e0 02	 and	 eax, 2
  0002f	5f		 pop	 edi
  00030	5e		 pop	 esi
  00031	5b		 pop	 ebx
  00032	8b e5		 mov	 esp, ebp
  00034	5d		 pop	 ebp
  00035	c3		 ret	 0
?SupportsApplicationRecovery@CWinApp@@UBEHXZ ENDP	; CWinApp::SupportsApplicationRecovery
; Function compile flags: /Odtp /RTCsu /ZI
_TEXT	ENDS
;	COMDAT ?SupportsAutosaveAtRestart@CWinApp@@UBEHXZ
_TEXT	SEGMENT
_this$ = -8						; size = 4
?SupportsAutosaveAtRestart@CWinApp@@UBEHXZ PROC		; CWinApp::SupportsAutosaveAtRestart, COMDAT
; _this$ = ecx

; 5478 : 	virtual BOOL SupportsAutosaveAtRestart() const { return m_dwRestartManagerSupportFlags & AFX_RESTART_MANAGER_AUTOSAVE_AT_RESTART; }

  00000	55		 push	 ebp
  00001	8b ec		 mov	 ebp, esp
  00003	81 ec cc 00 00
	00		 sub	 esp, 204		; 000000ccH
  00009	53		 push	 ebx
  0000a	56		 push	 esi
  0000b	57		 push	 edi
  0000c	51		 push	 ecx
  0000d	8d bd 34 ff ff
	ff		 lea	 edi, DWORD PTR [ebp-204]
  00013	b9 33 00 00 00	 mov	 ecx, 51			; 00000033H
  00018	b8 cc cc cc cc	 mov	 eax, -858993460		; ccccccccH
  0001d	f3 ab		 rep stosd
  0001f	59		 pop	 ecx
  00020	89 4d f8	 mov	 DWORD PTR _this$[ebp], ecx
  00023	8b 45 f8	 mov	 eax, DWORD PTR _this$[ebp]
  00026	8b 80 ac 00 00
	00		 mov	 eax, DWORD PTR [eax+172]
  0002c	83 e0 04	 and	 eax, 4
  0002f	5f		 pop	 edi
  00030	5e		 pop	 esi
  00031	5b		 pop	 ebx
  00032	8b e5		 mov	 esp, ebp
  00034	5d		 pop	 ebp
  00035	c3		 ret	 0
?SupportsAutosaveAtRestart@CWinApp@@UBEHXZ ENDP		; CWinApp::SupportsAutosaveAtRestart
; Function compile flags: /Odtp /RTCsu /ZI
_TEXT	ENDS
;	COMDAT ?SupportsAutosaveAtInterval@CWinApp@@UBEHXZ
_TEXT	SEGMENT
_this$ = -8						; size = 4
?SupportsAutosaveAtInterval@CWinApp@@UBEHXZ PROC	; CWinApp::SupportsAutosaveAtInterval, COMDAT
; _this$ = ecx

; 5479 : 	virtual BOOL SupportsAutosaveAtInterval() const { return m_dwRestartManagerSupportFlags & AFX_RESTART_MANAGER_AUTOSAVE_AT_INTERVAL; }

  00000	55		 push	 ebp
  00001	8b ec		 mov	 ebp, esp
  00003	81 ec cc 00 00
	00		 sub	 esp, 204		; 000000ccH
  00009	53		 push	 ebx
  0000a	56		 push	 esi
  0000b	57		 push	 edi
  0000c	51		 push	 ecx
  0000d	8d bd 34 ff ff
	ff		 lea	 edi, DWORD PTR [ebp-204]
  00013	b9 33 00 00 00	 mov	 ecx, 51			; 00000033H
  00018	b8 cc cc cc cc	 mov	 eax, -858993460		; ccccccccH
  0001d	f3 ab		 rep stosd
  0001f	59		 pop	 ecx
  00020	89 4d f8	 mov	 DWORD PTR _this$[ebp], ecx
  00023	8b 45 f8	 mov	 eax, DWORD PTR _this$[ebp]
  00026	8b 80 ac 00 00
	00		 mov	 eax, DWORD PTR [eax+172]
  0002c	83 e0 08	 and	 eax, 8
  0002f	5f		 pop	 edi
  00030	5e		 pop	 esi
  00031	5b		 pop	 ebx
  00032	8b e5		 mov	 esp, ebp
  00034	5d		 pop	 ebp
  00035	c3		 ret	 0
?SupportsAutosaveAtInterval@CWinApp@@UBEHXZ ENDP	; CWinApp::SupportsAutosaveAtInterval
; Function compile flags: /Odtp /RTCsu /ZI
_TEXT	ENDS
;	COMDAT ?ReopenPreviousFilesAtRestart@CWinApp@@UBEHXZ
_TEXT	SEGMENT
_this$ = -8						; size = 4
?ReopenPreviousFilesAtRestart@CWinApp@@UBEHXZ PROC	; CWinApp::ReopenPreviousFilesAtRestart, COMDAT
; _this$ = ecx

; 5480 : 	virtual BOOL ReopenPreviousFilesAtRestart() const { return m_dwRestartManagerSupportFlags & AFX_RESTART_MANAGER_REOPEN_PREVIOUS_FILES; }

  00000	55		 push	 ebp
  00001	8b ec		 mov	 ebp, esp
  00003	81 ec cc 00 00
	00		 sub	 esp, 204		; 000000ccH
  00009	53		 push	 ebx
  0000a	56		 push	 esi
  0000b	57		 push	 edi
  0000c	51		 push	 ecx
  0000d	8d bd 34 ff ff
	ff		 lea	 edi, DWORD PTR [ebp-204]
  00013	b9 33 00 00 00	 mov	 ecx, 51			; 00000033H
  00018	b8 cc cc cc cc	 mov	 eax, -858993460		; ccccccccH
  0001d	f3 ab		 rep stosd
  0001f	59		 pop	 ecx
  00020	89 4d f8	 mov	 DWORD PTR _this$[ebp], ecx
  00023	8b 45 f8	 mov	 eax, DWORD PTR _this$[ebp]
  00026	8b 80 ac 00 00
	00		 mov	 eax, DWORD PTR [eax+172]
  0002c	83 e0 10	 and	 eax, 16			; 00000010H
  0002f	5f		 pop	 edi
  00030	5e		 pop	 esi
  00031	5b		 pop	 ebx
  00032	8b e5		 mov	 esp, ebp
  00034	5d		 pop	 ebp
  00035	c3		 ret	 0
?ReopenPreviousFilesAtRestart@CWinApp@@UBEHXZ ENDP	; CWinApp::ReopenPreviousFilesAtRestart
; Function compile flags: /Odtp /RTCsu /ZI
_TEXT	ENDS
;	COMDAT ?RestoreAutosavedFilesAtRestart@CWinApp@@UBEHXZ
_TEXT	SEGMENT
_this$ = -8						; size = 4
?RestoreAutosavedFilesAtRestart@CWinApp@@UBEHXZ PROC	; CWinApp::RestoreAutosavedFilesAtRestart, COMDAT
; _this$ = ecx

; 5481 : 	virtual BOOL RestoreAutosavedFilesAtRestart() const { return m_dwRestartManagerSupportFlags & AFX_RESTART_MANAGER_RESTORE_AUTOSAVED_FILES; }

  00000	55		 push	 ebp
  00001	8b ec		 mov	 ebp, esp
  00003	81 ec cc 00 00
	00		 sub	 esp, 204		; 000000ccH
  00009	53		 push	 ebx
  0000a	56		 push	 esi
  0000b	57		 push	 edi
  0000c	51		 push	 ecx
  0000d	8d bd 34 ff ff
	ff		 lea	 edi, DWORD PTR [ebp-204]
  00013	b9 33 00 00 00	 mov	 ecx, 51			; 00000033H
  00018	b8 cc cc cc cc	 mov	 eax, -858993460		; ccccccccH
  0001d	f3 ab		 rep stosd
  0001f	59		 pop	 ecx
  00020	89 4d f8	 mov	 DWORD PTR _this$[ebp], ecx
  00023	8b 45 f8	 mov	 eax, DWORD PTR _this$[ebp]
  00026	8b 80 ac 00 00
	00		 mov	 eax, DWORD PTR [eax+172]
  0002c	83 e0 20	 and	 eax, 32			; 00000020H
  0002f	5f		 pop	 edi
  00030	5e		 pop	 esi
  00031	5b		 pop	 ebx
  00032	8b e5		 mov	 esp, ebp
  00034	5d		 pop	 ebp
  00035	c3		 ret	 0
?RestoreAutosavedFilesAtRestart@CWinApp@@UBEHXZ ENDP	; CWinApp::RestoreAutosavedFilesAtRestart
; Function compile flags: /Odtp /RTCsu /ZI
_TEXT	ENDS
;	COMDAT ?GetApplicationRestartFlags@CWinApp@@UAEKXZ
_TEXT	SEGMENT
_this$ = -8						; size = 4
?GetApplicationRestartFlags@CWinApp@@UAEKXZ PROC	; CWinApp::GetApplicationRestartFlags, COMDAT
; _this$ = ecx

; 5483 : 	virtual DWORD GetApplicationRestartFlags() { return 0; }  // Flags for RegisterApplicationRestart: default is none of RESTART_NO_CRASH/RESTART_NO_HANG/RESTART_NO_PATCH/RESTART_NO_REBOOT

  00000	55		 push	 ebp
  00001	8b ec		 mov	 ebp, esp
  00003	81 ec cc 00 00
	00		 sub	 esp, 204		; 000000ccH
  00009	53		 push	 ebx
  0000a	56		 push	 esi
  0000b	57		 push	 edi
  0000c	51		 push	 ecx
  0000d	8d bd 34 ff ff
	ff		 lea	 edi, DWORD PTR [ebp-204]
  00013	b9 33 00 00 00	 mov	 ecx, 51			; 00000033H
  00018	b8 cc cc cc cc	 mov	 eax, -858993460		; ccccccccH
  0001d	f3 ab		 rep stosd
  0001f	59		 pop	 ecx
  00020	89 4d f8	 mov	 DWORD PTR _this$[ebp], ecx
  00023	33 c0		 xor	 eax, eax
  00025	5f		 pop	 edi
  00026	5e		 pop	 esi
  00027	5b		 pop	 ebx
  00028	8b e5		 mov	 esp, ebp
  0002a	5d		 pop	 ebp
  0002b	c3		 ret	 0
?GetApplicationRestartFlags@CWinApp@@UAEKXZ ENDP	; CWinApp::GetApplicationRestartFlags
; Function compile flags: /Odtp /RTCsu /ZI
_TEXT	ENDS
;	COMDAT ?GetApplicationRecoveryParameter@CWinApp@@UAEPAXXZ
_TEXT	SEGMENT
_this$ = -8						; size = 4
?GetApplicationRecoveryParameter@CWinApp@@UAEPAXXZ PROC	; CWinApp::GetApplicationRecoveryParameter, COMDAT
; _this$ = ecx

; 5484 : 	virtual LPVOID GetApplicationRecoveryParameter() { return NULL; }  // Parameter to be passed along to RegisterApplicationRecoveryCallback

  00000	55		 push	 ebp
  00001	8b ec		 mov	 ebp, esp
  00003	81 ec cc 00 00
	00		 sub	 esp, 204		; 000000ccH
  00009	53		 push	 ebx
  0000a	56		 push	 esi
  0000b	57		 push	 edi
  0000c	51		 push	 ecx
  0000d	8d bd 34 ff ff
	ff		 lea	 edi, DWORD PTR [ebp-204]
  00013	b9 33 00 00 00	 mov	 ecx, 51			; 00000033H
  00018	b8 cc cc cc cc	 mov	 eax, -858993460		; ccccccccH
  0001d	f3 ab		 rep stosd
  0001f	59		 pop	 ecx
  00020	89 4d f8	 mov	 DWORD PTR _this$[ebp], ecx
  00023	33 c0		 xor	 eax, eax
  00025	5f		 pop	 edi
  00026	5e		 pop	 esi
  00027	5b		 pop	 ebx
  00028	8b e5		 mov	 esp, ebp
  0002a	5d		 pop	 ebp
  0002b	c3		 ret	 0
?GetApplicationRecoveryParameter@CWinApp@@UAEPAXXZ ENDP	; CWinApp::GetApplicationRecoveryParameter
; Function compile flags: /Odtp /RTCsu /ZI
_TEXT	ENDS
;	COMDAT ?GetApplicationRecoveryPingInterval@CWinApp@@UAEKXZ
_TEXT	SEGMENT
_this$ = -8						; size = 4
?GetApplicationRecoveryPingInterval@CWinApp@@UAEKXZ PROC ; CWinApp::GetApplicationRecoveryPingInterval, COMDAT
; _this$ = ecx

; 5485 : 	virtual DWORD GetApplicationRecoveryPingInterval() { return RECOVERY_DEFAULT_PING_INTERVAL; }  // Ping interval for RegisterApplicationRecoveryCallback

  00000	55		 push	 ebp
  00001	8b ec		 mov	 ebp, esp
  00003	81 ec cc 00 00
	00		 sub	 esp, 204		; 000000ccH
  00009	53		 push	 ebx
  0000a	56		 push	 esi
  0000b	57		 push	 edi
  0000c	51		 push	 ecx
  0000d	8d bd 34 ff ff
	ff		 lea	 edi, DWORD PTR [ebp-204]
  00013	b9 33 00 00 00	 mov	 ecx, 51			; 00000033H
  00018	b8 cc cc cc cc	 mov	 eax, -858993460		; ccccccccH
  0001d	f3 ab		 rep stosd
  0001f	59		 pop	 ecx
  00020	89 4d f8	 mov	 DWORD PTR _this$[ebp], ecx
  00023	b8 88 13 00 00	 mov	 eax, 5000		; 00001388H
  00028	5f		 pop	 edi
  00029	5e		 pop	 esi
  0002a	5b		 pop	 ebx
  0002b	8b e5		 mov	 esp, ebp
  0002d	5d		 pop	 ebp
  0002e	c3		 ret	 0
?GetApplicationRecoveryPingInterval@CWinApp@@UAEKXZ ENDP ; CWinApp::GetApplicationRecoveryPingInterval
; Function compile flags: /Odtp /RTCsu /ZI
; File c:\program files\microsoft visual studio 10.0\vc\atlmfc\include\afxwinappex.h
_TEXT	ENDS
;	COMDAT ?OnWorkspaceIdle@CWinAppEx@@UAEHPAVCWnd@@@Z
_TEXT	SEGMENT
_this$ = -8						; size = 4
___formal$ = 8						; size = 4
?OnWorkspaceIdle@CWinAppEx@@UAEHPAVCWnd@@@Z PROC	; CWinAppEx::OnWorkspaceIdle, COMDAT
; _this$ = ecx

; 125  : 	virtual BOOL OnWorkspaceIdle(CWnd* /*pWnd*/) { return FALSE; }

  00000	55		 push	 ebp
  00001	8b ec		 mov	 ebp, esp
  00003	81 ec cc 00 00
	00		 sub	 esp, 204		; 000000ccH
  00009	53		 push	 ebx
  0000a	56		 push	 esi
  0000b	57		 push	 edi
  0000c	51		 push	 ecx
  0000d	8d bd 34 ff ff
	ff		 lea	 edi, DWORD PTR [ebp-204]
  00013	b9 33 00 00 00	 mov	 ecx, 51			; 00000033H
  00018	b8 cc cc cc cc	 mov	 eax, -858993460		; ccccccccH
  0001d	f3 ab		 rep stosd
  0001f	59		 pop	 ecx
  00020	89 4d f8	 mov	 DWORD PTR _this$[ebp], ecx
  00023	33 c0		 xor	 eax, eax
  00025	5f		 pop	 edi
  00026	5e		 pop	 esi
  00027	5b		 pop	 ebx
  00028	8b e5		 mov	 esp, ebp
  0002a	5d		 pop	 ebp
  0002b	c2 04 00	 ret	 4
?OnWorkspaceIdle@CWinAppEx@@UAEHPAVCWnd@@@Z ENDP	; CWinAppEx::OnWorkspaceIdle
; Function compile flags: /Odtp /RTCsu /ZI
_TEXT	ENDS
;	COMDAT ?PreLoadState@CWinAppEx@@MAEXXZ
_TEXT	SEGMENT
_this$ = -8						; size = 4
?PreLoadState@CWinAppEx@@MAEXXZ PROC			; CWinAppEx::PreLoadState, COMDAT
; _this$ = ecx

; 136  : 	virtual void PreLoadState() {}    // called before anything is loaded

  00000	55		 push	 ebp
  00001	8b ec		 mov	 ebp, esp
  00003	81 ec cc 00 00
	00		 sub	 esp, 204		; 000000ccH
  00009	53		 push	 ebx
  0000a	56		 push	 esi
  0000b	57		 push	 edi
  0000c	51		 push	 ecx
  0000d	8d bd 34 ff ff
	ff		 lea	 edi, DWORD PTR [ebp-204]
  00013	b9 33 00 00 00	 mov	 ecx, 51			; 00000033H
  00018	b8 cc cc cc cc	 mov	 eax, -858993460		; ccccccccH
  0001d	f3 ab		 rep stosd
  0001f	59		 pop	 ecx
  00020	89 4d f8	 mov	 DWORD PTR _this$[ebp], ecx
  00023	5f		 pop	 edi
  00024	5e		 pop	 esi
  00025	5b		 pop	 ebx
  00026	8b e5		 mov	 esp, ebp
  00028	5d		 pop	 ebp
  00029	c3		 ret	 0
?PreLoadState@CWinAppEx@@MAEXXZ ENDP			; CWinAppEx::PreLoadState
; Function compile flags: /Odtp /RTCsu /ZI
_TEXT	ENDS
;	COMDAT ?LoadCustomState@CWinAppEx@@MAEXXZ
_TEXT	SEGMENT
_this$ = -8						; size = 4
?LoadCustomState@CWinAppEx@@MAEXXZ PROC			; CWinAppEx::LoadCustomState, COMDAT
; _this$ = ecx

; 137  : 	virtual void LoadCustomState() {} // called after everything is loaded

  00000	55		 push	 ebp
  00001	8b ec		 mov	 ebp, esp
  00003	81 ec cc 00 00
	00		 sub	 esp, 204		; 000000ccH
  00009	53		 push	 ebx
  0000a	56		 push	 esi
  0000b	57		 push	 edi
  0000c	51		 push	 ecx
  0000d	8d bd 34 ff ff
	ff		 lea	 edi, DWORD PTR [ebp-204]
  00013	b9 33 00 00 00	 mov	 ecx, 51			; 00000033H
  00018	b8 cc cc cc cc	 mov	 eax, -858993460		; ccccccccH
  0001d	f3 ab		 rep stosd
  0001f	59		 pop	 ecx
  00020	89 4d f8	 mov	 DWORD PTR _this$[ebp], ecx
  00023	5f		 pop	 edi
  00024	5e		 pop	 esi
  00025	5b		 pop	 ebx
  00026	8b e5		 mov	 esp, ebp
  00028	5d		 pop	 ebp
  00029	c3		 ret	 0
?LoadCustomState@CWinAppEx@@MAEXXZ ENDP			; CWinAppEx::LoadCustomState
; Function compile flags: /Odtp /RTCsu /ZI
_TEXT	ENDS
;	COMDAT ?PreSaveState@CWinAppEx@@MAEXXZ
_TEXT	SEGMENT
_this$ = -8						; size = 4
?PreSaveState@CWinAppEx@@MAEXXZ PROC			; CWinAppEx::PreSaveState, COMDAT
; _this$ = ecx

; 138  : 	virtual void PreSaveState() {}    // called before anything is saved

  00000	55		 push	 ebp
  00001	8b ec		 mov	 ebp, esp
  00003	81 ec cc 00 00
	00		 sub	 esp, 204		; 000000ccH
  00009	53		 push	 ebx
  0000a	56		 push	 esi
  0000b	57		 push	 edi
  0000c	51		 push	 ecx
  0000d	8d bd 34 ff ff
	ff		 lea	 edi, DWORD PTR [ebp-204]
  00013	b9 33 00 00 00	 mov	 ecx, 51			; 00000033H
  00018	b8 cc cc cc cc	 mov	 eax, -858993460		; ccccccccH
  0001d	f3 ab		 rep stosd
  0001f	59		 pop	 ecx
  00020	89 4d f8	 mov	 DWORD PTR _this$[ebp], ecx
  00023	5f		 pop	 edi
  00024	5e		 pop	 esi
  00025	5b		 pop	 ebx
  00026	8b e5		 mov	 esp, ebp
  00028	5d		 pop	 ebp
  00029	c3		 ret	 0
?PreSaveState@CWinAppEx@@MAEXXZ ENDP			; CWinAppEx::PreSaveState
; Function compile flags: /Odtp /RTCsu /ZI
_TEXT	ENDS
;	COMDAT ?SaveCustomState@CWinAppEx@@MAEXXZ
_TEXT	SEGMENT
_this$ = -8						; size = 4
?SaveCustomState@CWinAppEx@@MAEXXZ PROC			; CWinAppEx::SaveCustomState, COMDAT
; _this$ = ecx

; 139  : 	virtual void SaveCustomState() {} // called after everything is saved

  00000	55		 push	 ebp
  00001	8b ec		 mov	 ebp, esp
  00003	81 ec cc 00 00
	00		 sub	 esp, 204		; 000000ccH
  00009	53		 push	 ebx
  0000a	56		 push	 esi
  0000b	57		 push	 edi
  0000c	51		 push	 ecx
  0000d	8d bd 34 ff ff
	ff		 lea	 edi, DWORD PTR [ebp-204]
  00013	b9 33 00 00 00	 mov	 ecx, 51			; 00000033H
  00018	b8 cc cc cc cc	 mov	 eax, -858993460		; ccccccccH
  0001d	f3 ab		 rep stosd
  0001f	59		 pop	 ecx
  00020	89 4d f8	 mov	 DWORD PTR _this$[ebp], ecx
  00023	5f		 pop	 edi
  00024	5e		 pop	 esi
  00025	5b		 pop	 ebx
  00026	8b e5		 mov	 esp, ebp
  00028	5d		 pop	 ebp
  00029	c3		 ret	 0
?SaveCustomState@CWinAppEx@@MAEXXZ ENDP			; CWinAppEx::SaveCustomState
_TEXT	ENDS
PUBLIC	??1?$CSimpleStringT@_W$0A@@ATL@@QAE@XZ		; ATL::CSimpleStringT<wchar_t,0>::~CSimpleStringT<wchar_t,0>
; Function compile flags: /Odtp /RTCsu /ZI
; File c:\program files\microsoft visual studio 10.0\vc\atlmfc\include\cstringt.h
;	COMDAT ??1?$CStringT@_WV?$StrTraitMFC@_WV?$ChTraitsCRT@_W@ATL@@@@@ATL@@QAE@XZ
_TEXT	SEGMENT
_this$ = -8						; size = 4
??1?$CStringT@_WV?$StrTraitMFC@_WV?$ChTraitsCRT@_W@ATL@@@@@ATL@@QAE@XZ PROC ; ATL::CStringT<wchar_t,StrTraitMFC<wchar_t,ATL::ChTraitsCRT<wchar_t> > >::~CStringT<wchar_t,StrTraitMFC<wchar_t,ATL::ChTraitsCRT<wchar_t> > >, COMDAT
; _this$ = ecx

; 1212 : 	{

  00000	55		 push	 ebp
  00001	8b ec		 mov	 ebp, esp
  00003	81 ec cc 00 00
	00		 sub	 esp, 204		; 000000ccH
  00009	53		 push	 ebx
  0000a	56		 push	 esi
  0000b	57		 push	 edi
  0000c	51		 push	 ecx
  0000d	8d bd 34 ff ff
	ff		 lea	 edi, DWORD PTR [ebp-204]
  00013	b9 33 00 00 00	 mov	 ecx, 51			; 00000033H
  00018	b8 cc cc cc cc	 mov	 eax, -858993460		; ccccccccH
  0001d	f3 ab		 rep stosd
  0001f	59		 pop	 ecx
  00020	89 4d f8	 mov	 DWORD PTR _this$[ebp], ecx

; 1213 : 	}

  00023	8b 4d f8	 mov	 ecx, DWORD PTR _this$[ebp]
  00026	e8 00 00 00 00	 call	 ??1?$CSimpleStringT@_W$0A@@ATL@@QAE@XZ ; ATL::CSimpleStringT<wchar_t,0>::~CSimpleStringT<wchar_t,0>
  0002b	5f		 pop	 edi
  0002c	5e		 pop	 esi
  0002d	5b		 pop	 ebx
  0002e	81 c4 cc 00 00
	00		 add	 esp, 204		; 000000ccH
  00034	3b ec		 cmp	 ebp, esp
  00036	e8 00 00 00 00	 call	 __RTC_CheckEsp
  0003b	8b e5		 mov	 esp, ebp
  0003d	5d		 pop	 ebp
  0003e	c3		 ret	 0
??1?$CStringT@_WV?$StrTraitMFC@_WV?$ChTraitsCRT@_W@ATL@@@@@ATL@@QAE@XZ ENDP ; ATL::CStringT<wchar_t,StrTraitMFC<wchar_t,ATL::ChTraitsCRT<wchar_t> > >::~CStringT<wchar_t,StrTraitMFC<wchar_t,ATL::ChTraitsCRT<wchar_t> > >
_TEXT	ENDS
PUBLIC	?Release@CStringData@ATL@@QAEXXZ		; ATL::CStringData::Release
PUBLIC	?GetData@?$CSimpleStringT@_W$0A@@ATL@@ABEPAUCStringData@2@XZ ; ATL::CSimpleStringT<wchar_t,0>::GetData
; Function compile flags: /Odtp /RTCsu /ZI
; File c:\program files\microsoft visual studio 10.0\vc\atlmfc\include\atlsimpstr.h
;	COMDAT ??1?$CSimpleStringT@_W$0A@@ATL@@QAE@XZ
_TEXT	SEGMENT
_pData$ = -20						; size = 4
_this$ = -8						; size = 4
??1?$CSimpleStringT@_W$0A@@ATL@@QAE@XZ PROC		; ATL::CSimpleStringT<wchar_t,0>::~CSimpleStringT<wchar_t,0>, COMDAT
; _this$ = ecx

; 286  : 	{

  00000	55		 push	 ebp
  00001	8b ec		 mov	 ebp, esp
  00003	81 ec d8 00 00
	00		 sub	 esp, 216		; 000000d8H
  00009	53		 push	 ebx
  0000a	56		 push	 esi
  0000b	57		 push	 edi
  0000c	51		 push	 ecx
  0000d	8d bd 28 ff ff
	ff		 lea	 edi, DWORD PTR [ebp-216]
  00013	b9 36 00 00 00	 mov	 ecx, 54			; 00000036H
  00018	b8 cc cc cc cc	 mov	 eax, -858993460		; ccccccccH
  0001d	f3 ab		 rep stosd
  0001f	59		 pop	 ecx
  00020	89 4d f8	 mov	 DWORD PTR _this$[ebp], ecx

; 287  : 		CStringData* pData = GetData();

  00023	8b 4d f8	 mov	 ecx, DWORD PTR _this$[ebp]
  00026	e8 00 00 00 00	 call	 ?GetData@?$CSimpleStringT@_W$0A@@ATL@@ABEPAUCStringData@2@XZ ; ATL::CSimpleStringT<wchar_t,0>::GetData
  0002b	89 45 ec	 mov	 DWORD PTR _pData$[ebp], eax

; 288  : 		pData->Release();

  0002e	8b 4d ec	 mov	 ecx, DWORD PTR _pData$[ebp]
  00031	e8 00 00 00 00	 call	 ?Release@CStringData@ATL@@QAEXXZ ; ATL::CStringData::Release

; 289  : 	}

  00036	5f		 pop	 edi
  00037	5e		 pop	 esi
  00038	5b		 pop	 ebx
  00039	81 c4 d8 00 00
	00		 add	 esp, 216		; 000000d8H
  0003f	3b ec		 cmp	 ebp, esp
  00041	e8 00 00 00 00	 call	 __RTC_CheckEsp
  00046	8b e5		 mov	 esp, ebp
  00048	5d		 pop	 ebp
  00049	c3		 ret	 0
??1?$CSimpleStringT@_W$0A@@ATL@@QAE@XZ ENDP		; ATL::CSimpleStringT<wchar_t,0>::~CSimpleStringT<wchar_t,0>
_TEXT	ENDS
PUBLIC	??_C@_1JK@OKOEFEHL@?$AAc?$AA?3?$AA?2?$AAp?$AAr?$AAo?$AAg?$AAr?$AAa?$AAm?$AA?5?$AAf?$AAi?$AAl?$AAe?$AAs?$AA?2?$AAm?$AAi?$AAc?$AAr?$AAo?$AAs?$AAo?$AAf?$AAt?$AA?5?$AAv?$AAi?$AAs?$AAu?$AAa@ ; `string'
PUBLIC	??_C@_1BG@GPELCNED@?$AAn?$AAR?$AAe?$AAf?$AAs?$AA?5?$AA?$CB?$AA?$DN?$AA?5?$AA0?$AA?$AA@ ; `string'
EXTRN	__CrtDbgReportW:PROC
;	COMDAT ??_C@_1JK@OKOEFEHL@?$AAc?$AA?3?$AA?2?$AAp?$AAr?$AAo?$AAg?$AAr?$AAa?$AAm?$AA?5?$AAf?$AAi?$AAl?$AAe?$AAs?$AA?2?$AAm?$AAi?$AAc?$AAr?$AAo?$AAs?$AAo?$AAf?$AAt?$AA?5?$AAv?$AAi?$AAs?$AAu?$AAa@
CONST	SEGMENT
??_C@_1JK@OKOEFEHL@?$AAc?$AA?3?$AA?2?$AAp?$AAr?$AAo?$AAg?$AAr?$AAa?$AAm?$AA?5?$AAf?$AAi?$AAl?$AAe?$AAs?$AA?2?$AAm?$AAi?$AAc?$AAr?$AAo?$AAs?$AAo?$AAf?$AAt?$AA?5?$AAv?$AAi?$AAs?$AAu?$AAa@ DB 'c'
	DB	00H, ':', 00H, '\', 00H, 'p', 00H, 'r', 00H, 'o', 00H, 'g', 00H
	DB	'r', 00H, 'a', 00H, 'm', 00H, ' ', 00H, 'f', 00H, 'i', 00H, 'l'
	DB	00H, 'e', 00H, 's', 00H, '\', 00H, 'm', 00H, 'i', 00H, 'c', 00H
	DB	'r', 00H, 'o', 00H, 's', 00H, 'o', 00H, 'f', 00H, 't', 00H, ' '
	DB	00H, 'v', 00H, 'i', 00H, 's', 00H, 'u', 00H, 'a', 00H, 'l', 00H
	DB	' ', 00H, 's', 00H, 't', 00H, 'u', 00H, 'd', 00H, 'i', 00H, 'o'
	DB	00H, ' ', 00H, '1', 00H, '0', 00H, '.', 00H, '0', 00H, '\', 00H
	DB	'v', 00H, 'c', 00H, '\', 00H, 'a', 00H, 't', 00H, 'l', 00H, 'm'
	DB	00H, 'f', 00H, 'c', 00H, '\', 00H, 'i', 00H, 'n', 00H, 'c', 00H
	DB	'l', 00H, 'u', 00H, 'd', 00H, 'e', 00H, '\', 00H, 'a', 00H, 't'
	DB	00H, 'l', 00H, 's', 00H, 'i', 00H, 'm', 00H, 'p', 00H, 's', 00H
	DB	't', 00H, 'r', 00H, '.', 00H, 'h', 00H, 00H, 00H ; `string'
CONST	ENDS
;	COMDAT ??_C@_1BG@GPELCNED@?$AAn?$AAR?$AAe?$AAf?$AAs?$AA?5?$AA?$CB?$AA?$DN?$AA?5?$AA0?$AA?$AA@
CONST	SEGMENT
??_C@_1BG@GPELCNED@?$AAn?$AAR?$AAe?$AAf?$AAs?$AA?5?$AA?$CB?$AA?$DN?$AA?5?$AA0?$AA?$AA@ DB 'n'
	DB	00H, 'R', 00H, 'e', 00H, 'f', 00H, 's', 00H, ' ', 00H, '!', 00H
	DB	'=', 00H, ' ', 00H, '0', 00H, 00H, 00H	; `string'
; Function compile flags: /Odtp /RTCsu /ZI
CONST	ENDS
;	COMDAT ?Release@CStringData@ATL@@QAEXXZ
_TEXT	SEGMENT
_this$ = -8						; size = 4
?Release@CStringData@ATL@@QAEXXZ PROC			; ATL::CStringData::Release, COMDAT
; _this$ = ecx

; 111  : 	{

  00000	55		 push	 ebp
  00001	8b ec		 mov	 ebp, esp
  00003	81 ec cc 00 00
	00		 sub	 esp, 204		; 000000ccH
  00009	53		 push	 ebx
  0000a	56		 push	 esi
  0000b	57		 push	 edi
  0000c	51		 push	 ecx
  0000d	8d bd 34 ff ff
	ff		 lea	 edi, DWORD PTR [ebp-204]
  00013	b9 33 00 00 00	 mov	 ecx, 51			; 00000033H
  00018	b8 cc cc cc cc	 mov	 eax, -858993460		; ccccccccH
  0001d	f3 ab		 rep stosd
  0001f	59		 pop	 ecx
  00020	89 4d f8	 mov	 DWORD PTR _this$[ebp], ecx

; 112  : 		ATLASSERT( nRefs != 0 );

  00023	8b 45 f8	 mov	 eax, DWORD PTR _this$[ebp]
  00026	83 78 0c 00	 cmp	 DWORD PTR [eax+12], 0
  0002a	75 1e		 jne	 SHORT $LN4@Release
  0002c	68 00 00 00 00	 push	 OFFSET ??_C@_1BG@GPELCNED@?$AAn?$AAR?$AAe?$AAf?$AAs?$AA?5?$AA?$CB?$AA?$DN?$AA?5?$AA0?$AA?$AA@
  00031	6a 00		 push	 0
  00033	6a 70		 push	 112			; 00000070H
  00035	68 00 00 00 00	 push	 OFFSET ??_C@_1JK@OKOEFEHL@?$AAc?$AA?3?$AA?2?$AAp?$AAr?$AAo?$AAg?$AAr?$AAa?$AAm?$AA?5?$AAf?$AAi?$AAl?$AAe?$AAs?$AA?2?$AAm?$AAi?$AAc?$AAr?$AAo?$AAs?$AAo?$AAf?$AAt?$AA?5?$AAv?$AAi?$AAs?$AAu?$AAa@
  0003a	6a 02		 push	 2
  0003c	e8 00 00 00 00	 call	 __CrtDbgReportW
  00041	83 c4 14	 add	 esp, 20			; 00000014H
  00044	83 f8 01	 cmp	 eax, 1
  00047	75 01		 jne	 SHORT $LN4@Release
  00049	cc		 int	 3
$LN4@Release:

; 113  : 
; 114  : 		if( _AtlInterlockedDecrement( &nRefs ) <= 0 )

  0004a	8b 45 f8	 mov	 eax, DWORD PTR _this$[ebp]
  0004d	83 c0 0c	 add	 eax, 12			; 0000000cH
  00050	83 c9 ff	 or	 ecx, -1
  00053	f0 0f c1 08	 lock	  xadd	 DWORD PTR [eax], ecx
  00057	49		 dec	 ecx
  00058	85 c9		 test	 ecx, ecx
  0005a	7f 1e		 jg	 SHORT $LN2@Release

; 115  : 		{
; 116  : 			pStringMgr->Free( this );

  0005c	8b f4		 mov	 esi, esp
  0005e	8b 45 f8	 mov	 eax, DWORD PTR _this$[ebp]
  00061	50		 push	 eax
  00062	8b 4d f8	 mov	 ecx, DWORD PTR _this$[ebp]
  00065	8b 11		 mov	 edx, DWORD PTR [ecx]
  00067	8b 45 f8	 mov	 eax, DWORD PTR _this$[ebp]
  0006a	8b 08		 mov	 ecx, DWORD PTR [eax]
  0006c	8b 12		 mov	 edx, DWORD PTR [edx]
  0006e	8b 42 04	 mov	 eax, DWORD PTR [edx+4]
  00071	ff d0		 call	 eax
  00073	3b f4		 cmp	 esi, esp
  00075	e8 00 00 00 00	 call	 __RTC_CheckEsp
$LN2@Release:

; 117  : 		}
; 118  : 	}

  0007a	5f		 pop	 edi
  0007b	5e		 pop	 esi
  0007c	5b		 pop	 ebx
  0007d	81 c4 cc 00 00
	00		 add	 esp, 204		; 000000ccH
  00083	3b ec		 cmp	 ebp, esp
  00085	e8 00 00 00 00	 call	 __RTC_CheckEsp
  0008a	8b e5		 mov	 esp, ebp
  0008c	5d		 pop	 ebp
  0008d	c3		 ret	 0
?Release@CStringData@ATL@@QAEXXZ ENDP			; ATL::CStringData::Release
; Function compile flags: /Odtp /RTCsu /ZI
_TEXT	ENDS
;	COMDAT ?GetData@?$CSimpleStringT@_W$0A@@ATL@@ABEPAUCStringData@2@XZ
_TEXT	SEGMENT
_this$ = -8						; size = 4
?GetData@?$CSimpleStringT@_W$0A@@ATL@@ABEPAUCStringData@2@XZ PROC ; ATL::CSimpleStringT<wchar_t,0>::GetData, COMDAT
; _this$ = ecx

; 822  : 	{

  00000	55		 push	 ebp
  00001	8b ec		 mov	 ebp, esp
  00003	81 ec cc 00 00
	00		 sub	 esp, 204		; 000000ccH
  00009	53		 push	 ebx
  0000a	56		 push	 esi
  0000b	57		 push	 edi
  0000c	51		 push	 ecx
  0000d	8d bd 34 ff ff
	ff		 lea	 edi, DWORD PTR [ebp-204]
  00013	b9 33 00 00 00	 mov	 ecx, 51			; 00000033H
  00018	b8 cc cc cc cc	 mov	 eax, -858993460		; ccccccccH
  0001d	f3 ab		 rep stosd
  0001f	59		 pop	 ecx
  00020	89 4d f8	 mov	 DWORD PTR _this$[ebp], ecx

; 823  : 		return( reinterpret_cast< CStringData* >( m_pszData )-1 );

  00023	8b 45 f8	 mov	 eax, DWORD PTR _this$[ebp]
  00026	8b 00		 mov	 eax, DWORD PTR [eax]
  00028	83 e8 10	 sub	 eax, 16			; 00000010H

; 824  : 	}

  0002b	5f		 pop	 edi
  0002c	5e		 pop	 esi
  0002d	5b		 pop	 ebx
  0002e	8b e5		 mov	 esp, ebp
  00030	5d		 pop	 ebp
  00031	c3		 ret	 0
?GetData@?$CSimpleStringT@_W$0A@@ATL@@ABEPAUCStringData@2@XZ ENDP ; ATL::CSimpleStringT<wchar_t,0>::GetData
_TEXT	ENDS
PUBLIC	??_C@_1BA@FDGHOEJM@N?$AL?$ICrSaQIn?$JA?$IM?$AD?$IC?$IC?$AA?$AA@ ; `string'
PUBLIC	??_C@_1BA@PNAPHFAN@N?6?$ICrSaQIn?$JA?$IM?$AD?$IC?$IC?$AA?$AA@ ; `string'
PUBLIC	??_C@_1O@PJHKGIMH@N?$ALv?$HNpo?$HL?$LB?$IM?$AD?$IC?$IC?$AA?$AA@ ; `string'
PUBLIC	??_C@_1O@GEHFIJLB@N?6v?$HNpo?$HL?$LB?$IM?$AD?$IC?$IC?$AA?$AA@ ; `string'
PUBLIC	??_C@_1O@KJGOGIJF@?$FO?$JFg?$HPb?$KM?$INwh?$MAmK?$AA?$AA@ ; `string'
PUBLIC	??_C@_1O@KHGDJIGO@Y?$CJg?$HPy?$LL_?$AAh?$MAmK?$AA?$AA@ ; `string'
PUBLIC	??_C@_1O@GMGEDNBE@Y?$CJg?$HPR0OMh?$MAmK?$AA?$AA@ ; `string'
PUBLIC	??_C@_1BA@KGEKPKOC@?$AAU?$AAS?$AABR0OMh?$MAmK?$AA?$AA@ ; `string'
PUBLIC	??_C@_1O@HOAOAMGL@v?xg?3u5n?$JAQs?$JF?m?$AA?$AA@ ; `string'
PUBLIC	??_C@_1O@CHAOEBHI@v?xg?3u5n?$JAbS_?$AA?$AA?$AA@	; `string'
PUBLIC	??_C@_1O@KHCFJLPD@v?xg?3c?7?$JF?4_9?$INw?$AA?$AA@ ; `string'
PUBLIC	??_C@_1O@HFIOPOOE@v?xg?3c?7?$JF?4c?7N?$AL?$AA?$AA@ ; `string'
PUBLIC	??_C@_1M@DBMLJONM@c?$ACg?3?$JF?4_9?$INw?$AA?$AA@ ; `string'
PUBLIC	??_C@_1M@ODGAPLML@c?$ACg?3?$JF?4c?7N?$AL?$AA?$AA@ ; `string'
PUBLIC	??_C@_19NNMIJBFF@?$JH?$AN?2?$BE_9?$INw?$AA?$AA@	; `string'
PUBLIC	??_C@_19PGDPEEC@?$JH?$AN?2?$BEc?7N?$AL?$AA?$AA@	; `string'
PUBLIC	??_C@_19OALIHFCC@T9?2?$BI?$HO?Sg_?$AA?$AA@	; `string'
PUBLIC	??_C@_19JEGEKDHO@T9?2?$BI_?$AAY?K?$AA?$AA@	; `string'
PUBLIC	??_C@_19CDLPOHMH@h7g?3e?$DO_?$AA?$AA?$AA@	; `string'
PUBLIC	??_C@_19JKLDNACP@h7g?3V?z?$FL?$JK?$AA?$AA@	; `string'
PUBLIC	??_C@_1BE@LMBKONAN@v?xg?3?$AAU?$AAS?$AABu5n?$JAQs?$JF?m?$AA?$AA@ ; `string'
PUBLIC	??_C@_1BE@OFBKKABO@v?xg?3?$AAU?$AAS?$AABu5n?$JAbS_?$AA?$AA?$AA@ ; `string'
PUBLIC	??_C@_1BA@IEEJPODI@?$HO?$KC?$ICr?2Oepcn?$IL?$PLS?V?$AA?$AA@ ; `string'
PUBLIC	??_C@_1BA@LIJFDNLJ@?$HO?$KC?$ICr?2OmK?$IL?U_?$AAY?K?$AA?$AA@ ; `string'
PUBLIC	??_C@_1BA@EFFKHEAF@?$HO?$PP?$ICr?2Oepcn?$IL?$PLS?V?$AA?$AA@ ; `string'
PUBLIC	??_C@_1BA@HJIGLHIE@?$HO?$PP?$ICr?2OmK?$IL?U_?$AAY?K?$AA?$AA@ ; `string'
PUBLIC	??_C@_1BA@PKBBHNBK@?$IE?$NN?$ICr?2Oepcn?$IL?$PLS?V?$AA?$AA@ ; `string'
PUBLIC	??_C@_1BA@MGMNLOJL@?$IE?$NN?$ICr?2OmK?$IL?U_?$AAY?K?$AA?$AA@ ; `string'
PUBLIC	??_C@_1BE@KMDEMM@?$HO?$KC?$ICrc?$AHy?3poepcn?$IL?$PLS?V?$AA?$AA@ ; `string'
PUBLIC	??_C@_1BE@DMHAPHEN@?$HO?$KC?$ICrc?$AHy?3pomK?$IL?U_?$AAY?K?$AA?$AA@ ; `string'
PUBLIC	??_C@_1BC@MDJCOJAO@?$IA?LQI?$JI?$JM?$ICrepcn?$IL?$PLS?V?$AA?$AA@ ; `string'
PUBLIC	??_C@_1BC@PBEGKINI@?$IA?LQI?$JI?$JM?$ICrh?$MAmK_?$AAY?K?$AA?$AA@ ; `string'
PUBLIC	??_C@_1BE@JPFOGIDE@?$AAL?$AAE?$AAD?$JI?$JM?$ICrepcn?$IL?$PLS?V?$AA?$AA@ ; `string'
PUBLIC	??_C@_1BE@KNIKCJOC@?$AAL?$AAE?$AAD?$JI?$JM?$ICrh?$MAmK_?$AAY?K?$AA?$AA@ ; `string'
PUBLIC	??_C@_15NFBIKKCF@Y?$ANOM?$AA?$AA@		; `string'
PUBLIC	??_C@_19JMEJALJK@R0OMh?$MAmK?$AA?$AA@		; `string'
PUBLIC	??_C@_1M@OKPJEHOC@?$IJ?F?$JI?$JBz?oS?c?$AA4?$AA?$AA@ ; `string'
PUBLIC	??_C@_1M@HHCOHPFL@?$IJ?F?$JI?$JBz?oS?c?$AA3?$AA?$AA@ ; `string'
PUBLIC	??_C@_1M@MPJCBIDO@?$IJ?F?$JI?$JBz?oS?c?$AA2?$AA?$AA@ ; `string'
PUBLIC	??_C@_1M@NNCHLHNA@?$IJ?F?$JI?$JBz?oS?c?$AA1?$AA?$AA@ ; `string'
PUBLIC	??_C@_1BE@PKPMFLBC@_?$AA?$HL?$LBl?$BER?$KI?$JG?$AAQs?$AAO?$AAL?$AAD?$AA?$AA@ ; `string'
PUBLIC	??_C@_1BE@CPEALOBL@_?$AA?$HL?$LBl?$BER?$KI?$JG?$AA_?$AA?$AAO?$AAL?$AAD?$AA?$AA@ ; `string'
PUBLIC	??_C@_1BE@OOKFLHG@Qs?$HL?$LBl?$BER?$KI?$JG?$AAQs?$AAO?$AAL?$AAD?$AA?$AA@ ; `string'
PUBLIC	??_C@_1BE@NLFGLOHP@Qs?$HL?$LBl?$BER?$KI?$JG?$AA_?$AA?$AAO?$AAL?$AAD?$AA?$AA@ ; `string'
PUBLIC	??_C@_19KEPOBHFJ@x?AW?3P?2kb?$AA?$AA@		; `string'
PUBLIC	??_C@_19IDGIAJBL@x?AW?3e?K?$IPl?$AA?$AA@	; `string'
PUBLIC	??_C@_1M@MLALJFKF@u5g?3?$AA4T?$AO?$JA?$AA?$AA?$AA@ ; `string'
PUBLIC	??_C@_1M@CLKIMCBC@u5g?3?$AA4RM?$IP?$NL?$AA?$AA@	; `string'
PUBLIC	??_C@_1M@MBMOJMLM@u5g?3?$AA3T?$AO?$JA?$AA?$AA?$AA@ ; `string'
PUBLIC	??_C@_1M@CBGNMLAL@u5g?3?$AA3RM?$IP?$NL?$AA?$AA@	; `string'
PUBLIC	??_C@_1M@NGEJMCC@u5g?3?$AA2T?$AO?$JA?$AA?$AA?$AA@ ; `string'
PUBLIC	??_C@_1M@ONMHMLJF@u5g?3?$AA2RM?$IP?$NL?$AA?$AA@	; `string'
PUBLIC	??_C@_1M@IDOLJLMB@u5g?3?$AA1T?$AO?$JA?$AA?$AA?$AA@ ; `string'
PUBLIC	??_C@_1M@GDEIMMHG@u5g?3?$AA1RM?$IP?$NL?$AA?$AA@	; `string'
PUBLIC	??_C@_1BA@OHPAPOKM@z?oS?c?$AA4r?$LG?$GA?$ABh?$MAmK?$AA?$AA@ ; `string'
PUBLIC	??_C@_1BA@JDGIBHCD@z?oS?c?$AA3r?$LG?$GA?$ABh?$MAmK?$AA?$AA@ ; `string'
PUBLIC	??_C@_1BA@IMNFLEM@z?oS?c?$AA2r?$LG?$GA?$ABh?$MAmK?$AA?$AA@ ; `string'
PUBLIC	??_C@_1BA@HPFDIJLM@z?oS?c?$AA1r?$LG?$GA?$ABh?$MAmK?$AA?$AA@ ; `string'
PUBLIC	??_C@_1M@KICGEGCK@?$IP?TV?$NO?$JF?4_9?$INw?$AA?$AA@ ; `string'
PUBLIC	??_C@_1M@HKINCDDN@?$IP?TV?$NO?$JF?4c?7N?$AL?$AA?$AA@ ; `string'
PUBLIC	??_C@_1M@PAECBFKK@?$ID?$NMSU?$JF?4_9?$INw?$AA?$AA@ ; `string'
PUBLIC	??_C@_1M@CCOJHALN@?$ID?$NMSU?$JF?4c?7N?$AL?$AA?$AA@ ; `string'
PUBLIC	??_C@_1M@NDLNAAPP@N?$DL?$JIu?$JF?4_9?$INw?$AA?$AA@ ; `string'
PUBLIC	??_C@_1M@BBGGFOI@N?$DL?$JIu?$JF?4c?7N?$AL?$AA?$AA@ ; `string'
PUBLIC	??_C@_1O@KGBEOHII@?$IJ?fdx?$JF?4?$AA5_9?$INw?$AA?$AA@ ; `string'
PUBLIC	??_C@_1O@HELPICJP@?$IJ?fdx?$JF?4?$AA5c?7N?$AL?$AA?$AA@ ; `string'
PUBLIC	??_C@_1O@GKLOOHBG@?$IJ?fdx?$JF?4?$AA4_9?$INw?$AA?$AA@ ; `string'
PUBLIC	??_C@_1O@LIBFICAB@?$IJ?fdx?$JF?4?$AA4c?7N?$AL?$AA?$AA@ ; `string'
PUBLIC	??_C@_1M@LIDIPIIJ@?$AAM?$AAI?$AAC?$IM?$AD?$IC?$IC?$AA?$AA@ ; `string'
PUBLIC	??_C@_1BE@LCPCPGGH@?$AAE?$AAA?$AAR?$AA?9?$AAM?$AAI?$AAC?$IM?$AD?$IC?$IC?$AA?$AA@ ; `string'
PUBLIC	??_C@_1BA@LBFGKPOK@?$AAE?$AAA?$AAR?$AA?9?$AAR?$IM?$AD?$IC?$IC?$AA?$AA@ ; `string'
PUBLIC	??_C@_1BA@NIGHIMPD@?$AAE?$AAA?$AAR?$AA?9?$AAL?$IM?$AD?$IC?$IC?$AA?$AA@ ; `string'
PUBLIC	??_C@_1M@JBILBOF@?$AAV?$AAI?$AAB?$IM?$AD?$IC?$IC?$AA?$AA@ ; `string'
PUBLIC	??_C@_1O@LPIEAEEG@?$AAS?$AAP?$AAK?$AA2?$IM?$AD?$IC?$IC?$AA?$AA@ ; `string'
PUBLIC	??_C@_1O@DBALADKF@?$AAS?$AAP?$AAK?$AA1?$IM?$AD?$IC?$IC?$AA?$AA@ ; `string'
PUBLIC	??_C@_1M@NMIIGKIK@?$AAR?$AAE?$AAC?$IM?$AD?$IC?$IC?$AA?$AA@ ; `string'
PUBLIC	??_C@_1O@IMJJJDFH@?$JH?s?$JI?$JB?$JA?$BK?$JASR?$AHcb?$AA?$AA@ ; `string'
PUBLIC	??_C@_1BG@EGNBCKPN@?$HO?$KC?$ICr?$AAL?$AAE?$AADpor?$LG?$GA?$ABg?e?$IL?b?$AA?$AA@ ; `string'
PUBLIC	??_C@_1BG@NHKCJCLL@?$HO?$PP?$ICr?$AAL?$AAE?$AADpor?$LG?$GA?$ABg?e?$IL?b?$AA?$AA@ ; `string'
PUBLIC	??_C@_1O@DIEEJPHG@?$IA3g?3r?$LG?$GA?$ABg?e?$IL?b?$AA?$AA@ ; `string'
PUBLIC	??_C@_1BI@LEJMMEH@c?7?$JF?4pomK?$IL?US?$ILg?$HPr?$LG?$GA?$ABg?e?$IL?b?$AA?$AA@ ; `string'
PUBLIC	??_C@_1O@JPFCJEFO@S?$ILg?$HPr?$LG?$GA?$ABg?e?$IL?b?$AA?$AA@ ; `string'
PUBLIC	??_C@_1BI@HLEGENHB@RM?$HPndDP?OY4QIn?$JAr?$LG?$GA?$ABg?e?$IL?b?$AA?$AA@ ; `string'
PUBLIC	??_C@_1BA@JPAAFEIE@s?$KPX?$IDQIr?$LG?$GA?$ABg?e?$IL?b?$AA?$AA@ ; `string'
PUBLIC	??_C@_1BA@HAJCONNC@v?$HNu?$DL?$JHbr?$LG?$GA?$ABg?e?$IL?b?$AA?$AA@ ; `string'
PUBLIC	??_C@_1BC@JOILPBBA@?$IJ?fdx?$JF?4?$AA4r?$LG?$GA?$ABg?e?$IL?b?$AA?$AA@ ; `string'
PUBLIC	??_C@_1BC@OKBDBIJP@?$IJ?fdx?$JF?4?$AA3r?$LG?$GA?$ABg?e?$IL?b?$AA?$AA@ ; `string'
PUBLIC	??_C@_1BC@HBLGFEPA@?$IJ?fdx?$JF?4?$AA2r?$LG?$GA?$ABg?e?$IL?b?$AA?$AA@ ; `string'
PUBLIC	??_C@_1BC@GCIIGAA@?$IJ?fdx?$JF?4?$AA1r?$LG?$GA?$ABg?e?$IL?b?$AA?$AA@ ; `string'
PUBLIC	??_C@_1BI@OIEOGMJG@T?$AO?$HPndDP?OY4QIn?$JAr?$LG?$GA?$ABg?e?$IL?b?$AA?$AA@ ; `string'
PUBLIC	??_C@_1BC@BCKLCEHE@?$JH?s?$JB?O?$AA?9?$JF?4r?$LG?$GA?$ABg?e?$IL?b?$AA?$AA@ ; `string'
PUBLIC	??_C@_1BC@OKGJGPMC@?$JH?s?$JB?O?$AA?$CL?$JF?4r?$LG?$GA?$ABg?e?$IL?b?$AA?$AA@ ; `string'
PUBLIC	??_C@_1BA@DGGBIAA@u5n?$JA?$JF?4r?$LG?$GA?$ABg?e?$IL?b?$AA?$AA@ ; `string'
PUBLIC	??_C@_1O@MKFMBCPN@?$HO?$KC?$ICr?$AAL?$AAE?$AADpm?$AA?$AA@ ; `string'
PUBLIC	??_C@_1O@IAFBJLIP@?$HO?$KC?$ICr?$AAL?$AAE?$AADN?$KO?$AA?$AA@ ; `string'
PUBLIC	??_C@_1O@FKKNKJDL@?$HO?$PP?$ICr?$AAL?$AAE?$AADpm?$AA?$AA@ ; `string'
PUBLIC	??_C@_1O@BAKACAEJ@?$HO?$PP?$ICr?$AAL?$AAE?$AADN?$KO?$AA?$AA@ ; `string'
PUBLIC	??_C@_19ENAAFLHD@?$IA3g?3b?TQ?z?$AA?$AA@	; `string'
PUBLIC	??_C@_19EDBKGACM@?$IA3g?3c?RQe?$AA?$AA@		; `string'
PUBLIC	??_C@_19MEJAKFF@?$JB?MR?$JL_9?$INw?$AA?$AA@	; `string'
PUBLIC	??_C@_19NOOCGPEC@?$JB?MR?$JLc?7N?$AL?$AA?$AA@	; `string'
PUBLIC	??_C@_19OAAHAMNF@S?$ILg?$HPb?$KM?$INw?$AA?$AA@	; `string'
PUBLIC	??_C@_19KLIIFOKD@S?$ILg?$HPN?$ALS?$IL?$AA?$AA@	; `string'
PUBLIC	??_C@_1BA@BHLMEMCP@v?$HNpo?$HL?$LBQIn?$JAQs?$JF?m?$AA?$AA@ ; `string'
PUBLIC	??_C@_1BA@EOLMABDM@v?$HNpo?$HL?$LBQIn?$JAbS_?$AA?$AA?$AA@ ; `string'
PUBLIC	??_C@_1M@MOFPAIKO@?$AAO?$AAT?$AAGY?$ANOM?$AA?$AA@ ; `string'
PUBLIC	??_C@_1M@OBMKFJKA@?$AAO?$AAT?$AAGh?$MAmK?$AA?$AA@ ; `string'
PUBLIC	??_C@_1O@CBLEGKIA@_?$AA?$HL?$LBl?$BER?$KI?$JG?$AAQs?$AA?$AA@ ; `string'
PUBLIC	??_C@_15JBEKIAI@_?$AA?$HL?$LB?$AA?$AA@		; `string'
PUBLIC	??_C@_1O@ENFMPAKO@Qs?$HL?$LBl?$BER?$KI?$JG?$AAQs?$AA?$AA@ ; `string'
PUBLIC	??_C@_15DLJCGJAG@Qs?$HL?$LB?$AA?$AA@		; `string'
PUBLIC	??_C@_1O@GAHLOOAP@?$IJ?fdx?$JF?4?$AA3_9?$INw?$AA?$AA@ ; `string'
PUBLIC	??_C@_1O@LCNAILBI@?$IJ?fdx?$JF?4?$AA3c?7N?$AL?$AA?$AA@ ; `string'
PUBLIC	??_C@_1O@KMNBOOJB@?$IJ?fdx?$JF?4?$AA2_9?$INw?$AA?$AA@ ; `string'
PUBLIC	??_C@_1O@HOHKILIG@?$IJ?fdx?$JF?4?$AA2c?7N?$AL?$AA?$AA@ ; `string'
PUBLIC	??_C@_1O@CCFOOJHC@?$IJ?fdx?$JF?4?$AA1_9?$INw?$AA?$AA@ ; `string'
PUBLIC	??_C@_1O@PAPFIMGF@?$IJ?fdx?$JF?4?$AA1c?7N?$AL?$AA?$AA@ ; `string'
PUBLIC	??_C@_1O@BDFPHKDC@?$ICrSaQIn?$JAQs?$JF?m?$AA?$AA@ ; `string'
PUBLIC	??_C@_1O@EKFPDHCB@?$ICrSaQIn?$JAbS_?$AA?$AA?$AA@ ; `string'
PUBLIC	??_C@_1M@PHAPILPM@?$JH?s?$JB?O?$AA?9_9?$INw?$AA?$AA@ ; `string'
PUBLIC	??_C@_1M@CFKEOOOL@?$JH?s?$JB?O?$AA?9c?7N?$AL?$AA?$AA@ ; `string'
PUBLIC	??_C@_1M@DBGAICHL@?$JH?s?$JB?O?$AA?$CL_9?$INw?$AA?$AA@ ; `string'
PUBLIC	??_C@_1M@ODMLOHGM@?$JH?s?$JB?O?$AA?$CLc?7N?$AL?$AA?$AA@ ; `string'
PUBLIC	??_C@_1M@FOAGDJM@u5n?$JA?$JF?4_9?$INw?$AA?$AA@	; `string'
PUBLIC	??_C@_1M@NHELAGIL@u5n?$JA?$JF?4c?7N?$AL?$AA?$AA@ ; `string'
PUBLIC	??_C@_1O@HAJLIGNE@T?$AO?$JF?jQIpoh?$MAmK?$AA?$AA@ ; `string'
PUBLIC	??_C@_1O@ONKGILCD@RM?$JF?jQIpoh?$MAmK?$AA?$AA@	; `string'
PUBLIC	??_C@_19JDHNBCEO@u5mAh?$MAmK?$AA?$AA@		; `string'
PUBLIC	??_C@_19CKIIAGBC@X?p?$JH?sh?$MAmK?$AA?$AA@	; `string'
PUBLIC	??_C@_1BE@IKIGOIGL@z?oS?c?$AA7?$IP?$JDQer?$LG?$GA?$ABg?e?$IL?b?$AA?$AA@ ; `string'
PUBLIC	??_C@_1BE@CEOOHJPK@z?oS?c?$AA6?$IP?$JDQer?$LG?$GA?$ABg?e?$IL?b?$AA?$AA@ ; `string'
PUBLIC	??_C@_1BM@NIJBIKPO@?$AAE?$AAa?$AAr?$AA?9?$AAL?$IP?$JDQez?oS?cr?$LG?$GA?$ABg?e?$IL?b?$AA?$AA@ ; `string'
PUBLIC	??_C@_1BM@CBKPGKLM@?$AAE?$AAa?$AAr?$AA?9?$AAR?$IP?$JDQez?oS?cr?$LG?$GA?$ABg?e?$IL?b?$AA?$AA@ ; `string'
PUBLIC	??_C@_1BC@HKMBLFKL@c?1?$FLP?$IP?$JDQer?$LG?$GA?$ABg?e?$IL?b?$AA?$AA@ ; `string'
PUBLIC	??_C@_1BI@LKHEBPFA@?$AAS?$AAP?$AAK?$IP?$JDQez?oS?cr?$LG?$GA?$ABg?e?$IL?b?$AA?$AA@ ; `string'
PUBLIC	??_C@_1BK@OHGADHML@?$AAC?$AAa?$AAl?$AAl?$IP?$JDQez?oS?cr?$LG?$GA?$ABg?e?$IL?b?$AA?$AA@ ; `string'
PUBLIC	??_C@_1BA@OHKOBPDP@z?oS?c?$AA7?$IP?$JDQeQs?$JF?m?$AA?$AA@ ; `string'
PUBLIC	??_C@_1BA@LOKOFCCM@z?oS?c?$AA7?$IP?$JDQebS_?$AA?$AA?$AA@ ; `string'
PUBLIC	??_C@_1BA@HMALFDFA@z?oS?c?$AA6?$IP?$JDQeQs?$JF?m?$AA?$AA@ ; `string'
PUBLIC	??_C@_1BA@CFALBOED@z?oS?c?$AA6?$IP?$JDQebS_?$AA?$AA?$AA@ ; `string'
PUBLIC	??_C@_1BK@KOBEEECE@?$AAE?$AAa?$AAr?$AA?9?$AAL?$IP?$JDQeQs?$JF?m?$AAO?$AAL?$AAD?$AA?$AA@ ; `string'
PUBLIC	??_C@_1BK@OIFILNNG@?$AAE?$AAa?$AAr?$AA?9?$AAL?$IP?$JDQebS_?$AA?$AAO?$AAL?$AAD?$AA?$AA@ ; `string'
PUBLIC	??_C@_1BK@JJJKAKLF@?$AAE?$AAa?$AAr?$AA?9?$AAR?$IP?$JDQeQs?$JF?m?$AAO?$AAL?$AAD?$AA?$AA@ ; `string'
PUBLIC	??_C@_1BK@NPNGPDEH@?$AAE?$AAa?$AAr?$AA?9?$AAR?$IP?$JDQebS_?$AA?$AAO?$AAL?$AAD?$AA?$AA@ ; `string'
PUBLIC	??_C@_1BE@FEPEMCEE@c?1?$FLP?$IP?$JDQeQs?$JF?m?$AAO?$AAL?$AAD?$AA?$AA@ ; `string'
PUBLIC	??_C@_1BE@BCLIDLLG@c?1?$FLP?$IP?$JDQebS_?$AA?$AAO?$AAL?$AAD?$AA?$AA@ ; `string'
PUBLIC	??_C@_1BG@POKHNMIG@?$AAS?$AAP?$AAK?$IP?$JDQeQs?$JF?m?$AAO?$AAL?$AAD?$AA?$AA@ ; `string'
PUBLIC	??_C@_1BG@LIOLCFHE@?$AAS?$AAP?$AAK?$IP?$JDQebS_?$AA?$AAO?$AAL?$AAD?$AA?$AA@ ; `string'
PUBLIC	??_C@_1BI@NOPEOLLA@?$AAC?$AAA?$AAL?$AAL?$IP?$JDQeQs?$JF?m?$AAO?$AAL?$AAD?$AA?$AA@ ; `string'
PUBLIC	??_C@_1BI@JILIBCEC@?$AAC?$AAA?$AAL?$AAL?$IP?$JDQebS_?$AA?$AAO?$AAL?$AAD?$AA?$AA@ ; `string'
PUBLIC	??_C@_1BE@EAPMLJIB@z?oS?c?$AA3?$IP?$JDQ?zr?$LG?$GA?$ABg?e?$IL?b?$AA?$AA@ ; `string'
PUBLIC	??_C@_1BI@JFIGEOA@?$AAM?$AAI?$AAC?$IP?$JDQ?zz?oS?cr?$LG?$GA?$ABg?e?$IL?b?$AA?$AA@ ; `string'
PUBLIC	??_C@_1CA@NHFOFAEC@?$AAE?$AAa?$AAr?$AA?9?$AAM?$AAI?$AAC?$IP?$JDQ?zz?oS?cr?$LG?$GA?$ABg?e?$IL?b?$AA?$AA@ ; `string'
PUBLIC	??_C@_1BA@BCAIICBN@z?oS?c?$AA3?$IP?$JDQ?zQs?$JF?m?$AA?$AA@ ; `string'
PUBLIC	??_C@_1BA@ELAIMPAO@z?oS?c?$AA3?$IP?$JDQ?zbS_?$AA?$AA?$AA@ ; `string'
PUBLIC	??_C@_1BG@CAJMGFOC@?$AAM?$AAI?$AAC?$IP?$JDQ?zQs?$JF?m?$AAO?$AAL?$AAD?$AA?$AA@ ; `string'
PUBLIC	??_C@_1BG@GGNAJMBA@?$AAM?$AAI?$AAC?$IP?$JDQ?zbS_?$AA?$AAO?$AAL?$AAD?$AA?$AA@ ; `string'
PUBLIC	??_C@_1BO@DHAJJEBC@?$AAE?$AAa?$AAr?$AA?9?$AAM?$AAI?$AAC?$IP?$JDQ?zQs?$JF?m?$AAO?$AAL?$AAD?$AA?$AA@ ; `string'
PUBLIC	??_C@_1BO@HBEFGNOA@?$AAE?$AAa?$AAr?$AA?9?$AAM?$AAI?$AAC?$IP?$JDQ?zbS_?$AA?$AAO?$AAL?$AAD?$AA?$AA@ ; `string'
PUBLIC	??_C@_1O@JFCOMPKO@Qs?$JF?mO?aS?wN?$KHu?$BP?$AA?$AA@ ; `string'
PUBLIC	??_C@_1M@PACLNHIB@?$AA1?$AA0?$AAK?$AAH?$AAz?$AA?$AA@ ; `string'
PUBLIC	??_C@_19BNBMILH@?$AA5?$AAK?$AAH?$AAz?$AA?$AA@	; `string'
PUBLIC	??_C@_19IDKGIMN@?$AA1?$AAK?$AAH?$AAz?$AA?$AA@	; `string'
PUBLIC	??_C@_1BC@IMLEBOJD@g?e?$IL?bS?o?$IM?$ADu5n?$JAr?$LG?$GA?$AB?$AA?$AA@ ; `string'
PUBLIC	??_C@_1M@OAEHLIIE@?$AA5?$AAVu5n?$JAQs?$AA?$AA@	; `string'
PUBLIC	??_C@_1M@JDFDJKPM@?$AA5?$AAVu5n?$JA_?$AA?$AA?$AA@ ; `string'
PUBLIC	??_C@_19GMDECDPE@u5S?$IL?$IM?$ADet?$AA?$AA@	; `string'
PUBLIC	??_C@_19JCNDCNPG@Q?$JJQeepcn?$AA?$AA@		; `string'
PUBLIC	??0?$CStringT@_WV?$StrTraitMFC@_WV?$ChTraitsCRT@_W@ATL@@@@@ATL@@QAE@PB_W@Z ; ATL::CStringT<wchar_t,StrTraitMFC<wchar_t,ATL::ChTraitsCRT<wchar_t> > >::CStringT<wchar_t,StrTraitMFC<wchar_t,ATL::ChTraitsCRT<wchar_t> > >
PUBLIC	??_C@_19DAEIJEEB@?$IL?$PLQ?zepcn?$AA?$AA@	; `string'
EXTRN	_atexit:PROC
;	COMDAT ??_C@_1BA@FDGHOEJM@N?$AL?$ICrSaQIn?$JA?$IM?$AD?$IC?$IC?$AA?$AA@
; File e:\cz\vs\dvicectrldlg_new_signal_1\serialcommand.h
CONST	SEGMENT
??_C@_1BA@FDGHOEJM@N?$AL?$ICrSaQIn?$JA?$IM?$AD?$IC?$IC?$AA?$AA@ DB 0bH, 'N'
	DB	'r', 082H, 'aSIQ', 090H, 'n', 03H, 08cH, 082H, 082H, 00H, 00H ; `string'
CONST	ENDS
;	COMDAT ??_C@_1BA@PNAPHFAN@N?6?$ICrSaQIn?$JA?$IM?$AD?$IC?$IC?$AA?$AA@
CONST	SEGMENT
??_C@_1BA@PNAPHFAN@N?6?$ICrSaQIn?$JA?$IM?$AD?$IC?$IC?$AA?$AA@ DB 0aH, 'Nr'
	DB	082H, 'aSIQ', 090H, 'n', 03H, 08cH, 082H, 082H, 00H, 00H ; `string'
CONST	ENDS
;	COMDAT ??_C@_1O@PJHKGIMH@N?$ALv?$HNpo?$HL?$LB?$IM?$AD?$IC?$IC?$AA?$AA@
CONST	SEGMENT
??_C@_1O@PJHKGIMH@N?$ALv?$HNpo?$HL?$LB?$IM?$AD?$IC?$IC?$AA?$AA@ DB 0bH, 'N'
	DB	'}vop', 0b1H, '{', 03H, 08cH, 082H, 082H, 00H, 00H ; `string'
CONST	ENDS
;	COMDAT ??_C@_1O@GEHFIJLB@N?6v?$HNpo?$HL?$LB?$IM?$AD?$IC?$IC?$AA?$AA@
CONST	SEGMENT
??_C@_1O@GEHFIJLB@N?6v?$HNpo?$HL?$LB?$IM?$AD?$IC?$IC?$AA?$AA@ DB 0aH, 'N}'
	DB	'vop', 0b1H, '{', 03H, 08cH, 082H, 082H, 00H, 00H ; `string'
CONST	ENDS
;	COMDAT ??_C@_1O@KJGOGIJF@?$FO?$JFg?$HPb?$KM?$INwh?$MAmK?$AA?$AA@
CONST	SEGMENT
??_C@_1O@KJGOGIJF@?$FO?$JFg?$HPb?$KM?$INwh?$MAmK?$AA?$AA@ DB 095H, '^', 07fH
	DB	'g', 0acH, 'bw', 08dH, 0c0H, 'hKm', 00H, 00H	; `string'
CONST	ENDS
;	COMDAT ??_C@_1O@KHGDJIGO@Y?$CJg?$HPy?$LL_?$AAh?$MAmK?$AA?$AA@
CONST	SEGMENT
??_C@_1O@KHGDJIGO@Y?$CJg?$HPy?$LL_?$AAh?$MAmK?$AA?$AA@ DB ')Y', 07fH, 'g', 0bbH
	DB	'y', 00H, '_', 0c0H, 'hKm', 00H, 00H		; `string'
CONST	ENDS
;	COMDAT ??_C@_1O@GMGEDNBE@Y?$CJg?$HPR0OMh?$MAmK?$AA?$AA@
CONST	SEGMENT
??_C@_1O@GMGEDNBE@Y?$CJg?$HPR0OMh?$MAmK?$AA?$AA@ DB ')Y', 07fH, 'g0RMO', 0c0H
	DB	'hKm', 00H, 00H				; `string'
CONST	ENDS
;	COMDAT ??_C@_1BA@KGEKPKOC@?$AAU?$AAS?$AABR0OMh?$MAmK?$AA?$AA@
CONST	SEGMENT
??_C@_1BA@KGEKPKOC@?$AAU?$AAS?$AABR0OMh?$MAmK?$AA?$AA@ DB 'U', 00H, 'S', 00H
	DB	'B', 00H, '0RMO', 0c0H, 'hKm', 00H, 00H	; `string'
CONST	ENDS
;	COMDAT ??_C@_1O@HOAOAMGL@v?xg?3u5n?$JAQs?$JF?m?$AA?$AA@
CONST	SEGMENT
??_C@_1O@HOAOAMGL@v?xg?3u5n?$JAQs?$JF?m?$AA?$AA@ DB 0f8H, 'v:g5u', 090H, 'n'
	DB	'sQ', 0edH, 095H, 00H, 00H			; `string'
CONST	ENDS
;	COMDAT ??_C@_1O@CHAOEBHI@v?xg?3u5n?$JAbS_?$AA?$AA?$AA@
CONST	SEGMENT
??_C@_1O@CHAOEBHI@v?xg?3u5n?$JAbS_?$AA?$AA?$AA@ DB 0f8H, 'v:g5u', 090H, 'n'
	DB	'Sb', 00H, '_', 00H, 00H			; `string'
CONST	ENDS
;	COMDAT ??_C@_1O@KHCFJLPD@v?xg?3c?7?$JF?4_9?$INw?$AA?$AA@
CONST	SEGMENT
??_C@_1O@KHCFJLPD@v?xg?3c?7?$JF?4_9?$INw?$AA?$AA@ DB 0f8H, 'v:g', 09H, 'c'
	DB	'.', 095H, '9_w', 08dH, 00H, 00H		; `string'
CONST	ENDS
;	COMDAT ??_C@_1O@HFIOPOOE@v?xg?3c?7?$JF?4c?7N?$AL?$AA?$AA@
CONST	SEGMENT
??_C@_1O@HFIOPOOE@v?xg?3c?7?$JF?4c?7N?$AL?$AA?$AA@ DB 0f8H, 'v:g', 09H, 'c'
	DB	'.', 095H, 09H, 'c', 0bH, 'N', 00H, 00H	; `string'
CONST	ENDS
;	COMDAT ??_C@_1M@DBMLJONM@c?$ACg?3?$JF?4_9?$INw?$AA?$AA@
CONST	SEGMENT
??_C@_1M@DBMLJONM@c?$ACg?3?$JF?4_9?$INw?$AA?$AA@ DB 02H, 'c:g.', 095H, '9'
	DB	'_w', 08dH, 00H, 00H				; `string'
CONST	ENDS
;	COMDAT ??_C@_1M@ODGAPLML@c?$ACg?3?$JF?4c?7N?$AL?$AA?$AA@
CONST	SEGMENT
??_C@_1M@ODGAPLML@c?$ACg?3?$JF?4c?7N?$AL?$AA?$AA@ DB 02H, 'c:g.', 095H, 09H
	DB	'c', 0bH, 'N', 00H, 00H			; `string'
CONST	ENDS
;	COMDAT ??_C@_19NNMIJBFF@?$JH?$AN?2?$BE_9?$INw?$AA?$AA@
CONST	SEGMENT
??_C@_19NNMIJBFF@?$JH?$AN?2?$BE_9?$INw?$AA?$AA@ DB 0dH, 097H, 014H, '\9_w'
	DB	08dH, 00H, 00H				; `string'
CONST	ENDS
;	COMDAT ??_C@_19PGDPEEC@?$JH?$AN?2?$BEc?7N?$AL?$AA?$AA@
CONST	SEGMENT
??_C@_19PGDPEEC@?$JH?$AN?2?$BEc?7N?$AL?$AA?$AA@ DB 0dH, 097H, 014H, '\', 09H
	DB	'c', 0bH, 'N', 00H, 00H			; `string'
CONST	ENDS
;	COMDAT ??_C@_19OALIHFCC@T9?2?$BI?$HO?Sg_?$AA?$AA@
CONST	SEGMENT
??_C@_19OALIHFCC@T9?2?$BI?$HO?Sg_?$AA?$AA@ DB '9T', 018H, '\', 0d3H, '~_g'
	DB	00H, 00H					; `string'
CONST	ENDS
;	COMDAT ??_C@_19JEGEKDHO@T9?2?$BI_?$AAY?K?$AA?$AA@
CONST	SEGMENT
??_C@_19JEGEKDHO@T9?2?$BI_?$AAY?K?$AA?$AA@ DB '9T', 018H, '\', 00H, '_', 0cbH
	DB	'Y', 00H, 00H				; `string'
CONST	ENDS
;	COMDAT ??_C@_19CDLPOHMH@h7g?3e?$DO_?$AA?$AA?$AA@
CONST	SEGMENT
??_C@_19CDLPOHMH@h7g?3e?$DO_?$AA?$AA?$AA@ DB '7h:g>e', 00H, '_', 00H, 00H ; `string'
CONST	ENDS
;	COMDAT ??_C@_19JKLDNACP@h7g?3V?z?$FL?$JK?$AA?$AA@
CONST	SEGMENT
??_C@_19JKLDNACP@h7g?3V?z?$FL?$JK?$AA?$AA@ DB '7h:g', 0faH, 'V', 09aH, '['
	DB	00H, 00H					; `string'
CONST	ENDS
;	COMDAT ??_C@_1BE@LMBKONAN@v?xg?3?$AAU?$AAS?$AABu5n?$JAQs?$JF?m?$AA?$AA@
CONST	SEGMENT
??_C@_1BE@LMBKONAN@v?xg?3?$AAU?$AAS?$AABu5n?$JAQs?$JF?m?$AA?$AA@ DB 0f8H, 'v'
	DB	':gU', 00H, 'S', 00H, 'B', 00H, '5u', 090H, 'nsQ', 0edH, 095H, 00H
	DB	00H						; `string'
CONST	ENDS
;	COMDAT ??_C@_1BE@OFBKKABO@v?xg?3?$AAU?$AAS?$AABu5n?$JAbS_?$AA?$AA?$AA@
CONST	SEGMENT
??_C@_1BE@OFBKKABO@v?xg?3?$AAU?$AAS?$AABu5n?$JAbS_?$AA?$AA?$AA@ DB 0f8H, 'v'
	DB	':gU', 00H, 'S', 00H, 'B', 00H, '5u', 090H, 'nSb', 00H, '_', 00H
	DB	00H						; `string'
CONST	ENDS
;	COMDAT ??_C@_1BA@IEEJPODI@?$HO?$KC?$ICr?2Oepcn?$IL?$PLS?V?$AA?$AA@
CONST	SEGMENT
??_C@_1BA@IEEJPODI@?$HO?$KC?$ICr?2Oepcn?$IL?$PLS?V?$AA?$AA@ DB 0a2H, '~r', 082H
	DB	'O\penc', 0fbH, 08bH, 0d6H, 'S', 00H, 00H	; `string'
CONST	ENDS
;	COMDAT ??_C@_1BA@LIJFDNLJ@?$HO?$KC?$ICr?2OmK?$IL?U_?$AAY?K?$AA?$AA@
CONST	SEGMENT
??_C@_1BA@LIJFDNLJ@?$HO?$KC?$ICr?2OmK?$IL?U_?$AAY?K?$AA?$AA@ DB 0a2H, '~r'
	DB	082H, 'O\Km', 0d5H, 08bH, 00H, '_', 0cbH, 'Y', 00H, 00H ; `string'
CONST	ENDS
;	COMDAT ??_C@_1BA@EFFKHEAF@?$HO?$PP?$ICr?2Oepcn?$IL?$PLS?V?$AA?$AA@
CONST	SEGMENT
??_C@_1BA@EFFKHEAF@?$HO?$PP?$ICr?2Oepcn?$IL?$PLS?V?$AA?$AA@ DB 0ffH, '~r', 082H
	DB	'O\penc', 0fbH, 08bH, 0d6H, 'S', 00H, 00H	; `string'
CONST	ENDS
;	COMDAT ??_C@_1BA@HJIGLHIE@?$HO?$PP?$ICr?2OmK?$IL?U_?$AAY?K?$AA?$AA@
CONST	SEGMENT
??_C@_1BA@HJIGLHIE@?$HO?$PP?$ICr?2OmK?$IL?U_?$AAY?K?$AA?$AA@ DB 0ffH, '~r'
	DB	082H, 'O\Km', 0d5H, 08bH, 00H, '_', 0cbH, 'Y', 00H, 00H ; `string'
CONST	ENDS
;	COMDAT ??_C@_1BA@PKBBHNBK@?$IE?$NN?$ICr?2Oepcn?$IL?$PLS?V?$AA?$AA@
CONST	SEGMENT
??_C@_1BA@PKBBHNBK@?$IE?$NN?$ICr?2Oepcn?$IL?$PLS?V?$AA?$AA@ DB 0ddH, 084H
	DB	'r', 082H, 'O\penc', 0fbH, 08bH, 0d6H, 'S', 00H, 00H ; `string'
CONST	ENDS
;	COMDAT ??_C@_1BA@MGMNLOJL@?$IE?$NN?$ICr?2OmK?$IL?U_?$AAY?K?$AA?$AA@
CONST	SEGMENT
??_C@_1BA@MGMNLOJL@?$IE?$NN?$ICr?2OmK?$IL?U_?$AAY?K?$AA?$AA@ DB 0ddH, 084H
	DB	'r', 082H, 'O\Km', 0d5H, 08bH, 00H, '_', 0cbH, 'Y', 00H, 00H ; `string'
CONST	ENDS
;	COMDAT ??_C@_1BE@KMDEMM@?$HO?$KC?$ICrc?$AHy?3poepcn?$IL?$PLS?V?$AA?$AA@
CONST	SEGMENT
??_C@_1BE@KMDEMM@?$HO?$KC?$ICrc?$AHy?3poepcn?$IL?$PLS?V?$AA?$AA@ DB 0a2H, '~'
	DB	'r', 082H, 07H, 'c:yoppenc', 0fbH, 08bH, 0d6H, 'S', 00H, 00H ; `string'
CONST	ENDS
;	COMDAT ??_C@_1BE@DMHAPHEN@?$HO?$KC?$ICrc?$AHy?3pomK?$IL?U_?$AAY?K?$AA?$AA@
CONST	SEGMENT
??_C@_1BE@DMHAPHEN@?$HO?$KC?$ICrc?$AHy?3pomK?$IL?U_?$AAY?K?$AA?$AA@ DB 0a2H
	DB	'~r', 082H, 07H, 'c:yopKm', 0d5H, 08bH, 00H, '_', 0cbH, 'Y', 00H
	DB	00H						; `string'
CONST	ENDS
;	COMDAT ??_C@_1BC@MDJCOJAO@?$IA?LQI?$JI?$JM?$ICrepcn?$IL?$PLS?V?$AA?$AA@
CONST	SEGMENT
??_C@_1BC@MDJCOJAO@?$IA?LQI?$JI?$JM?$ICrepcn?$IL?$PLS?V?$AA?$AA@ DB 0ccH, 080H
	DB	'IQ', 09cH, 098H, 'r', 082H, 'penc', 0fbH, 08bH, 0d6H, 'S', 00H
	DB	00H						; `string'
CONST	ENDS
;	COMDAT ??_C@_1BC@PBEGKINI@?$IA?LQI?$JI?$JM?$ICrh?$MAmK_?$AAY?K?$AA?$AA@
CONST	SEGMENT
??_C@_1BC@PBEGKINI@?$IA?LQI?$JI?$JM?$ICrh?$MAmK_?$AAY?K?$AA?$AA@ DB 0ccH, 080H
	DB	'IQ', 09cH, 098H, 'r', 082H, 0c0H, 'hKm', 00H, '_', 0cbH, 'Y', 00H
	DB	00H						; `string'
CONST	ENDS
;	COMDAT ??_C@_1BE@JPFOGIDE@?$AAL?$AAE?$AAD?$JI?$JM?$ICrepcn?$IL?$PLS?V?$AA?$AA@
CONST	SEGMENT
??_C@_1BE@JPFOGIDE@?$AAL?$AAE?$AAD?$JI?$JM?$ICrepcn?$IL?$PLS?V?$AA?$AA@ DB 'L'
	DB	00H, 'E', 00H, 'D', 00H, 09cH, 098H, 'r', 082H, 'penc', 0fbH, 08bH
	DB	0d6H, 'S', 00H, 00H				; `string'
CONST	ENDS
;	COMDAT ??_C@_1BE@KNIKCJOC@?$AAL?$AAE?$AAD?$JI?$JM?$ICrh?$MAmK_?$AAY?K?$AA?$AA@
CONST	SEGMENT
??_C@_1BE@KNIKCJOC@?$AAL?$AAE?$AAD?$JI?$JM?$ICrh?$MAmK_?$AAY?K?$AA?$AA@ DB 'L'
	DB	00H, 'E', 00H, 'D', 00H, 09cH, 098H, 'r', 082H, 0c0H, 'hKm', 00H
	DB	'_', 0cbH, 'Y', 00H, 00H			; `string'
CONST	ENDS
;	COMDAT ??_C@_15NFBIKKCF@Y?$ANOM?$AA?$AA@
CONST	SEGMENT
??_C@_15NFBIKKCF@Y?$ANOM?$AA?$AA@ DB 0dH, 'YMO', 00H, 00H ; `string'
CONST	ENDS
;	COMDAT ??_C@_19JMEJALJK@R0OMh?$MAmK?$AA?$AA@
CONST	SEGMENT
??_C@_19JMEJALJK@R0OMh?$MAmK?$AA?$AA@ DB '0RMO', 0c0H, 'hKm', 00H, 00H ; `string'
CONST	ENDS
;	COMDAT ??_C@_1M@OKPJEHOC@?$IJ?F?$JI?$JBz?oS?c?$AA4?$AA?$AA@
CONST	SEGMENT
??_C@_1M@OKPJEHOC@?$IJ?F?$JI?$JBz?oS?c?$AA4?$AA?$AA@ DB 0c6H, 089H, 091H, 098H
	DB	0efH, 'z', 0e3H, 'S4', 00H, 00H, 00H		; `string'
CONST	ENDS
;	COMDAT ??_C@_1M@HHCOHPFL@?$IJ?F?$JI?$JBz?oS?c?$AA3?$AA?$AA@
CONST	SEGMENT
??_C@_1M@HHCOHPFL@?$IJ?F?$JI?$JBz?oS?c?$AA3?$AA?$AA@ DB 0c6H, 089H, 091H, 098H
	DB	0efH, 'z', 0e3H, 'S3', 00H, 00H, 00H		; `string'
CONST	ENDS
;	COMDAT ??_C@_1M@MPJCBIDO@?$IJ?F?$JI?$JBz?oS?c?$AA2?$AA?$AA@
CONST	SEGMENT
??_C@_1M@MPJCBIDO@?$IJ?F?$JI?$JBz?oS?c?$AA2?$AA?$AA@ DB 0c6H, 089H, 091H, 098H
	DB	0efH, 'z', 0e3H, 'S2', 00H, 00H, 00H		; `string'
CONST	ENDS
;	COMDAT ??_C@_1M@NNCHLHNA@?$IJ?F?$JI?$JBz?oS?c?$AA1?$AA?$AA@
CONST	SEGMENT
??_C@_1M@NNCHLHNA@?$IJ?F?$JI?$JBz?oS?c?$AA1?$AA?$AA@ DB 0c6H, 089H, 091H, 098H
	DB	0efH, 'z', 0e3H, 'S1', 00H, 00H, 00H		; `string'
CONST	ENDS
;	COMDAT ??_C@_1BE@PKPMFLBC@_?$AA?$HL?$LBl?$BER?$KI?$JG?$AAQs?$AAO?$AAL?$AAD?$AA?$AA@
CONST	SEGMENT
??_C@_1BE@PKPMFLBC@_?$AA?$HL?$LBl?$BER?$KI?$JG?$AAQs?$AAO?$AAL?$AAD?$AA?$AA@ DB 00H
	DB	'_', 0b1H, '{', 014H, 'l', 0a8H, 'R', 00H, 096H, 'sQO', 00H, 'L'
	DB	00H, 'D', 00H, 00H, 00H			; `string'
CONST	ENDS
;	COMDAT ??_C@_1BE@CPEALOBL@_?$AA?$HL?$LBl?$BER?$KI?$JG?$AA_?$AA?$AAO?$AAL?$AAD?$AA?$AA@
CONST	SEGMENT
??_C@_1BE@CPEALOBL@_?$AA?$HL?$LBl?$BER?$KI?$JG?$AA_?$AA?$AAO?$AAL?$AAD?$AA?$AA@ DB 00H
	DB	'_', 0b1H, '{', 014H, 'l', 0a8H, 'R', 00H, 096H, 00H, '_O', 00H
	DB	'L', 00H, 'D', 00H, 00H, 00H			; `string'
CONST	ENDS
;	COMDAT ??_C@_1BE@OOKFLHG@Qs?$HL?$LBl?$BER?$KI?$JG?$AAQs?$AAO?$AAL?$AAD?$AA?$AA@
CONST	SEGMENT
??_C@_1BE@OOKFLHG@Qs?$HL?$LBl?$BER?$KI?$JG?$AAQs?$AAO?$AAL?$AAD?$AA?$AA@ DB 's'
	DB	'Q', 0b1H, '{', 014H, 'l', 0a8H, 'R', 00H, 096H, 'sQO', 00H, 'L'
	DB	00H, 'D', 00H, 00H, 00H			; `string'
CONST	ENDS
;	COMDAT ??_C@_1BE@NLFGLOHP@Qs?$HL?$LBl?$BER?$KI?$JG?$AA_?$AA?$AAO?$AAL?$AAD?$AA?$AA@
CONST	SEGMENT
??_C@_1BE@NLFGLOHP@Qs?$HL?$LBl?$BER?$KI?$JG?$AA_?$AA?$AAO?$AAL?$AAD?$AA?$AA@ DB 's'
	DB	'Q', 0b1H, '{', 014H, 'l', 0a8H, 'R', 00H, 096H, 00H, '_O', 00H
	DB	'L', 00H, 'D', 00H, 00H, 00H			; `string'
CONST	ENDS
;	COMDAT ??_C@_19KEPOBHFJ@x?AW?3P?2kb?$AA?$AA@
CONST	SEGMENT
??_C@_19KEPOBHFJ@x?AW?3P?2kb?$AA?$AA@ DB 0c1H, 'x:W\Pbk', 00H, 00H ; `string'
CONST	ENDS
;	COMDAT ??_C@_19IDGIAJBL@x?AW?3e?K?$IPl?$AA?$AA@
CONST	SEGMENT
??_C@_19IDGIAJBL@x?AW?3e?K?$IPl?$AA?$AA@ DB 0c1H, 'x:W', 0cbH, 'el', 08fH
	DB	00H, 00H					; `string'
CONST	ENDS
;	COMDAT ??_C@_1M@MLALJFKF@u5g?3?$AA4T?$AO?$JA?$AA?$AA?$AA@
CONST	SEGMENT
??_C@_1M@MLALJFKF@u5g?3?$AA4T?$AO?$JA?$AA?$AA?$AA@ DB '5u:g4', 00H, 0eH, 'T'
	DB	00H, 090H, 00H, 00H				; `string'
CONST	ENDS
;	COMDAT ??_C@_1M@CLKIMCBC@u5g?3?$AA4RM?$IP?$NL?$AA?$AA@
CONST	SEGMENT
??_C@_1M@CLKIMCBC@u5g?3?$AA4RM?$IP?$NL?$AA?$AA@ DB '5u:g4', 00H, 'MR', 0dbH
	DB	08fH, 00H, 00H				; `string'
CONST	ENDS
;	COMDAT ??_C@_1M@MBMOJMLM@u5g?3?$AA3T?$AO?$JA?$AA?$AA?$AA@
CONST	SEGMENT
??_C@_1M@MBMOJMLM@u5g?3?$AA3T?$AO?$JA?$AA?$AA?$AA@ DB '5u:g3', 00H, 0eH, 'T'
	DB	00H, 090H, 00H, 00H				; `string'
CONST	ENDS
;	COMDAT ??_C@_1M@CBGNMLAL@u5g?3?$AA3RM?$IP?$NL?$AA?$AA@
CONST	SEGMENT
??_C@_1M@CBGNMLAL@u5g?3?$AA3RM?$IP?$NL?$AA?$AA@ DB '5u:g3', 00H, 'MR', 0dbH
	DB	08fH, 00H, 00H				; `string'
CONST	ENDS
;	COMDAT ??_C@_1M@NGEJMCC@u5g?3?$AA2T?$AO?$JA?$AA?$AA?$AA@
CONST	SEGMENT
??_C@_1M@NGEJMCC@u5g?3?$AA2T?$AO?$JA?$AA?$AA?$AA@ DB '5u:g2', 00H, 0eH, 'T'
	DB	00H, 090H, 00H, 00H				; `string'
CONST	ENDS
;	COMDAT ??_C@_1M@ONMHMLJF@u5g?3?$AA2RM?$IP?$NL?$AA?$AA@
CONST	SEGMENT
??_C@_1M@ONMHMLJF@u5g?3?$AA2RM?$IP?$NL?$AA?$AA@ DB '5u:g2', 00H, 'MR', 0dbH
	DB	08fH, 00H, 00H				; `string'
CONST	ENDS
;	COMDAT ??_C@_1M@IDOLJLMB@u5g?3?$AA1T?$AO?$JA?$AA?$AA?$AA@
CONST	SEGMENT
??_C@_1M@IDOLJLMB@u5g?3?$AA1T?$AO?$JA?$AA?$AA?$AA@ DB '5u:g1', 00H, 0eH, 'T'
	DB	00H, 090H, 00H, 00H				; `string'
CONST	ENDS
;	COMDAT ??_C@_1M@GDEIMMHG@u5g?3?$AA1RM?$IP?$NL?$AA?$AA@
CONST	SEGMENT
??_C@_1M@GDEIMMHG@u5g?3?$AA1RM?$IP?$NL?$AA?$AA@ DB '5u:g1', 00H, 'MR', 0dbH
	DB	08fH, 00H, 00H				; `string'
CONST	ENDS
;	COMDAT ??_C@_1BA@OHPAPOKM@z?oS?c?$AA4r?$LG?$GA?$ABh?$MAmK?$AA?$AA@
CONST	SEGMENT
??_C@_1BA@OHPAPOKM@z?oS?c?$AA4r?$LG?$GA?$ABh?$MAmK?$AA?$AA@ DB 0efH, 'z', 0e3H
	DB	'S4', 00H, 0b6H, 'r', 01H, '`', 0c0H, 'hKm', 00H, 00H ; `string'
CONST	ENDS
;	COMDAT ??_C@_1BA@JDGIBHCD@z?oS?c?$AA3r?$LG?$GA?$ABh?$MAmK?$AA?$AA@
CONST	SEGMENT
??_C@_1BA@JDGIBHCD@z?oS?c?$AA3r?$LG?$GA?$ABh?$MAmK?$AA?$AA@ DB 0efH, 'z', 0e3H
	DB	'S3', 00H, 0b6H, 'r', 01H, '`', 0c0H, 'hKm', 00H, 00H ; `string'
CONST	ENDS
;	COMDAT ??_C@_1BA@IMNFLEM@z?oS?c?$AA2r?$LG?$GA?$ABh?$MAmK?$AA?$AA@
CONST	SEGMENT
??_C@_1BA@IMNFLEM@z?oS?c?$AA2r?$LG?$GA?$ABh?$MAmK?$AA?$AA@ DB 0efH, 'z', 0e3H
	DB	'S2', 00H, 0b6H, 'r', 01H, '`', 0c0H, 'hKm', 00H, 00H ; `string'
CONST	ENDS
;	COMDAT ??_C@_1BA@HPFDIJLM@z?oS?c?$AA1r?$LG?$GA?$ABh?$MAmK?$AA?$AA@
CONST	SEGMENT
??_C@_1BA@HPFDIJLM@z?oS?c?$AA1r?$LG?$GA?$ABh?$MAmK?$AA?$AA@ DB 0efH, 'z', 0e3H
	DB	'S1', 00H, 0b6H, 'r', 01H, '`', 0c0H, 'hKm', 00H, 00H ; `string'
CONST	ENDS
;	COMDAT ??_C@_1M@KICGEGCK@?$IP?TV?$NO?$JF?4_9?$INw?$AA?$AA@
CONST	SEGMENT
??_C@_1M@KICGEGCK@?$IP?TV?$NO?$JF?4_9?$INw?$AA?$AA@ DB 0d4H, 08fH, 0deH, 'V'
	DB	'.', 095H, '9_w', 08dH, 00H, 00H		; `string'
CONST	ENDS
;	COMDAT ??_C@_1M@HKINCDDN@?$IP?TV?$NO?$JF?4c?7N?$AL?$AA?$AA@
CONST	SEGMENT
??_C@_1M@HKINCDDN@?$IP?TV?$NO?$JF?4c?7N?$AL?$AA?$AA@ DB 0d4H, 08fH, 0deH, 'V'
	DB	'.', 095H, 09H, 'c', 0bH, 'N', 00H, 00H	; `string'
CONST	ENDS
;	COMDAT ??_C@_1M@PAECBFKK@?$ID?$NMSU?$JF?4_9?$INw?$AA?$AA@
CONST	SEGMENT
??_C@_1M@PAECBFKK@?$ID?$NMSU?$JF?4_9?$INw?$AA?$AA@ DB 0dcH, 083H, 'US.', 095H
	DB	'9_w', 08dH, 00H, 00H			; `string'
CONST	ENDS
;	COMDAT ??_C@_1M@CCOJHALN@?$ID?$NMSU?$JF?4c?7N?$AL?$AA?$AA@
CONST	SEGMENT
??_C@_1M@CCOJHALN@?$ID?$NMSU?$JF?4c?7N?$AL?$AA?$AA@ DB 0dcH, 083H, 'US.', 095H
	DB	09H, 'c', 0bH, 'N', 00H, 00H			; `string'
CONST	ENDS
;	COMDAT ??_C@_1M@NDLNAAPP@N?$DL?$JIu?$JF?4_9?$INw?$AA?$AA@
CONST	SEGMENT
??_C@_1M@NDLNAAPP@N?$DL?$JIu?$JF?4_9?$INw?$AA?$AA@ DB ';Nu', 098H, '.', 095H
	DB	'9_w', 08dH, 00H, 00H			; `string'
CONST	ENDS
;	COMDAT ??_C@_1M@BBGGFOI@N?$DL?$JIu?$JF?4c?7N?$AL?$AA?$AA@
CONST	SEGMENT
??_C@_1M@BBGGFOI@N?$DL?$JIu?$JF?4c?7N?$AL?$AA?$AA@ DB ';Nu', 098H, '.', 095H
	DB	09H, 'c', 0bH, 'N', 00H, 00H			; `string'
CONST	ENDS
;	COMDAT ??_C@_1O@KGBEOHII@?$IJ?fdx?$JF?4?$AA5_9?$INw?$AA?$AA@
CONST	SEGMENT
??_C@_1O@KGBEOHII@?$IJ?fdx?$JF?4?$AA5_9?$INw?$AA?$AA@ DB 0e6H, 089H, 'xd.'
	DB	095H, '5', 00H, '9_w', 08dH, 00H, 00H	; `string'
CONST	ENDS
;	COMDAT ??_C@_1O@HELPICJP@?$IJ?fdx?$JF?4?$AA5c?7N?$AL?$AA?$AA@
CONST	SEGMENT
??_C@_1O@HELPICJP@?$IJ?fdx?$JF?4?$AA5c?7N?$AL?$AA?$AA@ DB 0e6H, 089H, 'xd'
	DB	'.', 095H, '5', 00H, 09H, 'c', 0bH, 'N', 00H, 00H ; `string'
CONST	ENDS
;	COMDAT ??_C@_1O@GKLOOHBG@?$IJ?fdx?$JF?4?$AA4_9?$INw?$AA?$AA@
CONST	SEGMENT
??_C@_1O@GKLOOHBG@?$IJ?fdx?$JF?4?$AA4_9?$INw?$AA?$AA@ DB 0e6H, 089H, 'xd.'
	DB	095H, '4', 00H, '9_w', 08dH, 00H, 00H	; `string'
CONST	ENDS
;	COMDAT ??_C@_1O@LIBFICAB@?$IJ?fdx?$JF?4?$AA4c?7N?$AL?$AA?$AA@
CONST	SEGMENT
??_C@_1O@LIBFICAB@?$IJ?fdx?$JF?4?$AA4c?7N?$AL?$AA?$AA@ DB 0e6H, 089H, 'xd'
	DB	'.', 095H, '4', 00H, 09H, 'c', 0bH, 'N', 00H, 00H ; `string'
CONST	ENDS
;	COMDAT ??_C@_1M@LIDIPIIJ@?$AAM?$AAI?$AAC?$IM?$AD?$IC?$IC?$AA?$AA@
CONST	SEGMENT
??_C@_1M@LIDIPIIJ@?$AAM?$AAI?$AAC?$IM?$AD?$IC?$IC?$AA?$AA@ DB 'M', 00H, 'I'
	DB	00H, 'C', 00H, 03H, 08cH, 082H, 082H, 00H, 00H ; `string'
CONST	ENDS
;	COMDAT ??_C@_1BE@LCPCPGGH@?$AAE?$AAA?$AAR?$AA?9?$AAM?$AAI?$AAC?$IM?$AD?$IC?$IC?$AA?$AA@
CONST	SEGMENT
??_C@_1BE@LCPCPGGH@?$AAE?$AAA?$AAR?$AA?9?$AAM?$AAI?$AAC?$IM?$AD?$IC?$IC?$AA?$AA@ DB 'E'
	DB	00H, 'A', 00H, 'R', 00H, '-', 00H, 'M', 00H, 'I', 00H, 'C', 00H
	DB	03H, 08cH, 082H, 082H, 00H, 00H		; `string'
CONST	ENDS
;	COMDAT ??_C@_1BA@LBFGKPOK@?$AAE?$AAA?$AAR?$AA?9?$AAR?$IM?$AD?$IC?$IC?$AA?$AA@
CONST	SEGMENT
??_C@_1BA@LBFGKPOK@?$AAE?$AAA?$AAR?$AA?9?$AAR?$IM?$AD?$IC?$IC?$AA?$AA@ DB 'E'
	DB	00H, 'A', 00H, 'R', 00H, '-', 00H, 'R', 00H, 03H, 08cH, 082H, 082H
	DB	00H, 00H					; `string'
CONST	ENDS
;	COMDAT ??_C@_1BA@NIGHIMPD@?$AAE?$AAA?$AAR?$AA?9?$AAL?$IM?$AD?$IC?$IC?$AA?$AA@
CONST	SEGMENT
??_C@_1BA@NIGHIMPD@?$AAE?$AAA?$AAR?$AA?9?$AAL?$IM?$AD?$IC?$IC?$AA?$AA@ DB 'E'
	DB	00H, 'A', 00H, 'R', 00H, '-', 00H, 'L', 00H, 03H, 08cH, 082H, 082H
	DB	00H, 00H					; `string'
CONST	ENDS
;	COMDAT ??_C@_1M@JBILBOF@?$AAV?$AAI?$AAB?$IM?$AD?$IC?$IC?$AA?$AA@
CONST	SEGMENT
??_C@_1M@JBILBOF@?$AAV?$AAI?$AAB?$IM?$AD?$IC?$IC?$AA?$AA@ DB 'V', 00H, 'I'
	DB	00H, 'B', 00H, 03H, 08cH, 082H, 082H, 00H, 00H ; `string'
CONST	ENDS
;	COMDAT ??_C@_1O@LPIEAEEG@?$AAS?$AAP?$AAK?$AA2?$IM?$AD?$IC?$IC?$AA?$AA@
CONST	SEGMENT
??_C@_1O@LPIEAEEG@?$AAS?$AAP?$AAK?$AA2?$IM?$AD?$IC?$IC?$AA?$AA@ DB 'S', 00H
	DB	'P', 00H, 'K', 00H, '2', 00H, 03H, 08cH, 082H, 082H, 00H, 00H ; `string'
CONST	ENDS
;	COMDAT ??_C@_1O@DBALADKF@?$AAS?$AAP?$AAK?$AA1?$IM?$AD?$IC?$IC?$AA?$AA@
CONST	SEGMENT
??_C@_1O@DBALADKF@?$AAS?$AAP?$AAK?$AA1?$IM?$AD?$IC?$IC?$AA?$AA@ DB 'S', 00H
	DB	'P', 00H, 'K', 00H, '1', 00H, 03H, 08cH, 082H, 082H, 00H, 00H ; `string'
CONST	ENDS
;	COMDAT ??_C@_1M@NMIIGKIK@?$AAR?$AAE?$AAC?$IM?$AD?$IC?$IC?$AA?$AA@
CONST	SEGMENT
??_C@_1M@NMIIGKIK@?$AAR?$AAE?$AAC?$IM?$AD?$IC?$IC?$AA?$AA@ DB 'R', 00H, 'E'
	DB	00H, 'C', 00H, 03H, 08cH, 082H, 082H, 00H, 00H ; `string'
CONST	ENDS
;	COMDAT ??_C@_1O@IMJJJDFH@?$JH?s?$JI?$JB?$JA?$BK?$JASR?$AHcb?$AA?$AA@
CONST	SEGMENT
??_C@_1O@IMJJJDFH@?$JH?s?$JI?$JB?$JA?$BK?$JASR?$AHcb?$AA?$AA@ DB 0f3H, 097H
	DB	091H, 098H, 01aH, 090H, 'S', 090H, 07H, 'Rbc', 00H, 00H ; `string'
CONST	ENDS
;	COMDAT ??_C@_1BG@EGNBCKPN@?$HO?$KC?$ICr?$AAL?$AAE?$AADpor?$LG?$GA?$ABg?e?$IL?b?$AA?$AA@
CONST	SEGMENT
??_C@_1BG@EGNBCKPN@?$HO?$KC?$ICr?$AAL?$AAE?$AADpor?$LG?$GA?$ABg?e?$IL?b?$AA?$AA@ DB 0a2H
	DB	'~r', 082H, 'L', 00H, 'E', 00H, 'D', 00H, 'op', 0b6H, 'r', 01H
	DB	'`', 0e5H, 'g', 0e2H, 08bH, 00H, 00H		; `string'
CONST	ENDS
;	COMDAT ??_C@_1BG@NHKCJCLL@?$HO?$PP?$ICr?$AAL?$AAE?$AADpor?$LG?$GA?$ABg?e?$IL?b?$AA?$AA@
CONST	SEGMENT
??_C@_1BG@NHKCJCLL@?$HO?$PP?$ICr?$AAL?$AAE?$AADpor?$LG?$GA?$ABg?e?$IL?b?$AA?$AA@ DB 0ffH
	DB	'~r', 082H, 'L', 00H, 'E', 00H, 'D', 00H, 'op', 0b6H, 'r', 01H
	DB	'`', 0e5H, 'g', 0e2H, 08bH, 00H, 00H		; `string'
CONST	ENDS
;	COMDAT ??_C@_1O@DIEEJPHG@?$IA3g?3r?$LG?$GA?$ABg?e?$IL?b?$AA?$AA@
CONST	SEGMENT
??_C@_1O@DIEEJPHG@?$IA3g?3r?$LG?$GA?$ABg?e?$IL?b?$AA?$AA@ DB '3', 080H, ':'
	DB	'g', 0b6H, 'r', 01H, '`', 0e5H, 'g', 0e2H, 08bH, 00H, 00H ; `string'
CONST	ENDS
;	COMDAT ??_C@_1BI@LEJMMEH@c?7?$JF?4pomK?$IL?US?$ILg?$HPr?$LG?$GA?$ABg?e?$IL?b?$AA?$AA@
CONST	SEGMENT
??_C@_1BI@LEJMMEH@c?7?$JF?4pomK?$IL?US?$ILg?$HPr?$LG?$GA?$ABg?e?$IL?b?$AA?$AA@ DB 09H
	DB	'c.', 095H, 'opKm', 0d5H, 08bH, 08bH, 'S', 07fH, 'g', 0b6H, 'r'
	DB	01H, '`', 0e5H, 'g', 0e2H, 08bH, 00H, 00H	; `string'
CONST	ENDS
;	COMDAT ??_C@_1O@JPFCJEFO@S?$ILg?$HPr?$LG?$GA?$ABg?e?$IL?b?$AA?$AA@
CONST	SEGMENT
??_C@_1O@JPFCJEFO@S?$ILg?$HPr?$LG?$GA?$ABg?e?$IL?b?$AA?$AA@ DB 08bH, 'S', 07fH
	DB	'g', 0b6H, 'r', 01H, '`', 0e5H, 'g', 0e2H, 08bH, 00H, 00H ; `string'
CONST	ENDS
;	COMDAT ??_C@_1BI@HLEGENHB@RM?$HPndDP?OY4QIn?$JAr?$LG?$GA?$ABg?e?$IL?b?$AA?$AA@
CONST	SEGMENT
??_C@_1BI@HLEGENHB@RM?$HPndDP?OY4QIn?$JAr?$LG?$GA?$ABg?e?$IL?b?$AA?$AA@ DB 'M'
	DB	'Rn', 07fH, 'Dd', 0cfH, 'P4YIQ', 090H, 'n', 0b6H, 'r', 01H, '`'
	DB	0e5H, 'g', 0e2H, 08bH, 00H, 00H		; `string'
CONST	ENDS
;	COMDAT ??_C@_1BA@JPAAFEIE@s?$KPX?$IDQIr?$LG?$GA?$ABg?e?$IL?b?$AA?$AA@
CONST	SEGMENT
??_C@_1BA@JPAAFEIE@s?$KPX?$IDQIr?$LG?$GA?$ABg?e?$IL?b?$AA?$AA@ DB 0afH, 's'
	DB	083H, 'XIQ', 0b6H, 'r', 01H, '`', 0e5H, 'g', 0e2H, 08bH, 00H, 00H ; `string'
CONST	ENDS
;	COMDAT ??_C@_1BA@HAJCONNC@v?$HNu?$DL?$JHbr?$LG?$GA?$ABg?e?$IL?b?$AA?$AA@
CONST	SEGMENT
??_C@_1BA@HAJCONNC@v?$HNu?$DL?$JHbr?$LG?$GA?$ABg?e?$IL?b?$AA?$AA@ DB '}v;'
	DB	'ub', 097H, 0b6H, 'r', 01H, '`', 0e5H, 'g', 0e2H, 08bH, 00H, 00H ; `string'
CONST	ENDS
;	COMDAT ??_C@_1BC@JOILPBBA@?$IJ?fdx?$JF?4?$AA4r?$LG?$GA?$ABg?e?$IL?b?$AA?$AA@
CONST	SEGMENT
??_C@_1BC@JOILPBBA@?$IJ?fdx?$JF?4?$AA4r?$LG?$GA?$ABg?e?$IL?b?$AA?$AA@ DB 0e6H
	DB	089H, 'xd.', 095H, '4', 00H, 0b6H, 'r', 01H, '`', 0e5H, 'g', 0e2H
	DB	08bH, 00H, 00H				; `string'
CONST	ENDS
;	COMDAT ??_C@_1BC@OKBDBIJP@?$IJ?fdx?$JF?4?$AA3r?$LG?$GA?$ABg?e?$IL?b?$AA?$AA@
CONST	SEGMENT
??_C@_1BC@OKBDBIJP@?$IJ?fdx?$JF?4?$AA3r?$LG?$GA?$ABg?e?$IL?b?$AA?$AA@ DB 0e6H
	DB	089H, 'xd.', 095H, '3', 00H, 0b6H, 'r', 01H, '`', 0e5H, 'g', 0e2H
	DB	08bH, 00H, 00H				; `string'
CONST	ENDS
;	COMDAT ??_C@_1BC@HBLGFEPA@?$IJ?fdx?$JF?4?$AA2r?$LG?$GA?$ABg?e?$IL?b?$AA?$AA@
CONST	SEGMENT
??_C@_1BC@HBLGFEPA@?$IJ?fdx?$JF?4?$AA2r?$LG?$GA?$ABg?e?$IL?b?$AA?$AA@ DB 0e6H
	DB	089H, 'xd.', 095H, '2', 00H, 0b6H, 'r', 01H, '`', 0e5H, 'g', 0e2H
	DB	08bH, 00H, 00H				; `string'
CONST	ENDS
;	COMDAT ??_C@_1BC@GCIIGAA@?$IJ?fdx?$JF?4?$AA1r?$LG?$GA?$ABg?e?$IL?b?$AA?$AA@
CONST	SEGMENT
??_C@_1BC@GCIIGAA@?$IJ?fdx?$JF?4?$AA1r?$LG?$GA?$ABg?e?$IL?b?$AA?$AA@ DB 0e6H
	DB	089H, 'xd.', 095H, '1', 00H, 0b6H, 'r', 01H, '`', 0e5H, 'g', 0e2H
	DB	08bH, 00H, 00H				; `string'
CONST	ENDS
;	COMDAT ??_C@_1BI@OIEOGMJG@T?$AO?$HPndDP?OY4QIn?$JAr?$LG?$GA?$ABg?e?$IL?b?$AA?$AA@
CONST	SEGMENT
??_C@_1BI@OIEOGMJG@T?$AO?$HPndDP?OY4QIn?$JAr?$LG?$GA?$ABg?e?$IL?b?$AA?$AA@ DB 0eH
	DB	'Tn', 07fH, 'Dd', 0cfH, 'P4YIQ', 090H, 'n', 0b6H, 'r', 01H, '`'
	DB	0e5H, 'g', 0e2H, 08bH, 00H, 00H		; `string'
CONST	ENDS
;	COMDAT ??_C@_1BC@BCKLCEHE@?$JH?s?$JB?O?$AA?9?$JF?4r?$LG?$GA?$ABg?e?$IL?b?$AA?$AA@
CONST	SEGMENT
??_C@_1BC@BCKLCEHE@?$JH?s?$JB?O?$AA?9?$JF?4r?$LG?$GA?$ABg?e?$IL?b?$AA?$AA@ DB 0f3H
	DB	097H, 0cfH, 091H, '-', 00H, '.', 095H, 0b6H, 'r', 01H, '`', 0e5H
	DB	'g', 0e2H, 08bH, 00H, 00H			; `string'
CONST	ENDS
;	COMDAT ??_C@_1BC@OKGJGPMC@?$JH?s?$JB?O?$AA?$CL?$JF?4r?$LG?$GA?$ABg?e?$IL?b?$AA?$AA@
CONST	SEGMENT
??_C@_1BC@OKGJGPMC@?$JH?s?$JB?O?$AA?$CL?$JF?4r?$LG?$GA?$ABg?e?$IL?b?$AA?$AA@ DB 0f3H
	DB	097H, 0cfH, 091H, '+', 00H, '.', 095H, 0b6H, 'r', 01H, '`', 0e5H
	DB	'g', 0e2H, 08bH, 00H, 00H			; `string'
CONST	ENDS
;	COMDAT ??_C@_1BA@DGGBIAA@u5n?$JA?$JF?4r?$LG?$GA?$ABg?e?$IL?b?$AA?$AA@
CONST	SEGMENT
??_C@_1BA@DGGBIAA@u5n?$JA?$JF?4r?$LG?$GA?$ABg?e?$IL?b?$AA?$AA@ DB '5u', 090H
	DB	'n.', 095H, 0b6H, 'r', 01H, '`', 0e5H, 'g', 0e2H, 08bH, 00H, 00H ; `string'
CONST	ENDS
;	COMDAT ??_C@_1O@MKFMBCPN@?$HO?$KC?$ICr?$AAL?$AAE?$AADpm?$AA?$AA@
CONST	SEGMENT
??_C@_1O@MKFMBCPN@?$HO?$KC?$ICr?$AAL?$AAE?$AADpm?$AA?$AA@ DB 0a2H, '~r', 082H
	DB	'L', 00H, 'E', 00H, 'D', 00H, 'mp', 00H, 00H	; `string'
CONST	ENDS
;	COMDAT ??_C@_1O@IAFBJLIP@?$HO?$KC?$ICr?$AAL?$AAE?$AADN?$KO?$AA?$AA@
CONST	SEGMENT
??_C@_1O@IAFBJLIP@?$HO?$KC?$ICr?$AAL?$AAE?$AADN?$KO?$AA?$AA@ DB 0a2H, '~r'
	DB	082H, 'L', 00H, 'E', 00H, 'D', 00H, 0aeH, 'N', 00H, 00H ; `string'
CONST	ENDS
;	COMDAT ??_C@_1O@FKKNKJDL@?$HO?$PP?$ICr?$AAL?$AAE?$AADpm?$AA?$AA@
CONST	SEGMENT
??_C@_1O@FKKNKJDL@?$HO?$PP?$ICr?$AAL?$AAE?$AADpm?$AA?$AA@ DB 0ffH, '~r', 082H
	DB	'L', 00H, 'E', 00H, 'D', 00H, 'mp', 00H, 00H	; `string'
CONST	ENDS
;	COMDAT ??_C@_1O@BAKACAEJ@?$HO?$PP?$ICr?$AAL?$AAE?$AADN?$KO?$AA?$AA@
CONST	SEGMENT
??_C@_1O@BAKACAEJ@?$HO?$PP?$ICr?$AAL?$AAE?$AADN?$KO?$AA?$AA@ DB 0ffH, '~r'
	DB	082H, 'L', 00H, 'E', 00H, 'D', 00H, 0aeH, 'N', 00H, 00H ; `string'
CONST	ENDS
;	COMDAT ??_C@_19ENAAFLHD@?$IA3g?3b?TQ?z?$AA?$AA@
CONST	SEGMENT
??_C@_19ENAAFLHD@?$IA3g?3b?TQ?z?$AA?$AA@ DB '3', 080H, ':g', 0d4H, 'b', 0faH
	DB	'Q', 00H, 00H				; `string'
CONST	ENDS
;	COMDAT ??_C@_19EDBKGACM@?$IA3g?3c?RQe?$AA?$AA@
CONST	SEGMENT
??_C@_19EDBKGACM@?$IA3g?3c?RQe?$AA?$AA@ DB '3', 080H, ':g', 0d2H, 'ceQ', 00H
	DB	00H						; `string'
CONST	ENDS
;	COMDAT ??_C@_19MEJAKFF@?$JB?MR?$JL_9?$INw?$AA?$AA@
CONST	SEGMENT
??_C@_19MEJAKFF@?$JB?MR?$JL_9?$INw?$AA?$AA@ DB 0cdH, 091H, 09bH, 'R9_w', 08dH
	DB	00H, 00H					; `string'
CONST	ENDS
;	COMDAT ??_C@_19NOOCGPEC@?$JB?MR?$JLc?7N?$AL?$AA?$AA@
CONST	SEGMENT
??_C@_19NOOCGPEC@?$JB?MR?$JLc?7N?$AL?$AA?$AA@ DB 0cdH, 091H, 09bH, 'R', 09H
	DB	'c', 0bH, 'N', 00H, 00H			; `string'
CONST	ENDS
;	COMDAT ??_C@_19OAAHAMNF@S?$ILg?$HPb?$KM?$INw?$AA?$AA@
CONST	SEGMENT
??_C@_19OAAHAMNF@S?$ILg?$HPb?$KM?$INw?$AA?$AA@ DB 08bH, 'S', 07fH, 'g', 0acH
	DB	'bw', 08dH, 00H, 00H				; `string'
CONST	ENDS
;	COMDAT ??_C@_19KLIIFOKD@S?$ILg?$HPN?$ALS?$IL?$AA?$AA@
CONST	SEGMENT
??_C@_19KLIIFOKD@S?$ILg?$HPN?$ALS?$IL?$AA?$AA@ DB 08bH, 'S', 07fH, 'g', 0bH
	DB	'N', 08bH, 'S', 00H, 00H			; `string'
CONST	ENDS
;	COMDAT ??_C@_1BA@BHLMEMCP@v?$HNpo?$HL?$LBQIn?$JAQs?$JF?m?$AA?$AA@
CONST	SEGMENT
??_C@_1BA@BHLMEMCP@v?$HNpo?$HL?$LBQIn?$JAQs?$JF?m?$AA?$AA@ DB '}vop', 0b1H
	DB	'{IQ', 090H, 'nsQ', 0edH, 095H, 00H, 00H	; `string'
CONST	ENDS
;	COMDAT ??_C@_1BA@EOLMABDM@v?$HNpo?$HL?$LBQIn?$JAbS_?$AA?$AA?$AA@
CONST	SEGMENT
??_C@_1BA@EOLMABDM@v?$HNpo?$HL?$LBQIn?$JAbS_?$AA?$AA?$AA@ DB '}vop', 0b1H
	DB	'{IQ', 090H, 'nSb', 00H, '_', 00H, 00H	; `string'
CONST	ENDS
;	COMDAT ??_C@_1M@MOFPAIKO@?$AAO?$AAT?$AAGY?$ANOM?$AA?$AA@
CONST	SEGMENT
??_C@_1M@MOFPAIKO@?$AAO?$AAT?$AAGY?$ANOM?$AA?$AA@ DB 'O', 00H, 'T', 00H, 'G'
	DB	00H, 0dH, 'YMO', 00H, 00H			; `string'
CONST	ENDS
;	COMDAT ??_C@_1M@OBMKFJKA@?$AAO?$AAT?$AAGh?$MAmK?$AA?$AA@
CONST	SEGMENT
??_C@_1M@OBMKFJKA@?$AAO?$AAT?$AAGh?$MAmK?$AA?$AA@ DB 'O', 00H, 'T', 00H, 'G'
	DB	00H, 0c0H, 'hKm', 00H, 00H			; `string'
CONST	ENDS
;	COMDAT ??_C@_1O@CBLEGKIA@_?$AA?$HL?$LBl?$BER?$KI?$JG?$AAQs?$AA?$AA@
CONST	SEGMENT
??_C@_1O@CBLEGKIA@_?$AA?$HL?$LBl?$BER?$KI?$JG?$AAQs?$AA?$AA@ DB 00H, '_', 0b1H
	DB	'{', 014H, 'l', 0a8H, 'R', 00H, 096H, 'sQ', 00H, 00H ; `string'
CONST	ENDS
;	COMDAT ??_C@_15JBEKIAI@_?$AA?$HL?$LB?$AA?$AA@
CONST	SEGMENT
??_C@_15JBEKIAI@_?$AA?$HL?$LB?$AA?$AA@ DB 00H, '_', 0b1H, '{', 00H, 00H ; `string'
CONST	ENDS
;	COMDAT ??_C@_1O@ENFMPAKO@Qs?$HL?$LBl?$BER?$KI?$JG?$AAQs?$AA?$AA@
CONST	SEGMENT
??_C@_1O@ENFMPAKO@Qs?$HL?$LBl?$BER?$KI?$JG?$AAQs?$AA?$AA@ DB 'sQ', 0b1H, '{'
	DB	014H, 'l', 0a8H, 'R', 00H, 096H, 'sQ', 00H, 00H ; `string'
CONST	ENDS
;	COMDAT ??_C@_15DLJCGJAG@Qs?$HL?$LB?$AA?$AA@
CONST	SEGMENT
??_C@_15DLJCGJAG@Qs?$HL?$LB?$AA?$AA@ DB 'sQ', 0b1H, '{', 00H, 00H ; `string'
CONST	ENDS
;	COMDAT ??_C@_1O@GAHLOOAP@?$IJ?fdx?$JF?4?$AA3_9?$INw?$AA?$AA@
CONST	SEGMENT
??_C@_1O@GAHLOOAP@?$IJ?fdx?$JF?4?$AA3_9?$INw?$AA?$AA@ DB 0e6H, 089H, 'xd.'
	DB	095H, '3', 00H, '9_w', 08dH, 00H, 00H	; `string'
CONST	ENDS
;	COMDAT ??_C@_1O@LCNAILBI@?$IJ?fdx?$JF?4?$AA3c?7N?$AL?$AA?$AA@
CONST	SEGMENT
??_C@_1O@LCNAILBI@?$IJ?fdx?$JF?4?$AA3c?7N?$AL?$AA?$AA@ DB 0e6H, 089H, 'xd'
	DB	'.', 095H, '3', 00H, 09H, 'c', 0bH, 'N', 00H, 00H ; `string'
CONST	ENDS
;	COMDAT ??_C@_1O@KMNBOOJB@?$IJ?fdx?$JF?4?$AA2_9?$INw?$AA?$AA@
CONST	SEGMENT
??_C@_1O@KMNBOOJB@?$IJ?fdx?$JF?4?$AA2_9?$INw?$AA?$AA@ DB 0e6H, 089H, 'xd.'
	DB	095H, '2', 00H, '9_w', 08dH, 00H, 00H	; `string'
CONST	ENDS
;	COMDAT ??_C@_1O@HOHKILIG@?$IJ?fdx?$JF?4?$AA2c?7N?$AL?$AA?$AA@
CONST	SEGMENT
??_C@_1O@HOHKILIG@?$IJ?fdx?$JF?4?$AA2c?7N?$AL?$AA?$AA@ DB 0e6H, 089H, 'xd'
	DB	'.', 095H, '2', 00H, 09H, 'c', 0bH, 'N', 00H, 00H ; `string'
CONST	ENDS
;	COMDAT ??_C@_1O@CCFOOJHC@?$IJ?fdx?$JF?4?$AA1_9?$INw?$AA?$AA@
CONST	SEGMENT
??_C@_1O@CCFOOJHC@?$IJ?fdx?$JF?4?$AA1_9?$INw?$AA?$AA@ DB 0e6H, 089H, 'xd.'
	DB	095H, '1', 00H, '9_w', 08dH, 00H, 00H	; `string'
CONST	ENDS
;	COMDAT ??_C@_1O@PAPFIMGF@?$IJ?fdx?$JF?4?$AA1c?7N?$AL?$AA?$AA@
CONST	SEGMENT
??_C@_1O@PAPFIMGF@?$IJ?fdx?$JF?4?$AA1c?7N?$AL?$AA?$AA@ DB 0e6H, 089H, 'xd'
	DB	'.', 095H, '1', 00H, 09H, 'c', 0bH, 'N', 00H, 00H ; `string'
CONST	ENDS
;	COMDAT ??_C@_1O@BDFPHKDC@?$ICrSaQIn?$JAQs?$JF?m?$AA?$AA@
CONST	SEGMENT
??_C@_1O@BDFPHKDC@?$ICrSaQIn?$JAQs?$JF?m?$AA?$AA@ DB 'r', 082H, 'aSIQ', 090H
	DB	'nsQ', 0edH, 095H, 00H, 00H			; `string'
CONST	ENDS
;	COMDAT ??_C@_1O@EKFPDHCB@?$ICrSaQIn?$JAbS_?$AA?$AA?$AA@
CONST	SEGMENT
??_C@_1O@EKFPDHCB@?$ICrSaQIn?$JAbS_?$AA?$AA?$AA@ DB 'r', 082H, 'aSIQ', 090H
	DB	'nSb', 00H, '_', 00H, 00H			; `string'
CONST	ENDS
;	COMDAT ??_C@_1M@PHAPILPM@?$JH?s?$JB?O?$AA?9_9?$INw?$AA?$AA@
CONST	SEGMENT
??_C@_1M@PHAPILPM@?$JH?s?$JB?O?$AA?9_9?$INw?$AA?$AA@ DB 0f3H, 097H, 0cfH, 091H
	DB	'-', 00H, '9_w', 08dH, 00H, 00H		; `string'
CONST	ENDS
;	COMDAT ??_C@_1M@CFKEOOOL@?$JH?s?$JB?O?$AA?9c?7N?$AL?$AA?$AA@
CONST	SEGMENT
??_C@_1M@CFKEOOOL@?$JH?s?$JB?O?$AA?9c?7N?$AL?$AA?$AA@ DB 0f3H, 097H, 0cfH
	DB	091H, '-', 00H, 09H, 'c', 0bH, 'N', 00H, 00H	; `string'
CONST	ENDS
;	COMDAT ??_C@_1M@DBGAICHL@?$JH?s?$JB?O?$AA?$CL_9?$INw?$AA?$AA@
CONST	SEGMENT
??_C@_1M@DBGAICHL@?$JH?s?$JB?O?$AA?$CL_9?$INw?$AA?$AA@ DB 0f3H, 097H, 0cfH
	DB	091H, '+', 00H, '9_w', 08dH, 00H, 00H	; `string'
CONST	ENDS
;	COMDAT ??_C@_1M@ODMLOHGM@?$JH?s?$JB?O?$AA?$CLc?7N?$AL?$AA?$AA@
CONST	SEGMENT
??_C@_1M@ODMLOHGM@?$JH?s?$JB?O?$AA?$CLc?7N?$AL?$AA?$AA@ DB 0f3H, 097H, 0cfH
	DB	091H, '+', 00H, 09H, 'c', 0bH, 'N', 00H, 00H	; `string'
CONST	ENDS
;	COMDAT ??_C@_1M@FOAGDJM@u5n?$JA?$JF?4_9?$INw?$AA?$AA@
CONST	SEGMENT
??_C@_1M@FOAGDJM@u5n?$JA?$JF?4_9?$INw?$AA?$AA@ DB '5u', 090H, 'n.', 095H, '9'
	DB	'_w', 08dH, 00H, 00H				; `string'
CONST	ENDS
;	COMDAT ??_C@_1M@NHELAGIL@u5n?$JA?$JF?4c?7N?$AL?$AA?$AA@
CONST	SEGMENT
??_C@_1M@NHELAGIL@u5n?$JA?$JF?4c?7N?$AL?$AA?$AA@ DB '5u', 090H, 'n.', 095H
	DB	09H, 'c', 0bH, 'N', 00H, 00H			; `string'
CONST	ENDS
;	COMDAT ??_C@_1O@HAJLIGNE@T?$AO?$JF?jQIpoh?$MAmK?$AA?$AA@
CONST	SEGMENT
??_C@_1O@HAJLIGNE@T?$AO?$JF?jQIpoh?$MAmK?$AA?$AA@ DB 0eH, 'T', 0eaH, 095H
	DB	'IQop', 0c0H, 'hKm', 00H, 00H		; `string'
CONST	ENDS
;	COMDAT ??_C@_1O@ONKGILCD@RM?$JF?jQIpoh?$MAmK?$AA?$AA@
CONST	SEGMENT
??_C@_1O@ONKGILCD@RM?$JF?jQIpoh?$MAmK?$AA?$AA@ DB 'MR', 0eaH, 095H, 'IQop'
	DB	0c0H, 'hKm', 00H, 00H			; `string'
CONST	ENDS
;	COMDAT ??_C@_19JDHNBCEO@u5mAh?$MAmK?$AA?$AA@
CONST	SEGMENT
??_C@_19JDHNBCEO@u5mAh?$MAmK?$AA?$AA@ DB '5uAm', 0c0H, 'hKm', 00H, 00H ; `string'
CONST	ENDS
;	COMDAT ??_C@_19CKIIAGBC@X?p?$JH?sh?$MAmK?$AA?$AA@
CONST	SEGMENT
??_C@_19CKIIAGBC@X?p?$JH?sh?$MAmK?$AA?$AA@ DB 0f0H, 'X', 0f3H, 097H, 0c0H
	DB	'hKm', 00H, 00H				; `string'
CONST	ENDS
;	COMDAT ??_C@_1BE@IKIGOIGL@z?oS?c?$AA7?$IP?$JDQer?$LG?$GA?$ABg?e?$IL?b?$AA?$AA@
CONST	SEGMENT
??_C@_1BE@IKIGOIGL@z?oS?c?$AA7?$IP?$JDQer?$LG?$GA?$ABg?e?$IL?b?$AA?$AA@ DB 0efH
	DB	'z', 0e3H, 'S7', 00H, 093H, 08fH, 'eQ', 0b6H, 'r', 01H, '`', 0e5H
	DB	'g', 0e2H, 08bH, 00H, 00H			; `string'
CONST	ENDS
;	COMDAT ??_C@_1BE@CEOOHJPK@z?oS?c?$AA6?$IP?$JDQer?$LG?$GA?$ABg?e?$IL?b?$AA?$AA@
CONST	SEGMENT
??_C@_1BE@CEOOHJPK@z?oS?c?$AA6?$IP?$JDQer?$LG?$GA?$ABg?e?$IL?b?$AA?$AA@ DB 0efH
	DB	'z', 0e3H, 'S6', 00H, 093H, 08fH, 'eQ', 0b6H, 'r', 01H, '`', 0e5H
	DB	'g', 0e2H, 08bH, 00H, 00H			; `string'
CONST	ENDS
;	COMDAT ??_C@_1BM@NIJBIKPO@?$AAE?$AAa?$AAr?$AA?9?$AAL?$IP?$JDQez?oS?cr?$LG?$GA?$ABg?e?$IL?b?$AA?$AA@
CONST	SEGMENT
??_C@_1BM@NIJBIKPO@?$AAE?$AAa?$AAr?$AA?9?$AAL?$IP?$JDQez?oS?cr?$LG?$GA?$ABg?e?$IL?b?$AA?$AA@ DB 'E'
	DB	00H, 'a', 00H, 'r', 00H, '-', 00H, 'L', 00H, 093H, 08fH, 'eQ', 0efH
	DB	'z', 0e3H, 'S', 0b6H, 'r', 01H, '`', 0e5H, 'g', 0e2H, 08bH, 00H
	DB	00H						; `string'
CONST	ENDS
;	COMDAT ??_C@_1BM@CBKPGKLM@?$AAE?$AAa?$AAr?$AA?9?$AAR?$IP?$JDQez?oS?cr?$LG?$GA?$ABg?e?$IL?b?$AA?$AA@
CONST	SEGMENT
??_C@_1BM@CBKPGKLM@?$AAE?$AAa?$AAr?$AA?9?$AAR?$IP?$JDQez?oS?cr?$LG?$GA?$ABg?e?$IL?b?$AA?$AA@ DB 'E'
	DB	00H, 'a', 00H, 'r', 00H, '-', 00H, 'R', 00H, 093H, 08fH, 'eQ', 0efH
	DB	'z', 0e3H, 'S', 0b6H, 'r', 01H, '`', 0e5H, 'g', 0e2H, 08bH, 00H
	DB	00H						; `string'
CONST	ENDS
;	COMDAT ??_C@_1BC@HKMBLFKL@c?1?$FLP?$IP?$JDQer?$LG?$GA?$ABg?e?$IL?b?$AA?$AA@
CONST	SEGMENT
??_C@_1BC@HKMBLFKL@c?1?$FLP?$IP?$JDQer?$LG?$GA?$ABg?e?$IL?b?$AA?$AA@ DB '/'
	DB	'cP[', 093H, 08fH, 'eQ', 0b6H, 'r', 01H, '`', 0e5H, 'g', 0e2H, 08bH
	DB	00H, 00H					; `string'
CONST	ENDS
;	COMDAT ??_C@_1BI@LKHEBPFA@?$AAS?$AAP?$AAK?$IP?$JDQez?oS?cr?$LG?$GA?$ABg?e?$IL?b?$AA?$AA@
CONST	SEGMENT
??_C@_1BI@LKHEBPFA@?$AAS?$AAP?$AAK?$IP?$JDQez?oS?cr?$LG?$GA?$ABg?e?$IL?b?$AA?$AA@ DB 'S'
	DB	00H, 'P', 00H, 'K', 00H, 093H, 08fH, 'eQ', 0efH, 'z', 0e3H, 'S'
	DB	0b6H, 'r', 01H, '`', 0e5H, 'g', 0e2H, 08bH, 00H, 00H ; `string'
CONST	ENDS
;	COMDAT ??_C@_1BK@OHGADHML@?$AAC?$AAa?$AAl?$AAl?$IP?$JDQez?oS?cr?$LG?$GA?$ABg?e?$IL?b?$AA?$AA@
CONST	SEGMENT
??_C@_1BK@OHGADHML@?$AAC?$AAa?$AAl?$AAl?$IP?$JDQez?oS?cr?$LG?$GA?$ABg?e?$IL?b?$AA?$AA@ DB 'C'
	DB	00H, 'a', 00H, 'l', 00H, 'l', 00H, 093H, 08fH, 'eQ', 0efH, 'z', 0e3H
	DB	'S', 0b6H, 'r', 01H, '`', 0e5H, 'g', 0e2H, 08bH, 00H, 00H ; `string'
CONST	ENDS
;	COMDAT ??_C@_1BA@OHKOBPDP@z?oS?c?$AA7?$IP?$JDQeQs?$JF?m?$AA?$AA@
CONST	SEGMENT
??_C@_1BA@OHKOBPDP@z?oS?c?$AA7?$IP?$JDQeQs?$JF?m?$AA?$AA@ DB 0efH, 'z', 0e3H
	DB	'S7', 00H, 093H, 08fH, 'eQsQ', 0edH, 095H, 00H, 00H ; `string'
CONST	ENDS
;	COMDAT ??_C@_1BA@LOKOFCCM@z?oS?c?$AA7?$IP?$JDQebS_?$AA?$AA?$AA@
CONST	SEGMENT
??_C@_1BA@LOKOFCCM@z?oS?c?$AA7?$IP?$JDQebS_?$AA?$AA?$AA@ DB 0efH, 'z', 0e3H
	DB	'S7', 00H, 093H, 08fH, 'eQSb', 00H, '_', 00H, 00H ; `string'
CONST	ENDS
;	COMDAT ??_C@_1BA@HMALFDFA@z?oS?c?$AA6?$IP?$JDQeQs?$JF?m?$AA?$AA@
CONST	SEGMENT
??_C@_1BA@HMALFDFA@z?oS?c?$AA6?$IP?$JDQeQs?$JF?m?$AA?$AA@ DB 0efH, 'z', 0e3H
	DB	'S6', 00H, 093H, 08fH, 'eQsQ', 0edH, 095H, 00H, 00H ; `string'
CONST	ENDS
;	COMDAT ??_C@_1BA@CFALBOED@z?oS?c?$AA6?$IP?$JDQebS_?$AA?$AA?$AA@
CONST	SEGMENT
??_C@_1BA@CFALBOED@z?oS?c?$AA6?$IP?$JDQebS_?$AA?$AA?$AA@ DB 0efH, 'z', 0e3H
	DB	'S6', 00H, 093H, 08fH, 'eQSb', 00H, '_', 00H, 00H ; `string'
CONST	ENDS
;	COMDAT ??_C@_1BK@KOBEEECE@?$AAE?$AAa?$AAr?$AA?9?$AAL?$IP?$JDQeQs?$JF?m?$AAO?$AAL?$AAD?$AA?$AA@
CONST	SEGMENT
??_C@_1BK@KOBEEECE@?$AAE?$AAa?$AAr?$AA?9?$AAL?$IP?$JDQeQs?$JF?m?$AAO?$AAL?$AAD?$AA?$AA@ DB 'E'
	DB	00H, 'a', 00H, 'r', 00H, '-', 00H, 'L', 00H, 093H, 08fH, 'eQsQ'
	DB	0edH, 095H, 'O', 00H, 'L', 00H, 'D', 00H, 00H, 00H ; `string'
CONST	ENDS
;	COMDAT ??_C@_1BK@OIFILNNG@?$AAE?$AAa?$AAr?$AA?9?$AAL?$IP?$JDQebS_?$AA?$AAO?$AAL?$AAD?$AA?$AA@
CONST	SEGMENT
??_C@_1BK@OIFILNNG@?$AAE?$AAa?$AAr?$AA?9?$AAL?$IP?$JDQebS_?$AA?$AAO?$AAL?$AAD?$AA?$AA@ DB 'E'
	DB	00H, 'a', 00H, 'r', 00H, '-', 00H, 'L', 00H, 093H, 08fH, 'eQSb'
	DB	00H, '_O', 00H, 'L', 00H, 'D', 00H, 00H, 00H	; `string'
CONST	ENDS
;	COMDAT ??_C@_1BK@JJJKAKLF@?$AAE?$AAa?$AAr?$AA?9?$AAR?$IP?$JDQeQs?$JF?m?$AAO?$AAL?$AAD?$AA?$AA@
CONST	SEGMENT
??_C@_1BK@JJJKAKLF@?$AAE?$AAa?$AAr?$AA?9?$AAR?$IP?$JDQeQs?$JF?m?$AAO?$AAL?$AAD?$AA?$AA@ DB 'E'
	DB	00H, 'a', 00H, 'r', 00H, '-', 00H, 'R', 00H, 093H, 08fH, 'eQsQ'
	DB	0edH, 095H, 'O', 00H, 'L', 00H, 'D', 00H, 00H, 00H ; `string'
CONST	ENDS
;	COMDAT ??_C@_1BK@NPNGPDEH@?$AAE?$AAa?$AAr?$AA?9?$AAR?$IP?$JDQebS_?$AA?$AAO?$AAL?$AAD?$AA?$AA@
CONST	SEGMENT
??_C@_1BK@NPNGPDEH@?$AAE?$AAa?$AAr?$AA?9?$AAR?$IP?$JDQebS_?$AA?$AAO?$AAL?$AAD?$AA?$AA@ DB 'E'
	DB	00H, 'a', 00H, 'r', 00H, '-', 00H, 'R', 00H, 093H, 08fH, 'eQSb'
	DB	00H, '_O', 00H, 'L', 00H, 'D', 00H, 00H, 00H	; `string'
CONST	ENDS
;	COMDAT ??_C@_1BE@FEPEMCEE@c?1?$FLP?$IP?$JDQeQs?$JF?m?$AAO?$AAL?$AAD?$AA?$AA@
CONST	SEGMENT
??_C@_1BE@FEPEMCEE@c?1?$FLP?$IP?$JDQeQs?$JF?m?$AAO?$AAL?$AAD?$AA?$AA@ DB '/'
	DB	'cP[', 093H, 08fH, 'eQsQ', 0edH, 095H, 'O', 00H, 'L', 00H, 'D', 00H
	DB	00H, 00H					; `string'
CONST	ENDS
;	COMDAT ??_C@_1BE@BCLIDLLG@c?1?$FLP?$IP?$JDQebS_?$AA?$AAO?$AAL?$AAD?$AA?$AA@
CONST	SEGMENT
??_C@_1BE@BCLIDLLG@c?1?$FLP?$IP?$JDQebS_?$AA?$AAO?$AAL?$AAD?$AA?$AA@ DB '/'
	DB	'cP[', 093H, 08fH, 'eQSb', 00H, '_O', 00H, 'L', 00H, 'D', 00H, 00H
	DB	00H						; `string'
CONST	ENDS
;	COMDAT ??_C@_1BG@POKHNMIG@?$AAS?$AAP?$AAK?$IP?$JDQeQs?$JF?m?$AAO?$AAL?$AAD?$AA?$AA@
CONST	SEGMENT
??_C@_1BG@POKHNMIG@?$AAS?$AAP?$AAK?$IP?$JDQeQs?$JF?m?$AAO?$AAL?$AAD?$AA?$AA@ DB 'S'
	DB	00H, 'P', 00H, 'K', 00H, 093H, 08fH, 'eQsQ', 0edH, 095H, 'O', 00H
	DB	'L', 00H, 'D', 00H, 00H, 00H			; `string'
CONST	ENDS
;	COMDAT ??_C@_1BG@LIOLCFHE@?$AAS?$AAP?$AAK?$IP?$JDQebS_?$AA?$AAO?$AAL?$AAD?$AA?$AA@
CONST	SEGMENT
??_C@_1BG@LIOLCFHE@?$AAS?$AAP?$AAK?$IP?$JDQebS_?$AA?$AAO?$AAL?$AAD?$AA?$AA@ DB 'S'
	DB	00H, 'P', 00H, 'K', 00H, 093H, 08fH, 'eQSb', 00H, '_O', 00H, 'L'
	DB	00H, 'D', 00H, 00H, 00H			; `string'
CONST	ENDS
;	COMDAT ??_C@_1BI@NOPEOLLA@?$AAC?$AAA?$AAL?$AAL?$IP?$JDQeQs?$JF?m?$AAO?$AAL?$AAD?$AA?$AA@
CONST	SEGMENT
??_C@_1BI@NOPEOLLA@?$AAC?$AAA?$AAL?$AAL?$IP?$JDQeQs?$JF?m?$AAO?$AAL?$AAD?$AA?$AA@ DB 'C'
	DB	00H, 'A', 00H, 'L', 00H, 'L', 00H, 093H, 08fH, 'eQsQ', 0edH, 095H
	DB	'O', 00H, 'L', 00H, 'D', 00H, 00H, 00H	; `string'
CONST	ENDS
;	COMDAT ??_C@_1BI@JILIBCEC@?$AAC?$AAA?$AAL?$AAL?$IP?$JDQebS_?$AA?$AAO?$AAL?$AAD?$AA?$AA@
CONST	SEGMENT
??_C@_1BI@JILIBCEC@?$AAC?$AAA?$AAL?$AAL?$IP?$JDQebS_?$AA?$AAO?$AAL?$AAD?$AA?$AA@ DB 'C'
	DB	00H, 'A', 00H, 'L', 00H, 'L', 00H, 093H, 08fH, 'eQSb', 00H, '_'
	DB	'O', 00H, 'L', 00H, 'D', 00H, 00H, 00H	; `string'
CONST	ENDS
;	COMDAT ??_C@_1BE@EAPMLJIB@z?oS?c?$AA3?$IP?$JDQ?zr?$LG?$GA?$ABg?e?$IL?b?$AA?$AA@
CONST	SEGMENT
??_C@_1BE@EAPMLJIB@z?oS?c?$AA3?$IP?$JDQ?zr?$LG?$GA?$ABg?e?$IL?b?$AA?$AA@ DB 0efH
	DB	'z', 0e3H, 'S3', 00H, 093H, 08fH, 0faH, 'Q', 0b6H, 'r', 01H, '`'
	DB	0e5H, 'g', 0e2H, 08bH, 00H, 00H		; `string'
CONST	ENDS
;	COMDAT ??_C@_1BI@JFIGEOA@?$AAM?$AAI?$AAC?$IP?$JDQ?zz?oS?cr?$LG?$GA?$ABg?e?$IL?b?$AA?$AA@
CONST	SEGMENT
??_C@_1BI@JFIGEOA@?$AAM?$AAI?$AAC?$IP?$JDQ?zz?oS?cr?$LG?$GA?$ABg?e?$IL?b?$AA?$AA@ DB 'M'
	DB	00H, 'I', 00H, 'C', 00H, 093H, 08fH, 0faH, 'Q', 0efH, 'z', 0e3H
	DB	'S', 0b6H, 'r', 01H, '`', 0e5H, 'g', 0e2H, 08bH, 00H, 00H ; `string'
CONST	ENDS
;	COMDAT ??_C@_1CA@NHFOFAEC@?$AAE?$AAa?$AAr?$AA?9?$AAM?$AAI?$AAC?$IP?$JDQ?zz?oS?cr?$LG?$GA?$ABg?e?$IL?b?$AA?$AA@
CONST	SEGMENT
??_C@_1CA@NHFOFAEC@?$AAE?$AAa?$AAr?$AA?9?$AAM?$AAI?$AAC?$IP?$JDQ?zz?oS?cr?$LG?$GA?$ABg?e?$IL?b?$AA?$AA@ DB 'E'
	DB	00H, 'a', 00H, 'r', 00H, '-', 00H, 'M', 00H, 'I', 00H, 'C', 00H
	DB	093H, 08fH, 0faH, 'Q', 0efH, 'z', 0e3H, 'S', 0b6H, 'r', 01H, '`'
	DB	0e5H, 'g', 0e2H, 08bH, 00H, 00H		; `string'
CONST	ENDS
;	COMDAT ??_C@_1BA@BCAIICBN@z?oS?c?$AA3?$IP?$JDQ?zQs?$JF?m?$AA?$AA@
CONST	SEGMENT
??_C@_1BA@BCAIICBN@z?oS?c?$AA3?$IP?$JDQ?zQs?$JF?m?$AA?$AA@ DB 0efH, 'z', 0e3H
	DB	'S3', 00H, 093H, 08fH, 0faH, 'QsQ', 0edH, 095H, 00H, 00H ; `string'
CONST	ENDS
;	COMDAT ??_C@_1BA@ELAIMPAO@z?oS?c?$AA3?$IP?$JDQ?zbS_?$AA?$AA?$AA@
CONST	SEGMENT
??_C@_1BA@ELAIMPAO@z?oS?c?$AA3?$IP?$JDQ?zbS_?$AA?$AA?$AA@ DB 0efH, 'z', 0e3H
	DB	'S3', 00H, 093H, 08fH, 0faH, 'QSb', 00H, '_', 00H, 00H ; `string'
CONST	ENDS
;	COMDAT ??_C@_1BG@CAJMGFOC@?$AAM?$AAI?$AAC?$IP?$JDQ?zQs?$JF?m?$AAO?$AAL?$AAD?$AA?$AA@
CONST	SEGMENT
??_C@_1BG@CAJMGFOC@?$AAM?$AAI?$AAC?$IP?$JDQ?zQs?$JF?m?$AAO?$AAL?$AAD?$AA?$AA@ DB 'M'
	DB	00H, 'I', 00H, 'C', 00H, 093H, 08fH, 0faH, 'QsQ', 0edH, 095H, 'O'
	DB	00H, 'L', 00H, 'D', 00H, 00H, 00H		; `string'
CONST	ENDS
;	COMDAT ??_C@_1BG@GGNAJMBA@?$AAM?$AAI?$AAC?$IP?$JDQ?zbS_?$AA?$AAO?$AAL?$AAD?$AA?$AA@
CONST	SEGMENT
??_C@_1BG@GGNAJMBA@?$AAM?$AAI?$AAC?$IP?$JDQ?zbS_?$AA?$AAO?$AAL?$AAD?$AA?$AA@ DB 'M'
	DB	00H, 'I', 00H, 'C', 00H, 093H, 08fH, 0faH, 'QSb', 00H, '_O', 00H
	DB	'L', 00H, 'D', 00H, 00H, 00H			; `string'
CONST	ENDS
;	COMDAT ??_C@_1BO@DHAJJEBC@?$AAE?$AAa?$AAr?$AA?9?$AAM?$AAI?$AAC?$IP?$JDQ?zQs?$JF?m?$AAO?$AAL?$AAD?$AA?$AA@
CONST	SEGMENT
??_C@_1BO@DHAJJEBC@?$AAE?$AAa?$AAr?$AA?9?$AAM?$AAI?$AAC?$IP?$JDQ?zQs?$JF?m?$AAO?$AAL?$AAD?$AA?$AA@ DB 'E'
	DB	00H, 'a', 00H, 'r', 00H, '-', 00H, 'M', 00H, 'I', 00H, 'C', 00H
	DB	093H, 08fH, 0faH, 'QsQ', 0edH, 095H, 'O', 00H, 'L', 00H, 'D', 00H
	DB	00H, 00H					; `string'
CONST	ENDS
;	COMDAT ??_C@_1BO@HBEFGNOA@?$AAE?$AAa?$AAr?$AA?9?$AAM?$AAI?$AAC?$IP?$JDQ?zbS_?$AA?$AAO?$AAL?$AAD?$AA?$AA@
CONST	SEGMENT
??_C@_1BO@HBEFGNOA@?$AAE?$AAa?$AAr?$AA?9?$AAM?$AAI?$AAC?$IP?$JDQ?zbS_?$AA?$AAO?$AAL?$AAD?$AA?$AA@ DB 'E'
	DB	00H, 'a', 00H, 'r', 00H, '-', 00H, 'M', 00H, 'I', 00H, 'C', 00H
	DB	093H, 08fH, 0faH, 'QSb', 00H, '_O', 00H, 'L', 00H, 'D', 00H, 00H
	DB	00H						; `string'
CONST	ENDS
;	COMDAT ??_C@_1O@JFCOMPKO@Qs?$JF?mO?aS?wN?$KHu?$BP?$AA?$AA@
CONST	SEGMENT
??_C@_1O@JFCOMPKO@Qs?$JF?mO?aS?wN?$KHu?$BP?$AA?$AA@ DB 'sQ', 0edH, 095H, 0e1H
	DB	'O', 0f7H, 'S', 0a7H, 'N', 01fH, 'u', 00H, 00H ; `string'
CONST	ENDS
;	COMDAT ??_C@_1M@PACLNHIB@?$AA1?$AA0?$AAK?$AAH?$AAz?$AA?$AA@
CONST	SEGMENT
??_C@_1M@PACLNHIB@?$AA1?$AA0?$AAK?$AAH?$AAz?$AA?$AA@ DB '1', 00H, '0', 00H
	DB	'K', 00H, 'H', 00H, 'z', 00H, 00H, 00H	; `string'
CONST	ENDS
;	COMDAT ??_C@_19BNBMILH@?$AA5?$AAK?$AAH?$AAz?$AA?$AA@
CONST	SEGMENT
??_C@_19BNBMILH@?$AA5?$AAK?$AAH?$AAz?$AA?$AA@ DB '5', 00H, 'K', 00H, 'H', 00H
	DB	'z', 00H, 00H, 00H				; `string'
CONST	ENDS
;	COMDAT ??_C@_19IDKGIMN@?$AA1?$AAK?$AAH?$AAz?$AA?$AA@
CONST	SEGMENT
??_C@_19IDKGIMN@?$AA1?$AAK?$AAH?$AAz?$AA?$AA@ DB '1', 00H, 'K', 00H, 'H', 00H
	DB	'z', 00H, 00H, 00H				; `string'
CONST	ENDS
;	COMDAT ??_C@_1BC@IMLEBOJD@g?e?$IL?bS?o?$IM?$ADu5n?$JAr?$LG?$GA?$AB?$AA?$AA@
CONST	SEGMENT
??_C@_1BC@IMLEBOJD@g?e?$IL?bS?o?$IM?$ADu5n?$JAr?$LG?$GA?$AB?$AA?$AA@ DB 0e5H
	DB	'g', 0e2H, 08bH, 0efH, 'S', 03H, 08cH, '5u', 090H, 'n', 0b6H, 'r'
	DB	01H, '`', 00H, 00H				; `string'
CONST	ENDS
;	COMDAT ??_C@_1M@OAEHLIIE@?$AA5?$AAVu5n?$JAQs?$AA?$AA@
CONST	SEGMENT
??_C@_1M@OAEHLIIE@?$AA5?$AAVu5n?$JAQs?$AA?$AA@ DB '5', 00H, 'V', 00H, '5u'
	DB	090H, 'nsQ', 00H, 00H			; `string'
CONST	ENDS
;	COMDAT ??_C@_1M@JDFDJKPM@?$AA5?$AAVu5n?$JA_?$AA?$AA?$AA@
CONST	SEGMENT
??_C@_1M@JDFDJKPM@?$AA5?$AAVu5n?$JA_?$AA?$AA?$AA@ DB '5', 00H, 'V', 00H, '5'
	DB	'u', 090H, 'n', 00H, '_', 00H, 00H		; `string'
CONST	ENDS
;	COMDAT ??_C@_19GMDECDPE@u5S?$IL?$IM?$ADet?$AA?$AA@
CONST	SEGMENT
??_C@_19GMDECDPE@u5S?$IL?$IM?$ADet?$AA?$AA@ DB '5u', 08bH, 'S', 03H, 08cH
	DB	'te', 00H, 00H				; `string'
CONST	ENDS
;	COMDAT ??_C@_19JCNDCNPG@Q?$JJQeepcn?$AA?$AA@
CONST	SEGMENT
??_C@_19JCNDCNPG@Q?$JJQeepcn?$AA?$AA@ DB 099H, 'QeQpenc', 00H, 00H ; `string'
CONST	ENDS
;	COMDAT ??_C@_19DAEIJEEB@?$IL?$PLQ?zepcn?$AA?$AA@
CONST	SEGMENT
??_C@_19DAEIJEEB@?$IL?$PLQ?zepcn?$AA?$AA@ DB 0fbH, 08bH, 0faH, 'Qpenc', 00H
	DB	00H						; `string'
CONST	ENDS
;	COMDAT xdata$x
xdata$x	SEGMENT
__ehfuncinfo$??__EstrDeviceDescription@@YAXXZ DD 019930522H
	DD	0b2H
	DD	FLAT:__unwindtable$??__EstrDeviceDescription@@YAXXZ
	DD	2 DUP(00H)
	DD	2 DUP(00H)
	DD	00H
	DD	01H
__unwindtable$??__EstrDeviceDescription@@YAXXZ DD 0ffffffffH
	DD	FLAT:__unwindfunclet$??__EstrDeviceDescription@@YAXXZ$0
	DD	00H
	DD	FLAT:__unwindfunclet$??__EstrDeviceDescription@@YAXXZ$1
	DD	01H
	DD	FLAT:__unwindfunclet$??__EstrDeviceDescription@@YAXXZ$2
	DD	02H
	DD	FLAT:__unwindfunclet$??__EstrDeviceDescription@@YAXXZ$3
	DD	03H
	DD	FLAT:__unwindfunclet$??__EstrDeviceDescription@@YAXXZ$4
	DD	04H
	DD	FLAT:__unwindfunclet$??__EstrDeviceDescription@@YAXXZ$5
	DD	05H
	DD	FLAT:__unwindfunclet$??__EstrDeviceDescription@@YAXXZ$6
	DD	06H
	DD	FLAT:__unwindfunclet$??__EstrDeviceDescription@@YAXXZ$7
	DD	07H
	DD	FLAT:__unwindfunclet$??__EstrDeviceDescription@@YAXXZ$8
	DD	08H
	DD	FLAT:__unwindfunclet$??__EstrDeviceDescription@@YAXXZ$9
	DD	09H
	DD	FLAT:__unwindfunclet$??__EstrDeviceDescription@@YAXXZ$10
	DD	0aH
	DD	FLAT:__unwindfunclet$??__EstrDeviceDescription@@YAXXZ$11
	DD	0bH
	DD	FLAT:__unwindfunclet$??__EstrDeviceDescription@@YAXXZ$12
	DD	0cH
	DD	FLAT:__unwindfunclet$??__EstrDeviceDescription@@YAXXZ$13
	DD	0dH
	DD	FLAT:__unwindfunclet$??__EstrDeviceDescription@@YAXXZ$14
	DD	0eH
	DD	FLAT:__unwindfunclet$??__EstrDeviceDescription@@YAXXZ$15
	DD	0fH
	DD	FLAT:__unwindfunclet$??__EstrDeviceDescription@@YAXXZ$16
	DD	010H
	DD	FLAT:__unwindfunclet$??__EstrDeviceDescription@@YAXXZ$17
	DD	011H
	DD	FLAT:__unwindfunclet$??__EstrDeviceDescription@@YAXXZ$18
	DD	012H
	DD	FLAT:__unwindfunclet$??__EstrDeviceDescription@@YAXXZ$19
	DD	013H
	DD	FLAT:__unwindfunclet$??__EstrDeviceDescription@@YAXXZ$20
	DD	014H
	DD	FLAT:__unwindfunclet$??__EstrDeviceDescription@@YAXXZ$21
	DD	015H
	DD	FLAT:__unwindfunclet$??__EstrDeviceDescription@@YAXXZ$22
	DD	016H
	DD	FLAT:__unwindfunclet$??__EstrDeviceDescription@@YAXXZ$23
	DD	017H
	DD	FLAT:__unwindfunclet$??__EstrDeviceDescription@@YAXXZ$24
	DD	018H
	DD	FLAT:__unwindfunclet$??__EstrDeviceDescription@@YAXXZ$25
	DD	019H
	DD	FLAT:__unwindfunclet$??__EstrDeviceDescription@@YAXXZ$26
	DD	01aH
	DD	FLAT:__unwindfunclet$??__EstrDeviceDescription@@YAXXZ$27
	DD	01bH
	DD	FLAT:__unwindfunclet$??__EstrDeviceDescription@@YAXXZ$28
	DD	01cH
	DD	FLAT:__unwindfunclet$??__EstrDeviceDescription@@YAXXZ$29
	DD	01dH
	DD	FLAT:__unwindfunclet$??__EstrDeviceDescription@@YAXXZ$30
	DD	01eH
	DD	FLAT:__unwindfunclet$??__EstrDeviceDescription@@YAXXZ$31
	DD	01fH
	DD	FLAT:__unwindfunclet$??__EstrDeviceDescription@@YAXXZ$32
	DD	020H
	DD	FLAT:__unwindfunclet$??__EstrDeviceDescription@@YAXXZ$33
	DD	021H
	DD	FLAT:__unwindfunclet$??__EstrDeviceDescription@@YAXXZ$34
	DD	022H
	DD	FLAT:__unwindfunclet$??__EstrDeviceDescription@@YAXXZ$35
	DD	023H
	DD	FLAT:__unwindfunclet$??__EstrDeviceDescription@@YAXXZ$36
	DD	024H
	DD	FLAT:__unwindfunclet$??__EstrDeviceDescription@@YAXXZ$37
	DD	025H
	DD	FLAT:__unwindfunclet$??__EstrDeviceDescription@@YAXXZ$38
	DD	026H
	DD	FLAT:__unwindfunclet$??__EstrDeviceDescription@@YAXXZ$39
	DD	027H
	DD	FLAT:__unwindfunclet$??__EstrDeviceDescription@@YAXXZ$40
	DD	028H
	DD	FLAT:__unwindfunclet$??__EstrDeviceDescription@@YAXXZ$41
	DD	029H
	DD	FLAT:__unwindfunclet$??__EstrDeviceDescription@@YAXXZ$42
	DD	02aH
	DD	FLAT:__unwindfunclet$??__EstrDeviceDescription@@YAXXZ$43
	DD	02bH
	DD	FLAT:__unwindfunclet$??__EstrDeviceDescription@@YAXXZ$44
	DD	02cH
	DD	FLAT:__unwindfunclet$??__EstrDeviceDescription@@YAXXZ$45
	DD	02dH
	DD	FLAT:__unwindfunclet$??__EstrDeviceDescription@@YAXXZ$46
	DD	02eH
	DD	FLAT:__unwindfunclet$??__EstrDeviceDescription@@YAXXZ$47
	DD	02fH
	DD	FLAT:__unwindfunclet$??__EstrDeviceDescription@@YAXXZ$48
	DD	030H
	DD	FLAT:__unwindfunclet$??__EstrDeviceDescription@@YAXXZ$49
	DD	031H
	DD	FLAT:__unwindfunclet$??__EstrDeviceDescription@@YAXXZ$50
	DD	032H
	DD	FLAT:__unwindfunclet$??__EstrDeviceDescription@@YAXXZ$51
	DD	033H
	DD	FLAT:__unwindfunclet$??__EstrDeviceDescription@@YAXXZ$52
	DD	034H
	DD	FLAT:__unwindfunclet$??__EstrDeviceDescription@@YAXXZ$53
	DD	035H
	DD	FLAT:__unwindfunclet$??__EstrDeviceDescription@@YAXXZ$54
	DD	036H
	DD	FLAT:__unwindfunclet$??__EstrDeviceDescription@@YAXXZ$55
	DD	037H
	DD	FLAT:__unwindfunclet$??__EstrDeviceDescription@@YAXXZ$56
	DD	038H
	DD	FLAT:__unwindfunclet$??__EstrDeviceDescription@@YAXXZ$57
	DD	039H
	DD	FLAT:__unwindfunclet$??__EstrDeviceDescription@@YAXXZ$58
	DD	03aH
	DD	FLAT:__unwindfunclet$??__EstrDeviceDescription@@YAXXZ$59
	DD	03bH
	DD	FLAT:__unwindfunclet$??__EstrDeviceDescription@@YAXXZ$60
	DD	03cH
	DD	FLAT:__unwindfunclet$??__EstrDeviceDescription@@YAXXZ$61
	DD	03dH
	DD	FLAT:__unwindfunclet$??__EstrDeviceDescription@@YAXXZ$62
	DD	03eH
	DD	FLAT:__unwindfunclet$??__EstrDeviceDescription@@YAXXZ$63
	DD	03fH
	DD	FLAT:__unwindfunclet$??__EstrDeviceDescription@@YAXXZ$64
	DD	040H
	DD	FLAT:__unwindfunclet$??__EstrDeviceDescription@@YAXXZ$65
	DD	041H
	DD	FLAT:__unwindfunclet$??__EstrDeviceDescription@@YAXXZ$66
	DD	042H
	DD	FLAT:__unwindfunclet$??__EstrDeviceDescription@@YAXXZ$67
	DD	043H
	DD	FLAT:__unwindfunclet$??__EstrDeviceDescription@@YAXXZ$68
	DD	044H
	DD	FLAT:__unwindfunclet$??__EstrDeviceDescription@@YAXXZ$69
	DD	045H
	DD	FLAT:__unwindfunclet$??__EstrDeviceDescription@@YAXXZ$70
	DD	046H
	DD	FLAT:__unwindfunclet$??__EstrDeviceDescription@@YAXXZ$71
	DD	047H
	DD	FLAT:__unwindfunclet$??__EstrDeviceDescription@@YAXXZ$72
	DD	048H
	DD	FLAT:__unwindfunclet$??__EstrDeviceDescription@@YAXXZ$73
	DD	049H
	DD	FLAT:__unwindfunclet$??__EstrDeviceDescription@@YAXXZ$74
	DD	04aH
	DD	FLAT:__unwindfunclet$??__EstrDeviceDescription@@YAXXZ$75
	DD	04bH
	DD	FLAT:__unwindfunclet$??__EstrDeviceDescription@@YAXXZ$76
	DD	04cH
	DD	FLAT:__unwindfunclet$??__EstrDeviceDescription@@YAXXZ$77
	DD	04dH
	DD	FLAT:__unwindfunclet$??__EstrDeviceDescription@@YAXXZ$78
	DD	04eH
	DD	FLAT:__unwindfunclet$??__EstrDeviceDescription@@YAXXZ$79
	DD	04fH
	DD	FLAT:__unwindfunclet$??__EstrDeviceDescription@@YAXXZ$80
	DD	050H
	DD	FLAT:__unwindfunclet$??__EstrDeviceDescription@@YAXXZ$81
	DD	051H
	DD	FLAT:__unwindfunclet$??__EstrDeviceDescription@@YAXXZ$82
	DD	052H
	DD	FLAT:__unwindfunclet$??__EstrDeviceDescription@@YAXXZ$83
	DD	053H
	DD	FLAT:__unwindfunclet$??__EstrDeviceDescription@@YAXXZ$84
	DD	054H
	DD	FLAT:__unwindfunclet$??__EstrDeviceDescription@@YAXXZ$85
	DD	055H
	DD	FLAT:__unwindfunclet$??__EstrDeviceDescription@@YAXXZ$86
	DD	056H
	DD	FLAT:__unwindfunclet$??__EstrDeviceDescription@@YAXXZ$87
	DD	057H
	DD	FLAT:__unwindfunclet$??__EstrDeviceDescription@@YAXXZ$88
	DD	058H
	DD	FLAT:__unwindfunclet$??__EstrDeviceDescription@@YAXXZ$89
	DD	059H
	DD	FLAT:__unwindfunclet$??__EstrDeviceDescription@@YAXXZ$90
	DD	05aH
	DD	FLAT:__unwindfunclet$??__EstrDeviceDescription@@YAXXZ$91
	DD	05bH
	DD	FLAT:__unwindfunclet$??__EstrDeviceDescription@@YAXXZ$92
	DD	05cH
	DD	FLAT:__unwindfunclet$??__EstrDeviceDescription@@YAXXZ$93
	DD	05dH
	DD	FLAT:__unwindfunclet$??__EstrDeviceDescription@@YAXXZ$94
	DD	05eH
	DD	FLAT:__unwindfunclet$??__EstrDeviceDescription@@YAXXZ$95
	DD	05fH
	DD	FLAT:__unwindfunclet$??__EstrDeviceDescription@@YAXXZ$96
	DD	060H
	DD	FLAT:__unwindfunclet$??__EstrDeviceDescription@@YAXXZ$97
	DD	061H
	DD	FLAT:__unwindfunclet$??__EstrDeviceDescription@@YAXXZ$98
	DD	062H
	DD	FLAT:__unwindfunclet$??__EstrDeviceDescription@@YAXXZ$99
	DD	063H
	DD	FLAT:__unwindfunclet$??__EstrDeviceDescription@@YAXXZ$100
	DD	064H
	DD	FLAT:__unwindfunclet$??__EstrDeviceDescription@@YAXXZ$101
	DD	065H
	DD	FLAT:__unwindfunclet$??__EstrDeviceDescription@@YAXXZ$102
	DD	066H
	DD	FLAT:__unwindfunclet$??__EstrDeviceDescription@@YAXXZ$103
	DD	067H
	DD	FLAT:__unwindfunclet$??__EstrDeviceDescription@@YAXXZ$104
	DD	068H
	DD	FLAT:__unwindfunclet$??__EstrDeviceDescription@@YAXXZ$105
	DD	069H
	DD	FLAT:__unwindfunclet$??__EstrDeviceDescription@@YAXXZ$106
	DD	06aH
	DD	FLAT:__unwindfunclet$??__EstrDeviceDescription@@YAXXZ$107
	DD	06bH
	DD	FLAT:__unwindfunclet$??__EstrDeviceDescription@@YAXXZ$108
	DD	06cH
	DD	FLAT:__unwindfunclet$??__EstrDeviceDescription@@YAXXZ$109
	DD	06dH
	DD	FLAT:__unwindfunclet$??__EstrDeviceDescription@@YAXXZ$110
	DD	06eH
	DD	FLAT:__unwindfunclet$??__EstrDeviceDescription@@YAXXZ$111
	DD	06fH
	DD	FLAT:__unwindfunclet$??__EstrDeviceDescription@@YAXXZ$112
	DD	070H
	DD	FLAT:__unwindfunclet$??__EstrDeviceDescription@@YAXXZ$113
	DD	071H
	DD	FLAT:__unwindfunclet$??__EstrDeviceDescription@@YAXXZ$114
	DD	072H
	DD	FLAT:__unwindfunclet$??__EstrDeviceDescription@@YAXXZ$115
	DD	073H
	DD	FLAT:__unwindfunclet$??__EstrDeviceDescription@@YAXXZ$116
	DD	074H
	DD	FLAT:__unwindfunclet$??__EstrDeviceDescription@@YAXXZ$117
	DD	075H
	DD	FLAT:__unwindfunclet$??__EstrDeviceDescription@@YAXXZ$118
	DD	076H
	DD	FLAT:__unwindfunclet$??__EstrDeviceDescription@@YAXXZ$119
	DD	077H
	DD	FLAT:__unwindfunclet$??__EstrDeviceDescription@@YAXXZ$120
	DD	078H
	DD	FLAT:__unwindfunclet$??__EstrDeviceDescription@@YAXXZ$121
	DD	079H
	DD	FLAT:__unwindfunclet$??__EstrDeviceDescription@@YAXXZ$122
	DD	07aH
	DD	FLAT:__unwindfunclet$??__EstrDeviceDescription@@YAXXZ$123
	DD	07bH
	DD	FLAT:__unwindfunclet$??__EstrDeviceDescription@@YAXXZ$124
	DD	07cH
	DD	FLAT:__unwindfunclet$??__EstrDeviceDescription@@YAXXZ$125
	DD	07dH
	DD	FLAT:__unwindfunclet$??__EstrDeviceDescription@@YAXXZ$126
	DD	07eH
	DD	FLAT:__unwindfunclet$??__EstrDeviceDescription@@YAXXZ$127
	DD	07fH
	DD	FLAT:__unwindfunclet$??__EstrDeviceDescription@@YAXXZ$128
	DD	080H
	DD	FLAT:__unwindfunclet$??__EstrDeviceDescription@@YAXXZ$129
	DD	081H
	DD	FLAT:__unwindfunclet$??__EstrDeviceDescription@@YAXXZ$130
	DD	082H
	DD	FLAT:__unwindfunclet$??__EstrDeviceDescription@@YAXXZ$131
	DD	083H
	DD	FLAT:__unwindfunclet$??__EstrDeviceDescription@@YAXXZ$132
	DD	084H
	DD	FLAT:__unwindfunclet$??__EstrDeviceDescription@@YAXXZ$133
	DD	085H
	DD	FLAT:__unwindfunclet$??__EstrDeviceDescription@@YAXXZ$134
	DD	086H
	DD	FLAT:__unwindfunclet$??__EstrDeviceDescription@@YAXXZ$135
	DD	087H
	DD	FLAT:__unwindfunclet$??__EstrDeviceDescription@@YAXXZ$136
	DD	088H
	DD	FLAT:__unwindfunclet$??__EstrDeviceDescription@@YAXXZ$137
	DD	089H
	DD	FLAT:__unwindfunclet$??__EstrDeviceDescription@@YAXXZ$138
	DD	08aH
	DD	FLAT:__unwindfunclet$??__EstrDeviceDescription@@YAXXZ$139
	DD	08bH
	DD	FLAT:__unwindfunclet$??__EstrDeviceDescription@@YAXXZ$140
	DD	08cH
	DD	FLAT:__unwindfunclet$??__EstrDeviceDescription@@YAXXZ$141
	DD	08dH
	DD	FLAT:__unwindfunclet$??__EstrDeviceDescription@@YAXXZ$142
	DD	08eH
	DD	FLAT:__unwindfunclet$??__EstrDeviceDescription@@YAXXZ$143
	DD	08fH
	DD	FLAT:__unwindfunclet$??__EstrDeviceDescription@@YAXXZ$144
	DD	090H
	DD	FLAT:__unwindfunclet$??__EstrDeviceDescription@@YAXXZ$145
	DD	091H
	DD	FLAT:__unwindfunclet$??__EstrDeviceDescription@@YAXXZ$146
	DD	092H
	DD	FLAT:__unwindfunclet$??__EstrDeviceDescription@@YAXXZ$147
	DD	093H
	DD	FLAT:__unwindfunclet$??__EstrDeviceDescription@@YAXXZ$148
	DD	094H
	DD	FLAT:__unwindfunclet$??__EstrDeviceDescription@@YAXXZ$149
	DD	095H
	DD	FLAT:__unwindfunclet$??__EstrDeviceDescription@@YAXXZ$150
	DD	096H
	DD	FLAT:__unwindfunclet$??__EstrDeviceDescription@@YAXXZ$151
	DD	097H
	DD	FLAT:__unwindfunclet$??__EstrDeviceDescription@@YAXXZ$152
	DD	098H
	DD	FLAT:__unwindfunclet$??__EstrDeviceDescription@@YAXXZ$153
	DD	099H
	DD	FLAT:__unwindfunclet$??__EstrDeviceDescription@@YAXXZ$154
	DD	09aH
	DD	FLAT:__unwindfunclet$??__EstrDeviceDescription@@YAXXZ$155
	DD	09bH
	DD	FLAT:__unwindfunclet$??__EstrDeviceDescription@@YAXXZ$156
	DD	09cH
	DD	FLAT:__unwindfunclet$??__EstrDeviceDescription@@YAXXZ$157
	DD	09dH
	DD	FLAT:__unwindfunclet$??__EstrDeviceDescription@@YAXXZ$158
	DD	09eH
	DD	FLAT:__unwindfunclet$??__EstrDeviceDescription@@YAXXZ$159
	DD	09fH
	DD	FLAT:__unwindfunclet$??__EstrDeviceDescription@@YAXXZ$160
	DD	0a0H
	DD	FLAT:__unwindfunclet$??__EstrDeviceDescription@@YAXXZ$161
	DD	0a1H
	DD	FLAT:__unwindfunclet$??__EstrDeviceDescription@@YAXXZ$162
	DD	0a2H
	DD	FLAT:__unwindfunclet$??__EstrDeviceDescription@@YAXXZ$163
	DD	0a3H
	DD	FLAT:__unwindfunclet$??__EstrDeviceDescription@@YAXXZ$164
	DD	0a4H
	DD	FLAT:__unwindfunclet$??__EstrDeviceDescription@@YAXXZ$165
	DD	0a5H
	DD	FLAT:__unwindfunclet$??__EstrDeviceDescription@@YAXXZ$166
	DD	0a6H
	DD	FLAT:__unwindfunclet$??__EstrDeviceDescription@@YAXXZ$167
	DD	0a7H
	DD	FLAT:__unwindfunclet$??__EstrDeviceDescription@@YAXXZ$168
	DD	0a8H
	DD	FLAT:__unwindfunclet$??__EstrDeviceDescription@@YAXXZ$169
	DD	0a9H
	DD	FLAT:__unwindfunclet$??__EstrDeviceDescription@@YAXXZ$170
	DD	0aaH
	DD	FLAT:__unwindfunclet$??__EstrDeviceDescription@@YAXXZ$171
	DD	0abH
	DD	FLAT:__unwindfunclet$??__EstrDeviceDescription@@YAXXZ$172
	DD	0acH
	DD	FLAT:__unwindfunclet$??__EstrDeviceDescription@@YAXXZ$173
	DD	0adH
	DD	FLAT:__unwindfunclet$??__EstrDeviceDescription@@YAXXZ$174
	DD	0aeH
	DD	FLAT:__unwindfunclet$??__EstrDeviceDescription@@YAXXZ$175
	DD	0afH
	DD	FLAT:__unwindfunclet$??__EstrDeviceDescription@@YAXXZ$176
	DD	0b0H
	DD	FLAT:__unwindfunclet$??__EstrDeviceDescription@@YAXXZ$177
; Function compile flags: /Odtp /RTCsu /ZI
xdata$x	ENDS
;	COMDAT ??__EstrDeviceDescription@@YAXXZ
text$yc	SEGMENT
__$EHRec$ = -12						; size = 12
??__EstrDeviceDescription@@YAXXZ PROC			; `dynamic initializer for 'strDeviceDescription'', COMDAT

; 218  : {

  00000	55		 push	 ebp
  00001	8b ec		 mov	 ebp, esp
  00003	6a ff		 push	 -1
  00005	68 00 00 00 00	 push	 __ehhandler$??__EstrDeviceDescription@@YAXXZ
  0000a	64 a1 00 00 00
	00		 mov	 eax, DWORD PTR fs:0
  00010	50		 push	 eax
  00011	81 ec c0 00 00
	00		 sub	 esp, 192		; 000000c0H
  00017	53		 push	 ebx
  00018	56		 push	 esi
  00019	57		 push	 edi
  0001a	8d bd 34 ff ff
	ff		 lea	 edi, DWORD PTR [ebp-204]
  00020	b9 30 00 00 00	 mov	 ecx, 48			; 00000030H
  00025	b8 cc cc cc cc	 mov	 eax, -858993460		; ccccccccH
  0002a	f3 ab		 rep stosd
  0002c	a1 00 00 00 00	 mov	 eax, DWORD PTR ___security_cookie
  00031	33 c5		 xor	 eax, ebp
  00033	50		 push	 eax
  00034	8d 45 f4	 lea	 eax, DWORD PTR __$EHRec$[ebp]
  00037	64 a3 00 00 00
	00		 mov	 DWORD PTR fs:0, eax

; 219  : 	_T(""),                // DEV_CMD_READ_DATA

  0003d	68 00 00 00 00	 push	 OFFSET ??_C@_19DAEIJEEB@?$IL?$PLQ?zepcn?$AA?$AA@
  00042	b9 00 00 00 00	 mov	 ecx, OFFSET _strDeviceDescription
  00047	e8 00 00 00 00	 call	 ??0?$CStringT@_WV?$StrTraitMFC@_WV?$ChTraitsCRT@_W@ATL@@@@@ATL@@QAE@PB_W@Z ; ATL::CStringT<wchar_t,StrTraitMFC<wchar_t,ATL::ChTraitsCRT<wchar_t> > >::CStringT<wchar_t,StrTraitMFC<wchar_t,ATL::ChTraitsCRT<wchar_t> > >
  0004c	c7 45 fc 00 00
	00 00		 mov	 DWORD PTR __$EHRec$[ebp+8], 0

; 220  : 	_T(""),

  00053	68 00 00 00 00	 push	 OFFSET ??_C@_19JCNDCNPG@Q?$JJQeepcn?$AA?$AA@
  00058	b9 04 00 00 00	 mov	 ecx, OFFSET _strDeviceDescription+4
  0005d	e8 00 00 00 00	 call	 ??0?$CStringT@_WV?$StrTraitMFC@_WV?$ChTraitsCRT@_W@ATL@@@@@ATL@@QAE@PB_W@Z ; ATL::CStringT<wchar_t,StrTraitMFC<wchar_t,ATL::ChTraitsCRT<wchar_t> > >::CStringT<wchar_t,StrTraitMFC<wchar_t,ATL::ChTraitsCRT<wchar_t> > >
  00062	c6 45 fc 01	 mov	 BYTE PTR __$EHRec$[ebp+8], 1

; 221  : 
; 222  : 	_T(""),

  00066	68 00 00 00 00	 push	 OFFSET ??_C@_19GMDECDPE@u5S?$IL?$IM?$ADet?$AA?$AA@
  0006b	b9 08 00 00 00	 mov	 ecx, OFFSET _strDeviceDescription+8
  00070	e8 00 00 00 00	 call	 ??0?$CStringT@_WV?$StrTraitMFC@_WV?$ChTraitsCRT@_W@ATL@@@@@ATL@@QAE@PB_W@Z ; ATL::CStringT<wchar_t,StrTraitMFC<wchar_t,ATL::ChTraitsCRT<wchar_t> > >::CStringT<wchar_t,StrTraitMFC<wchar_t,ATL::ChTraitsCRT<wchar_t> > >
  00075	c6 45 fc 02	 mov	 BYTE PTR __$EHRec$[ebp+8], 2

; 223  : 	_T("5V"),

  00079	68 00 00 00 00	 push	 OFFSET ??_C@_1M@JDFDJKPM@?$AA5?$AAVu5n?$JA_?$AA?$AA?$AA@
  0007e	b9 0c 00 00 00	 mov	 ecx, OFFSET _strDeviceDescription+12
  00083	e8 00 00 00 00	 call	 ??0?$CStringT@_WV?$StrTraitMFC@_WV?$ChTraitsCRT@_W@ATL@@@@@ATL@@QAE@PB_W@Z ; ATL::CStringT<wchar_t,StrTraitMFC<wchar_t,ATL::ChTraitsCRT<wchar_t> > >::CStringT<wchar_t,StrTraitMFC<wchar_t,ATL::ChTraitsCRT<wchar_t> > >
  00088	c6 45 fc 03	 mov	 BYTE PTR __$EHRec$[ebp+8], 3

; 224  : 	_T("5V"),

  0008c	68 00 00 00 00	 push	 OFFSET ??_C@_1M@OAEHLIIE@?$AA5?$AAVu5n?$JAQs?$AA?$AA@
  00091	b9 10 00 00 00	 mov	 ecx, OFFSET _strDeviceDescription+16
  00096	e8 00 00 00 00	 call	 ??0?$CStringT@_WV?$StrTraitMFC@_WV?$ChTraitsCRT@_W@ATL@@@@@ATL@@QAE@PB_W@Z ; ATL::CStringT<wchar_t,StrTraitMFC<wchar_t,ATL::ChTraitsCRT<wchar_t> > >::CStringT<wchar_t,StrTraitMFC<wchar_t,ATL::ChTraitsCRT<wchar_t> > >
  0009b	c6 45 fc 04	 mov	 BYTE PTR __$EHRec$[ebp+8], 4

; 225  : 	_T(""),

  0009f	68 00 00 00 00	 push	 OFFSET ??_C@_1BC@IMLEBOJD@g?e?$IL?bS?o?$IM?$ADu5n?$JAr?$LG?$GA?$AB?$AA?$AA@
  000a4	b9 14 00 00 00	 mov	 ecx, OFFSET _strDeviceDescription+20
  000a9	e8 00 00 00 00	 call	 ??0?$CStringT@_WV?$StrTraitMFC@_WV?$ChTraitsCRT@_W@ATL@@@@@ATL@@QAE@PB_W@Z ; ATL::CStringT<wchar_t,StrTraitMFC<wchar_t,ATL::ChTraitsCRT<wchar_t> > >::CStringT<wchar_t,StrTraitMFC<wchar_t,ATL::ChTraitsCRT<wchar_t> > >
  000ae	c6 45 fc 05	 mov	 BYTE PTR __$EHRec$[ebp+8], 5

; 226  : 
; 227  : 	_T("1KHz"),

  000b2	68 00 00 00 00	 push	 OFFSET ??_C@_19IDKGIMN@?$AA1?$AAK?$AAH?$AAz?$AA?$AA@
  000b7	b9 18 00 00 00	 mov	 ecx, OFFSET _strDeviceDescription+24
  000bc	e8 00 00 00 00	 call	 ??0?$CStringT@_WV?$StrTraitMFC@_WV?$ChTraitsCRT@_W@ATL@@@@@ATL@@QAE@PB_W@Z ; ATL::CStringT<wchar_t,StrTraitMFC<wchar_t,ATL::ChTraitsCRT<wchar_t> > >::CStringT<wchar_t,StrTraitMFC<wchar_t,ATL::ChTraitsCRT<wchar_t> > >
  000c1	c6 45 fc 06	 mov	 BYTE PTR __$EHRec$[ebp+8], 6

; 228  : 	_T("5KHz"),

  000c5	68 00 00 00 00	 push	 OFFSET ??_C@_19BNBMILH@?$AA5?$AAK?$AAH?$AAz?$AA?$AA@
  000ca	b9 1c 00 00 00	 mov	 ecx, OFFSET _strDeviceDescription+28
  000cf	e8 00 00 00 00	 call	 ??0?$CStringT@_WV?$StrTraitMFC@_WV?$ChTraitsCRT@_W@ATL@@@@@ATL@@QAE@PB_W@Z ; ATL::CStringT<wchar_t,StrTraitMFC<wchar_t,ATL::ChTraitsCRT<wchar_t> > >::CStringT<wchar_t,StrTraitMFC<wchar_t,ATL::ChTraitsCRT<wchar_t> > >
  000d4	c6 45 fc 07	 mov	 BYTE PTR __$EHRec$[ebp+8], 7

; 229  : 	_T("10KHz"),

  000d8	68 00 00 00 00	 push	 OFFSET ??_C@_1M@PACLNHIB@?$AA1?$AA0?$AAK?$AAH?$AAz?$AA?$AA@
  000dd	b9 20 00 00 00	 mov	 ecx, OFFSET _strDeviceDescription+32
  000e2	e8 00 00 00 00	 call	 ??0?$CStringT@_WV?$StrTraitMFC@_WV?$ChTraitsCRT@_W@ATL@@@@@ATL@@QAE@PB_W@Z ; ATL::CStringT<wchar_t,StrTraitMFC<wchar_t,ATL::ChTraitsCRT<wchar_t> > >::CStringT<wchar_t,StrTraitMFC<wchar_t,ATL::ChTraitsCRT<wchar_t> > >
  000e7	c6 45 fc 08	 mov	 BYTE PTR __$EHRec$[ebp+8], 8

; 230  : 	_T(""),

  000eb	68 00 00 00 00	 push	 OFFSET ??_C@_1O@JFCOMPKO@Qs?$JF?mO?aS?wN?$KHu?$BP?$AA?$AA@
  000f0	b9 24 00 00 00	 mov	 ecx, OFFSET _strDeviceDescription+36
  000f5	e8 00 00 00 00	 call	 ??0?$CStringT@_WV?$StrTraitMFC@_WV?$ChTraitsCRT@_W@ATL@@@@@ATL@@QAE@PB_W@Z ; ATL::CStringT<wchar_t,StrTraitMFC<wchar_t,ATL::ChTraitsCRT<wchar_t> > >::CStringT<wchar_t,StrTraitMFC<wchar_t,ATL::ChTraitsCRT<wchar_t> > >
  000fa	c6 45 fc 09	 mov	 BYTE PTR __$EHRec$[ebp+8], 9

; 231  : 
; 232  : 	_T("Ear-MICOLD"),

  000fe	68 00 00 00 00	 push	 OFFSET ??_C@_1BO@HBEFGNOA@?$AAE?$AAa?$AAr?$AA?9?$AAM?$AAI?$AAC?$IP?$JDQ?zbS_?$AA?$AAO?$AAL?$AAD?$AA?$AA@
  00103	b9 28 00 00 00	 mov	 ecx, OFFSET _strDeviceDescription+40
  00108	e8 00 00 00 00	 call	 ??0?$CStringT@_WV?$StrTraitMFC@_WV?$ChTraitsCRT@_W@ATL@@@@@ATL@@QAE@PB_W@Z ; ATL::CStringT<wchar_t,StrTraitMFC<wchar_t,ATL::ChTraitsCRT<wchar_t> > >::CStringT<wchar_t,StrTraitMFC<wchar_t,ATL::ChTraitsCRT<wchar_t> > >
  0010d	c6 45 fc 0a	 mov	 BYTE PTR __$EHRec$[ebp+8], 10 ; 0000000aH

; 233  : 	_T("Ear-MICOLD"),

  00111	68 00 00 00 00	 push	 OFFSET ??_C@_1BO@DHAJJEBC@?$AAE?$AAa?$AAr?$AA?9?$AAM?$AAI?$AAC?$IP?$JDQ?zQs?$JF?m?$AAO?$AAL?$AAD?$AA?$AA@
  00116	b9 2c 00 00 00	 mov	 ecx, OFFSET _strDeviceDescription+44
  0011b	e8 00 00 00 00	 call	 ??0?$CStringT@_WV?$StrTraitMFC@_WV?$ChTraitsCRT@_W@ATL@@@@@ATL@@QAE@PB_W@Z ; ATL::CStringT<wchar_t,StrTraitMFC<wchar_t,ATL::ChTraitsCRT<wchar_t> > >::CStringT<wchar_t,StrTraitMFC<wchar_t,ATL::ChTraitsCRT<wchar_t> > >
  00120	c6 45 fc 0b	 mov	 BYTE PTR __$EHRec$[ebp+8], 11 ; 0000000bH

; 234  : 	_T("MICOLD"),

  00124	68 00 00 00 00	 push	 OFFSET ??_C@_1BG@GGNAJMBA@?$AAM?$AAI?$AAC?$IP?$JDQ?zbS_?$AA?$AAO?$AAL?$AAD?$AA?$AA@
  00129	b9 30 00 00 00	 mov	 ecx, OFFSET _strDeviceDescription+48
  0012e	e8 00 00 00 00	 call	 ??0?$CStringT@_WV?$StrTraitMFC@_WV?$ChTraitsCRT@_W@ATL@@@@@ATL@@QAE@PB_W@Z ; ATL::CStringT<wchar_t,StrTraitMFC<wchar_t,ATL::ChTraitsCRT<wchar_t> > >::CStringT<wchar_t,StrTraitMFC<wchar_t,ATL::ChTraitsCRT<wchar_t> > >
  00133	c6 45 fc 0c	 mov	 BYTE PTR __$EHRec$[ebp+8], 12 ; 0000000cH

; 235  : 	_T("MICOLD"),

  00137	68 00 00 00 00	 push	 OFFSET ??_C@_1BG@CAJMGFOC@?$AAM?$AAI?$AAC?$IP?$JDQ?zQs?$JF?m?$AAO?$AAL?$AAD?$AA?$AA@
  0013c	b9 34 00 00 00	 mov	 ecx, OFFSET _strDeviceDescription+52
  00141	e8 00 00 00 00	 call	 ??0?$CStringT@_WV?$StrTraitMFC@_WV?$ChTraitsCRT@_W@ATL@@@@@ATL@@QAE@PB_W@Z ; ATL::CStringT<wchar_t,StrTraitMFC<wchar_t,ATL::ChTraitsCRT<wchar_t> > >::CStringT<wchar_t,StrTraitMFC<wchar_t,ATL::ChTraitsCRT<wchar_t> > >
  00146	c6 45 fc 0d	 mov	 BYTE PTR __$EHRec$[ebp+8], 13 ; 0000000dH

; 236  : 	_T("3"),

  0014a	68 00 00 00 00	 push	 OFFSET ??_C@_1BA@ELAIMPAO@z?oS?c?$AA3?$IP?$JDQ?zbS_?$AA?$AA?$AA@
  0014f	b9 38 00 00 00	 mov	 ecx, OFFSET _strDeviceDescription+56
  00154	e8 00 00 00 00	 call	 ??0?$CStringT@_WV?$StrTraitMFC@_WV?$ChTraitsCRT@_W@ATL@@@@@ATL@@QAE@PB_W@Z ; ATL::CStringT<wchar_t,StrTraitMFC<wchar_t,ATL::ChTraitsCRT<wchar_t> > >::CStringT<wchar_t,StrTraitMFC<wchar_t,ATL::ChTraitsCRT<wchar_t> > >
  00159	c6 45 fc 0e	 mov	 BYTE PTR __$EHRec$[ebp+8], 14 ; 0000000eH

; 237  : 	_T("3"),

  0015d	68 00 00 00 00	 push	 OFFSET ??_C@_1BA@BCAIICBN@z?oS?c?$AA3?$IP?$JDQ?zQs?$JF?m?$AA?$AA@
  00162	b9 3c 00 00 00	 mov	 ecx, OFFSET _strDeviceDescription+60
  00167	e8 00 00 00 00	 call	 ??0?$CStringT@_WV?$StrTraitMFC@_WV?$ChTraitsCRT@_W@ATL@@@@@ATL@@QAE@PB_W@Z ; ATL::CStringT<wchar_t,StrTraitMFC<wchar_t,ATL::ChTraitsCRT<wchar_t> > >::CStringT<wchar_t,StrTraitMFC<wchar_t,ATL::ChTraitsCRT<wchar_t> > >
  0016c	c6 45 fc 0f	 mov	 BYTE PTR __$EHRec$[ebp+8], 15 ; 0000000fH

; 238  : 	_T("Ear-MIC"),

  00170	68 00 00 00 00	 push	 OFFSET ??_C@_1CA@NHFOFAEC@?$AAE?$AAa?$AAr?$AA?9?$AAM?$AAI?$AAC?$IP?$JDQ?zz?oS?cr?$LG?$GA?$ABg?e?$IL?b?$AA?$AA@
  00175	b9 40 00 00 00	 mov	 ecx, OFFSET _strDeviceDescription+64
  0017a	e8 00 00 00 00	 call	 ??0?$CStringT@_WV?$StrTraitMFC@_WV?$ChTraitsCRT@_W@ATL@@@@@ATL@@QAE@PB_W@Z ; ATL::CStringT<wchar_t,StrTraitMFC<wchar_t,ATL::ChTraitsCRT<wchar_t> > >::CStringT<wchar_t,StrTraitMFC<wchar_t,ATL::ChTraitsCRT<wchar_t> > >
  0017f	c6 45 fc 10	 mov	 BYTE PTR __$EHRec$[ebp+8], 16 ; 00000010H

; 239  : 	_T("MIC"),

  00183	68 00 00 00 00	 push	 OFFSET ??_C@_1BI@JFIGEOA@?$AAM?$AAI?$AAC?$IP?$JDQ?zz?oS?cr?$LG?$GA?$ABg?e?$IL?b?$AA?$AA@
  00188	b9 44 00 00 00	 mov	 ecx, OFFSET _strDeviceDescription+68
  0018d	e8 00 00 00 00	 call	 ??0?$CStringT@_WV?$StrTraitMFC@_WV?$ChTraitsCRT@_W@ATL@@@@@ATL@@QAE@PB_W@Z ; ATL::CStringT<wchar_t,StrTraitMFC<wchar_t,ATL::ChTraitsCRT<wchar_t> > >::CStringT<wchar_t,StrTraitMFC<wchar_t,ATL::ChTraitsCRT<wchar_t> > >
  00192	c6 45 fc 11	 mov	 BYTE PTR __$EHRec$[ebp+8], 17 ; 00000011H

; 240  : 	_T("3"),

  00196	68 00 00 00 00	 push	 OFFSET ??_C@_1BE@EAPMLJIB@z?oS?c?$AA3?$IP?$JDQ?zr?$LG?$GA?$ABg?e?$IL?b?$AA?$AA@
  0019b	b9 48 00 00 00	 mov	 ecx, OFFSET _strDeviceDescription+72
  001a0	e8 00 00 00 00	 call	 ??0?$CStringT@_WV?$StrTraitMFC@_WV?$ChTraitsCRT@_W@ATL@@@@@ATL@@QAE@PB_W@Z ; ATL::CStringT<wchar_t,StrTraitMFC<wchar_t,ATL::ChTraitsCRT<wchar_t> > >::CStringT<wchar_t,StrTraitMFC<wchar_t,ATL::ChTraitsCRT<wchar_t> > >
  001a5	c6 45 fc 12	 mov	 BYTE PTR __$EHRec$[ebp+8], 18 ; 00000012H

; 241  : 
; 242  : 	_T("CALLOLD"),	//OLD

  001a9	68 00 00 00 00	 push	 OFFSET ??_C@_1BI@JILIBCEC@?$AAC?$AAA?$AAL?$AAL?$IP?$JDQebS_?$AA?$AAO?$AAL?$AAD?$AA?$AA@
  001ae	b9 4c 00 00 00	 mov	 ecx, OFFSET _strDeviceDescription+76
  001b3	e8 00 00 00 00	 call	 ??0?$CStringT@_WV?$StrTraitMFC@_WV?$ChTraitsCRT@_W@ATL@@@@@ATL@@QAE@PB_W@Z ; ATL::CStringT<wchar_t,StrTraitMFC<wchar_t,ATL::ChTraitsCRT<wchar_t> > >::CStringT<wchar_t,StrTraitMFC<wchar_t,ATL::ChTraitsCRT<wchar_t> > >
  001b8	c6 45 fc 13	 mov	 BYTE PTR __$EHRec$[ebp+8], 19 ; 00000013H

; 243  : 	_T("CALLOLD"),

  001bc	68 00 00 00 00	 push	 OFFSET ??_C@_1BI@NOPEOLLA@?$AAC?$AAA?$AAL?$AAL?$IP?$JDQeQs?$JF?m?$AAO?$AAL?$AAD?$AA?$AA@
  001c1	b9 50 00 00 00	 mov	 ecx, OFFSET _strDeviceDescription+80
  001c6	e8 00 00 00 00	 call	 ??0?$CStringT@_WV?$StrTraitMFC@_WV?$ChTraitsCRT@_W@ATL@@@@@ATL@@QAE@PB_W@Z ; ATL::CStringT<wchar_t,StrTraitMFC<wchar_t,ATL::ChTraitsCRT<wchar_t> > >::CStringT<wchar_t,StrTraitMFC<wchar_t,ATL::ChTraitsCRT<wchar_t> > >
  001cb	c6 45 fc 14	 mov	 BYTE PTR __$EHRec$[ebp+8], 20 ; 00000014H

; 244  : 	_T("SPKOLD"),

  001cf	68 00 00 00 00	 push	 OFFSET ??_C@_1BG@LIOLCFHE@?$AAS?$AAP?$AAK?$IP?$JDQebS_?$AA?$AAO?$AAL?$AAD?$AA?$AA@
  001d4	b9 54 00 00 00	 mov	 ecx, OFFSET _strDeviceDescription+84
  001d9	e8 00 00 00 00	 call	 ??0?$CStringT@_WV?$StrTraitMFC@_WV?$ChTraitsCRT@_W@ATL@@@@@ATL@@QAE@PB_W@Z ; ATL::CStringT<wchar_t,StrTraitMFC<wchar_t,ATL::ChTraitsCRT<wchar_t> > >::CStringT<wchar_t,StrTraitMFC<wchar_t,ATL::ChTraitsCRT<wchar_t> > >
  001de	c6 45 fc 15	 mov	 BYTE PTR __$EHRec$[ebp+8], 21 ; 00000015H

; 245  : 	_T("SPKOLD"),

  001e2	68 00 00 00 00	 push	 OFFSET ??_C@_1BG@POKHNMIG@?$AAS?$AAP?$AAK?$IP?$JDQeQs?$JF?m?$AAO?$AAL?$AAD?$AA?$AA@
  001e7	b9 58 00 00 00	 mov	 ecx, OFFSET _strDeviceDescription+88
  001ec	e8 00 00 00 00	 call	 ??0?$CStringT@_WV?$StrTraitMFC@_WV?$ChTraitsCRT@_W@ATL@@@@@ATL@@QAE@PB_W@Z ; ATL::CStringT<wchar_t,StrTraitMFC<wchar_t,ATL::ChTraitsCRT<wchar_t> > >::CStringT<wchar_t,StrTraitMFC<wchar_t,ATL::ChTraitsCRT<wchar_t> > >
  001f1	c6 45 fc 16	 mov	 BYTE PTR __$EHRec$[ebp+8], 22 ; 00000016H

; 246  : 	_T("OLD"),

  001f5	68 00 00 00 00	 push	 OFFSET ??_C@_1BE@BCLIDLLG@c?1?$FLP?$IP?$JDQebS_?$AA?$AAO?$AAL?$AAD?$AA?$AA@
  001fa	b9 5c 00 00 00	 mov	 ecx, OFFSET _strDeviceDescription+92
  001ff	e8 00 00 00 00	 call	 ??0?$CStringT@_WV?$StrTraitMFC@_WV?$ChTraitsCRT@_W@ATL@@@@@ATL@@QAE@PB_W@Z ; ATL::CStringT<wchar_t,StrTraitMFC<wchar_t,ATL::ChTraitsCRT<wchar_t> > >::CStringT<wchar_t,StrTraitMFC<wchar_t,ATL::ChTraitsCRT<wchar_t> > >
  00204	c6 45 fc 17	 mov	 BYTE PTR __$EHRec$[ebp+8], 23 ; 00000017H

; 247  : 	_T("OLD"),

  00208	68 00 00 00 00	 push	 OFFSET ??_C@_1BE@FEPEMCEE@c?1?$FLP?$IP?$JDQeQs?$JF?m?$AAO?$AAL?$AAD?$AA?$AA@
  0020d	b9 60 00 00 00	 mov	 ecx, OFFSET _strDeviceDescription+96
  00212	e8 00 00 00 00	 call	 ??0?$CStringT@_WV?$StrTraitMFC@_WV?$ChTraitsCRT@_W@ATL@@@@@ATL@@QAE@PB_W@Z ; ATL::CStringT<wchar_t,StrTraitMFC<wchar_t,ATL::ChTraitsCRT<wchar_t> > >::CStringT<wchar_t,StrTraitMFC<wchar_t,ATL::ChTraitsCRT<wchar_t> > >
  00217	c6 45 fc 18	 mov	 BYTE PTR __$EHRec$[ebp+8], 24 ; 00000018H

; 248  : 	_T("Ear-ROLD"),

  0021b	68 00 00 00 00	 push	 OFFSET ??_C@_1BK@NPNGPDEH@?$AAE?$AAa?$AAr?$AA?9?$AAR?$IP?$JDQebS_?$AA?$AAO?$AAL?$AAD?$AA?$AA@
  00220	b9 64 00 00 00	 mov	 ecx, OFFSET _strDeviceDescription+100
  00225	e8 00 00 00 00	 call	 ??0?$CStringT@_WV?$StrTraitMFC@_WV?$ChTraitsCRT@_W@ATL@@@@@ATL@@QAE@PB_W@Z ; ATL::CStringT<wchar_t,StrTraitMFC<wchar_t,ATL::ChTraitsCRT<wchar_t> > >::CStringT<wchar_t,StrTraitMFC<wchar_t,ATL::ChTraitsCRT<wchar_t> > >
  0022a	c6 45 fc 19	 mov	 BYTE PTR __$EHRec$[ebp+8], 25 ; 00000019H

; 249  : 	_T("Ear-ROLD"),

  0022e	68 00 00 00 00	 push	 OFFSET ??_C@_1BK@JJJKAKLF@?$AAE?$AAa?$AAr?$AA?9?$AAR?$IP?$JDQeQs?$JF?m?$AAO?$AAL?$AAD?$AA?$AA@
  00233	b9 68 00 00 00	 mov	 ecx, OFFSET _strDeviceDescription+104
  00238	e8 00 00 00 00	 call	 ??0?$CStringT@_WV?$StrTraitMFC@_WV?$ChTraitsCRT@_W@ATL@@@@@ATL@@QAE@PB_W@Z ; ATL::CStringT<wchar_t,StrTraitMFC<wchar_t,ATL::ChTraitsCRT<wchar_t> > >::CStringT<wchar_t,StrTraitMFC<wchar_t,ATL::ChTraitsCRT<wchar_t> > >
  0023d	c6 45 fc 1a	 mov	 BYTE PTR __$EHRec$[ebp+8], 26 ; 0000001aH

; 250  : 	_T("Ear-LOLD"),

  00241	68 00 00 00 00	 push	 OFFSET ??_C@_1BK@OIFILNNG@?$AAE?$AAa?$AAr?$AA?9?$AAL?$IP?$JDQebS_?$AA?$AAO?$AAL?$AAD?$AA?$AA@
  00246	b9 6c 00 00 00	 mov	 ecx, OFFSET _strDeviceDescription+108
  0024b	e8 00 00 00 00	 call	 ??0?$CStringT@_WV?$StrTraitMFC@_WV?$ChTraitsCRT@_W@ATL@@@@@ATL@@QAE@PB_W@Z ; ATL::CStringT<wchar_t,StrTraitMFC<wchar_t,ATL::ChTraitsCRT<wchar_t> > >::CStringT<wchar_t,StrTraitMFC<wchar_t,ATL::ChTraitsCRT<wchar_t> > >
  00250	c6 45 fc 1b	 mov	 BYTE PTR __$EHRec$[ebp+8], 27 ; 0000001bH

; 251  : 	_T("Ear-LOLD"),

  00254	68 00 00 00 00	 push	 OFFSET ??_C@_1BK@KOBEEECE@?$AAE?$AAa?$AAr?$AA?9?$AAL?$IP?$JDQeQs?$JF?m?$AAO?$AAL?$AAD?$AA?$AA@
  00259	b9 70 00 00 00	 mov	 ecx, OFFSET _strDeviceDescription+112
  0025e	e8 00 00 00 00	 call	 ??0?$CStringT@_WV?$StrTraitMFC@_WV?$ChTraitsCRT@_W@ATL@@@@@ATL@@QAE@PB_W@Z ; ATL::CStringT<wchar_t,StrTraitMFC<wchar_t,ATL::ChTraitsCRT<wchar_t> > >::CStringT<wchar_t,StrTraitMFC<wchar_t,ATL::ChTraitsCRT<wchar_t> > >
  00263	c6 45 fc 1c	 mov	 BYTE PTR __$EHRec$[ebp+8], 28 ; 0000001cH

; 252  : 	_T("6"),

  00267	68 00 00 00 00	 push	 OFFSET ??_C@_1BA@CFALBOED@z?oS?c?$AA6?$IP?$JDQebS_?$AA?$AA?$AA@
  0026c	b9 74 00 00 00	 mov	 ecx, OFFSET _strDeviceDescription+116
  00271	e8 00 00 00 00	 call	 ??0?$CStringT@_WV?$StrTraitMFC@_WV?$ChTraitsCRT@_W@ATL@@@@@ATL@@QAE@PB_W@Z ; ATL::CStringT<wchar_t,StrTraitMFC<wchar_t,ATL::ChTraitsCRT<wchar_t> > >::CStringT<wchar_t,StrTraitMFC<wchar_t,ATL::ChTraitsCRT<wchar_t> > >
  00276	c6 45 fc 1d	 mov	 BYTE PTR __$EHRec$[ebp+8], 29 ; 0000001dH

; 253  : 	_T("6"),

  0027a	68 00 00 00 00	 push	 OFFSET ??_C@_1BA@HMALFDFA@z?oS?c?$AA6?$IP?$JDQeQs?$JF?m?$AA?$AA@
  0027f	b9 78 00 00 00	 mov	 ecx, OFFSET _strDeviceDescription+120
  00284	e8 00 00 00 00	 call	 ??0?$CStringT@_WV?$StrTraitMFC@_WV?$ChTraitsCRT@_W@ATL@@@@@ATL@@QAE@PB_W@Z ; ATL::CStringT<wchar_t,StrTraitMFC<wchar_t,ATL::ChTraitsCRT<wchar_t> > >::CStringT<wchar_t,StrTraitMFC<wchar_t,ATL::ChTraitsCRT<wchar_t> > >
  00289	c6 45 fc 1e	 mov	 BYTE PTR __$EHRec$[ebp+8], 30 ; 0000001eH

; 254  : 	_T("7"),

  0028d	68 00 00 00 00	 push	 OFFSET ??_C@_1BA@LOKOFCCM@z?oS?c?$AA7?$IP?$JDQebS_?$AA?$AA?$AA@
  00292	b9 7c 00 00 00	 mov	 ecx, OFFSET _strDeviceDescription+124
  00297	e8 00 00 00 00	 call	 ??0?$CStringT@_WV?$StrTraitMFC@_WV?$ChTraitsCRT@_W@ATL@@@@@ATL@@QAE@PB_W@Z ; ATL::CStringT<wchar_t,StrTraitMFC<wchar_t,ATL::ChTraitsCRT<wchar_t> > >::CStringT<wchar_t,StrTraitMFC<wchar_t,ATL::ChTraitsCRT<wchar_t> > >
  0029c	c6 45 fc 1f	 mov	 BYTE PTR __$EHRec$[ebp+8], 31 ; 0000001fH

; 255  : 	_T("7"),

  002a0	68 00 00 00 00	 push	 OFFSET ??_C@_1BA@OHKOBPDP@z?oS?c?$AA7?$IP?$JDQeQs?$JF?m?$AA?$AA@
  002a5	b9 80 00 00 00	 mov	 ecx, OFFSET _strDeviceDescription+128
  002aa	e8 00 00 00 00	 call	 ??0?$CStringT@_WV?$StrTraitMFC@_WV?$ChTraitsCRT@_W@ATL@@@@@ATL@@QAE@PB_W@Z ; ATL::CStringT<wchar_t,StrTraitMFC<wchar_t,ATL::ChTraitsCRT<wchar_t> > >::CStringT<wchar_t,StrTraitMFC<wchar_t,ATL::ChTraitsCRT<wchar_t> > >
  002af	c6 45 fc 20	 mov	 BYTE PTR __$EHRec$[ebp+8], 32 ; 00000020H

; 256  : 	_T("Call"),

  002b3	68 00 00 00 00	 push	 OFFSET ??_C@_1BK@OHGADHML@?$AAC?$AAa?$AAl?$AAl?$IP?$JDQez?oS?cr?$LG?$GA?$ABg?e?$IL?b?$AA?$AA@
  002b8	b9 84 00 00 00	 mov	 ecx, OFFSET _strDeviceDescription+132
  002bd	e8 00 00 00 00	 call	 ??0?$CStringT@_WV?$StrTraitMFC@_WV?$ChTraitsCRT@_W@ATL@@@@@ATL@@QAE@PB_W@Z ; ATL::CStringT<wchar_t,StrTraitMFC<wchar_t,ATL::ChTraitsCRT<wchar_t> > >::CStringT<wchar_t,StrTraitMFC<wchar_t,ATL::ChTraitsCRT<wchar_t> > >
  002c2	c6 45 fc 21	 mov	 BYTE PTR __$EHRec$[ebp+8], 33 ; 00000021H

; 257  : 	_T("SPK"),

  002c6	68 00 00 00 00	 push	 OFFSET ??_C@_1BI@LKHEBPFA@?$AAS?$AAP?$AAK?$IP?$JDQez?oS?cr?$LG?$GA?$ABg?e?$IL?b?$AA?$AA@
  002cb	b9 88 00 00 00	 mov	 ecx, OFFSET _strDeviceDescription+136
  002d0	e8 00 00 00 00	 call	 ??0?$CStringT@_WV?$StrTraitMFC@_WV?$ChTraitsCRT@_W@ATL@@@@@ATL@@QAE@PB_W@Z ; ATL::CStringT<wchar_t,StrTraitMFC<wchar_t,ATL::ChTraitsCRT<wchar_t> > >::CStringT<wchar_t,StrTraitMFC<wchar_t,ATL::ChTraitsCRT<wchar_t> > >
  002d5	c6 45 fc 22	 mov	 BYTE PTR __$EHRec$[ebp+8], 34 ; 00000022H

; 258  : 	_T(""),

  002d9	68 00 00 00 00	 push	 OFFSET ??_C@_1BC@HKMBLFKL@c?1?$FLP?$IP?$JDQer?$LG?$GA?$ABg?e?$IL?b?$AA?$AA@
  002de	b9 8c 00 00 00	 mov	 ecx, OFFSET _strDeviceDescription+140
  002e3	e8 00 00 00 00	 call	 ??0?$CStringT@_WV?$StrTraitMFC@_WV?$ChTraitsCRT@_W@ATL@@@@@ATL@@QAE@PB_W@Z ; ATL::CStringT<wchar_t,StrTraitMFC<wchar_t,ATL::ChTraitsCRT<wchar_t> > >::CStringT<wchar_t,StrTraitMFC<wchar_t,ATL::ChTraitsCRT<wchar_t> > >
  002e8	c6 45 fc 23	 mov	 BYTE PTR __$EHRec$[ebp+8], 35 ; 00000023H

; 259  : 	_T("Ear-R"),

  002ec	68 00 00 00 00	 push	 OFFSET ??_C@_1BM@CBKPGKLM@?$AAE?$AAa?$AAr?$AA?9?$AAR?$IP?$JDQez?oS?cr?$LG?$GA?$ABg?e?$IL?b?$AA?$AA@
  002f1	b9 90 00 00 00	 mov	 ecx, OFFSET _strDeviceDescription+144
  002f6	e8 00 00 00 00	 call	 ??0?$CStringT@_WV?$StrTraitMFC@_WV?$ChTraitsCRT@_W@ATL@@@@@ATL@@QAE@PB_W@Z ; ATL::CStringT<wchar_t,StrTraitMFC<wchar_t,ATL::ChTraitsCRT<wchar_t> > >::CStringT<wchar_t,StrTraitMFC<wchar_t,ATL::ChTraitsCRT<wchar_t> > >
  002fb	c6 45 fc 24	 mov	 BYTE PTR __$EHRec$[ebp+8], 36 ; 00000024H

; 260  : 	_T("Ear-L"),

  002ff	68 00 00 00 00	 push	 OFFSET ??_C@_1BM@NIJBIKPO@?$AAE?$AAa?$AAr?$AA?9?$AAL?$IP?$JDQez?oS?cr?$LG?$GA?$ABg?e?$IL?b?$AA?$AA@
  00304	b9 94 00 00 00	 mov	 ecx, OFFSET _strDeviceDescription+148
  00309	e8 00 00 00 00	 call	 ??0?$CStringT@_WV?$StrTraitMFC@_WV?$ChTraitsCRT@_W@ATL@@@@@ATL@@QAE@PB_W@Z ; ATL::CStringT<wchar_t,StrTraitMFC<wchar_t,ATL::ChTraitsCRT<wchar_t> > >::CStringT<wchar_t,StrTraitMFC<wchar_t,ATL::ChTraitsCRT<wchar_t> > >
  0030e	c6 45 fc 25	 mov	 BYTE PTR __$EHRec$[ebp+8], 37 ; 00000025H

; 261  : 	_T("6"),

  00312	68 00 00 00 00	 push	 OFFSET ??_C@_1BE@CEOOHJPK@z?oS?c?$AA6?$IP?$JDQer?$LG?$GA?$ABg?e?$IL?b?$AA?$AA@
  00317	b9 98 00 00 00	 mov	 ecx, OFFSET _strDeviceDescription+152
  0031c	e8 00 00 00 00	 call	 ??0?$CStringT@_WV?$StrTraitMFC@_WV?$ChTraitsCRT@_W@ATL@@@@@ATL@@QAE@PB_W@Z ; ATL::CStringT<wchar_t,StrTraitMFC<wchar_t,ATL::ChTraitsCRT<wchar_t> > >::CStringT<wchar_t,StrTraitMFC<wchar_t,ATL::ChTraitsCRT<wchar_t> > >
  00321	c6 45 fc 26	 mov	 BYTE PTR __$EHRec$[ebp+8], 38 ; 00000026H

; 262  : 	_T("7"),

  00325	68 00 00 00 00	 push	 OFFSET ??_C@_1BE@IKIGOIGL@z?oS?c?$AA7?$IP?$JDQer?$LG?$GA?$ABg?e?$IL?b?$AA?$AA@
  0032a	b9 9c 00 00 00	 mov	 ecx, OFFSET _strDeviceDescription+156
  0032f	e8 00 00 00 00	 call	 ??0?$CStringT@_WV?$StrTraitMFC@_WV?$ChTraitsCRT@_W@ATL@@@@@ATL@@QAE@PB_W@Z ; ATL::CStringT<wchar_t,StrTraitMFC<wchar_t,ATL::ChTraitsCRT<wchar_t> > >::CStringT<wchar_t,StrTraitMFC<wchar_t,ATL::ChTraitsCRT<wchar_t> > >
  00334	c6 45 fc 27	 mov	 BYTE PTR __$EHRec$[ebp+8], 39 ; 00000027H

; 263  : 	_T(""),

  00338	68 00 00 00 00	 push	 OFFSET ??_C@_19CKIIAGBC@X?p?$JH?sh?$MAmK?$AA?$AA@
  0033d	b9 a0 00 00 00	 mov	 ecx, OFFSET _strDeviceDescription+160
  00342	e8 00 00 00 00	 call	 ??0?$CStringT@_WV?$StrTraitMFC@_WV?$ChTraitsCRT@_W@ATL@@@@@ATL@@QAE@PB_W@Z ; ATL::CStringT<wchar_t,StrTraitMFC<wchar_t,ATL::ChTraitsCRT<wchar_t> > >::CStringT<wchar_t,StrTraitMFC<wchar_t,ATL::ChTraitsCRT<wchar_t> > >
  00347	c6 45 fc 28	 mov	 BYTE PTR __$EHRec$[ebp+8], 40 ; 00000028H

; 264  : 
; 265  : 	_T(""),				// DEV_CMD_AD_VALUE_DETECT

  0034b	68 00 00 00 00	 push	 OFFSET ??_C@_19JDHNBCEO@u5mAh?$MAmK?$AA?$AA@
  00350	b9 a4 00 00 00	 mov	 ecx, OFFSET _strDeviceDescription+164
  00355	e8 00 00 00 00	 call	 ??0?$CStringT@_WV?$StrTraitMFC@_WV?$ChTraitsCRT@_W@ATL@@@@@ATL@@QAE@PB_W@Z ; ATL::CStringT<wchar_t,StrTraitMFC<wchar_t,ATL::ChTraitsCRT<wchar_t> > >::CStringT<wchar_t,StrTraitMFC<wchar_t,ATL::ChTraitsCRT<wchar_t> > >
  0035a	c6 45 fc 29	 mov	 BYTE PTR __$EHRec$[ebp+8], 41 ; 00000029H

; 266  : 	_T(""),

  0035e	68 00 00 00 00	 push	 OFFSET ??_C@_1O@ONKGILCD@RM?$JF?jQIpoh?$MAmK?$AA?$AA@
  00363	b9 a8 00 00 00	 mov	 ecx, OFFSET _strDeviceDescription+168
  00368	e8 00 00 00 00	 call	 ??0?$CStringT@_WV?$StrTraitMFC@_WV?$ChTraitsCRT@_W@ATL@@@@@ATL@@QAE@PB_W@Z ; ATL::CStringT<wchar_t,StrTraitMFC<wchar_t,ATL::ChTraitsCRT<wchar_t> > >::CStringT<wchar_t,StrTraitMFC<wchar_t,ATL::ChTraitsCRT<wchar_t> > >
  0036d	c6 45 fc 2a	 mov	 BYTE PTR __$EHRec$[ebp+8], 42 ; 0000002aH

; 267  : 	_T(""),			// DEV_CMD_FLASH_DETECT

  00371	68 00 00 00 00	 push	 OFFSET ??_C@_1O@HAJLIGNE@T?$AO?$JF?jQIpoh?$MAmK?$AA?$AA@
  00376	b9 ac 00 00 00	 mov	 ecx, OFFSET _strDeviceDescription+172
  0037b	e8 00 00 00 00	 call	 ??0?$CStringT@_WV?$StrTraitMFC@_WV?$ChTraitsCRT@_W@ATL@@@@@ATL@@QAE@PB_W@Z ; ATL::CStringT<wchar_t,StrTraitMFC<wchar_t,ATL::ChTraitsCRT<wchar_t> > >::CStringT<wchar_t,StrTraitMFC<wchar_t,ATL::ChTraitsCRT<wchar_t> > >
  00380	c6 45 fc 2b	 mov	 BYTE PTR __$EHRec$[ebp+8], 43 ; 0000002bH

; 268  : 
; 269  : 	_T(""),			// DEV_CMD_POWER_DOWN

  00384	68 00 00 00 00	 push	 OFFSET ??_C@_1M@NHELAGIL@u5n?$JA?$JF?4c?7N?$AL?$AA?$AA@
  00389	b9 b0 00 00 00	 mov	 ecx, OFFSET _strDeviceDescription+176
  0038e	e8 00 00 00 00	 call	 ??0?$CStringT@_WV?$StrTraitMFC@_WV?$ChTraitsCRT@_W@ATL@@@@@ATL@@QAE@PB_W@Z ; ATL::CStringT<wchar_t,StrTraitMFC<wchar_t,ATL::ChTraitsCRT<wchar_t> > >::CStringT<wchar_t,StrTraitMFC<wchar_t,ATL::ChTraitsCRT<wchar_t> > >
  00393	c6 45 fc 2c	 mov	 BYTE PTR __$EHRec$[ebp+8], 44 ; 0000002cH

; 270  : 	_T(""),

  00397	68 00 00 00 00	 push	 OFFSET ??_C@_1M@FOAGDJM@u5n?$JA?$JF?4_9?$INw?$AA?$AA@
  0039c	b9 b4 00 00 00	 mov	 ecx, OFFSET _strDeviceDescription+180
  003a1	e8 00 00 00 00	 call	 ??0?$CStringT@_WV?$StrTraitMFC@_WV?$ChTraitsCRT@_W@ATL@@@@@ATL@@QAE@PB_W@Z ; ATL::CStringT<wchar_t,StrTraitMFC<wchar_t,ATL::ChTraitsCRT<wchar_t> > >::CStringT<wchar_t,StrTraitMFC<wchar_t,ATL::ChTraitsCRT<wchar_t> > >
  003a6	c6 45 fc 2d	 mov	 BYTE PTR __$EHRec$[ebp+8], 45 ; 0000002dH

; 271  : 	_T("+"),

  003aa	68 00 00 00 00	 push	 OFFSET ??_C@_1M@ODMLOHGM@?$JH?s?$JB?O?$AA?$CLc?7N?$AL?$AA?$AA@
  003af	b9 b8 00 00 00	 mov	 ecx, OFFSET _strDeviceDescription+184
  003b4	e8 00 00 00 00	 call	 ??0?$CStringT@_WV?$StrTraitMFC@_WV?$ChTraitsCRT@_W@ATL@@@@@ATL@@QAE@PB_W@Z ; ATL::CStringT<wchar_t,StrTraitMFC<wchar_t,ATL::ChTraitsCRT<wchar_t> > >::CStringT<wchar_t,StrTraitMFC<wchar_t,ATL::ChTraitsCRT<wchar_t> > >
  003b9	c6 45 fc 2e	 mov	 BYTE PTR __$EHRec$[ebp+8], 46 ; 0000002eH

; 272  : 	_T("+"),

  003bd	68 00 00 00 00	 push	 OFFSET ??_C@_1M@DBGAICHL@?$JH?s?$JB?O?$AA?$CL_9?$INw?$AA?$AA@
  003c2	b9 bc 00 00 00	 mov	 ecx, OFFSET _strDeviceDescription+188
  003c7	e8 00 00 00 00	 call	 ??0?$CStringT@_WV?$StrTraitMFC@_WV?$ChTraitsCRT@_W@ATL@@@@@ATL@@QAE@PB_W@Z ; ATL::CStringT<wchar_t,StrTraitMFC<wchar_t,ATL::ChTraitsCRT<wchar_t> > >::CStringT<wchar_t,StrTraitMFC<wchar_t,ATL::ChTraitsCRT<wchar_t> > >
  003cc	c6 45 fc 2f	 mov	 BYTE PTR __$EHRec$[ebp+8], 47 ; 0000002fH

; 273  : 	_T("-"),

  003d0	68 00 00 00 00	 push	 OFFSET ??_C@_1M@CFKEOOOL@?$JH?s?$JB?O?$AA?9c?7N?$AL?$AA?$AA@
  003d5	b9 c0 00 00 00	 mov	 ecx, OFFSET _strDeviceDescription+192
  003da	e8 00 00 00 00	 call	 ??0?$CStringT@_WV?$StrTraitMFC@_WV?$ChTraitsCRT@_W@ATL@@@@@ATL@@QAE@PB_W@Z ; ATL::CStringT<wchar_t,StrTraitMFC<wchar_t,ATL::ChTraitsCRT<wchar_t> > >::CStringT<wchar_t,StrTraitMFC<wchar_t,ATL::ChTraitsCRT<wchar_t> > >
  003df	c6 45 fc 30	 mov	 BYTE PTR __$EHRec$[ebp+8], 48 ; 00000030H

; 274  : 	_T("-"),

  003e3	68 00 00 00 00	 push	 OFFSET ??_C@_1M@PHAPILPM@?$JH?s?$JB?O?$AA?9_9?$INw?$AA?$AA@
  003e8	b9 c4 00 00 00	 mov	 ecx, OFFSET _strDeviceDescription+196
  003ed	e8 00 00 00 00	 call	 ??0?$CStringT@_WV?$StrTraitMFC@_WV?$ChTraitsCRT@_W@ATL@@@@@ATL@@QAE@PB_W@Z ; ATL::CStringT<wchar_t,StrTraitMFC<wchar_t,ATL::ChTraitsCRT<wchar_t> > >::CStringT<wchar_t,StrTraitMFC<wchar_t,ATL::ChTraitsCRT<wchar_t> > >
  003f2	c6 45 fc 31	 mov	 BYTE PTR __$EHRec$[ebp+8], 49 ; 00000031H

; 275  : 	_T(""),

  003f6	68 00 00 00 00	 push	 OFFSET ??_C@_1O@EKFPDHCB@?$ICrSaQIn?$JAbS_?$AA?$AA?$AA@
  003fb	b9 c8 00 00 00	 mov	 ecx, OFFSET _strDeviceDescription+200
  00400	e8 00 00 00 00	 call	 ??0?$CStringT@_WV?$StrTraitMFC@_WV?$ChTraitsCRT@_W@ATL@@@@@ATL@@QAE@PB_W@Z ; ATL::CStringT<wchar_t,StrTraitMFC<wchar_t,ATL::ChTraitsCRT<wchar_t> > >::CStringT<wchar_t,StrTraitMFC<wchar_t,ATL::ChTraitsCRT<wchar_t> > >
  00405	c6 45 fc 32	 mov	 BYTE PTR __$EHRec$[ebp+8], 50 ; 00000032H

; 276  : 	_T(""),

  00409	68 00 00 00 00	 push	 OFFSET ??_C@_1O@BDFPHKDC@?$ICrSaQIn?$JAQs?$JF?m?$AA?$AA@
  0040e	b9 cc 00 00 00	 mov	 ecx, OFFSET _strDeviceDescription+204
  00413	e8 00 00 00 00	 call	 ??0?$CStringT@_WV?$StrTraitMFC@_WV?$ChTraitsCRT@_W@ATL@@@@@ATL@@QAE@PB_W@Z ; ATL::CStringT<wchar_t,StrTraitMFC<wchar_t,ATL::ChTraitsCRT<wchar_t> > >::CStringT<wchar_t,StrTraitMFC<wchar_t,ATL::ChTraitsCRT<wchar_t> > >
  00418	c6 45 fc 33	 mov	 BYTE PTR __$EHRec$[ebp+8], 51 ; 00000033H

; 277  : 	_T("1"),

  0041c	68 00 00 00 00	 push	 OFFSET ??_C@_1O@PAPFIMGF@?$IJ?fdx?$JF?4?$AA1c?7N?$AL?$AA?$AA@
  00421	b9 d0 00 00 00	 mov	 ecx, OFFSET _strDeviceDescription+208
  00426	e8 00 00 00 00	 call	 ??0?$CStringT@_WV?$StrTraitMFC@_WV?$ChTraitsCRT@_W@ATL@@@@@ATL@@QAE@PB_W@Z ; ATL::CStringT<wchar_t,StrTraitMFC<wchar_t,ATL::ChTraitsCRT<wchar_t> > >::CStringT<wchar_t,StrTraitMFC<wchar_t,ATL::ChTraitsCRT<wchar_t> > >
  0042b	c6 45 fc 34	 mov	 BYTE PTR __$EHRec$[ebp+8], 52 ; 00000034H

; 278  : 	_T("1"),

  0042f	68 00 00 00 00	 push	 OFFSET ??_C@_1O@CCFOOJHC@?$IJ?fdx?$JF?4?$AA1_9?$INw?$AA?$AA@
  00434	b9 d4 00 00 00	 mov	 ecx, OFFSET _strDeviceDescription+212
  00439	e8 00 00 00 00	 call	 ??0?$CStringT@_WV?$StrTraitMFC@_WV?$ChTraitsCRT@_W@ATL@@@@@ATL@@QAE@PB_W@Z ; ATL::CStringT<wchar_t,StrTraitMFC<wchar_t,ATL::ChTraitsCRT<wchar_t> > >::CStringT<wchar_t,StrTraitMFC<wchar_t,ATL::ChTraitsCRT<wchar_t> > >
  0043e	c6 45 fc 35	 mov	 BYTE PTR __$EHRec$[ebp+8], 53 ; 00000035H

; 279  : 	_T("2"),

  00442	68 00 00 00 00	 push	 OFFSET ??_C@_1O@HOHKILIG@?$IJ?fdx?$JF?4?$AA2c?7N?$AL?$AA?$AA@
  00447	b9 d8 00 00 00	 mov	 ecx, OFFSET _strDeviceDescription+216
  0044c	e8 00 00 00 00	 call	 ??0?$CStringT@_WV?$StrTraitMFC@_WV?$ChTraitsCRT@_W@ATL@@@@@ATL@@QAE@PB_W@Z ; ATL::CStringT<wchar_t,StrTraitMFC<wchar_t,ATL::ChTraitsCRT<wchar_t> > >::CStringT<wchar_t,StrTraitMFC<wchar_t,ATL::ChTraitsCRT<wchar_t> > >
  00451	c6 45 fc 36	 mov	 BYTE PTR __$EHRec$[ebp+8], 54 ; 00000036H

; 280  : 	_T("2"),

  00455	68 00 00 00 00	 push	 OFFSET ??_C@_1O@KMNBOOJB@?$IJ?fdx?$JF?4?$AA2_9?$INw?$AA?$AA@
  0045a	b9 dc 00 00 00	 mov	 ecx, OFFSET _strDeviceDescription+220
  0045f	e8 00 00 00 00	 call	 ??0?$CStringT@_WV?$StrTraitMFC@_WV?$ChTraitsCRT@_W@ATL@@@@@ATL@@QAE@PB_W@Z ; ATL::CStringT<wchar_t,StrTraitMFC<wchar_t,ATL::ChTraitsCRT<wchar_t> > >::CStringT<wchar_t,StrTraitMFC<wchar_t,ATL::ChTraitsCRT<wchar_t> > >
  00464	c6 45 fc 37	 mov	 BYTE PTR __$EHRec$[ebp+8], 55 ; 00000037H

; 281  : 	_T("3"),

  00468	68 00 00 00 00	 push	 OFFSET ??_C@_1O@LCNAILBI@?$IJ?fdx?$JF?4?$AA3c?7N?$AL?$AA?$AA@
  0046d	b9 e0 00 00 00	 mov	 ecx, OFFSET _strDeviceDescription+224
  00472	e8 00 00 00 00	 call	 ??0?$CStringT@_WV?$StrTraitMFC@_WV?$ChTraitsCRT@_W@ATL@@@@@ATL@@QAE@PB_W@Z ; ATL::CStringT<wchar_t,StrTraitMFC<wchar_t,ATL::ChTraitsCRT<wchar_t> > >::CStringT<wchar_t,StrTraitMFC<wchar_t,ATL::ChTraitsCRT<wchar_t> > >
  00477	c6 45 fc 38	 mov	 BYTE PTR __$EHRec$[ebp+8], 56 ; 00000038H

; 282  : 	_T("3"),

  0047b	68 00 00 00 00	 push	 OFFSET ??_C@_1O@GAHLOOAP@?$IJ?fdx?$JF?4?$AA3_9?$INw?$AA?$AA@
  00480	b9 e4 00 00 00	 mov	 ecx, OFFSET _strDeviceDescription+228
  00485	e8 00 00 00 00	 call	 ??0?$CStringT@_WV?$StrTraitMFC@_WV?$ChTraitsCRT@_W@ATL@@@@@ATL@@QAE@PB_W@Z ; ATL::CStringT<wchar_t,StrTraitMFC<wchar_t,ATL::ChTraitsCRT<wchar_t> > >::CStringT<wchar_t,StrTraitMFC<wchar_t,ATL::ChTraitsCRT<wchar_t> > >
  0048a	c6 45 fc 39	 mov	 BYTE PTR __$EHRec$[ebp+8], 57 ; 00000039H

; 283  : 	_T(""),

  0048e	68 00 00 00 00	 push	 OFFSET ??_C@_15DLJCGJAG@Qs?$HL?$LB?$AA?$AA@
  00493	b9 e8 00 00 00	 mov	 ecx, OFFSET _strDeviceDescription+232
  00498	e8 00 00 00 00	 call	 ??0?$CStringT@_WV?$StrTraitMFC@_WV?$ChTraitsCRT@_W@ATL@@@@@ATL@@QAE@PB_W@Z ; ATL::CStringT<wchar_t,StrTraitMFC<wchar_t,ATL::ChTraitsCRT<wchar_t> > >::CStringT<wchar_t,StrTraitMFC<wchar_t,ATL::ChTraitsCRT<wchar_t> > >
  0049d	c6 45 fc 3a	 mov	 BYTE PTR __$EHRec$[ebp+8], 58 ; 0000003aH

; 284  : 	_T(""),

  004a1	68 00 00 00 00	 push	 OFFSET ??_C@_1O@ENFMPAKO@Qs?$HL?$LBl?$BER?$KI?$JG?$AAQs?$AA?$AA@
  004a6	b9 ec 00 00 00	 mov	 ecx, OFFSET _strDeviceDescription+236
  004ab	e8 00 00 00 00	 call	 ??0?$CStringT@_WV?$StrTraitMFC@_WV?$ChTraitsCRT@_W@ATL@@@@@ATL@@QAE@PB_W@Z ; ATL::CStringT<wchar_t,StrTraitMFC<wchar_t,ATL::ChTraitsCRT<wchar_t> > >::CStringT<wchar_t,StrTraitMFC<wchar_t,ATL::ChTraitsCRT<wchar_t> > >
  004b0	c6 45 fc 3b	 mov	 BYTE PTR __$EHRec$[ebp+8], 59 ; 0000003bH

; 285  : 	_T(""),

  004b4	68 00 00 00 00	 push	 OFFSET ??_C@_15JBEKIAI@_?$AA?$HL?$LB?$AA?$AA@
  004b9	b9 f0 00 00 00	 mov	 ecx, OFFSET _strDeviceDescription+240
  004be	e8 00 00 00 00	 call	 ??0?$CStringT@_WV?$StrTraitMFC@_WV?$ChTraitsCRT@_W@ATL@@@@@ATL@@QAE@PB_W@Z ; ATL::CStringT<wchar_t,StrTraitMFC<wchar_t,ATL::ChTraitsCRT<wchar_t> > >::CStringT<wchar_t,StrTraitMFC<wchar_t,ATL::ChTraitsCRT<wchar_t> > >
  004c3	c6 45 fc 3c	 mov	 BYTE PTR __$EHRec$[ebp+8], 60 ; 0000003cH

; 286  : 	_T(""),

  004c7	68 00 00 00 00	 push	 OFFSET ??_C@_1O@CBLEGKIA@_?$AA?$HL?$LBl?$BER?$KI?$JG?$AAQs?$AA?$AA@
  004cc	b9 f4 00 00 00	 mov	 ecx, OFFSET _strDeviceDescription+244
  004d1	e8 00 00 00 00	 call	 ??0?$CStringT@_WV?$StrTraitMFC@_WV?$ChTraitsCRT@_W@ATL@@@@@ATL@@QAE@PB_W@Z ; ATL::CStringT<wchar_t,StrTraitMFC<wchar_t,ATL::ChTraitsCRT<wchar_t> > >::CStringT<wchar_t,StrTraitMFC<wchar_t,ATL::ChTraitsCRT<wchar_t> > >
  004d6	c6 45 fc 3d	 mov	 BYTE PTR __$EHRec$[ebp+8], 61 ; 0000003dH

; 287  : 	_T("OTG"),

  004da	68 00 00 00 00	 push	 OFFSET ??_C@_1M@OBMKFJKA@?$AAO?$AAT?$AAGh?$MAmK?$AA?$AA@
  004df	b9 f8 00 00 00	 mov	 ecx, OFFSET _strDeviceDescription+248
  004e4	e8 00 00 00 00	 call	 ??0?$CStringT@_WV?$StrTraitMFC@_WV?$ChTraitsCRT@_W@ATL@@@@@ATL@@QAE@PB_W@Z ; ATL::CStringT<wchar_t,StrTraitMFC<wchar_t,ATL::ChTraitsCRT<wchar_t> > >::CStringT<wchar_t,StrTraitMFC<wchar_t,ATL::ChTraitsCRT<wchar_t> > >
  004e9	c6 45 fc 3e	 mov	 BYTE PTR __$EHRec$[ebp+8], 62 ; 0000003eH

; 288  : 	_T("OTG"),

  004ed	68 00 00 00 00	 push	 OFFSET ??_C@_1M@MOFPAIKO@?$AAO?$AAT?$AAGY?$ANOM?$AA?$AA@
  004f2	b9 fc 00 00 00	 mov	 ecx, OFFSET _strDeviceDescription+252
  004f7	e8 00 00 00 00	 call	 ??0?$CStringT@_WV?$StrTraitMFC@_WV?$ChTraitsCRT@_W@ATL@@@@@ATL@@QAE@PB_W@Z ; ATL::CStringT<wchar_t,StrTraitMFC<wchar_t,ATL::ChTraitsCRT<wchar_t> > >::CStringT<wchar_t,StrTraitMFC<wchar_t,ATL::ChTraitsCRT<wchar_t> > >
  004fc	c6 45 fc 3f	 mov	 BYTE PTR __$EHRec$[ebp+8], 63 ; 0000003fH

; 289  : 	_T(""),

  00500	68 00 00 00 00	 push	 OFFSET ??_C@_1BA@EOLMABDM@v?$HNpo?$HL?$LBQIn?$JAbS_?$AA?$AA?$AA@
  00505	b9 00 01 00 00	 mov	 ecx, OFFSET _strDeviceDescription+256
  0050a	e8 00 00 00 00	 call	 ??0?$CStringT@_WV?$StrTraitMFC@_WV?$ChTraitsCRT@_W@ATL@@@@@ATL@@QAE@PB_W@Z ; ATL::CStringT<wchar_t,StrTraitMFC<wchar_t,ATL::ChTraitsCRT<wchar_t> > >::CStringT<wchar_t,StrTraitMFC<wchar_t,ATL::ChTraitsCRT<wchar_t> > >
  0050f	c6 45 fc 40	 mov	 BYTE PTR __$EHRec$[ebp+8], 64 ; 00000040H

; 290  : 	_T(""),

  00513	68 00 00 00 00	 push	 OFFSET ??_C@_1BA@BHLMEMCP@v?$HNpo?$HL?$LBQIn?$JAQs?$JF?m?$AA?$AA@
  00518	b9 04 01 00 00	 mov	 ecx, OFFSET _strDeviceDescription+260
  0051d	e8 00 00 00 00	 call	 ??0?$CStringT@_WV?$StrTraitMFC@_WV?$ChTraitsCRT@_W@ATL@@@@@ATL@@QAE@PB_W@Z ; ATL::CStringT<wchar_t,StrTraitMFC<wchar_t,ATL::ChTraitsCRT<wchar_t> > >::CStringT<wchar_t,StrTraitMFC<wchar_t,ATL::ChTraitsCRT<wchar_t> > >
  00522	c6 45 fc 41	 mov	 BYTE PTR __$EHRec$[ebp+8], 65 ; 00000041H

; 291  : 	_T(""),

  00526	68 00 00 00 00	 push	 OFFSET ??_C@_19KLIIFOKD@S?$ILg?$HPN?$ALS?$IL?$AA?$AA@
  0052b	b9 08 01 00 00	 mov	 ecx, OFFSET _strDeviceDescription+264
  00530	e8 00 00 00 00	 call	 ??0?$CStringT@_WV?$StrTraitMFC@_WV?$ChTraitsCRT@_W@ATL@@@@@ATL@@QAE@PB_W@Z ; ATL::CStringT<wchar_t,StrTraitMFC<wchar_t,ATL::ChTraitsCRT<wchar_t> > >::CStringT<wchar_t,StrTraitMFC<wchar_t,ATL::ChTraitsCRT<wchar_t> > >
  00535	c6 45 fc 42	 mov	 BYTE PTR __$EHRec$[ebp+8], 66 ; 00000042H

; 292  : 	_T(""),

  00539	68 00 00 00 00	 push	 OFFSET ??_C@_19OAAHAMNF@S?$ILg?$HPb?$KM?$INw?$AA?$AA@
  0053e	b9 0c 01 00 00	 mov	 ecx, OFFSET _strDeviceDescription+268
  00543	e8 00 00 00 00	 call	 ??0?$CStringT@_WV?$StrTraitMFC@_WV?$ChTraitsCRT@_W@ATL@@@@@ATL@@QAE@PB_W@Z ; ATL::CStringT<wchar_t,StrTraitMFC<wchar_t,ATL::ChTraitsCRT<wchar_t> > >::CStringT<wchar_t,StrTraitMFC<wchar_t,ATL::ChTraitsCRT<wchar_t> > >
  00548	c6 45 fc 43	 mov	 BYTE PTR __$EHRec$[ebp+8], 67 ; 00000043H

; 293  : 	_T(""),

  0054c	68 00 00 00 00	 push	 OFFSET ??_C@_19NOOCGPEC@?$JB?MR?$JLc?7N?$AL?$AA?$AA@
  00551	b9 10 01 00 00	 mov	 ecx, OFFSET _strDeviceDescription+272
  00556	e8 00 00 00 00	 call	 ??0?$CStringT@_WV?$StrTraitMFC@_WV?$ChTraitsCRT@_W@ATL@@@@@ATL@@QAE@PB_W@Z ; ATL::CStringT<wchar_t,StrTraitMFC<wchar_t,ATL::ChTraitsCRT<wchar_t> > >::CStringT<wchar_t,StrTraitMFC<wchar_t,ATL::ChTraitsCRT<wchar_t> > >
  0055b	c6 45 fc 44	 mov	 BYTE PTR __$EHRec$[ebp+8], 68 ; 00000044H

; 294  : 	_T(""),

  0055f	68 00 00 00 00	 push	 OFFSET ??_C@_19MEJAKFF@?$JB?MR?$JL_9?$INw?$AA?$AA@
  00564	b9 14 01 00 00	 mov	 ecx, OFFSET _strDeviceDescription+276
  00569	e8 00 00 00 00	 call	 ??0?$CStringT@_WV?$StrTraitMFC@_WV?$ChTraitsCRT@_W@ATL@@@@@ATL@@QAE@PB_W@Z ; ATL::CStringT<wchar_t,StrTraitMFC<wchar_t,ATL::ChTraitsCRT<wchar_t> > >::CStringT<wchar_t,StrTraitMFC<wchar_t,ATL::ChTraitsCRT<wchar_t> > >
  0056e	c6 45 fc 45	 mov	 BYTE PTR __$EHRec$[ebp+8], 69 ; 00000045H

; 295  : 	_T(""),

  00572	68 00 00 00 00	 push	 OFFSET ??_C@_19EDBKGACM@?$IA3g?3c?RQe?$AA?$AA@
  00577	b9 18 01 00 00	 mov	 ecx, OFFSET _strDeviceDescription+280
  0057c	e8 00 00 00 00	 call	 ??0?$CStringT@_WV?$StrTraitMFC@_WV?$ChTraitsCRT@_W@ATL@@@@@ATL@@QAE@PB_W@Z ; ATL::CStringT<wchar_t,StrTraitMFC<wchar_t,ATL::ChTraitsCRT<wchar_t> > >::CStringT<wchar_t,StrTraitMFC<wchar_t,ATL::ChTraitsCRT<wchar_t> > >
  00581	c6 45 fc 46	 mov	 BYTE PTR __$EHRec$[ebp+8], 70 ; 00000046H

; 296  : 	_T(""),

  00585	68 00 00 00 00	 push	 OFFSET ??_C@_19ENAAFLHD@?$IA3g?3b?TQ?z?$AA?$AA@
  0058a	b9 1c 01 00 00	 mov	 ecx, OFFSET _strDeviceDescription+284
  0058f	e8 00 00 00 00	 call	 ??0?$CStringT@_WV?$StrTraitMFC@_WV?$ChTraitsCRT@_W@ATL@@@@@ATL@@QAE@PB_W@Z ; ATL::CStringT<wchar_t,StrTraitMFC<wchar_t,ATL::ChTraitsCRT<wchar_t> > >::CStringT<wchar_t,StrTraitMFC<wchar_t,ATL::ChTraitsCRT<wchar_t> > >
  00594	c6 45 fc 47	 mov	 BYTE PTR __$EHRec$[ebp+8], 71 ; 00000047H

; 297  : 
; 298  : 	_T("LED"),

  00598	68 00 00 00 00	 push	 OFFSET ??_C@_1O@BAKACAEJ@?$HO?$PP?$ICr?$AAL?$AAE?$AADN?$KO?$AA?$AA@
  0059d	b9 20 01 00 00	 mov	 ecx, OFFSET _strDeviceDescription+288
  005a2	e8 00 00 00 00	 call	 ??0?$CStringT@_WV?$StrTraitMFC@_WV?$ChTraitsCRT@_W@ATL@@@@@ATL@@QAE@PB_W@Z ; ATL::CStringT<wchar_t,StrTraitMFC<wchar_t,ATL::ChTraitsCRT<wchar_t> > >::CStringT<wchar_t,StrTraitMFC<wchar_t,ATL::ChTraitsCRT<wchar_t> > >
  005a7	c6 45 fc 48	 mov	 BYTE PTR __$EHRec$[ebp+8], 72 ; 00000048H

; 299  : 	_T("LED"),

  005ab	68 00 00 00 00	 push	 OFFSET ??_C@_1O@FKKNKJDL@?$HO?$PP?$ICr?$AAL?$AAE?$AADpm?$AA?$AA@
  005b0	b9 24 01 00 00	 mov	 ecx, OFFSET _strDeviceDescription+292
  005b5	e8 00 00 00 00	 call	 ??0?$CStringT@_WV?$StrTraitMFC@_WV?$ChTraitsCRT@_W@ATL@@@@@ATL@@QAE@PB_W@Z ; ATL::CStringT<wchar_t,StrTraitMFC<wchar_t,ATL::ChTraitsCRT<wchar_t> > >::CStringT<wchar_t,StrTraitMFC<wchar_t,ATL::ChTraitsCRT<wchar_t> > >
  005ba	c6 45 fc 49	 mov	 BYTE PTR __$EHRec$[ebp+8], 73 ; 00000049H

; 300  : 	_T("LED"),

  005be	68 00 00 00 00	 push	 OFFSET ??_C@_1O@IAFBJLIP@?$HO?$KC?$ICr?$AAL?$AAE?$AADN?$KO?$AA?$AA@
  005c3	b9 28 01 00 00	 mov	 ecx, OFFSET _strDeviceDescription+296
  005c8	e8 00 00 00 00	 call	 ??0?$CStringT@_WV?$StrTraitMFC@_WV?$ChTraitsCRT@_W@ATL@@@@@ATL@@QAE@PB_W@Z ; ATL::CStringT<wchar_t,StrTraitMFC<wchar_t,ATL::ChTraitsCRT<wchar_t> > >::CStringT<wchar_t,StrTraitMFC<wchar_t,ATL::ChTraitsCRT<wchar_t> > >
  005cd	c6 45 fc 4a	 mov	 BYTE PTR __$EHRec$[ebp+8], 74 ; 0000004aH

; 301  : 	_T("LED"),

  005d1	68 00 00 00 00	 push	 OFFSET ??_C@_1O@MKFMBCPN@?$HO?$KC?$ICr?$AAL?$AAE?$AADpm?$AA?$AA@
  005d6	b9 2c 01 00 00	 mov	 ecx, OFFSET _strDeviceDescription+300
  005db	e8 00 00 00 00	 call	 ??0?$CStringT@_WV?$StrTraitMFC@_WV?$ChTraitsCRT@_W@ATL@@@@@ATL@@QAE@PB_W@Z ; ATL::CStringT<wchar_t,StrTraitMFC<wchar_t,ATL::ChTraitsCRT<wchar_t> > >::CStringT<wchar_t,StrTraitMFC<wchar_t,ATL::ChTraitsCRT<wchar_t> > >
  005e0	c6 45 fc 4b	 mov	 BYTE PTR __$EHRec$[ebp+8], 75 ; 0000004bH

; 302  : 
; 303  : 	_T(""),

  005e4	68 00 00 00 00	 push	 OFFSET ??_C@_1BA@DGGBIAA@u5n?$JA?$JF?4r?$LG?$GA?$ABg?e?$IL?b?$AA?$AA@
  005e9	b9 30 01 00 00	 mov	 ecx, OFFSET _strDeviceDescription+304
  005ee	e8 00 00 00 00	 call	 ??0?$CStringT@_WV?$StrTraitMFC@_WV?$ChTraitsCRT@_W@ATL@@@@@ATL@@QAE@PB_W@Z ; ATL::CStringT<wchar_t,StrTraitMFC<wchar_t,ATL::ChTraitsCRT<wchar_t> > >::CStringT<wchar_t,StrTraitMFC<wchar_t,ATL::ChTraitsCRT<wchar_t> > >
  005f3	c6 45 fc 4c	 mov	 BYTE PTR __$EHRec$[ebp+8], 76 ; 0000004cH

; 304  : 	_T("+"),

  005f7	68 00 00 00 00	 push	 OFFSET ??_C@_1BC@OKGJGPMC@?$JH?s?$JB?O?$AA?$CL?$JF?4r?$LG?$GA?$ABg?e?$IL?b?$AA?$AA@
  005fc	b9 34 01 00 00	 mov	 ecx, OFFSET _strDeviceDescription+308
  00601	e8 00 00 00 00	 call	 ??0?$CStringT@_WV?$StrTraitMFC@_WV?$ChTraitsCRT@_W@ATL@@@@@ATL@@QAE@PB_W@Z ; ATL::CStringT<wchar_t,StrTraitMFC<wchar_t,ATL::ChTraitsCRT<wchar_t> > >::CStringT<wchar_t,StrTraitMFC<wchar_t,ATL::ChTraitsCRT<wchar_t> > >
  00606	c6 45 fc 4d	 mov	 BYTE PTR __$EHRec$[ebp+8], 77 ; 0000004dH

; 305  : 	_T("-"),

  0060a	68 00 00 00 00	 push	 OFFSET ??_C@_1BC@BCKLCEHE@?$JH?s?$JB?O?$AA?9?$JF?4r?$LG?$GA?$ABg?e?$IL?b?$AA?$AA@
  0060f	b9 38 01 00 00	 mov	 ecx, OFFSET _strDeviceDescription+312
  00614	e8 00 00 00 00	 call	 ??0?$CStringT@_WV?$StrTraitMFC@_WV?$ChTraitsCRT@_W@ATL@@@@@ATL@@QAE@PB_W@Z ; ATL::CStringT<wchar_t,StrTraitMFC<wchar_t,ATL::ChTraitsCRT<wchar_t> > >::CStringT<wchar_t,StrTraitMFC<wchar_t,ATL::ChTraitsCRT<wchar_t> > >
  00619	c6 45 fc 4e	 mov	 BYTE PTR __$EHRec$[ebp+8], 78 ; 0000004eH

; 306  : 	_T(""),

  0061d	68 00 00 00 00	 push	 OFFSET ??_C@_1BI@OIEOGMJG@T?$AO?$HPndDP?OY4QIn?$JAr?$LG?$GA?$ABg?e?$IL?b?$AA?$AA@
  00622	b9 3c 01 00 00	 mov	 ecx, OFFSET _strDeviceDescription+316
  00627	e8 00 00 00 00	 call	 ??0?$CStringT@_WV?$StrTraitMFC@_WV?$ChTraitsCRT@_W@ATL@@@@@ATL@@QAE@PB_W@Z ; ATL::CStringT<wchar_t,StrTraitMFC<wchar_t,ATL::ChTraitsCRT<wchar_t> > >::CStringT<wchar_t,StrTraitMFC<wchar_t,ATL::ChTraitsCRT<wchar_t> > >
  0062c	c6 45 fc 4f	 mov	 BYTE PTR __$EHRec$[ebp+8], 79 ; 0000004fH

; 307  : 	_T("1"),

  00630	68 00 00 00 00	 push	 OFFSET ??_C@_1BC@GCIIGAA@?$IJ?fdx?$JF?4?$AA1r?$LG?$GA?$ABg?e?$IL?b?$AA?$AA@
  00635	b9 40 01 00 00	 mov	 ecx, OFFSET _strDeviceDescription+320
  0063a	e8 00 00 00 00	 call	 ??0?$CStringT@_WV?$StrTraitMFC@_WV?$ChTraitsCRT@_W@ATL@@@@@ATL@@QAE@PB_W@Z ; ATL::CStringT<wchar_t,StrTraitMFC<wchar_t,ATL::ChTraitsCRT<wchar_t> > >::CStringT<wchar_t,StrTraitMFC<wchar_t,ATL::ChTraitsCRT<wchar_t> > >
  0063f	c6 45 fc 50	 mov	 BYTE PTR __$EHRec$[ebp+8], 80 ; 00000050H

; 308  : 	_T("2"),

  00643	68 00 00 00 00	 push	 OFFSET ??_C@_1BC@HBLGFEPA@?$IJ?fdx?$JF?4?$AA2r?$LG?$GA?$ABg?e?$IL?b?$AA?$AA@
  00648	b9 44 01 00 00	 mov	 ecx, OFFSET _strDeviceDescription+324
  0064d	e8 00 00 00 00	 call	 ??0?$CStringT@_WV?$StrTraitMFC@_WV?$ChTraitsCRT@_W@ATL@@@@@ATL@@QAE@PB_W@Z ; ATL::CStringT<wchar_t,StrTraitMFC<wchar_t,ATL::ChTraitsCRT<wchar_t> > >::CStringT<wchar_t,StrTraitMFC<wchar_t,ATL::ChTraitsCRT<wchar_t> > >
  00652	c6 45 fc 51	 mov	 BYTE PTR __$EHRec$[ebp+8], 81 ; 00000051H

; 309  : 	_T("3"),

  00656	68 00 00 00 00	 push	 OFFSET ??_C@_1BC@OKBDBIJP@?$IJ?fdx?$JF?4?$AA3r?$LG?$GA?$ABg?e?$IL?b?$AA?$AA@
  0065b	b9 48 01 00 00	 mov	 ecx, OFFSET _strDeviceDescription+328
  00660	e8 00 00 00 00	 call	 ??0?$CStringT@_WV?$StrTraitMFC@_WV?$ChTraitsCRT@_W@ATL@@@@@ATL@@QAE@PB_W@Z ; ATL::CStringT<wchar_t,StrTraitMFC<wchar_t,ATL::ChTraitsCRT<wchar_t> > >::CStringT<wchar_t,StrTraitMFC<wchar_t,ATL::ChTraitsCRT<wchar_t> > >
  00665	c6 45 fc 52	 mov	 BYTE PTR __$EHRec$[ebp+8], 82 ; 00000052H

; 310  : 	_T("4"),

  00669	68 00 00 00 00	 push	 OFFSET ??_C@_1BC@JOILPBBA@?$IJ?fdx?$JF?4?$AA4r?$LG?$GA?$ABg?e?$IL?b?$AA?$AA@
  0066e	b9 4c 01 00 00	 mov	 ecx, OFFSET _strDeviceDescription+332
  00673	e8 00 00 00 00	 call	 ??0?$CStringT@_WV?$StrTraitMFC@_WV?$ChTraitsCRT@_W@ATL@@@@@ATL@@QAE@PB_W@Z ; ATL::CStringT<wchar_t,StrTraitMFC<wchar_t,ATL::ChTraitsCRT<wchar_t> > >::CStringT<wchar_t,StrTraitMFC<wchar_t,ATL::ChTraitsCRT<wchar_t> > >
  00678	c6 45 fc 53	 mov	 BYTE PTR __$EHRec$[ebp+8], 83 ; 00000053H

; 311  : 	_T(""),

  0067c	68 00 00 00 00	 push	 OFFSET ??_C@_1BA@HAJCONNC@v?$HNu?$DL?$JHbr?$LG?$GA?$ABg?e?$IL?b?$AA?$AA@
  00681	b9 50 01 00 00	 mov	 ecx, OFFSET _strDeviceDescription+336
  00686	e8 00 00 00 00	 call	 ??0?$CStringT@_WV?$StrTraitMFC@_WV?$ChTraitsCRT@_W@ATL@@@@@ATL@@QAE@PB_W@Z ; ATL::CStringT<wchar_t,StrTraitMFC<wchar_t,ATL::ChTraitsCRT<wchar_t> > >::CStringT<wchar_t,StrTraitMFC<wchar_t,ATL::ChTraitsCRT<wchar_t> > >
  0068b	c6 45 fc 54	 mov	 BYTE PTR __$EHRec$[ebp+8], 84 ; 00000054H

; 312  : 	_T(""),

  0068f	68 00 00 00 00	 push	 OFFSET ??_C@_1BA@JPAAFEIE@s?$KPX?$IDQIr?$LG?$GA?$ABg?e?$IL?b?$AA?$AA@
  00694	b9 54 01 00 00	 mov	 ecx, OFFSET _strDeviceDescription+340
  00699	e8 00 00 00 00	 call	 ??0?$CStringT@_WV?$StrTraitMFC@_WV?$ChTraitsCRT@_W@ATL@@@@@ATL@@QAE@PB_W@Z ; ATL::CStringT<wchar_t,StrTraitMFC<wchar_t,ATL::ChTraitsCRT<wchar_t> > >::CStringT<wchar_t,StrTraitMFC<wchar_t,ATL::ChTraitsCRT<wchar_t> > >
  0069e	c6 45 fc 55	 mov	 BYTE PTR __$EHRec$[ebp+8], 85 ; 00000055H

; 313  : 	_T(""),

  006a2	68 00 00 00 00	 push	 OFFSET ??_C@_1BI@HLEGENHB@RM?$HPndDP?OY4QIn?$JAr?$LG?$GA?$ABg?e?$IL?b?$AA?$AA@
  006a7	b9 58 01 00 00	 mov	 ecx, OFFSET _strDeviceDescription+344
  006ac	e8 00 00 00 00	 call	 ??0?$CStringT@_WV?$StrTraitMFC@_WV?$ChTraitsCRT@_W@ATL@@@@@ATL@@QAE@PB_W@Z ; ATL::CStringT<wchar_t,StrTraitMFC<wchar_t,ATL::ChTraitsCRT<wchar_t> > >::CStringT<wchar_t,StrTraitMFC<wchar_t,ATL::ChTraitsCRT<wchar_t> > >
  006b1	c6 45 fc 56	 mov	 BYTE PTR __$EHRec$[ebp+8], 86 ; 00000056H

; 314  : 	_T(""),

  006b5	68 00 00 00 00	 push	 OFFSET ??_C@_1O@JPFCJEFO@S?$ILg?$HPr?$LG?$GA?$ABg?e?$IL?b?$AA?$AA@
  006ba	b9 5c 01 00 00	 mov	 ecx, OFFSET _strDeviceDescription+348
  006bf	e8 00 00 00 00	 call	 ??0?$CStringT@_WV?$StrTraitMFC@_WV?$ChTraitsCRT@_W@ATL@@@@@ATL@@QAE@PB_W@Z ; ATL::CStringT<wchar_t,StrTraitMFC<wchar_t,ATL::ChTraitsCRT<wchar_t> > >::CStringT<wchar_t,StrTraitMFC<wchar_t,ATL::ChTraitsCRT<wchar_t> > >
  006c4	c6 45 fc 57	 mov	 BYTE PTR __$EHRec$[ebp+8], 87 ; 00000057H

; 315  : 	_T(""),

  006c8	68 00 00 00 00	 push	 OFFSET ??_C@_1BI@LEJMMEH@c?7?$JF?4pomK?$IL?US?$ILg?$HPr?$LG?$GA?$ABg?e?$IL?b?$AA?$AA@
  006cd	b9 60 01 00 00	 mov	 ecx, OFFSET _strDeviceDescription+352
  006d2	e8 00 00 00 00	 call	 ??0?$CStringT@_WV?$StrTraitMFC@_WV?$ChTraitsCRT@_W@ATL@@@@@ATL@@QAE@PB_W@Z ; ATL::CStringT<wchar_t,StrTraitMFC<wchar_t,ATL::ChTraitsCRT<wchar_t> > >::CStringT<wchar_t,StrTraitMFC<wchar_t,ATL::ChTraitsCRT<wchar_t> > >
  006d7	c6 45 fc 58	 mov	 BYTE PTR __$EHRec$[ebp+8], 88 ; 00000058H

; 316  : 	_T(""),

  006db	68 00 00 00 00	 push	 OFFSET ??_C@_1O@DIEEJPHG@?$IA3g?3r?$LG?$GA?$ABg?e?$IL?b?$AA?$AA@
  006e0	b9 64 01 00 00	 mov	 ecx, OFFSET _strDeviceDescription+356
  006e5	e8 00 00 00 00	 call	 ??0?$CStringT@_WV?$StrTraitMFC@_WV?$ChTraitsCRT@_W@ATL@@@@@ATL@@QAE@PB_W@Z ; ATL::CStringT<wchar_t,StrTraitMFC<wchar_t,ATL::ChTraitsCRT<wchar_t> > >::CStringT<wchar_t,StrTraitMFC<wchar_t,ATL::ChTraitsCRT<wchar_t> > >
  006ea	c6 45 fc 59	 mov	 BYTE PTR __$EHRec$[ebp+8], 89 ; 00000059H

; 317  : 	_T("LED"),

  006ee	68 00 00 00 00	 push	 OFFSET ??_C@_1BG@NHKCJCLL@?$HO?$PP?$ICr?$AAL?$AAE?$AADpor?$LG?$GA?$ABg?e?$IL?b?$AA?$AA@
  006f3	b9 68 01 00 00	 mov	 ecx, OFFSET _strDeviceDescription+360
  006f8	e8 00 00 00 00	 call	 ??0?$CStringT@_WV?$StrTraitMFC@_WV?$ChTraitsCRT@_W@ATL@@@@@ATL@@QAE@PB_W@Z ; ATL::CStringT<wchar_t,StrTraitMFC<wchar_t,ATL::ChTraitsCRT<wchar_t> > >::CStringT<wchar_t,StrTraitMFC<wchar_t,ATL::ChTraitsCRT<wchar_t> > >
  006fd	c6 45 fc 5a	 mov	 BYTE PTR __$EHRec$[ebp+8], 90 ; 0000005aH

; 318  : 	_T("LED"),

  00701	68 00 00 00 00	 push	 OFFSET ??_C@_1BG@EGNBCKPN@?$HO?$KC?$ICr?$AAL?$AAE?$AADpor?$LG?$GA?$ABg?e?$IL?b?$AA?$AA@
  00706	b9 6c 01 00 00	 mov	 ecx, OFFSET _strDeviceDescription+364
  0070b	e8 00 00 00 00	 call	 ??0?$CStringT@_WV?$StrTraitMFC@_WV?$ChTraitsCRT@_W@ATL@@@@@ATL@@QAE@PB_W@Z ; ATL::CStringT<wchar_t,StrTraitMFC<wchar_t,ATL::ChTraitsCRT<wchar_t> > >::CStringT<wchar_t,StrTraitMFC<wchar_t,ATL::ChTraitsCRT<wchar_t> > >
  00710	c6 45 fc 5b	 mov	 BYTE PTR __$EHRec$[ebp+8], 91 ; 0000005bH

; 319  : 
; 320  : 	_T(""),

  00714	68 00 00 00 00	 push	 OFFSET ??_C@_1O@IMJJJDFH@?$JH?s?$JI?$JB?$JA?$BK?$JASR?$AHcb?$AA?$AA@
  00719	b9 70 01 00 00	 mov	 ecx, OFFSET _strDeviceDescription+368
  0071e	e8 00 00 00 00	 call	 ??0?$CStringT@_WV?$StrTraitMFC@_WV?$ChTraitsCRT@_W@ATL@@@@@ATL@@QAE@PB_W@Z ; ATL::CStringT<wchar_t,StrTraitMFC<wchar_t,ATL::ChTraitsCRT<wchar_t> > >::CStringT<wchar_t,StrTraitMFC<wchar_t,ATL::ChTraitsCRT<wchar_t> > >
  00723	c6 45 fc 5c	 mov	 BYTE PTR __$EHRec$[ebp+8], 92 ; 0000005cH

; 321  : 	_T("REC"),

  00727	68 00 00 00 00	 push	 OFFSET ??_C@_1M@NMIIGKIK@?$AAR?$AAE?$AAC?$IM?$AD?$IC?$IC?$AA?$AA@
  0072c	b9 74 01 00 00	 mov	 ecx, OFFSET _strDeviceDescription+372
  00731	e8 00 00 00 00	 call	 ??0?$CStringT@_WV?$StrTraitMFC@_WV?$ChTraitsCRT@_W@ATL@@@@@ATL@@QAE@PB_W@Z ; ATL::CStringT<wchar_t,StrTraitMFC<wchar_t,ATL::ChTraitsCRT<wchar_t> > >::CStringT<wchar_t,StrTraitMFC<wchar_t,ATL::ChTraitsCRT<wchar_t> > >
  00736	c6 45 fc 5d	 mov	 BYTE PTR __$EHRec$[ebp+8], 93 ; 0000005dH

; 322  : 	_T("REC"),

  0073a	68 00 00 00 00	 push	 OFFSET ??_C@_1M@NMIIGKIK@?$AAR?$AAE?$AAC?$IM?$AD?$IC?$IC?$AA?$AA@
  0073f	b9 78 01 00 00	 mov	 ecx, OFFSET _strDeviceDescription+376
  00744	e8 00 00 00 00	 call	 ??0?$CStringT@_WV?$StrTraitMFC@_WV?$ChTraitsCRT@_W@ATL@@@@@ATL@@QAE@PB_W@Z ; ATL::CStringT<wchar_t,StrTraitMFC<wchar_t,ATL::ChTraitsCRT<wchar_t> > >::CStringT<wchar_t,StrTraitMFC<wchar_t,ATL::ChTraitsCRT<wchar_t> > >
  00749	c6 45 fc 5e	 mov	 BYTE PTR __$EHRec$[ebp+8], 94 ; 0000005eH

; 323  : 	_T("SPK1"),

  0074d	68 00 00 00 00	 push	 OFFSET ??_C@_1O@DBALADKF@?$AAS?$AAP?$AAK?$AA1?$IM?$AD?$IC?$IC?$AA?$AA@
  00752	b9 7c 01 00 00	 mov	 ecx, OFFSET _strDeviceDescription+380
  00757	e8 00 00 00 00	 call	 ??0?$CStringT@_WV?$StrTraitMFC@_WV?$ChTraitsCRT@_W@ATL@@@@@ATL@@QAE@PB_W@Z ; ATL::CStringT<wchar_t,StrTraitMFC<wchar_t,ATL::ChTraitsCRT<wchar_t> > >::CStringT<wchar_t,StrTraitMFC<wchar_t,ATL::ChTraitsCRT<wchar_t> > >
  0075c	c6 45 fc 5f	 mov	 BYTE PTR __$EHRec$[ebp+8], 95 ; 0000005fH

; 324  : 	_T("SPK1"),

  00760	68 00 00 00 00	 push	 OFFSET ??_C@_1O@DBALADKF@?$AAS?$AAP?$AAK?$AA1?$IM?$AD?$IC?$IC?$AA?$AA@
  00765	b9 80 01 00 00	 mov	 ecx, OFFSET _strDeviceDescription+384
  0076a	e8 00 00 00 00	 call	 ??0?$CStringT@_WV?$StrTraitMFC@_WV?$ChTraitsCRT@_W@ATL@@@@@ATL@@QAE@PB_W@Z ; ATL::CStringT<wchar_t,StrTraitMFC<wchar_t,ATL::ChTraitsCRT<wchar_t> > >::CStringT<wchar_t,StrTraitMFC<wchar_t,ATL::ChTraitsCRT<wchar_t> > >
  0076f	c6 45 fc 60	 mov	 BYTE PTR __$EHRec$[ebp+8], 96 ; 00000060H

; 325  : 	_T("SPK2"),

  00773	68 00 00 00 00	 push	 OFFSET ??_C@_1O@LPIEAEEG@?$AAS?$AAP?$AAK?$AA2?$IM?$AD?$IC?$IC?$AA?$AA@
  00778	b9 84 01 00 00	 mov	 ecx, OFFSET _strDeviceDescription+388
  0077d	e8 00 00 00 00	 call	 ??0?$CStringT@_WV?$StrTraitMFC@_WV?$ChTraitsCRT@_W@ATL@@@@@ATL@@QAE@PB_W@Z ; ATL::CStringT<wchar_t,StrTraitMFC<wchar_t,ATL::ChTraitsCRT<wchar_t> > >::CStringT<wchar_t,StrTraitMFC<wchar_t,ATL::ChTraitsCRT<wchar_t> > >
  00782	c6 45 fc 61	 mov	 BYTE PTR __$EHRec$[ebp+8], 97 ; 00000061H

; 326  : 	_T("SPK2"),

  00786	68 00 00 00 00	 push	 OFFSET ??_C@_1O@LPIEAEEG@?$AAS?$AAP?$AAK?$AA2?$IM?$AD?$IC?$IC?$AA?$AA@
  0078b	b9 88 01 00 00	 mov	 ecx, OFFSET _strDeviceDescription+392
  00790	e8 00 00 00 00	 call	 ??0?$CStringT@_WV?$StrTraitMFC@_WV?$ChTraitsCRT@_W@ATL@@@@@ATL@@QAE@PB_W@Z ; ATL::CStringT<wchar_t,StrTraitMFC<wchar_t,ATL::ChTraitsCRT<wchar_t> > >::CStringT<wchar_t,StrTraitMFC<wchar_t,ATL::ChTraitsCRT<wchar_t> > >
  00795	c6 45 fc 62	 mov	 BYTE PTR __$EHRec$[ebp+8], 98 ; 00000062H

; 327  : 	_T("VIB"),

  00799	68 00 00 00 00	 push	 OFFSET ??_C@_1M@JBILBOF@?$AAV?$AAI?$AAB?$IM?$AD?$IC?$IC?$AA?$AA@
  0079e	b9 8c 01 00 00	 mov	 ecx, OFFSET _strDeviceDescription+396
  007a3	e8 00 00 00 00	 call	 ??0?$CStringT@_WV?$StrTraitMFC@_WV?$ChTraitsCRT@_W@ATL@@@@@ATL@@QAE@PB_W@Z ; ATL::CStringT<wchar_t,StrTraitMFC<wchar_t,ATL::ChTraitsCRT<wchar_t> > >::CStringT<wchar_t,StrTraitMFC<wchar_t,ATL::ChTraitsCRT<wchar_t> > >
  007a8	c6 45 fc 63	 mov	 BYTE PTR __$EHRec$[ebp+8], 99 ; 00000063H

; 328  : 	_T("VIB"),

  007ac	68 00 00 00 00	 push	 OFFSET ??_C@_1M@JBILBOF@?$AAV?$AAI?$AAB?$IM?$AD?$IC?$IC?$AA?$AA@
  007b1	b9 90 01 00 00	 mov	 ecx, OFFSET _strDeviceDescription+400
  007b6	e8 00 00 00 00	 call	 ??0?$CStringT@_WV?$StrTraitMFC@_WV?$ChTraitsCRT@_W@ATL@@@@@ATL@@QAE@PB_W@Z ; ATL::CStringT<wchar_t,StrTraitMFC<wchar_t,ATL::ChTraitsCRT<wchar_t> > >::CStringT<wchar_t,StrTraitMFC<wchar_t,ATL::ChTraitsCRT<wchar_t> > >
  007bb	c6 45 fc 64	 mov	 BYTE PTR __$EHRec$[ebp+8], 100 ; 00000064H

; 329  : 	_T("EAR-L"),

  007bf	68 00 00 00 00	 push	 OFFSET ??_C@_1BA@NIGHIMPD@?$AAE?$AAA?$AAR?$AA?9?$AAL?$IM?$AD?$IC?$IC?$AA?$AA@
  007c4	b9 94 01 00 00	 mov	 ecx, OFFSET _strDeviceDescription+404
  007c9	e8 00 00 00 00	 call	 ??0?$CStringT@_WV?$StrTraitMFC@_WV?$ChTraitsCRT@_W@ATL@@@@@ATL@@QAE@PB_W@Z ; ATL::CStringT<wchar_t,StrTraitMFC<wchar_t,ATL::ChTraitsCRT<wchar_t> > >::CStringT<wchar_t,StrTraitMFC<wchar_t,ATL::ChTraitsCRT<wchar_t> > >
  007ce	c6 45 fc 65	 mov	 BYTE PTR __$EHRec$[ebp+8], 101 ; 00000065H

; 330  : 	_T("EAR-L"),

  007d2	68 00 00 00 00	 push	 OFFSET ??_C@_1BA@NIGHIMPD@?$AAE?$AAA?$AAR?$AA?9?$AAL?$IM?$AD?$IC?$IC?$AA?$AA@
  007d7	b9 98 01 00 00	 mov	 ecx, OFFSET _strDeviceDescription+408
  007dc	e8 00 00 00 00	 call	 ??0?$CStringT@_WV?$StrTraitMFC@_WV?$ChTraitsCRT@_W@ATL@@@@@ATL@@QAE@PB_W@Z ; ATL::CStringT<wchar_t,StrTraitMFC<wchar_t,ATL::ChTraitsCRT<wchar_t> > >::CStringT<wchar_t,StrTraitMFC<wchar_t,ATL::ChTraitsCRT<wchar_t> > >
  007e1	c6 45 fc 66	 mov	 BYTE PTR __$EHRec$[ebp+8], 102 ; 00000066H

; 331  : 	_T("EAR-R"),

  007e5	68 00 00 00 00	 push	 OFFSET ??_C@_1BA@LBFGKPOK@?$AAE?$AAA?$AAR?$AA?9?$AAR?$IM?$AD?$IC?$IC?$AA?$AA@
  007ea	b9 9c 01 00 00	 mov	 ecx, OFFSET _strDeviceDescription+412
  007ef	e8 00 00 00 00	 call	 ??0?$CStringT@_WV?$StrTraitMFC@_WV?$ChTraitsCRT@_W@ATL@@@@@ATL@@QAE@PB_W@Z ; ATL::CStringT<wchar_t,StrTraitMFC<wchar_t,ATL::ChTraitsCRT<wchar_t> > >::CStringT<wchar_t,StrTraitMFC<wchar_t,ATL::ChTraitsCRT<wchar_t> > >
  007f4	c6 45 fc 67	 mov	 BYTE PTR __$EHRec$[ebp+8], 103 ; 00000067H

; 332  : 	_T("EAR-R"),

  007f8	68 00 00 00 00	 push	 OFFSET ??_C@_1BA@LBFGKPOK@?$AAE?$AAA?$AAR?$AA?9?$AAR?$IM?$AD?$IC?$IC?$AA?$AA@
  007fd	b9 a0 01 00 00	 mov	 ecx, OFFSET _strDeviceDescription+416
  00802	e8 00 00 00 00	 call	 ??0?$CStringT@_WV?$StrTraitMFC@_WV?$ChTraitsCRT@_W@ATL@@@@@ATL@@QAE@PB_W@Z ; ATL::CStringT<wchar_t,StrTraitMFC<wchar_t,ATL::ChTraitsCRT<wchar_t> > >::CStringT<wchar_t,StrTraitMFC<wchar_t,ATL::ChTraitsCRT<wchar_t> > >
  00807	c6 45 fc 68	 mov	 BYTE PTR __$EHRec$[ebp+8], 104 ; 00000068H

; 333  : 	_T("EAR-MIC"),

  0080b	68 00 00 00 00	 push	 OFFSET ??_C@_1BE@LCPCPGGH@?$AAE?$AAA?$AAR?$AA?9?$AAM?$AAI?$AAC?$IM?$AD?$IC?$IC?$AA?$AA@
  00810	b9 a4 01 00 00	 mov	 ecx, OFFSET _strDeviceDescription+420
  00815	e8 00 00 00 00	 call	 ??0?$CStringT@_WV?$StrTraitMFC@_WV?$ChTraitsCRT@_W@ATL@@@@@ATL@@QAE@PB_W@Z ; ATL::CStringT<wchar_t,StrTraitMFC<wchar_t,ATL::ChTraitsCRT<wchar_t> > >::CStringT<wchar_t,StrTraitMFC<wchar_t,ATL::ChTraitsCRT<wchar_t> > >
  0081a	c6 45 fc 69	 mov	 BYTE PTR __$EHRec$[ebp+8], 105 ; 00000069H

; 334  : 	_T("EAR-MIC"),

  0081e	68 00 00 00 00	 push	 OFFSET ??_C@_1BE@LCPCPGGH@?$AAE?$AAA?$AAR?$AA?9?$AAM?$AAI?$AAC?$IM?$AD?$IC?$IC?$AA?$AA@
  00823	b9 a8 01 00 00	 mov	 ecx, OFFSET _strDeviceDescription+424
  00828	e8 00 00 00 00	 call	 ??0?$CStringT@_WV?$StrTraitMFC@_WV?$ChTraitsCRT@_W@ATL@@@@@ATL@@QAE@PB_W@Z ; ATL::CStringT<wchar_t,StrTraitMFC<wchar_t,ATL::ChTraitsCRT<wchar_t> > >::CStringT<wchar_t,StrTraitMFC<wchar_t,ATL::ChTraitsCRT<wchar_t> > >
  0082d	c6 45 fc 6a	 mov	 BYTE PTR __$EHRec$[ebp+8], 106 ; 0000006aH

; 335  : 	_T("MIC"),

  00831	68 00 00 00 00	 push	 OFFSET ??_C@_1M@LIDIPIIJ@?$AAM?$AAI?$AAC?$IM?$AD?$IC?$IC?$AA?$AA@
  00836	b9 ac 01 00 00	 mov	 ecx, OFFSET _strDeviceDescription+428
  0083b	e8 00 00 00 00	 call	 ??0?$CStringT@_WV?$StrTraitMFC@_WV?$ChTraitsCRT@_W@ATL@@@@@ATL@@QAE@PB_W@Z ; ATL::CStringT<wchar_t,StrTraitMFC<wchar_t,ATL::ChTraitsCRT<wchar_t> > >::CStringT<wchar_t,StrTraitMFC<wchar_t,ATL::ChTraitsCRT<wchar_t> > >
  00840	c6 45 fc 6b	 mov	 BYTE PTR __$EHRec$[ebp+8], 107 ; 0000006bH

; 336  : 	_T("MIC"),

  00844	68 00 00 00 00	 push	 OFFSET ??_C@_1M@LIDIPIIJ@?$AAM?$AAI?$AAC?$IM?$AD?$IC?$IC?$AA?$AA@
  00849	b9 b0 01 00 00	 mov	 ecx, OFFSET _strDeviceDescription+432
  0084e	e8 00 00 00 00	 call	 ??0?$CStringT@_WV?$StrTraitMFC@_WV?$ChTraitsCRT@_W@ATL@@@@@ATL@@QAE@PB_W@Z ; ATL::CStringT<wchar_t,StrTraitMFC<wchar_t,ATL::ChTraitsCRT<wchar_t> > >::CStringT<wchar_t,StrTraitMFC<wchar_t,ATL::ChTraitsCRT<wchar_t> > >
  00853	c6 45 fc 6c	 mov	 BYTE PTR __$EHRec$[ebp+8], 108 ; 0000006cH

; 337  : 	_T("4"),

  00857	68 00 00 00 00	 push	 OFFSET ??_C@_1O@LIBFICAB@?$IJ?fdx?$JF?4?$AA4c?7N?$AL?$AA?$AA@
  0085c	b9 b4 01 00 00	 mov	 ecx, OFFSET _strDeviceDescription+436
  00861	e8 00 00 00 00	 call	 ??0?$CStringT@_WV?$StrTraitMFC@_WV?$ChTraitsCRT@_W@ATL@@@@@ATL@@QAE@PB_W@Z ; ATL::CStringT<wchar_t,StrTraitMFC<wchar_t,ATL::ChTraitsCRT<wchar_t> > >::CStringT<wchar_t,StrTraitMFC<wchar_t,ATL::ChTraitsCRT<wchar_t> > >
  00866	c6 45 fc 6d	 mov	 BYTE PTR __$EHRec$[ebp+8], 109 ; 0000006dH

; 338  : 	_T("4"),

  0086a	68 00 00 00 00	 push	 OFFSET ??_C@_1O@GKLOOHBG@?$IJ?fdx?$JF?4?$AA4_9?$INw?$AA?$AA@
  0086f	b9 b8 01 00 00	 mov	 ecx, OFFSET _strDeviceDescription+440
  00874	e8 00 00 00 00	 call	 ??0?$CStringT@_WV?$StrTraitMFC@_WV?$ChTraitsCRT@_W@ATL@@@@@ATL@@QAE@PB_W@Z ; ATL::CStringT<wchar_t,StrTraitMFC<wchar_t,ATL::ChTraitsCRT<wchar_t> > >::CStringT<wchar_t,StrTraitMFC<wchar_t,ATL::ChTraitsCRT<wchar_t> > >
  00879	c6 45 fc 6e	 mov	 BYTE PTR __$EHRec$[ebp+8], 110 ; 0000006eH

; 339  : 	_T("5"),

  0087d	68 00 00 00 00	 push	 OFFSET ??_C@_1O@HELPICJP@?$IJ?fdx?$JF?4?$AA5c?7N?$AL?$AA?$AA@
  00882	b9 bc 01 00 00	 mov	 ecx, OFFSET _strDeviceDescription+444
  00887	e8 00 00 00 00	 call	 ??0?$CStringT@_WV?$StrTraitMFC@_WV?$ChTraitsCRT@_W@ATL@@@@@ATL@@QAE@PB_W@Z ; ATL::CStringT<wchar_t,StrTraitMFC<wchar_t,ATL::ChTraitsCRT<wchar_t> > >::CStringT<wchar_t,StrTraitMFC<wchar_t,ATL::ChTraitsCRT<wchar_t> > >
  0088c	c6 45 fc 6f	 mov	 BYTE PTR __$EHRec$[ebp+8], 111 ; 0000006fH

; 340  : 	_T("5"),

  00890	68 00 00 00 00	 push	 OFFSET ??_C@_1O@KGBEOHII@?$IJ?fdx?$JF?4?$AA5_9?$INw?$AA?$AA@
  00895	b9 c0 01 00 00	 mov	 ecx, OFFSET _strDeviceDescription+448
  0089a	e8 00 00 00 00	 call	 ??0?$CStringT@_WV?$StrTraitMFC@_WV?$ChTraitsCRT@_W@ATL@@@@@ATL@@QAE@PB_W@Z ; ATL::CStringT<wchar_t,StrTraitMFC<wchar_t,ATL::ChTraitsCRT<wchar_t> > >::CStringT<wchar_t,StrTraitMFC<wchar_t,ATL::ChTraitsCRT<wchar_t> > >
  0089f	c6 45 fc 70	 mov	 BYTE PTR __$EHRec$[ebp+8], 112 ; 00000070H

; 341  : 	_T(""),

  008a3	68 00 00 00 00	 push	 OFFSET ??_C@_1M@BBGGFOI@N?$DL?$JIu?$JF?4c?7N?$AL?$AA?$AA@
  008a8	b9 c4 01 00 00	 mov	 ecx, OFFSET _strDeviceDescription+452
  008ad	e8 00 00 00 00	 call	 ??0?$CStringT@_WV?$StrTraitMFC@_WV?$ChTraitsCRT@_W@ATL@@@@@ATL@@QAE@PB_W@Z ; ATL::CStringT<wchar_t,StrTraitMFC<wchar_t,ATL::ChTraitsCRT<wchar_t> > >::CStringT<wchar_t,StrTraitMFC<wchar_t,ATL::ChTraitsCRT<wchar_t> > >
  008b2	c6 45 fc 71	 mov	 BYTE PTR __$EHRec$[ebp+8], 113 ; 00000071H

; 342  : 	_T(""),

  008b6	68 00 00 00 00	 push	 OFFSET ??_C@_1M@NDLNAAPP@N?$DL?$JIu?$JF?4_9?$INw?$AA?$AA@
  008bb	b9 c8 01 00 00	 mov	 ecx, OFFSET _strDeviceDescription+456
  008c0	e8 00 00 00 00	 call	 ??0?$CStringT@_WV?$StrTraitMFC@_WV?$ChTraitsCRT@_W@ATL@@@@@ATL@@QAE@PB_W@Z ; ATL::CStringT<wchar_t,StrTraitMFC<wchar_t,ATL::ChTraitsCRT<wchar_t> > >::CStringT<wchar_t,StrTraitMFC<wchar_t,ATL::ChTraitsCRT<wchar_t> > >
  008c5	c6 45 fc 72	 mov	 BYTE PTR __$EHRec$[ebp+8], 114 ; 00000072H

; 343  : 	_T(""),

  008c9	68 00 00 00 00	 push	 OFFSET ??_C@_1M@CCOJHALN@?$ID?$NMSU?$JF?4c?7N?$AL?$AA?$AA@
  008ce	b9 cc 01 00 00	 mov	 ecx, OFFSET _strDeviceDescription+460
  008d3	e8 00 00 00 00	 call	 ??0?$CStringT@_WV?$StrTraitMFC@_WV?$ChTraitsCRT@_W@ATL@@@@@ATL@@QAE@PB_W@Z ; ATL::CStringT<wchar_t,StrTraitMFC<wchar_t,ATL::ChTraitsCRT<wchar_t> > >::CStringT<wchar_t,StrTraitMFC<wchar_t,ATL::ChTraitsCRT<wchar_t> > >
  008d8	c6 45 fc 73	 mov	 BYTE PTR __$EHRec$[ebp+8], 115 ; 00000073H

; 344  : 	_T(""),

  008dc	68 00 00 00 00	 push	 OFFSET ??_C@_1M@PAECBFKK@?$ID?$NMSU?$JF?4_9?$INw?$AA?$AA@
  008e1	b9 d0 01 00 00	 mov	 ecx, OFFSET _strDeviceDescription+464
  008e6	e8 00 00 00 00	 call	 ??0?$CStringT@_WV?$StrTraitMFC@_WV?$ChTraitsCRT@_W@ATL@@@@@ATL@@QAE@PB_W@Z ; ATL::CStringT<wchar_t,StrTraitMFC<wchar_t,ATL::ChTraitsCRT<wchar_t> > >::CStringT<wchar_t,StrTraitMFC<wchar_t,ATL::ChTraitsCRT<wchar_t> > >
  008eb	c6 45 fc 74	 mov	 BYTE PTR __$EHRec$[ebp+8], 116 ; 00000074H

; 345  : 	_T(""),

  008ef	68 00 00 00 00	 push	 OFFSET ??_C@_1M@HKINCDDN@?$IP?TV?$NO?$JF?4c?7N?$AL?$AA?$AA@
  008f4	b9 d4 01 00 00	 mov	 ecx, OFFSET _strDeviceDescription+468
  008f9	e8 00 00 00 00	 call	 ??0?$CStringT@_WV?$StrTraitMFC@_WV?$ChTraitsCRT@_W@ATL@@@@@ATL@@QAE@PB_W@Z ; ATL::CStringT<wchar_t,StrTraitMFC<wchar_t,ATL::ChTraitsCRT<wchar_t> > >::CStringT<wchar_t,StrTraitMFC<wchar_t,ATL::ChTraitsCRT<wchar_t> > >
  008fe	c6 45 fc 75	 mov	 BYTE PTR __$EHRec$[ebp+8], 117 ; 00000075H

; 346  : 	_T(""),

  00902	68 00 00 00 00	 push	 OFFSET ??_C@_1M@KICGEGCK@?$IP?TV?$NO?$JF?4_9?$INw?$AA?$AA@
  00907	b9 d8 01 00 00	 mov	 ecx, OFFSET _strDeviceDescription+472
  0090c	e8 00 00 00 00	 call	 ??0?$CStringT@_WV?$StrTraitMFC@_WV?$ChTraitsCRT@_W@ATL@@@@@ATL@@QAE@PB_W@Z ; ATL::CStringT<wchar_t,StrTraitMFC<wchar_t,ATL::ChTraitsCRT<wchar_t> > >::CStringT<wchar_t,StrTraitMFC<wchar_t,ATL::ChTraitsCRT<wchar_t> > >
  00911	c6 45 fc 76	 mov	 BYTE PTR __$EHRec$[ebp+8], 118 ; 00000076H

; 347  : 	_T("1"),

  00915	68 00 00 00 00	 push	 OFFSET ??_C@_1BA@HPFDIJLM@z?oS?c?$AA1r?$LG?$GA?$ABh?$MAmK?$AA?$AA@
  0091a	b9 dc 01 00 00	 mov	 ecx, OFFSET _strDeviceDescription+476
  0091f	e8 00 00 00 00	 call	 ??0?$CStringT@_WV?$StrTraitMFC@_WV?$ChTraitsCRT@_W@ATL@@@@@ATL@@QAE@PB_W@Z ; ATL::CStringT<wchar_t,StrTraitMFC<wchar_t,ATL::ChTraitsCRT<wchar_t> > >::CStringT<wchar_t,StrTraitMFC<wchar_t,ATL::ChTraitsCRT<wchar_t> > >
  00924	c6 45 fc 77	 mov	 BYTE PTR __$EHRec$[ebp+8], 119 ; 00000077H

; 348  : 	_T("2"),

  00928	68 00 00 00 00	 push	 OFFSET ??_C@_1BA@IMNFLEM@z?oS?c?$AA2r?$LG?$GA?$ABh?$MAmK?$AA?$AA@
  0092d	b9 e0 01 00 00	 mov	 ecx, OFFSET _strDeviceDescription+480
  00932	e8 00 00 00 00	 call	 ??0?$CStringT@_WV?$StrTraitMFC@_WV?$ChTraitsCRT@_W@ATL@@@@@ATL@@QAE@PB_W@Z ; ATL::CStringT<wchar_t,StrTraitMFC<wchar_t,ATL::ChTraitsCRT<wchar_t> > >::CStringT<wchar_t,StrTraitMFC<wchar_t,ATL::ChTraitsCRT<wchar_t> > >
  00937	c6 45 fc 78	 mov	 BYTE PTR __$EHRec$[ebp+8], 120 ; 00000078H

; 349  : 	_T("3"),

  0093b	68 00 00 00 00	 push	 OFFSET ??_C@_1BA@JDGIBHCD@z?oS?c?$AA3r?$LG?$GA?$ABh?$MAmK?$AA?$AA@
  00940	b9 e4 01 00 00	 mov	 ecx, OFFSET _strDeviceDescription+484
  00945	e8 00 00 00 00	 call	 ??0?$CStringT@_WV?$StrTraitMFC@_WV?$ChTraitsCRT@_W@ATL@@@@@ATL@@QAE@PB_W@Z ; ATL::CStringT<wchar_t,StrTraitMFC<wchar_t,ATL::ChTraitsCRT<wchar_t> > >::CStringT<wchar_t,StrTraitMFC<wchar_t,ATL::ChTraitsCRT<wchar_t> > >
  0094a	c6 45 fc 79	 mov	 BYTE PTR __$EHRec$[ebp+8], 121 ; 00000079H

; 350  : 	_T("4"),

  0094e	68 00 00 00 00	 push	 OFFSET ??_C@_1BA@OHPAPOKM@z?oS?c?$AA4r?$LG?$GA?$ABh?$MAmK?$AA?$AA@
  00953	b9 e8 01 00 00	 mov	 ecx, OFFSET _strDeviceDescription+488
  00958	e8 00 00 00 00	 call	 ??0?$CStringT@_WV?$StrTraitMFC@_WV?$ChTraitsCRT@_W@ATL@@@@@ATL@@QAE@PB_W@Z ; ATL::CStringT<wchar_t,StrTraitMFC<wchar_t,ATL::ChTraitsCRT<wchar_t> > >::CStringT<wchar_t,StrTraitMFC<wchar_t,ATL::ChTraitsCRT<wchar_t> > >
  0095d	c6 45 fc 7a	 mov	 BYTE PTR __$EHRec$[ebp+8], 122 ; 0000007aH

; 351  : 
; 352  : 	_T("1"),

  00961	68 00 00 00 00	 push	 OFFSET ??_C@_1M@GDEIMMHG@u5g?3?$AA1RM?$IP?$NL?$AA?$AA@
  00966	b9 ec 01 00 00	 mov	 ecx, OFFSET _strDeviceDescription+492
  0096b	e8 00 00 00 00	 call	 ??0?$CStringT@_WV?$StrTraitMFC@_WV?$ChTraitsCRT@_W@ATL@@@@@ATL@@QAE@PB_W@Z ; ATL::CStringT<wchar_t,StrTraitMFC<wchar_t,ATL::ChTraitsCRT<wchar_t> > >::CStringT<wchar_t,StrTraitMFC<wchar_t,ATL::ChTraitsCRT<wchar_t> > >
  00970	c6 45 fc 7b	 mov	 BYTE PTR __$EHRec$[ebp+8], 123 ; 0000007bH

; 353  : 	_T("1"),

  00974	68 00 00 00 00	 push	 OFFSET ??_C@_1M@IDOLJLMB@u5g?3?$AA1T?$AO?$JA?$AA?$AA?$AA@
  00979	b9 f0 01 00 00	 mov	 ecx, OFFSET _strDeviceDescription+496
  0097e	e8 00 00 00 00	 call	 ??0?$CStringT@_WV?$StrTraitMFC@_WV?$ChTraitsCRT@_W@ATL@@@@@ATL@@QAE@PB_W@Z ; ATL::CStringT<wchar_t,StrTraitMFC<wchar_t,ATL::ChTraitsCRT<wchar_t> > >::CStringT<wchar_t,StrTraitMFC<wchar_t,ATL::ChTraitsCRT<wchar_t> > >
  00983	c6 45 fc 7c	 mov	 BYTE PTR __$EHRec$[ebp+8], 124 ; 0000007cH

; 354  : 	_T("2"),

  00987	68 00 00 00 00	 push	 OFFSET ??_C@_1M@ONMHMLJF@u5g?3?$AA2RM?$IP?$NL?$AA?$AA@
  0098c	b9 f4 01 00 00	 mov	 ecx, OFFSET _strDeviceDescription+500
  00991	e8 00 00 00 00	 call	 ??0?$CStringT@_WV?$StrTraitMFC@_WV?$ChTraitsCRT@_W@ATL@@@@@ATL@@QAE@PB_W@Z ; ATL::CStringT<wchar_t,StrTraitMFC<wchar_t,ATL::ChTraitsCRT<wchar_t> > >::CStringT<wchar_t,StrTraitMFC<wchar_t,ATL::ChTraitsCRT<wchar_t> > >
  00996	c6 45 fc 7d	 mov	 BYTE PTR __$EHRec$[ebp+8], 125 ; 0000007dH

; 355  : 	_T("2"),

  0099a	68 00 00 00 00	 push	 OFFSET ??_C@_1M@NGEJMCC@u5g?3?$AA2T?$AO?$JA?$AA?$AA?$AA@
  0099f	b9 f8 01 00 00	 mov	 ecx, OFFSET _strDeviceDescription+504
  009a4	e8 00 00 00 00	 call	 ??0?$CStringT@_WV?$StrTraitMFC@_WV?$ChTraitsCRT@_W@ATL@@@@@ATL@@QAE@PB_W@Z ; ATL::CStringT<wchar_t,StrTraitMFC<wchar_t,ATL::ChTraitsCRT<wchar_t> > >::CStringT<wchar_t,StrTraitMFC<wchar_t,ATL::ChTraitsCRT<wchar_t> > >
  009a9	c6 45 fc 7e	 mov	 BYTE PTR __$EHRec$[ebp+8], 126 ; 0000007eH

; 356  : 	_T("3"),

  009ad	68 00 00 00 00	 push	 OFFSET ??_C@_1M@CBGNMLAL@u5g?3?$AA3RM?$IP?$NL?$AA?$AA@
  009b2	b9 fc 01 00 00	 mov	 ecx, OFFSET _strDeviceDescription+508
  009b7	e8 00 00 00 00	 call	 ??0?$CStringT@_WV?$StrTraitMFC@_WV?$ChTraitsCRT@_W@ATL@@@@@ATL@@QAE@PB_W@Z ; ATL::CStringT<wchar_t,StrTraitMFC<wchar_t,ATL::ChTraitsCRT<wchar_t> > >::CStringT<wchar_t,StrTraitMFC<wchar_t,ATL::ChTraitsCRT<wchar_t> > >
  009bc	c6 45 fc 7f	 mov	 BYTE PTR __$EHRec$[ebp+8], 127 ; 0000007fH

; 357  : 	_T("3"),

  009c0	68 00 00 00 00	 push	 OFFSET ??_C@_1M@MBMOJMLM@u5g?3?$AA3T?$AO?$JA?$AA?$AA?$AA@
  009c5	b9 00 02 00 00	 mov	 ecx, OFFSET _strDeviceDescription+512
  009ca	e8 00 00 00 00	 call	 ??0?$CStringT@_WV?$StrTraitMFC@_WV?$ChTraitsCRT@_W@ATL@@@@@ATL@@QAE@PB_W@Z ; ATL::CStringT<wchar_t,StrTraitMFC<wchar_t,ATL::ChTraitsCRT<wchar_t> > >::CStringT<wchar_t,StrTraitMFC<wchar_t,ATL::ChTraitsCRT<wchar_t> > >
  009cf	c6 45 fc 80	 mov	 BYTE PTR __$EHRec$[ebp+8], 128 ; 00000080H

; 358  : 	_T("4"),

  009d3	68 00 00 00 00	 push	 OFFSET ??_C@_1M@CLKIMCBC@u5g?3?$AA4RM?$IP?$NL?$AA?$AA@
  009d8	b9 04 02 00 00	 mov	 ecx, OFFSET _strDeviceDescription+516
  009dd	e8 00 00 00 00	 call	 ??0?$CStringT@_WV?$StrTraitMFC@_WV?$ChTraitsCRT@_W@ATL@@@@@ATL@@QAE@PB_W@Z ; ATL::CStringT<wchar_t,StrTraitMFC<wchar_t,ATL::ChTraitsCRT<wchar_t> > >::CStringT<wchar_t,StrTraitMFC<wchar_t,ATL::ChTraitsCRT<wchar_t> > >
  009e2	c6 45 fc 81	 mov	 BYTE PTR __$EHRec$[ebp+8], 129 ; 00000081H

; 359  : 	_T("4"),

  009e6	68 00 00 00 00	 push	 OFFSET ??_C@_1M@MLALJFKF@u5g?3?$AA4T?$AO?$JA?$AA?$AA?$AA@
  009eb	b9 08 02 00 00	 mov	 ecx, OFFSET _strDeviceDescription+520
  009f0	e8 00 00 00 00	 call	 ??0?$CStringT@_WV?$StrTraitMFC@_WV?$ChTraitsCRT@_W@ATL@@@@@ATL@@QAE@PB_W@Z ; ATL::CStringT<wchar_t,StrTraitMFC<wchar_t,ATL::ChTraitsCRT<wchar_t> > >::CStringT<wchar_t,StrTraitMFC<wchar_t,ATL::ChTraitsCRT<wchar_t> > >
  009f5	c6 45 fc 82	 mov	 BYTE PTR __$EHRec$[ebp+8], 130 ; 00000082H

; 360  : 
; 361  : 	_T(""),

  009f9	68 00 00 00 00	 push	 OFFSET ??_C@_19IDGIAJBL@x?AW?3e?K?$IPl?$AA?$AA@
  009fe	b9 0c 02 00 00	 mov	 ecx, OFFSET _strDeviceDescription+524
  00a03	e8 00 00 00 00	 call	 ??0?$CStringT@_WV?$StrTraitMFC@_WV?$ChTraitsCRT@_W@ATL@@@@@ATL@@QAE@PB_W@Z ; ATL::CStringT<wchar_t,StrTraitMFC<wchar_t,ATL::ChTraitsCRT<wchar_t> > >::CStringT<wchar_t,StrTraitMFC<wchar_t,ATL::ChTraitsCRT<wchar_t> > >
  00a08	c6 45 fc 83	 mov	 BYTE PTR __$EHRec$[ebp+8], 131 ; 00000083H

; 362  : 	_T(""),

  00a0c	68 00 00 00 00	 push	 OFFSET ??_C@_19KEPOBHFJ@x?AW?3P?2kb?$AA?$AA@
  00a11	b9 10 02 00 00	 mov	 ecx, OFFSET _strDeviceDescription+528
  00a16	e8 00 00 00 00	 call	 ??0?$CStringT@_WV?$StrTraitMFC@_WV?$ChTraitsCRT@_W@ATL@@@@@ATL@@QAE@PB_W@Z ; ATL::CStringT<wchar_t,StrTraitMFC<wchar_t,ATL::ChTraitsCRT<wchar_t> > >::CStringT<wchar_t,StrTraitMFC<wchar_t,ATL::ChTraitsCRT<wchar_t> > >
  00a1b	c6 45 fc 84	 mov	 BYTE PTR __$EHRec$[ebp+8], 132 ; 00000084H

; 363  : 
; 364  : 	_T("OLD"),				//

  00a1f	68 00 00 00 00	 push	 OFFSET ??_C@_1BE@NLFGLOHP@Qs?$HL?$LBl?$BER?$KI?$JG?$AA_?$AA?$AAO?$AAL?$AAD?$AA?$AA@
  00a24	b9 14 02 00 00	 mov	 ecx, OFFSET _strDeviceDescription+532
  00a29	e8 00 00 00 00	 call	 ??0?$CStringT@_WV?$StrTraitMFC@_WV?$ChTraitsCRT@_W@ATL@@@@@ATL@@QAE@PB_W@Z ; ATL::CStringT<wchar_t,StrTraitMFC<wchar_t,ATL::ChTraitsCRT<wchar_t> > >::CStringT<wchar_t,StrTraitMFC<wchar_t,ATL::ChTraitsCRT<wchar_t> > >
  00a2e	c6 45 fc 85	 mov	 BYTE PTR __$EHRec$[ebp+8], 133 ; 00000085H

; 365  : 	_T("OLD"),

  00a32	68 00 00 00 00	 push	 OFFSET ??_C@_1BE@OOKFLHG@Qs?$HL?$LBl?$BER?$KI?$JG?$AAQs?$AAO?$AAL?$AAD?$AA?$AA@
  00a37	b9 18 02 00 00	 mov	 ecx, OFFSET _strDeviceDescription+536
  00a3c	e8 00 00 00 00	 call	 ??0?$CStringT@_WV?$StrTraitMFC@_WV?$ChTraitsCRT@_W@ATL@@@@@ATL@@QAE@PB_W@Z ; ATL::CStringT<wchar_t,StrTraitMFC<wchar_t,ATL::ChTraitsCRT<wchar_t> > >::CStringT<wchar_t,StrTraitMFC<wchar_t,ATL::ChTraitsCRT<wchar_t> > >
  00a41	c6 45 fc 86	 mov	 BYTE PTR __$EHRec$[ebp+8], 134 ; 00000086H

; 366  : 	_T("OLD"),

  00a45	68 00 00 00 00	 push	 OFFSET ??_C@_1BE@CPEALOBL@_?$AA?$HL?$LBl?$BER?$KI?$JG?$AA_?$AA?$AAO?$AAL?$AAD?$AA?$AA@
  00a4a	b9 1c 02 00 00	 mov	 ecx, OFFSET _strDeviceDescription+540
  00a4f	e8 00 00 00 00	 call	 ??0?$CStringT@_WV?$StrTraitMFC@_WV?$ChTraitsCRT@_W@ATL@@@@@ATL@@QAE@PB_W@Z ; ATL::CStringT<wchar_t,StrTraitMFC<wchar_t,ATL::ChTraitsCRT<wchar_t> > >::CStringT<wchar_t,StrTraitMFC<wchar_t,ATL::ChTraitsCRT<wchar_t> > >
  00a54	c6 45 fc 87	 mov	 BYTE PTR __$EHRec$[ebp+8], 135 ; 00000087H

; 367  : 	_T("OLD"),

  00a58	68 00 00 00 00	 push	 OFFSET ??_C@_1BE@PKPMFLBC@_?$AA?$HL?$LBl?$BER?$KI?$JG?$AAQs?$AAO?$AAL?$AAD?$AA?$AA@
  00a5d	b9 20 02 00 00	 mov	 ecx, OFFSET _strDeviceDescription+544
  00a62	e8 00 00 00 00	 call	 ??0?$CStringT@_WV?$StrTraitMFC@_WV?$ChTraitsCRT@_W@ATL@@@@@ATL@@QAE@PB_W@Z ; ATL::CStringT<wchar_t,StrTraitMFC<wchar_t,ATL::ChTraitsCRT<wchar_t> > >::CStringT<wchar_t,StrTraitMFC<wchar_t,ATL::ChTraitsCRT<wchar_t> > >
  00a67	c6 45 fc 88	 mov	 BYTE PTR __$EHRec$[ebp+8], 136 ; 00000088H

; 368  : 
; 369  : 	_T("1"),

  00a6b	68 00 00 00 00	 push	 OFFSET ??_C@_1M@NNCHLHNA@?$IJ?F?$JI?$JBz?oS?c?$AA1?$AA?$AA@
  00a70	b9 24 02 00 00	 mov	 ecx, OFFSET _strDeviceDescription+548
  00a75	e8 00 00 00 00	 call	 ??0?$CStringT@_WV?$StrTraitMFC@_WV?$ChTraitsCRT@_W@ATL@@@@@ATL@@QAE@PB_W@Z ; ATL::CStringT<wchar_t,StrTraitMFC<wchar_t,ATL::ChTraitsCRT<wchar_t> > >::CStringT<wchar_t,StrTraitMFC<wchar_t,ATL::ChTraitsCRT<wchar_t> > >
  00a7a	c6 45 fc 89	 mov	 BYTE PTR __$EHRec$[ebp+8], 137 ; 00000089H

; 370  : 	_T("2"),

  00a7e	68 00 00 00 00	 push	 OFFSET ??_C@_1M@MPJCBIDO@?$IJ?F?$JI?$JBz?oS?c?$AA2?$AA?$AA@
  00a83	b9 28 02 00 00	 mov	 ecx, OFFSET _strDeviceDescription+552
  00a88	e8 00 00 00 00	 call	 ??0?$CStringT@_WV?$StrTraitMFC@_WV?$ChTraitsCRT@_W@ATL@@@@@ATL@@QAE@PB_W@Z ; ATL::CStringT<wchar_t,StrTraitMFC<wchar_t,ATL::ChTraitsCRT<wchar_t> > >::CStringT<wchar_t,StrTraitMFC<wchar_t,ATL::ChTraitsCRT<wchar_t> > >
  00a8d	c6 45 fc 8a	 mov	 BYTE PTR __$EHRec$[ebp+8], 138 ; 0000008aH

; 371  : 	_T("3"),

  00a91	68 00 00 00 00	 push	 OFFSET ??_C@_1M@HHCOHPFL@?$IJ?F?$JI?$JBz?oS?c?$AA3?$AA?$AA@
  00a96	b9 2c 02 00 00	 mov	 ecx, OFFSET _strDeviceDescription+556
  00a9b	e8 00 00 00 00	 call	 ??0?$CStringT@_WV?$StrTraitMFC@_WV?$ChTraitsCRT@_W@ATL@@@@@ATL@@QAE@PB_W@Z ; ATL::CStringT<wchar_t,StrTraitMFC<wchar_t,ATL::ChTraitsCRT<wchar_t> > >::CStringT<wchar_t,StrTraitMFC<wchar_t,ATL::ChTraitsCRT<wchar_t> > >
  00aa0	c6 45 fc 8b	 mov	 BYTE PTR __$EHRec$[ebp+8], 139 ; 0000008bH

; 372  : 	_T("4"),

  00aa4	68 00 00 00 00	 push	 OFFSET ??_C@_1M@OKPJEHOC@?$IJ?F?$JI?$JBz?oS?c?$AA4?$AA?$AA@
  00aa9	b9 30 02 00 00	 mov	 ecx, OFFSET _strDeviceDescription+560
  00aae	e8 00 00 00 00	 call	 ??0?$CStringT@_WV?$StrTraitMFC@_WV?$ChTraitsCRT@_W@ATL@@@@@ATL@@QAE@PB_W@Z ; ATL::CStringT<wchar_t,StrTraitMFC<wchar_t,ATL::ChTraitsCRT<wchar_t> > >::CStringT<wchar_t,StrTraitMFC<wchar_t,ATL::ChTraitsCRT<wchar_t> > >
  00ab3	c6 45 fc 8c	 mov	 BYTE PTR __$EHRec$[ebp+8], 140 ; 0000008cH

; 373  : 
; 374  : 	_T(""),

  00ab7	68 00 00 00 00	 push	 OFFSET ??_C@_19JMEJALJK@R0OMh?$MAmK?$AA?$AA@
  00abc	b9 34 02 00 00	 mov	 ecx, OFFSET _strDeviceDescription+564
  00ac1	e8 00 00 00 00	 call	 ??0?$CStringT@_WV?$StrTraitMFC@_WV?$ChTraitsCRT@_W@ATL@@@@@ATL@@QAE@PB_W@Z ; ATL::CStringT<wchar_t,StrTraitMFC<wchar_t,ATL::ChTraitsCRT<wchar_t> > >::CStringT<wchar_t,StrTraitMFC<wchar_t,ATL::ChTraitsCRT<wchar_t> > >
  00ac6	c6 45 fc 8d	 mov	 BYTE PTR __$EHRec$[ebp+8], 141 ; 0000008dH

; 375  : 
; 376  : 	_T(""),

  00aca	68 00 00 00 00	 push	 OFFSET ??_C@_15NFBIKKCF@Y?$ANOM?$AA?$AA@
  00acf	b9 38 02 00 00	 mov	 ecx, OFFSET _strDeviceDescription+568
  00ad4	e8 00 00 00 00	 call	 ??0?$CStringT@_WV?$StrTraitMFC@_WV?$ChTraitsCRT@_W@ATL@@@@@ATL@@QAE@PB_W@Z ; ATL::CStringT<wchar_t,StrTraitMFC<wchar_t,ATL::ChTraitsCRT<wchar_t> > >::CStringT<wchar_t,StrTraitMFC<wchar_t,ATL::ChTraitsCRT<wchar_t> > >
  00ad9	c6 45 fc 8e	 mov	 BYTE PTR __$EHRec$[ebp+8], 142 ; 0000008eH

; 377  : 
; 378  : /////20140612/////////////////////////////////////////////////////////////////////////////////////////////////////////////////
; 379  : 	_T("OTG"),

  00add	68 00 00 00 00	 push	 OFFSET ??_C@_1M@OBMKFJKA@?$AAO?$AAT?$AAGh?$MAmK?$AA?$AA@
  00ae2	b9 3c 02 00 00	 mov	 ecx, OFFSET _strDeviceDescription+572
  00ae7	e8 00 00 00 00	 call	 ??0?$CStringT@_WV?$StrTraitMFC@_WV?$ChTraitsCRT@_W@ATL@@@@@ATL@@QAE@PB_W@Z ; ATL::CStringT<wchar_t,StrTraitMFC<wchar_t,ATL::ChTraitsCRT<wchar_t> > >::CStringT<wchar_t,StrTraitMFC<wchar_t,ATL::ChTraitsCRT<wchar_t> > >
  00aec	c6 45 fc 8f	 mov	 BYTE PTR __$EHRec$[ebp+8], 143 ; 0000008fH

; 380  : 	_T("OTG"),

  00af0	68 00 00 00 00	 push	 OFFSET ??_C@_1M@MOFPAIKO@?$AAO?$AAT?$AAGY?$ANOM?$AA?$AA@
  00af5	b9 40 02 00 00	 mov	 ecx, OFFSET _strDeviceDescription+576
  00afa	e8 00 00 00 00	 call	 ??0?$CStringT@_WV?$StrTraitMFC@_WV?$ChTraitsCRT@_W@ATL@@@@@ATL@@QAE@PB_W@Z ; ATL::CStringT<wchar_t,StrTraitMFC<wchar_t,ATL::ChTraitsCRT<wchar_t> > >::CStringT<wchar_t,StrTraitMFC<wchar_t,ATL::ChTraitsCRT<wchar_t> > >
  00aff	c6 45 fc 90	 mov	 BYTE PTR __$EHRec$[ebp+8], 144 ; 00000090H

; 381  : 
; 382  : 	_T("LED"),//_T(""),

  00b03	68 00 00 00 00	 push	 OFFSET ??_C@_1BE@KNIKCJOC@?$AAL?$AAE?$AAD?$JI?$JM?$ICrh?$MAmK_?$AAY?K?$AA?$AA@
  00b08	b9 44 02 00 00	 mov	 ecx, OFFSET _strDeviceDescription+580
  00b0d	e8 00 00 00 00	 call	 ??0?$CStringT@_WV?$StrTraitMFC@_WV?$ChTraitsCRT@_W@ATL@@@@@ATL@@QAE@PB_W@Z ; ATL::CStringT<wchar_t,StrTraitMFC<wchar_t,ATL::ChTraitsCRT<wchar_t> > >::CStringT<wchar_t,StrTraitMFC<wchar_t,ATL::ChTraitsCRT<wchar_t> > >
  00b12	c6 45 fc 91	 mov	 BYTE PTR __$EHRec$[ebp+8], 145 ; 00000091H

; 383  : 	_T("LED"),//_T(""),

  00b16	68 00 00 00 00	 push	 OFFSET ??_C@_1BE@JPFOGIDE@?$AAL?$AAE?$AAD?$JI?$JM?$ICrepcn?$IL?$PLS?V?$AA?$AA@
  00b1b	b9 48 02 00 00	 mov	 ecx, OFFSET _strDeviceDescription+584
  00b20	e8 00 00 00 00	 call	 ??0?$CStringT@_WV?$StrTraitMFC@_WV?$ChTraitsCRT@_W@ATL@@@@@ATL@@QAE@PB_W@Z ; ATL::CStringT<wchar_t,StrTraitMFC<wchar_t,ATL::ChTraitsCRT<wchar_t> > >::CStringT<wchar_t,StrTraitMFC<wchar_t,ATL::ChTraitsCRT<wchar_t> > >
  00b25	c6 45 fc 92	 mov	 BYTE PTR __$EHRec$[ebp+8], 146 ; 00000092H

; 384  : 	_T(""),//_T(""),

  00b29	68 00 00 00 00	 push	 OFFSET ??_C@_1BC@PBEGKINI@?$IA?LQI?$JI?$JM?$ICrh?$MAmK_?$AAY?K?$AA?$AA@
  00b2e	b9 4c 02 00 00	 mov	 ecx, OFFSET _strDeviceDescription+588
  00b33	e8 00 00 00 00	 call	 ??0?$CStringT@_WV?$StrTraitMFC@_WV?$ChTraitsCRT@_W@ATL@@@@@ATL@@QAE@PB_W@Z ; ATL::CStringT<wchar_t,StrTraitMFC<wchar_t,ATL::ChTraitsCRT<wchar_t> > >::CStringT<wchar_t,StrTraitMFC<wchar_t,ATL::ChTraitsCRT<wchar_t> > >
  00b38	c6 45 fc 93	 mov	 BYTE PTR __$EHRec$[ebp+8], 147 ; 00000093H

; 385  : 	_T(""),//_T(""),

  00b3c	68 00 00 00 00	 push	 OFFSET ??_C@_1BC@MDJCOJAO@?$IA?LQI?$JI?$JM?$ICrepcn?$IL?$PLS?V?$AA?$AA@
  00b41	b9 50 02 00 00	 mov	 ecx, OFFSET _strDeviceDescription+592
  00b46	e8 00 00 00 00	 call	 ??0?$CStringT@_WV?$StrTraitMFC@_WV?$ChTraitsCRT@_W@ATL@@@@@ATL@@QAE@PB_W@Z ; ATL::CStringT<wchar_t,StrTraitMFC<wchar_t,ATL::ChTraitsCRT<wchar_t> > >::CStringT<wchar_t,StrTraitMFC<wchar_t,ATL::ChTraitsCRT<wchar_t> > >
  00b4b	c6 45 fc 94	 mov	 BYTE PTR __$EHRec$[ebp+8], 148 ; 00000094H

; 386  : 
; 387  : 	_T(""),

  00b4f	68 00 00 00 00	 push	 OFFSET ??_C@_1BE@DMHAPHEN@?$HO?$KC?$ICrc?$AHy?3pomK?$IL?U_?$AAY?K?$AA?$AA@
  00b54	b9 54 02 00 00	 mov	 ecx, OFFSET _strDeviceDescription+596
  00b59	e8 00 00 00 00	 call	 ??0?$CStringT@_WV?$StrTraitMFC@_WV?$ChTraitsCRT@_W@ATL@@@@@ATL@@QAE@PB_W@Z ; ATL::CStringT<wchar_t,StrTraitMFC<wchar_t,ATL::ChTraitsCRT<wchar_t> > >::CStringT<wchar_t,StrTraitMFC<wchar_t,ATL::ChTraitsCRT<wchar_t> > >
  00b5e	c6 45 fc 95	 mov	 BYTE PTR __$EHRec$[ebp+8], 149 ; 00000095H

; 388  : 	_T(""),

  00b62	68 00 00 00 00	 push	 OFFSET ??_C@_1BE@KMDEMM@?$HO?$KC?$ICrc?$AHy?3poepcn?$IL?$PLS?V?$AA?$AA@
  00b67	b9 58 02 00 00	 mov	 ecx, OFFSET _strDeviceDescription+600
  00b6c	e8 00 00 00 00	 call	 ??0?$CStringT@_WV?$StrTraitMFC@_WV?$ChTraitsCRT@_W@ATL@@@@@ATL@@QAE@PB_W@Z ; ATL::CStringT<wchar_t,StrTraitMFC<wchar_t,ATL::ChTraitsCRT<wchar_t> > >::CStringT<wchar_t,StrTraitMFC<wchar_t,ATL::ChTraitsCRT<wchar_t> > >
  00b71	c6 45 fc 96	 mov	 BYTE PTR __$EHRec$[ebp+8], 150 ; 00000096H

; 389  : 
; 390  : 	_T(""),

  00b75	68 00 00 00 00	 push	 OFFSET ??_C@_1BA@MGMNLOJL@?$IE?$NN?$ICr?2OmK?$IL?U_?$AAY?K?$AA?$AA@
  00b7a	b9 5c 02 00 00	 mov	 ecx, OFFSET _strDeviceDescription+604
  00b7f	e8 00 00 00 00	 call	 ??0?$CStringT@_WV?$StrTraitMFC@_WV?$ChTraitsCRT@_W@ATL@@@@@ATL@@QAE@PB_W@Z ; ATL::CStringT<wchar_t,StrTraitMFC<wchar_t,ATL::ChTraitsCRT<wchar_t> > >::CStringT<wchar_t,StrTraitMFC<wchar_t,ATL::ChTraitsCRT<wchar_t> > >
  00b84	c6 45 fc 97	 mov	 BYTE PTR __$EHRec$[ebp+8], 151 ; 00000097H

; 391  : 	_T(""),

  00b88	68 00 00 00 00	 push	 OFFSET ??_C@_1BA@PKBBHNBK@?$IE?$NN?$ICr?2Oepcn?$IL?$PLS?V?$AA?$AA@
  00b8d	b9 60 02 00 00	 mov	 ecx, OFFSET _strDeviceDescription+608
  00b92	e8 00 00 00 00	 call	 ??0?$CStringT@_WV?$StrTraitMFC@_WV?$ChTraitsCRT@_W@ATL@@@@@ATL@@QAE@PB_W@Z ; ATL::CStringT<wchar_t,StrTraitMFC<wchar_t,ATL::ChTraitsCRT<wchar_t> > >::CStringT<wchar_t,StrTraitMFC<wchar_t,ATL::ChTraitsCRT<wchar_t> > >
  00b97	c6 45 fc 98	 mov	 BYTE PTR __$EHRec$[ebp+8], 152 ; 00000098H

; 392  : 	_T(""),

  00b9b	68 00 00 00 00	 push	 OFFSET ??_C@_1BA@HJIGLHIE@?$HO?$PP?$ICr?2OmK?$IL?U_?$AAY?K?$AA?$AA@
  00ba0	b9 64 02 00 00	 mov	 ecx, OFFSET _strDeviceDescription+612
  00ba5	e8 00 00 00 00	 call	 ??0?$CStringT@_WV?$StrTraitMFC@_WV?$ChTraitsCRT@_W@ATL@@@@@ATL@@QAE@PB_W@Z ; ATL::CStringT<wchar_t,StrTraitMFC<wchar_t,ATL::ChTraitsCRT<wchar_t> > >::CStringT<wchar_t,StrTraitMFC<wchar_t,ATL::ChTraitsCRT<wchar_t> > >
  00baa	c6 45 fc 99	 mov	 BYTE PTR __$EHRec$[ebp+8], 153 ; 00000099H

; 393  : 	_T(""),

  00bae	68 00 00 00 00	 push	 OFFSET ??_C@_1BA@EFFKHEAF@?$HO?$PP?$ICr?2Oepcn?$IL?$PLS?V?$AA?$AA@
  00bb3	b9 68 02 00 00	 mov	 ecx, OFFSET _strDeviceDescription+616
  00bb8	e8 00 00 00 00	 call	 ??0?$CStringT@_WV?$StrTraitMFC@_WV?$ChTraitsCRT@_W@ATL@@@@@ATL@@QAE@PB_W@Z ; ATL::CStringT<wchar_t,StrTraitMFC<wchar_t,ATL::ChTraitsCRT<wchar_t> > >::CStringT<wchar_t,StrTraitMFC<wchar_t,ATL::ChTraitsCRT<wchar_t> > >
  00bbd	c6 45 fc 9a	 mov	 BYTE PTR __$EHRec$[ebp+8], 154 ; 0000009aH

; 394  : 	_T(""),

  00bc1	68 00 00 00 00	 push	 OFFSET ??_C@_1BA@LIJFDNLJ@?$HO?$KC?$ICr?2OmK?$IL?U_?$AAY?K?$AA?$AA@
  00bc6	b9 6c 02 00 00	 mov	 ecx, OFFSET _strDeviceDescription+620
  00bcb	e8 00 00 00 00	 call	 ??0?$CStringT@_WV?$StrTraitMFC@_WV?$ChTraitsCRT@_W@ATL@@@@@ATL@@QAE@PB_W@Z ; ATL::CStringT<wchar_t,StrTraitMFC<wchar_t,ATL::ChTraitsCRT<wchar_t> > >::CStringT<wchar_t,StrTraitMFC<wchar_t,ATL::ChTraitsCRT<wchar_t> > >
  00bd0	c6 45 fc 9b	 mov	 BYTE PTR __$EHRec$[ebp+8], 155 ; 0000009bH

; 395  : 	_T(""),

  00bd4	68 00 00 00 00	 push	 OFFSET ??_C@_1BA@IEEJPODI@?$HO?$KC?$ICr?2Oepcn?$IL?$PLS?V?$AA?$AA@
  00bd9	b9 70 02 00 00	 mov	 ecx, OFFSET _strDeviceDescription+624
  00bde	e8 00 00 00 00	 call	 ??0?$CStringT@_WV?$StrTraitMFC@_WV?$ChTraitsCRT@_W@ATL@@@@@ATL@@QAE@PB_W@Z ; ATL::CStringT<wchar_t,StrTraitMFC<wchar_t,ATL::ChTraitsCRT<wchar_t> > >::CStringT<wchar_t,StrTraitMFC<wchar_t,ATL::ChTraitsCRT<wchar_t> > >
  00be3	c6 45 fc 9c	 mov	 BYTE PTR __$EHRec$[ebp+8], 156 ; 0000009cH

; 396  : 
; 397  : 	_T("USB"),

  00be7	68 00 00 00 00	 push	 OFFSET ??_C@_1BE@OFBKKABO@v?xg?3?$AAU?$AAS?$AABu5n?$JAbS_?$AA?$AA?$AA@
  00bec	b9 74 02 00 00	 mov	 ecx, OFFSET _strDeviceDescription+628
  00bf1	e8 00 00 00 00	 call	 ??0?$CStringT@_WV?$StrTraitMFC@_WV?$ChTraitsCRT@_W@ATL@@@@@ATL@@QAE@PB_W@Z ; ATL::CStringT<wchar_t,StrTraitMFC<wchar_t,ATL::ChTraitsCRT<wchar_t> > >::CStringT<wchar_t,StrTraitMFC<wchar_t,ATL::ChTraitsCRT<wchar_t> > >
  00bf6	c6 45 fc 9d	 mov	 BYTE PTR __$EHRec$[ebp+8], 157 ; 0000009dH

; 398  : 	_T("USB"),

  00bfa	68 00 00 00 00	 push	 OFFSET ??_C@_1BE@LMBKONAN@v?xg?3?$AAU?$AAS?$AABu5n?$JAQs?$JF?m?$AA?$AA@
  00bff	b9 78 02 00 00	 mov	 ecx, OFFSET _strDeviceDescription+632
  00c04	e8 00 00 00 00	 call	 ??0?$CStringT@_WV?$StrTraitMFC@_WV?$ChTraitsCRT@_W@ATL@@@@@ATL@@QAE@PB_W@Z ; ATL::CStringT<wchar_t,StrTraitMFC<wchar_t,ATL::ChTraitsCRT<wchar_t> > >::CStringT<wchar_t,StrTraitMFC<wchar_t,ATL::ChTraitsCRT<wchar_t> > >
  00c09	c6 45 fc 9e	 mov	 BYTE PTR __$EHRec$[ebp+8], 158 ; 0000009eH

; 399  : 	_T(""),

  00c0d	68 00 00 00 00	 push	 OFFSET ??_C@_19JKLDNACP@h7g?3V?z?$FL?$JK?$AA?$AA@
  00c12	b9 7c 02 00 00	 mov	 ecx, OFFSET _strDeviceDescription+636
  00c17	e8 00 00 00 00	 call	 ??0?$CStringT@_WV?$StrTraitMFC@_WV?$ChTraitsCRT@_W@ATL@@@@@ATL@@QAE@PB_W@Z ; ATL::CStringT<wchar_t,StrTraitMFC<wchar_t,ATL::ChTraitsCRT<wchar_t> > >::CStringT<wchar_t,StrTraitMFC<wchar_t,ATL::ChTraitsCRT<wchar_t> > >
  00c1c	c6 45 fc 9f	 mov	 BYTE PTR __$EHRec$[ebp+8], 159 ; 0000009fH

; 400  : 	_T(""),

  00c20	68 00 00 00 00	 push	 OFFSET ??_C@_19CDLPOHMH@h7g?3e?$DO_?$AA?$AA?$AA@
  00c25	b9 80 02 00 00	 mov	 ecx, OFFSET _strDeviceDescription+640
  00c2a	e8 00 00 00 00	 call	 ??0?$CStringT@_WV?$StrTraitMFC@_WV?$ChTraitsCRT@_W@ATL@@@@@ATL@@QAE@PB_W@Z ; ATL::CStringT<wchar_t,StrTraitMFC<wchar_t,ATL::ChTraitsCRT<wchar_t> > >::CStringT<wchar_t,StrTraitMFC<wchar_t,ATL::ChTraitsCRT<wchar_t> > >
  00c2f	c6 45 fc a0	 mov	 BYTE PTR __$EHRec$[ebp+8], 160 ; 000000a0H

; 401  : 	_T(""),

  00c33	68 00 00 00 00	 push	 OFFSET ??_C@_19JEGEKDHO@T9?2?$BI_?$AAY?K?$AA?$AA@
  00c38	b9 84 02 00 00	 mov	 ecx, OFFSET _strDeviceDescription+644
  00c3d	e8 00 00 00 00	 call	 ??0?$CStringT@_WV?$StrTraitMFC@_WV?$ChTraitsCRT@_W@ATL@@@@@ATL@@QAE@PB_W@Z ; ATL::CStringT<wchar_t,StrTraitMFC<wchar_t,ATL::ChTraitsCRT<wchar_t> > >::CStringT<wchar_t,StrTraitMFC<wchar_t,ATL::ChTraitsCRT<wchar_t> > >
  00c42	c6 45 fc a1	 mov	 BYTE PTR __$EHRec$[ebp+8], 161 ; 000000a1H

; 402  : 	_T(""),

  00c46	68 00 00 00 00	 push	 OFFSET ??_C@_19OALIHFCC@T9?2?$BI?$HO?Sg_?$AA?$AA@
  00c4b	b9 88 02 00 00	 mov	 ecx, OFFSET _strDeviceDescription+648
  00c50	e8 00 00 00 00	 call	 ??0?$CStringT@_WV?$StrTraitMFC@_WV?$ChTraitsCRT@_W@ATL@@@@@ATL@@QAE@PB_W@Z ; ATL::CStringT<wchar_t,StrTraitMFC<wchar_t,ATL::ChTraitsCRT<wchar_t> > >::CStringT<wchar_t,StrTraitMFC<wchar_t,ATL::ChTraitsCRT<wchar_t> > >
  00c55	c6 45 fc a2	 mov	 BYTE PTR __$EHRec$[ebp+8], 162 ; 000000a2H

; 403  : 
; 404  : 	_T(""),

  00c59	68 00 00 00 00	 push	 OFFSET ??_C@_19PGDPEEC@?$JH?$AN?2?$BEc?7N?$AL?$AA?$AA@
  00c5e	b9 8c 02 00 00	 mov	 ecx, OFFSET _strDeviceDescription+652
  00c63	e8 00 00 00 00	 call	 ??0?$CStringT@_WV?$StrTraitMFC@_WV?$ChTraitsCRT@_W@ATL@@@@@ATL@@QAE@PB_W@Z ; ATL::CStringT<wchar_t,StrTraitMFC<wchar_t,ATL::ChTraitsCRT<wchar_t> > >::CStringT<wchar_t,StrTraitMFC<wchar_t,ATL::ChTraitsCRT<wchar_t> > >
  00c68	c6 45 fc a3	 mov	 BYTE PTR __$EHRec$[ebp+8], 163 ; 000000a3H

; 405  : 	_T(""),

  00c6c	68 00 00 00 00	 push	 OFFSET ??_C@_19NNMIJBFF@?$JH?$AN?2?$BE_9?$INw?$AA?$AA@
  00c71	b9 90 02 00 00	 mov	 ecx, OFFSET _strDeviceDescription+656
  00c76	e8 00 00 00 00	 call	 ??0?$CStringT@_WV?$StrTraitMFC@_WV?$ChTraitsCRT@_W@ATL@@@@@ATL@@QAE@PB_W@Z ; ATL::CStringT<wchar_t,StrTraitMFC<wchar_t,ATL::ChTraitsCRT<wchar_t> > >::CStringT<wchar_t,StrTraitMFC<wchar_t,ATL::ChTraitsCRT<wchar_t> > >
  00c7b	c6 45 fc a4	 mov	 BYTE PTR __$EHRec$[ebp+8], 164 ; 000000a4H

; 406  : 	_T(""),

  00c7f	68 00 00 00 00	 push	 OFFSET ??_C@_1M@ODGAPLML@c?$ACg?3?$JF?4c?7N?$AL?$AA?$AA@
  00c84	b9 94 02 00 00	 mov	 ecx, OFFSET _strDeviceDescription+660
  00c89	e8 00 00 00 00	 call	 ??0?$CStringT@_WV?$StrTraitMFC@_WV?$ChTraitsCRT@_W@ATL@@@@@ATL@@QAE@PB_W@Z ; ATL::CStringT<wchar_t,StrTraitMFC<wchar_t,ATL::ChTraitsCRT<wchar_t> > >::CStringT<wchar_t,StrTraitMFC<wchar_t,ATL::ChTraitsCRT<wchar_t> > >
  00c8e	c6 45 fc a5	 mov	 BYTE PTR __$EHRec$[ebp+8], 165 ; 000000a5H

; 407  : 	_T(""),

  00c92	68 00 00 00 00	 push	 OFFSET ??_C@_1M@DBMLJONM@c?$ACg?3?$JF?4_9?$INw?$AA?$AA@
  00c97	b9 98 02 00 00	 mov	 ecx, OFFSET _strDeviceDescription+664
  00c9c	e8 00 00 00 00	 call	 ??0?$CStringT@_WV?$StrTraitMFC@_WV?$ChTraitsCRT@_W@ATL@@@@@ATL@@QAE@PB_W@Z ; ATL::CStringT<wchar_t,StrTraitMFC<wchar_t,ATL::ChTraitsCRT<wchar_t> > >::CStringT<wchar_t,StrTraitMFC<wchar_t,ATL::ChTraitsCRT<wchar_t> > >
  00ca1	c6 45 fc a6	 mov	 BYTE PTR __$EHRec$[ebp+8], 166 ; 000000a6H

; 408  : 	_T(""),

  00ca5	68 00 00 00 00	 push	 OFFSET ??_C@_1O@HFIOPOOE@v?xg?3c?7?$JF?4c?7N?$AL?$AA?$AA@
  00caa	b9 9c 02 00 00	 mov	 ecx, OFFSET _strDeviceDescription+668
  00caf	e8 00 00 00 00	 call	 ??0?$CStringT@_WV?$StrTraitMFC@_WV?$ChTraitsCRT@_W@ATL@@@@@ATL@@QAE@PB_W@Z ; ATL::CStringT<wchar_t,StrTraitMFC<wchar_t,ATL::ChTraitsCRT<wchar_t> > >::CStringT<wchar_t,StrTraitMFC<wchar_t,ATL::ChTraitsCRT<wchar_t> > >
  00cb4	c6 45 fc a7	 mov	 BYTE PTR __$EHRec$[ebp+8], 167 ; 000000a7H

; 409  : 	_T(""),

  00cb8	68 00 00 00 00	 push	 OFFSET ??_C@_1O@KHCFJLPD@v?xg?3c?7?$JF?4_9?$INw?$AA?$AA@
  00cbd	b9 a0 02 00 00	 mov	 ecx, OFFSET _strDeviceDescription+672
  00cc2	e8 00 00 00 00	 call	 ??0?$CStringT@_WV?$StrTraitMFC@_WV?$ChTraitsCRT@_W@ATL@@@@@ATL@@QAE@PB_W@Z ; ATL::CStringT<wchar_t,StrTraitMFC<wchar_t,ATL::ChTraitsCRT<wchar_t> > >::CStringT<wchar_t,StrTraitMFC<wchar_t,ATL::ChTraitsCRT<wchar_t> > >
  00cc7	c6 45 fc a8	 mov	 BYTE PTR __$EHRec$[ebp+8], 168 ; 000000a8H

; 410  : 	_T(""),

  00ccb	68 00 00 00 00	 push	 OFFSET ??_C@_1O@CHAOEBHI@v?xg?3u5n?$JAbS_?$AA?$AA?$AA@
  00cd0	b9 a4 02 00 00	 mov	 ecx, OFFSET _strDeviceDescription+676
  00cd5	e8 00 00 00 00	 call	 ??0?$CStringT@_WV?$StrTraitMFC@_WV?$ChTraitsCRT@_W@ATL@@@@@ATL@@QAE@PB_W@Z ; ATL::CStringT<wchar_t,StrTraitMFC<wchar_t,ATL::ChTraitsCRT<wchar_t> > >::CStringT<wchar_t,StrTraitMFC<wchar_t,ATL::ChTraitsCRT<wchar_t> > >
  00cda	c6 45 fc a9	 mov	 BYTE PTR __$EHRec$[ebp+8], 169 ; 000000a9H

; 411  : 	_T(""),

  00cde	68 00 00 00 00	 push	 OFFSET ??_C@_1O@HOAOAMGL@v?xg?3u5n?$JAQs?$JF?m?$AA?$AA@
  00ce3	b9 a8 02 00 00	 mov	 ecx, OFFSET _strDeviceDescription+680
  00ce8	e8 00 00 00 00	 call	 ??0?$CStringT@_WV?$StrTraitMFC@_WV?$ChTraitsCRT@_W@ATL@@@@@ATL@@QAE@PB_W@Z ; ATL::CStringT<wchar_t,StrTraitMFC<wchar_t,ATL::ChTraitsCRT<wchar_t> > >::CStringT<wchar_t,StrTraitMFC<wchar_t,ATL::ChTraitsCRT<wchar_t> > >
  00ced	c6 45 fc aa	 mov	 BYTE PTR __$EHRec$[ebp+8], 170 ; 000000aaH

; 412  : 
; 413  : 	_T("USB"),

  00cf1	68 00 00 00 00	 push	 OFFSET ??_C@_1BA@KGEKPKOC@?$AAU?$AAS?$AABR0OMh?$MAmK?$AA?$AA@
  00cf6	b9 ac 02 00 00	 mov	 ecx, OFFSET _strDeviceDescription+684
  00cfb	e8 00 00 00 00	 call	 ??0?$CStringT@_WV?$StrTraitMFC@_WV?$ChTraitsCRT@_W@ATL@@@@@ATL@@QAE@PB_W@Z ; ATL::CStringT<wchar_t,StrTraitMFC<wchar_t,ATL::ChTraitsCRT<wchar_t> > >::CStringT<wchar_t,StrTraitMFC<wchar_t,ATL::ChTraitsCRT<wchar_t> > >
  00d00	c6 45 fc ab	 mov	 BYTE PTR __$EHRec$[ebp+8], 171 ; 000000abH

; 414  : 	_T(""),

  00d04	68 00 00 00 00	 push	 OFFSET ??_C@_1O@GMGEDNBE@Y?$CJg?$HPR0OMh?$MAmK?$AA?$AA@
  00d09	b9 b0 02 00 00	 mov	 ecx, OFFSET _strDeviceDescription+688
  00d0e	e8 00 00 00 00	 call	 ??0?$CStringT@_WV?$StrTraitMFC@_WV?$ChTraitsCRT@_W@ATL@@@@@ATL@@QAE@PB_W@Z ; ATL::CStringT<wchar_t,StrTraitMFC<wchar_t,ATL::ChTraitsCRT<wchar_t> > >::CStringT<wchar_t,StrTraitMFC<wchar_t,ATL::ChTraitsCRT<wchar_t> > >
  00d13	c6 45 fc ac	 mov	 BYTE PTR __$EHRec$[ebp+8], 172 ; 000000acH

; 415  : 	_T(""),

  00d17	68 00 00 00 00	 push	 OFFSET ??_C@_1O@KHGDJIGO@Y?$CJg?$HPy?$LL_?$AAh?$MAmK?$AA?$AA@
  00d1c	b9 b4 02 00 00	 mov	 ecx, OFFSET _strDeviceDescription+692
  00d21	e8 00 00 00 00	 call	 ??0?$CStringT@_WV?$StrTraitMFC@_WV?$ChTraitsCRT@_W@ATL@@@@@ATL@@QAE@PB_W@Z ; ATL::CStringT<wchar_t,StrTraitMFC<wchar_t,ATL::ChTraitsCRT<wchar_t> > >::CStringT<wchar_t,StrTraitMFC<wchar_t,ATL::ChTraitsCRT<wchar_t> > >
  00d26	c6 45 fc ad	 mov	 BYTE PTR __$EHRec$[ebp+8], 173 ; 000000adH

; 416  : 	_T(""),

  00d2a	68 00 00 00 00	 push	 OFFSET ??_C@_1O@KJGOGIJF@?$FO?$JFg?$HPb?$KM?$INwh?$MAmK?$AA?$AA@
  00d2f	b9 b8 02 00 00	 mov	 ecx, OFFSET _strDeviceDescription+696
  00d34	e8 00 00 00 00	 call	 ??0?$CStringT@_WV?$StrTraitMFC@_WV?$ChTraitsCRT@_W@ATL@@@@@ATL@@QAE@PB_W@Z ; ATL::CStringT<wchar_t,StrTraitMFC<wchar_t,ATL::ChTraitsCRT<wchar_t> > >::CStringT<wchar_t,StrTraitMFC<wchar_t,ATL::ChTraitsCRT<wchar_t> > >
  00d39	c6 45 fc ae	 mov	 BYTE PTR __$EHRec$[ebp+8], 174 ; 000000aeH

; 417  : 
; 418  : 	_T(""),

  00d3d	68 00 00 00 00	 push	 OFFSET ??_C@_1O@GEHFIJLB@N?6v?$HNpo?$HL?$LB?$IM?$AD?$IC?$IC?$AA?$AA@
  00d42	b9 bc 02 00 00	 mov	 ecx, OFFSET _strDeviceDescription+700
  00d47	e8 00 00 00 00	 call	 ??0?$CStringT@_WV?$StrTraitMFC@_WV?$ChTraitsCRT@_W@ATL@@@@@ATL@@QAE@PB_W@Z ; ATL::CStringT<wchar_t,StrTraitMFC<wchar_t,ATL::ChTraitsCRT<wchar_t> > >::CStringT<wchar_t,StrTraitMFC<wchar_t,ATL::ChTraitsCRT<wchar_t> > >
  00d4c	c6 45 fc af	 mov	 BYTE PTR __$EHRec$[ebp+8], 175 ; 000000afH

; 419  : 	_T(""),

  00d50	68 00 00 00 00	 push	 OFFSET ??_C@_1O@PJHKGIMH@N?$ALv?$HNpo?$HL?$LB?$IM?$AD?$IC?$IC?$AA?$AA@
  00d55	b9 c0 02 00 00	 mov	 ecx, OFFSET _strDeviceDescription+704
  00d5a	e8 00 00 00 00	 call	 ??0?$CStringT@_WV?$StrTraitMFC@_WV?$ChTraitsCRT@_W@ATL@@@@@ATL@@QAE@PB_W@Z ; ATL::CStringT<wchar_t,StrTraitMFC<wchar_t,ATL::ChTraitsCRT<wchar_t> > >::CStringT<wchar_t,StrTraitMFC<wchar_t,ATL::ChTraitsCRT<wchar_t> > >
  00d5f	c6 45 fc b0	 mov	 BYTE PTR __$EHRec$[ebp+8], 176 ; 000000b0H

; 420  : 	_T(""),

  00d63	68 00 00 00 00	 push	 OFFSET ??_C@_1BA@PNAPHFAN@N?6?$ICrSaQIn?$JA?$IM?$AD?$IC?$IC?$AA?$AA@
  00d68	b9 c4 02 00 00	 mov	 ecx, OFFSET _strDeviceDescription+708
  00d6d	e8 00 00 00 00	 call	 ??0?$CStringT@_WV?$StrTraitMFC@_WV?$ChTraitsCRT@_W@ATL@@@@@ATL@@QAE@PB_W@Z ; ATL::CStringT<wchar_t,StrTraitMFC<wchar_t,ATL::ChTraitsCRT<wchar_t> > >::CStringT<wchar_t,StrTraitMFC<wchar_t,ATL::ChTraitsCRT<wchar_t> > >
  00d72	c6 45 fc b1	 mov	 BYTE PTR __$EHRec$[ebp+8], 177 ; 000000b1H

; 421  : 	_T("")
; 422  : };

  00d76	68 00 00 00 00	 push	 OFFSET ??_C@_1BA@FDGHOEJM@N?$AL?$ICrSaQIn?$JA?$IM?$AD?$IC?$IC?$AA?$AA@
  00d7b	b9 c8 02 00 00	 mov	 ecx, OFFSET _strDeviceDescription+712
  00d80	e8 00 00 00 00	 call	 ??0?$CStringT@_WV?$StrTraitMFC@_WV?$ChTraitsCRT@_W@ATL@@@@@ATL@@QAE@PB_W@Z ; ATL::CStringT<wchar_t,StrTraitMFC<wchar_t,ATL::ChTraitsCRT<wchar_t> > >::CStringT<wchar_t,StrTraitMFC<wchar_t,ATL::ChTraitsCRT<wchar_t> > >
  00d85	c7 45 fc ff ff
	ff ff		 mov	 DWORD PTR __$EHRec$[ebp+8], -1
  00d8c	68 00 00 00 00	 push	 OFFSET ??__FstrDeviceDescription@@YAXXZ ; `dynamic atexit destructor for 'strDeviceDescription''
  00d91	e8 00 00 00 00	 call	 _atexit
  00d96	83 c4 04	 add	 esp, 4
  00d99	8b 4d f4	 mov	 ecx, DWORD PTR __$EHRec$[ebp]
  00d9c	64 89 0d 00 00
	00 00		 mov	 DWORD PTR fs:0, ecx
  00da3	59		 pop	 ecx
  00da4	5f		 pop	 edi
  00da5	5e		 pop	 esi
  00da6	5b		 pop	 ebx
  00da7	81 c4 cc 00 00
	00		 add	 esp, 204		; 000000ccH
  00dad	3b ec		 cmp	 ebp, esp
  00daf	e8 00 00 00 00	 call	 __RTC_CheckEsp
  00db4	8b e5		 mov	 esp, ebp
  00db6	5d		 pop	 ebp
  00db7	c3		 ret	 0
text$yc	ENDS
;	COMDAT text$x
text$x	SEGMENT
__unwindfunclet$??__EstrDeviceDescription@@YAXXZ$0:
  00000	b9 00 00 00 00	 mov	 ecx, OFFSET _strDeviceDescription
  00005	e9 00 00 00 00	 jmp	 ??1?$CStringT@_WV?$StrTraitMFC@_WV?$ChTraitsCRT@_W@ATL@@@@@ATL@@QAE@XZ ; ATL::CStringT<wchar_t,StrTraitMFC<wchar_t,ATL::ChTraitsCRT<wchar_t> > >::~CStringT<wchar_t,StrTraitMFC<wchar_t,ATL::ChTraitsCRT<wchar_t> > >
__unwindfunclet$??__EstrDeviceDescription@@YAXXZ$1:
  0000a	b9 04 00 00 00	 mov	 ecx, OFFSET _strDeviceDescription+4
  0000f	e9 00 00 00 00	 jmp	 ??1?$CStringT@_WV?$StrTraitMFC@_WV?$ChTraitsCRT@_W@ATL@@@@@ATL@@QAE@XZ ; ATL::CStringT<wchar_t,StrTraitMFC<wchar_t,ATL::ChTraitsCRT<wchar_t> > >::~CStringT<wchar_t,StrTraitMFC<wchar_t,ATL::ChTraitsCRT<wchar_t> > >
__unwindfunclet$??__EstrDeviceDescription@@YAXXZ$2:
  00014	b9 08 00 00 00	 mov	 ecx, OFFSET _strDeviceDescription+8
  00019	e9 00 00 00 00	 jmp	 ??1?$CStringT@_WV?$StrTraitMFC@_WV?$ChTraitsCRT@_W@ATL@@@@@ATL@@QAE@XZ ; ATL::CStringT<wchar_t,StrTraitMFC<wchar_t,ATL::ChTraitsCRT<wchar_t> > >::~CStringT<wchar_t,StrTraitMFC<wchar_t,ATL::ChTraitsCRT<wchar_t> > >
__unwindfunclet$??__EstrDeviceDescription@@YAXXZ$3:
  0001e	b9 0c 00 00 00	 mov	 ecx, OFFSET _strDeviceDescription+12
  00023	e9 00 00 00 00	 jmp	 ??1?$CStringT@_WV?$StrTraitMFC@_WV?$ChTraitsCRT@_W@ATL@@@@@ATL@@QAE@XZ ; ATL::CStringT<wchar_t,StrTraitMFC<wchar_t,ATL::ChTraitsCRT<wchar_t> > >::~CStringT<wchar_t,StrTraitMFC<wchar_t,ATL::ChTraitsCRT<wchar_t> > >
__unwindfunclet$??__EstrDeviceDescription@@YAXXZ$4:
  00028	b9 10 00 00 00	 mov	 ecx, OFFSET _strDeviceDescription+16
  0002d	e9 00 00 00 00	 jmp	 ??1?$CStringT@_WV?$StrTraitMFC@_WV?$ChTraitsCRT@_W@ATL@@@@@ATL@@QAE@XZ ; ATL::CStringT<wchar_t,StrTraitMFC<wchar_t,ATL::ChTraitsCRT<wchar_t> > >::~CStringT<wchar_t,StrTraitMFC<wchar_t,ATL::ChTraitsCRT<wchar_t> > >
__unwindfunclet$??__EstrDeviceDescription@@YAXXZ$5:
  00032	b9 14 00 00 00	 mov	 ecx, OFFSET _strDeviceDescription+20
  00037	e9 00 00 00 00	 jmp	 ??1?$CStringT@_WV?$StrTraitMFC@_WV?$ChTraitsCRT@_W@ATL@@@@@ATL@@QAE@XZ ; ATL::CStringT<wchar_t,StrTraitMFC<wchar_t,ATL::ChTraitsCRT<wchar_t> > >::~CStringT<wchar_t,StrTraitMFC<wchar_t,ATL::ChTraitsCRT<wchar_t> > >
__unwindfunclet$??__EstrDeviceDescription@@YAXXZ$6:
  0003c	b9 18 00 00 00	 mov	 ecx, OFFSET _strDeviceDescription+24
  00041	e9 00 00 00 00	 jmp	 ??1?$CStringT@_WV?$StrTraitMFC@_WV?$ChTraitsCRT@_W@ATL@@@@@ATL@@QAE@XZ ; ATL::CStringT<wchar_t,StrTraitMFC<wchar_t,ATL::ChTraitsCRT<wchar_t> > >::~CStringT<wchar_t,StrTraitMFC<wchar_t,ATL::ChTraitsCRT<wchar_t> > >
__unwindfunclet$??__EstrDeviceDescription@@YAXXZ$7:
  00046	b9 1c 00 00 00	 mov	 ecx, OFFSET _strDeviceDescription+28
  0004b	e9 00 00 00 00	 jmp	 ??1?$CStringT@_WV?$StrTraitMFC@_WV?$ChTraitsCRT@_W@ATL@@@@@ATL@@QAE@XZ ; ATL::CStringT<wchar_t,StrTraitMFC<wchar_t,ATL::ChTraitsCRT<wchar_t> > >::~CStringT<wchar_t,StrTraitMFC<wchar_t,ATL::ChTraitsCRT<wchar_t> > >
__unwindfunclet$??__EstrDeviceDescription@@YAXXZ$8:
  00050	b9 20 00 00 00	 mov	 ecx, OFFSET _strDeviceDescription+32
  00055	e9 00 00 00 00	 jmp	 ??1?$CStringT@_WV?$StrTraitMFC@_WV?$ChTraitsCRT@_W@ATL@@@@@ATL@@QAE@XZ ; ATL::CStringT<wchar_t,StrTraitMFC<wchar_t,ATL::ChTraitsCRT<wchar_t> > >::~CStringT<wchar_t,StrTraitMFC<wchar_t,ATL::ChTraitsCRT<wchar_t> > >
__unwindfunclet$??__EstrDeviceDescription@@YAXXZ$9:
  0005a	b9 24 00 00 00	 mov	 ecx, OFFSET _strDeviceDescription+36
  0005f	e9 00 00 00 00	 jmp	 ??1?$CStringT@_WV?$StrTraitMFC@_WV?$ChTraitsCRT@_W@ATL@@@@@ATL@@QAE@XZ ; ATL::CStringT<wchar_t,StrTraitMFC<wchar_t,ATL::ChTraitsCRT<wchar_t> > >::~CStringT<wchar_t,StrTraitMFC<wchar_t,ATL::ChTraitsCRT<wchar_t> > >
__unwindfunclet$??__EstrDeviceDescription@@YAXXZ$10:
  00064	b9 28 00 00 00	 mov	 ecx, OFFSET _strDeviceDescription+40
  00069	e9 00 00 00 00	 jmp	 ??1?$CStringT@_WV?$StrTraitMFC@_WV?$ChTraitsCRT@_W@ATL@@@@@ATL@@QAE@XZ ; ATL::CStringT<wchar_t,StrTraitMFC<wchar_t,ATL::ChTraitsCRT<wchar_t> > >::~CStringT<wchar_t,StrTraitMFC<wchar_t,ATL::ChTraitsCRT<wchar_t> > >
__unwindfunclet$??__EstrDeviceDescription@@YAXXZ$11:
  0006e	b9 2c 00 00 00	 mov	 ecx, OFFSET _strDeviceDescription+44
  00073	e9 00 00 00 00	 jmp	 ??1?$CStringT@_WV?$StrTraitMFC@_WV?$ChTraitsCRT@_W@ATL@@@@@ATL@@QAE@XZ ; ATL::CStringT<wchar_t,StrTraitMFC<wchar_t,ATL::ChTraitsCRT<wchar_t> > >::~CStringT<wchar_t,StrTraitMFC<wchar_t,ATL::ChTraitsCRT<wchar_t> > >
__unwindfunclet$??__EstrDeviceDescription@@YAXXZ$12:
  00078	b9 30 00 00 00	 mov	 ecx, OFFSET _strDeviceDescription+48
  0007d	e9 00 00 00 00	 jmp	 ??1?$CStringT@_WV?$StrTraitMFC@_WV?$ChTraitsCRT@_W@ATL@@@@@ATL@@QAE@XZ ; ATL::CStringT<wchar_t,StrTraitMFC<wchar_t,ATL::ChTraitsCRT<wchar_t> > >::~CStringT<wchar_t,StrTraitMFC<wchar_t,ATL::ChTraitsCRT<wchar_t> > >
__unwindfunclet$??__EstrDeviceDescription@@YAXXZ$13:
  00082	b9 34 00 00 00	 mov	 ecx, OFFSET _strDeviceDescription+52
  00087	e9 00 00 00 00	 jmp	 ??1?$CStringT@_WV?$StrTraitMFC@_WV?$ChTraitsCRT@_W@ATL@@@@@ATL@@QAE@XZ ; ATL::CStringT<wchar_t,StrTraitMFC<wchar_t,ATL::ChTraitsCRT<wchar_t> > >::~CStringT<wchar_t,StrTraitMFC<wchar_t,ATL::ChTraitsCRT<wchar_t> > >
__unwindfunclet$??__EstrDeviceDescription@@YAXXZ$14:
  0008c	b9 38 00 00 00	 mov	 ecx, OFFSET _strDeviceDescription+56
  00091	e9 00 00 00 00	 jmp	 ??1?$CStringT@_WV?$StrTraitMFC@_WV?$ChTraitsCRT@_W@ATL@@@@@ATL@@QAE@XZ ; ATL::CStringT<wchar_t,StrTraitMFC<wchar_t,ATL::ChTraitsCRT<wchar_t> > >::~CStringT<wchar_t,StrTraitMFC<wchar_t,ATL::ChTraitsCRT<wchar_t> > >
__unwindfunclet$??__EstrDeviceDescription@@YAXXZ$15:
  00096	b9 3c 00 00 00	 mov	 ecx, OFFSET _strDeviceDescription+60
  0009b	e9 00 00 00 00	 jmp	 ??1?$CStringT@_WV?$StrTraitMFC@_WV?$ChTraitsCRT@_W@ATL@@@@@ATL@@QAE@XZ ; ATL::CStringT<wchar_t,StrTraitMFC<wchar_t,ATL::ChTraitsCRT<wchar_t> > >::~CStringT<wchar_t,StrTraitMFC<wchar_t,ATL::ChTraitsCRT<wchar_t> > >
__unwindfunclet$??__EstrDeviceDescription@@YAXXZ$16:
  000a0	b9 40 00 00 00	 mov	 ecx, OFFSET _strDeviceDescription+64
  000a5	e9 00 00 00 00	 jmp	 ??1?$CStringT@_WV?$StrTraitMFC@_WV?$ChTraitsCRT@_W@ATL@@@@@ATL@@QAE@XZ ; ATL::CStringT<wchar_t,StrTraitMFC<wchar_t,ATL::ChTraitsCRT<wchar_t> > >::~CStringT<wchar_t,StrTraitMFC<wchar_t,ATL::ChTraitsCRT<wchar_t> > >
__unwindfunclet$??__EstrDeviceDescription@@YAXXZ$17:
  000aa	b9 44 00 00 00	 mov	 ecx, OFFSET _strDeviceDescription+68
  000af	e9 00 00 00 00	 jmp	 ??1?$CStringT@_WV?$StrTraitMFC@_WV?$ChTraitsCRT@_W@ATL@@@@@ATL@@QAE@XZ ; ATL::CStringT<wchar_t,StrTraitMFC<wchar_t,ATL::ChTraitsCRT<wchar_t> > >::~CStringT<wchar_t,StrTraitMFC<wchar_t,ATL::ChTraitsCRT<wchar_t> > >
__unwindfunclet$??__EstrDeviceDescription@@YAXXZ$18:
  000b4	b9 48 00 00 00	 mov	 ecx, OFFSET _strDeviceDescription+72
  000b9	e9 00 00 00 00	 jmp	 ??1?$CStringT@_WV?$StrTraitMFC@_WV?$ChTraitsCRT@_W@ATL@@@@@ATL@@QAE@XZ ; ATL::CStringT<wchar_t,StrTraitMFC<wchar_t,ATL::ChTraitsCRT<wchar_t> > >::~CStringT<wchar_t,StrTraitMFC<wchar_t,ATL::ChTraitsCRT<wchar_t> > >
__unwindfunclet$??__EstrDeviceDescription@@YAXXZ$19:
  000be	b9 4c 00 00 00	 mov	 ecx, OFFSET _strDeviceDescription+76
  000c3	e9 00 00 00 00	 jmp	 ??1?$CStringT@_WV?$StrTraitMFC@_WV?$ChTraitsCRT@_W@ATL@@@@@ATL@@QAE@XZ ; ATL::CStringT<wchar_t,StrTraitMFC<wchar_t,ATL::ChTraitsCRT<wchar_t> > >::~CStringT<wchar_t,StrTraitMFC<wchar_t,ATL::ChTraitsCRT<wchar_t> > >
__unwindfunclet$??__EstrDeviceDescription@@YAXXZ$20:
  000c8	b9 50 00 00 00	 mov	 ecx, OFFSET _strDeviceDescription+80
  000cd	e9 00 00 00 00	 jmp	 ??1?$CStringT@_WV?$StrTraitMFC@_WV?$ChTraitsCRT@_W@ATL@@@@@ATL@@QAE@XZ ; ATL::CStringT<wchar_t,StrTraitMFC<wchar_t,ATL::ChTraitsCRT<wchar_t> > >::~CStringT<wchar_t,StrTraitMFC<wchar_t,ATL::ChTraitsCRT<wchar_t> > >
__unwindfunclet$??__EstrDeviceDescription@@YAXXZ$21:
  000d2	b9 54 00 00 00	 mov	 ecx, OFFSET _strDeviceDescription+84
  000d7	e9 00 00 00 00	 jmp	 ??1?$CStringT@_WV?$StrTraitMFC@_WV?$ChTraitsCRT@_W@ATL@@@@@ATL@@QAE@XZ ; ATL::CStringT<wchar_t,StrTraitMFC<wchar_t,ATL::ChTraitsCRT<wchar_t> > >::~CStringT<wchar_t,StrTraitMFC<wchar_t,ATL::ChTraitsCRT<wchar_t> > >
__unwindfunclet$??__EstrDeviceDescription@@YAXXZ$22:
  000dc	b9 58 00 00 00	 mov	 ecx, OFFSET _strDeviceDescription+88
  000e1	e9 00 00 00 00	 jmp	 ??1?$CStringT@_WV?$StrTraitMFC@_WV?$ChTraitsCRT@_W@ATL@@@@@ATL@@QAE@XZ ; ATL::CStringT<wchar_t,StrTraitMFC<wchar_t,ATL::ChTraitsCRT<wchar_t> > >::~CStringT<wchar_t,StrTraitMFC<wchar_t,ATL::ChTraitsCRT<wchar_t> > >
__unwindfunclet$??__EstrDeviceDescription@@YAXXZ$23:
  000e6	b9 5c 00 00 00	 mov	 ecx, OFFSET _strDeviceDescription+92
  000eb	e9 00 00 00 00	 jmp	 ??1?$CStringT@_WV?$StrTraitMFC@_WV?$ChTraitsCRT@_W@ATL@@@@@ATL@@QAE@XZ ; ATL::CStringT<wchar_t,StrTraitMFC<wchar_t,ATL::ChTraitsCRT<wchar_t> > >::~CStringT<wchar_t,StrTraitMFC<wchar_t,ATL::ChTraitsCRT<wchar_t> > >
__unwindfunclet$??__EstrDeviceDescription@@YAXXZ$24:
  000f0	b9 60 00 00 00	 mov	 ecx, OFFSET _strDeviceDescription+96
  000f5	e9 00 00 00 00	 jmp	 ??1?$CStringT@_WV?$StrTraitMFC@_WV?$ChTraitsCRT@_W@ATL@@@@@ATL@@QAE@XZ ; ATL::CStringT<wchar_t,StrTraitMFC<wchar_t,ATL::ChTraitsCRT<wchar_t> > >::~CStringT<wchar_t,StrTraitMFC<wchar_t,ATL::ChTraitsCRT<wchar_t> > >
__unwindfunclet$??__EstrDeviceDescription@@YAXXZ$25:
  000fa	b9 64 00 00 00	 mov	 ecx, OFFSET _strDeviceDescription+100
  000ff	e9 00 00 00 00	 jmp	 ??1?$CStringT@_WV?$StrTraitMFC@_WV?$ChTraitsCRT@_W@ATL@@@@@ATL@@QAE@XZ ; ATL::CStringT<wchar_t,StrTraitMFC<wchar_t,ATL::ChTraitsCRT<wchar_t> > >::~CStringT<wchar_t,StrTraitMFC<wchar_t,ATL::ChTraitsCRT<wchar_t> > >
__unwindfunclet$??__EstrDeviceDescription@@YAXXZ$26:
  00104	b9 68 00 00 00	 mov	 ecx, OFFSET _strDeviceDescription+104
  00109	e9 00 00 00 00	 jmp	 ??1?$CStringT@_WV?$StrTraitMFC@_WV?$ChTraitsCRT@_W@ATL@@@@@ATL@@QAE@XZ ; ATL::CStringT<wchar_t,StrTraitMFC<wchar_t,ATL::ChTraitsCRT<wchar_t> > >::~CStringT<wchar_t,StrTraitMFC<wchar_t,ATL::ChTraitsCRT<wchar_t> > >
__unwindfunclet$??__EstrDeviceDescription@@YAXXZ$27:
  0010e	b9 6c 00 00 00	 mov	 ecx, OFFSET _strDeviceDescription+108
  00113	e9 00 00 00 00	 jmp	 ??1?$CStringT@_WV?$StrTraitMFC@_WV?$ChTraitsCRT@_W@ATL@@@@@ATL@@QAE@XZ ; ATL::CStringT<wchar_t,StrTraitMFC<wchar_t,ATL::ChTraitsCRT<wchar_t> > >::~CStringT<wchar_t,StrTraitMFC<wchar_t,ATL::ChTraitsCRT<wchar_t> > >
__unwindfunclet$??__EstrDeviceDescription@@YAXXZ$28:
  00118	b9 70 00 00 00	 mov	 ecx, OFFSET _strDeviceDescription+112
  0011d	e9 00 00 00 00	 jmp	 ??1?$CStringT@_WV?$StrTraitMFC@_WV?$ChTraitsCRT@_W@ATL@@@@@ATL@@QAE@XZ ; ATL::CStringT<wchar_t,StrTraitMFC<wchar_t,ATL::ChTraitsCRT<wchar_t> > >::~CStringT<wchar_t,StrTraitMFC<wchar_t,ATL::ChTraitsCRT<wchar_t> > >
__unwindfunclet$??__EstrDeviceDescription@@YAXXZ$29:
  00122	b9 74 00 00 00	 mov	 ecx, OFFSET _strDeviceDescription+116
  00127	e9 00 00 00 00	 jmp	 ??1?$CStringT@_WV?$StrTraitMFC@_WV?$ChTraitsCRT@_W@ATL@@@@@ATL@@QAE@XZ ; ATL::CStringT<wchar_t,StrTraitMFC<wchar_t,ATL::ChTraitsCRT<wchar_t> > >::~CStringT<wchar_t,StrTraitMFC<wchar_t,ATL::ChTraitsCRT<wchar_t> > >
__unwindfunclet$??__EstrDeviceDescription@@YAXXZ$30:
  0012c	b9 78 00 00 00	 mov	 ecx, OFFSET _strDeviceDescription+120
  00131	e9 00 00 00 00	 jmp	 ??1?$CStringT@_WV?$StrTraitMFC@_WV?$ChTraitsCRT@_W@ATL@@@@@ATL@@QAE@XZ ; ATL::CStringT<wchar_t,StrTraitMFC<wchar_t,ATL::ChTraitsCRT<wchar_t> > >::~CStringT<wchar_t,StrTraitMFC<wchar_t,ATL::ChTraitsCRT<wchar_t> > >
__unwindfunclet$??__EstrDeviceDescription@@YAXXZ$31:
  00136	b9 7c 00 00 00	 mov	 ecx, OFFSET _strDeviceDescription+124
  0013b	e9 00 00 00 00	 jmp	 ??1?$CStringT@_WV?$StrTraitMFC@_WV?$ChTraitsCRT@_W@ATL@@@@@ATL@@QAE@XZ ; ATL::CStringT<wchar_t,StrTraitMFC<wchar_t,ATL::ChTraitsCRT<wchar_t> > >::~CStringT<wchar_t,StrTraitMFC<wchar_t,ATL::ChTraitsCRT<wchar_t> > >
__unwindfunclet$??__EstrDeviceDescription@@YAXXZ$32:
  00140	b9 80 00 00 00	 mov	 ecx, OFFSET _strDeviceDescription+128
  00145	e9 00 00 00 00	 jmp	 ??1?$CStringT@_WV?$StrTraitMFC@_WV?$ChTraitsCRT@_W@ATL@@@@@ATL@@QAE@XZ ; ATL::CStringT<wchar_t,StrTraitMFC<wchar_t,ATL::ChTraitsCRT<wchar_t> > >::~CStringT<wchar_t,StrTraitMFC<wchar_t,ATL::ChTraitsCRT<wchar_t> > >
__unwindfunclet$??__EstrDeviceDescription@@YAXXZ$33:
  0014a	b9 84 00 00 00	 mov	 ecx, OFFSET _strDeviceDescription+132
  0014f	e9 00 00 00 00	 jmp	 ??1?$CStringT@_WV?$StrTraitMFC@_WV?$ChTraitsCRT@_W@ATL@@@@@ATL@@QAE@XZ ; ATL::CStringT<wchar_t,StrTraitMFC<wchar_t,ATL::ChTraitsCRT<wchar_t> > >::~CStringT<wchar_t,StrTraitMFC<wchar_t,ATL::ChTraitsCRT<wchar_t> > >
__unwindfunclet$??__EstrDeviceDescription@@YAXXZ$34:
  00154	b9 88 00 00 00	 mov	 ecx, OFFSET _strDeviceDescription+136
  00159	e9 00 00 00 00	 jmp	 ??1?$CStringT@_WV?$StrTraitMFC@_WV?$ChTraitsCRT@_W@ATL@@@@@ATL@@QAE@XZ ; ATL::CStringT<wchar_t,StrTraitMFC<wchar_t,ATL::ChTraitsCRT<wchar_t> > >::~CStringT<wchar_t,StrTraitMFC<wchar_t,ATL::ChTraitsCRT<wchar_t> > >
__unwindfunclet$??__EstrDeviceDescription@@YAXXZ$35:
  0015e	b9 8c 00 00 00	 mov	 ecx, OFFSET _strDeviceDescription+140
  00163	e9 00 00 00 00	 jmp	 ??1?$CStringT@_WV?$StrTraitMFC@_WV?$ChTraitsCRT@_W@ATL@@@@@ATL@@QAE@XZ ; ATL::CStringT<wchar_t,StrTraitMFC<wchar_t,ATL::ChTraitsCRT<wchar_t> > >::~CStringT<wchar_t,StrTraitMFC<wchar_t,ATL::ChTraitsCRT<wchar_t> > >
__unwindfunclet$??__EstrDeviceDescription@@YAXXZ$36:
  00168	b9 90 00 00 00	 mov	 ecx, OFFSET _strDeviceDescription+144
  0016d	e9 00 00 00 00	 jmp	 ??1?$CStringT@_WV?$StrTraitMFC@_WV?$ChTraitsCRT@_W@ATL@@@@@ATL@@QAE@XZ ; ATL::CStringT<wchar_t,StrTraitMFC<wchar_t,ATL::ChTraitsCRT<wchar_t> > >::~CStringT<wchar_t,StrTraitMFC<wchar_t,ATL::ChTraitsCRT<wchar_t> > >
__unwindfunclet$??__EstrDeviceDescription@@YAXXZ$37:
  00172	b9 94 00 00 00	 mov	 ecx, OFFSET _strDeviceDescription+148
  00177	e9 00 00 00 00	 jmp	 ??1?$CStringT@_WV?$StrTraitMFC@_WV?$ChTraitsCRT@_W@ATL@@@@@ATL@@QAE@XZ ; ATL::CStringT<wchar_t,StrTraitMFC<wchar_t,ATL::ChTraitsCRT<wchar_t> > >::~CStringT<wchar_t,StrTraitMFC<wchar_t,ATL::ChTraitsCRT<wchar_t> > >
__unwindfunclet$??__EstrDeviceDescription@@YAXXZ$38:
  0017c	b9 98 00 00 00	 mov	 ecx, OFFSET _strDeviceDescription+152
  00181	e9 00 00 00 00	 jmp	 ??1?$CStringT@_WV?$StrTraitMFC@_WV?$ChTraitsCRT@_W@ATL@@@@@ATL@@QAE@XZ ; ATL::CStringT<wchar_t,StrTraitMFC<wchar_t,ATL::ChTraitsCRT<wchar_t> > >::~CStringT<wchar_t,StrTraitMFC<wchar_t,ATL::ChTraitsCRT<wchar_t> > >
__unwindfunclet$??__EstrDeviceDescription@@YAXXZ$39:
  00186	b9 9c 00 00 00	 mov	 ecx, OFFSET _strDeviceDescription+156
  0018b	e9 00 00 00 00	 jmp	 ??1?$CStringT@_WV?$StrTraitMFC@_WV?$ChTraitsCRT@_W@ATL@@@@@ATL@@QAE@XZ ; ATL::CStringT<wchar_t,StrTraitMFC<wchar_t,ATL::ChTraitsCRT<wchar_t> > >::~CStringT<wchar_t,StrTraitMFC<wchar_t,ATL::ChTraitsCRT<wchar_t> > >
__unwindfunclet$??__EstrDeviceDescription@@YAXXZ$40:
  00190	b9 a0 00 00 00	 mov	 ecx, OFFSET _strDeviceDescription+160
  00195	e9 00 00 00 00	 jmp	 ??1?$CStringT@_WV?$StrTraitMFC@_WV?$ChTraitsCRT@_W@ATL@@@@@ATL@@QAE@XZ ; ATL::CStringT<wchar_t,StrTraitMFC<wchar_t,ATL::ChTraitsCRT<wchar_t> > >::~CStringT<wchar_t,StrTraitMFC<wchar_t,ATL::ChTraitsCRT<wchar_t> > >
__unwindfunclet$??__EstrDeviceDescription@@YAXXZ$41:
  0019a	b9 a4 00 00 00	 mov	 ecx, OFFSET _strDeviceDescription+164
  0019f	e9 00 00 00 00	 jmp	 ??1?$CStringT@_WV?$StrTraitMFC@_WV?$ChTraitsCRT@_W@ATL@@@@@ATL@@QAE@XZ ; ATL::CStringT<wchar_t,StrTraitMFC<wchar_t,ATL::ChTraitsCRT<wchar_t> > >::~CStringT<wchar_t,StrTraitMFC<wchar_t,ATL::ChTraitsCRT<wchar_t> > >
__unwindfunclet$??__EstrDeviceDescription@@YAXXZ$42:
  001a4	b9 a8 00 00 00	 mov	 ecx, OFFSET _strDeviceDescription+168
  001a9	e9 00 00 00 00	 jmp	 ??1?$CStringT@_WV?$StrTraitMFC@_WV?$ChTraitsCRT@_W@ATL@@@@@ATL@@QAE@XZ ; ATL::CStringT<wchar_t,StrTraitMFC<wchar_t,ATL::ChTraitsCRT<wchar_t> > >::~CStringT<wchar_t,StrTraitMFC<wchar_t,ATL::ChTraitsCRT<wchar_t> > >
__unwindfunclet$??__EstrDeviceDescription@@YAXXZ$43:
  001ae	b9 ac 00 00 00	 mov	 ecx, OFFSET _strDeviceDescription+172
  001b3	e9 00 00 00 00	 jmp	 ??1?$CStringT@_WV?$StrTraitMFC@_WV?$ChTraitsCRT@_W@ATL@@@@@ATL@@QAE@XZ ; ATL::CStringT<wchar_t,StrTraitMFC<wchar_t,ATL::ChTraitsCRT<wchar_t> > >::~CStringT<wchar_t,StrTraitMFC<wchar_t,ATL::ChTraitsCRT<wchar_t> > >
__unwindfunclet$??__EstrDeviceDescription@@YAXXZ$44:
  001b8	b9 b0 00 00 00	 mov	 ecx, OFFSET _strDeviceDescription+176
  001bd	e9 00 00 00 00	 jmp	 ??1?$CStringT@_WV?$StrTraitMFC@_WV?$ChTraitsCRT@_W@ATL@@@@@ATL@@QAE@XZ ; ATL::CStringT<wchar_t,StrTraitMFC<wchar_t,ATL::ChTraitsCRT<wchar_t> > >::~CStringT<wchar_t,StrTraitMFC<wchar_t,ATL::ChTraitsCRT<wchar_t> > >
__unwindfunclet$??__EstrDeviceDescription@@YAXXZ$45:
  001c2	b9 b4 00 00 00	 mov	 ecx, OFFSET _strDeviceDescription+180
  001c7	e9 00 00 00 00	 jmp	 ??1?$CStringT@_WV?$StrTraitMFC@_WV?$ChTraitsCRT@_W@ATL@@@@@ATL@@QAE@XZ ; ATL::CStringT<wchar_t,StrTraitMFC<wchar_t,ATL::ChTraitsCRT<wchar_t> > >::~CStringT<wchar_t,StrTraitMFC<wchar_t,ATL::ChTraitsCRT<wchar_t> > >
__unwindfunclet$??__EstrDeviceDescription@@YAXXZ$46:
  001cc	b9 b8 00 00 00	 mov	 ecx, OFFSET _strDeviceDescription+184
  001d1	e9 00 00 00 00	 jmp	 ??1?$CStringT@_WV?$StrTraitMFC@_WV?$ChTraitsCRT@_W@ATL@@@@@ATL@@QAE@XZ ; ATL::CStringT<wchar_t,StrTraitMFC<wchar_t,ATL::ChTraitsCRT<wchar_t> > >::~CStringT<wchar_t,StrTraitMFC<wchar_t,ATL::ChTraitsCRT<wchar_t> > >
__unwindfunclet$??__EstrDeviceDescription@@YAXXZ$47:
  001d6	b9 bc 00 00 00	 mov	 ecx, OFFSET _strDeviceDescription+188
  001db	e9 00 00 00 00	 jmp	 ??1?$CStringT@_WV?$StrTraitMFC@_WV?$ChTraitsCRT@_W@ATL@@@@@ATL@@QAE@XZ ; ATL::CStringT<wchar_t,StrTraitMFC<wchar_t,ATL::ChTraitsCRT<wchar_t> > >::~CStringT<wchar_t,StrTraitMFC<wchar_t,ATL::ChTraitsCRT<wchar_t> > >
__unwindfunclet$??__EstrDeviceDescription@@YAXXZ$48:
  001e0	b9 c0 00 00 00	 mov	 ecx, OFFSET _strDeviceDescription+192
  001e5	e9 00 00 00 00	 jmp	 ??1?$CStringT@_WV?$StrTraitMFC@_WV?$ChTraitsCRT@_W@ATL@@@@@ATL@@QAE@XZ ; ATL::CStringT<wchar_t,StrTraitMFC<wchar_t,ATL::ChTraitsCRT<wchar_t> > >::~CStringT<wchar_t,StrTraitMFC<wchar_t,ATL::ChTraitsCRT<wchar_t> > >
__unwindfunclet$??__EstrDeviceDescription@@YAXXZ$49:
  001ea	b9 c4 00 00 00	 mov	 ecx, OFFSET _strDeviceDescription+196
  001ef	e9 00 00 00 00	 jmp	 ??1?$CStringT@_WV?$StrTraitMFC@_WV?$ChTraitsCRT@_W@ATL@@@@@ATL@@QAE@XZ ; ATL::CStringT<wchar_t,StrTraitMFC<wchar_t,ATL::ChTraitsCRT<wchar_t> > >::~CStringT<wchar_t,StrTraitMFC<wchar_t,ATL::ChTraitsCRT<wchar_t> > >
__unwindfunclet$??__EstrDeviceDescription@@YAXXZ$50:
  001f4	b9 c8 00 00 00	 mov	 ecx, OFFSET _strDeviceDescription+200
  001f9	e9 00 00 00 00	 jmp	 ??1?$CStringT@_WV?$StrTraitMFC@_WV?$ChTraitsCRT@_W@ATL@@@@@ATL@@QAE@XZ ; ATL::CStringT<wchar_t,StrTraitMFC<wchar_t,ATL::ChTraitsCRT<wchar_t> > >::~CStringT<wchar_t,StrTraitMFC<wchar_t,ATL::ChTraitsCRT<wchar_t> > >
__unwindfunclet$??__EstrDeviceDescription@@YAXXZ$51:
  001fe	b9 cc 00 00 00	 mov	 ecx, OFFSET _strDeviceDescription+204
  00203	e9 00 00 00 00	 jmp	 ??1?$CStringT@_WV?$StrTraitMFC@_WV?$ChTraitsCRT@_W@ATL@@@@@ATL@@QAE@XZ ; ATL::CStringT<wchar_t,StrTraitMFC<wchar_t,ATL::ChTraitsCRT<wchar_t> > >::~CStringT<wchar_t,StrTraitMFC<wchar_t,ATL::ChTraitsCRT<wchar_t> > >
__unwindfunclet$??__EstrDeviceDescription@@YAXXZ$52:
  00208	b9 d0 00 00 00	 mov	 ecx, OFFSET _strDeviceDescription+208
  0020d	e9 00 00 00 00	 jmp	 ??1?$CStringT@_WV?$StrTraitMFC@_WV?$ChTraitsCRT@_W@ATL@@@@@ATL@@QAE@XZ ; ATL::CStringT<wchar_t,StrTraitMFC<wchar_t,ATL::ChTraitsCRT<wchar_t> > >::~CStringT<wchar_t,StrTraitMFC<wchar_t,ATL::ChTraitsCRT<wchar_t> > >
__unwindfunclet$??__EstrDeviceDescription@@YAXXZ$53:
  00212	b9 d4 00 00 00	 mov	 ecx, OFFSET _strDeviceDescription+212
  00217	e9 00 00 00 00	 jmp	 ??1?$CStringT@_WV?$StrTraitMFC@_WV?$ChTraitsCRT@_W@ATL@@@@@ATL@@QAE@XZ ; ATL::CStringT<wchar_t,StrTraitMFC<wchar_t,ATL::ChTraitsCRT<wchar_t> > >::~CStringT<wchar_t,StrTraitMFC<wchar_t,ATL::ChTraitsCRT<wchar_t> > >
__unwindfunclet$??__EstrDeviceDescription@@YAXXZ$54:
  0021c	b9 d8 00 00 00	 mov	 ecx, OFFSET _strDeviceDescription+216
  00221	e9 00 00 00 00	 jmp	 ??1?$CStringT@_WV?$StrTraitMFC@_WV?$ChTraitsCRT@_W@ATL@@@@@ATL@@QAE@XZ ; ATL::CStringT<wchar_t,StrTraitMFC<wchar_t,ATL::ChTraitsCRT<wchar_t> > >::~CStringT<wchar_t,StrTraitMFC<wchar_t,ATL::ChTraitsCRT<wchar_t> > >
__unwindfunclet$??__EstrDeviceDescription@@YAXXZ$55:
  00226	b9 dc 00 00 00	 mov	 ecx, OFFSET _strDeviceDescription+220
  0022b	e9 00 00 00 00	 jmp	 ??1?$CStringT@_WV?$StrTraitMFC@_WV?$ChTraitsCRT@_W@ATL@@@@@ATL@@QAE@XZ ; ATL::CStringT<wchar_t,StrTraitMFC<wchar_t,ATL::ChTraitsCRT<wchar_t> > >::~CStringT<wchar_t,StrTraitMFC<wchar_t,ATL::ChTraitsCRT<wchar_t> > >
__unwindfunclet$??__EstrDeviceDescription@@YAXXZ$56:
  00230	b9 e0 00 00 00	 mov	 ecx, OFFSET _strDeviceDescription+224
  00235	e9 00 00 00 00	 jmp	 ??1?$CStringT@_WV?$StrTraitMFC@_WV?$ChTraitsCRT@_W@ATL@@@@@ATL@@QAE@XZ ; ATL::CStringT<wchar_t,StrTraitMFC<wchar_t,ATL::ChTraitsCRT<wchar_t> > >::~CStringT<wchar_t,StrTraitMFC<wchar_t,ATL::ChTraitsCRT<wchar_t> > >
__unwindfunclet$??__EstrDeviceDescription@@YAXXZ$57:
  0023a	b9 e4 00 00 00	 mov	 ecx, OFFSET _strDeviceDescription+228
  0023f	e9 00 00 00 00	 jmp	 ??1?$CStringT@_WV?$StrTraitMFC@_WV?$ChTraitsCRT@_W@ATL@@@@@ATL@@QAE@XZ ; ATL::CStringT<wchar_t,StrTraitMFC<wchar_t,ATL::ChTraitsCRT<wchar_t> > >::~CStringT<wchar_t,StrTraitMFC<wchar_t,ATL::ChTraitsCRT<wchar_t> > >
__unwindfunclet$??__EstrDeviceDescription@@YAXXZ$58:
  00244	b9 e8 00 00 00	 mov	 ecx, OFFSET _strDeviceDescription+232
  00249	e9 00 00 00 00	 jmp	 ??1?$CStringT@_WV?$StrTraitMFC@_WV?$ChTraitsCRT@_W@ATL@@@@@ATL@@QAE@XZ ; ATL::CStringT<wchar_t,StrTraitMFC<wchar_t,ATL::ChTraitsCRT<wchar_t> > >::~CStringT<wchar_t,StrTraitMFC<wchar_t,ATL::ChTraitsCRT<wchar_t> > >
__unwindfunclet$??__EstrDeviceDescription@@YAXXZ$59:
  0024e	b9 ec 00 00 00	 mov	 ecx, OFFSET _strDeviceDescription+236
  00253	e9 00 00 00 00	 jmp	 ??1?$CStringT@_WV?$StrTraitMFC@_WV?$ChTraitsCRT@_W@ATL@@@@@ATL@@QAE@XZ ; ATL::CStringT<wchar_t,StrTraitMFC<wchar_t,ATL::ChTraitsCRT<wchar_t> > >::~CStringT<wchar_t,StrTraitMFC<wchar_t,ATL::ChTraitsCRT<wchar_t> > >
__unwindfunclet$??__EstrDeviceDescription@@YAXXZ$60:
  00258	b9 f0 00 00 00	 mov	 ecx, OFFSET _strDeviceDescription+240
  0025d	e9 00 00 00 00	 jmp	 ??1?$CStringT@_WV?$StrTraitMFC@_WV?$ChTraitsCRT@_W@ATL@@@@@ATL@@QAE@XZ ; ATL::CStringT<wchar_t,StrTraitMFC<wchar_t,ATL::ChTraitsCRT<wchar_t> > >::~CStringT<wchar_t,StrTraitMFC<wchar_t,ATL::ChTraitsCRT<wchar_t> > >
__unwindfunclet$??__EstrDeviceDescription@@YAXXZ$61:
  00262	b9 f4 00 00 00	 mov	 ecx, OFFSET _strDeviceDescription+244
  00267	e9 00 00 00 00	 jmp	 ??1?$CStringT@_WV?$StrTraitMFC@_WV?$ChTraitsCRT@_W@ATL@@@@@ATL@@QAE@XZ ; ATL::CStringT<wchar_t,StrTraitMFC<wchar_t,ATL::ChTraitsCRT<wchar_t> > >::~CStringT<wchar_t,StrTraitMFC<wchar_t,ATL::ChTraitsCRT<wchar_t> > >
__unwindfunclet$??__EstrDeviceDescription@@YAXXZ$62:
  0026c	b9 f8 00 00 00	 mov	 ecx, OFFSET _strDeviceDescription+248
  00271	e9 00 00 00 00	 jmp	 ??1?$CStringT@_WV?$StrTraitMFC@_WV?$ChTraitsCRT@_W@ATL@@@@@ATL@@QAE@XZ ; ATL::CStringT<wchar_t,StrTraitMFC<wchar_t,ATL::ChTraitsCRT<wchar_t> > >::~CStringT<wchar_t,StrTraitMFC<wchar_t,ATL::ChTraitsCRT<wchar_t> > >
__unwindfunclet$??__EstrDeviceDescription@@YAXXZ$63:
  00276	b9 fc 00 00 00	 mov	 ecx, OFFSET _strDeviceDescription+252
  0027b	e9 00 00 00 00	 jmp	 ??1?$CStringT@_WV?$StrTraitMFC@_WV?$ChTraitsCRT@_W@ATL@@@@@ATL@@QAE@XZ ; ATL::CStringT<wchar_t,StrTraitMFC<wchar_t,ATL::ChTraitsCRT<wchar_t> > >::~CStringT<wchar_t,StrTraitMFC<wchar_t,ATL::ChTraitsCRT<wchar_t> > >
__unwindfunclet$??__EstrDeviceDescription@@YAXXZ$64:
  00280	b9 00 01 00 00	 mov	 ecx, OFFSET _strDeviceDescription+256
  00285	e9 00 00 00 00	 jmp	 ??1?$CStringT@_WV?$StrTraitMFC@_WV?$ChTraitsCRT@_W@ATL@@@@@ATL@@QAE@XZ ; ATL::CStringT<wchar_t,StrTraitMFC<wchar_t,ATL::ChTraitsCRT<wchar_t> > >::~CStringT<wchar_t,StrTraitMFC<wchar_t,ATL::ChTraitsCRT<wchar_t> > >
__unwindfunclet$??__EstrDeviceDescription@@YAXXZ$65:
  0028a	b9 04 01 00 00	 mov	 ecx, OFFSET _strDeviceDescription+260
  0028f	e9 00 00 00 00	 jmp	 ??1?$CStringT@_WV?$StrTraitMFC@_WV?$ChTraitsCRT@_W@ATL@@@@@ATL@@QAE@XZ ; ATL::CStringT<wchar_t,StrTraitMFC<wchar_t,ATL::ChTraitsCRT<wchar_t> > >::~CStringT<wchar_t,StrTraitMFC<wchar_t,ATL::ChTraitsCRT<wchar_t> > >
__unwindfunclet$??__EstrDeviceDescription@@YAXXZ$66:
  00294	b9 08 01 00 00	 mov	 ecx, OFFSET _strDeviceDescription+264
  00299	e9 00 00 00 00	 jmp	 ??1?$CStringT@_WV?$StrTraitMFC@_WV?$ChTraitsCRT@_W@ATL@@@@@ATL@@QAE@XZ ; ATL::CStringT<wchar_t,StrTraitMFC<wchar_t,ATL::ChTraitsCRT<wchar_t> > >::~CStringT<wchar_t,StrTraitMFC<wchar_t,ATL::ChTraitsCRT<wchar_t> > >
__unwindfunclet$??__EstrDeviceDescription@@YAXXZ$67:
  0029e	b9 0c 01 00 00	 mov	 ecx, OFFSET _strDeviceDescription+268
  002a3	e9 00 00 00 00	 jmp	 ??1?$CStringT@_WV?$StrTraitMFC@_WV?$ChTraitsCRT@_W@ATL@@@@@ATL@@QAE@XZ ; ATL::CStringT<wchar_t,StrTraitMFC<wchar_t,ATL::ChTraitsCRT<wchar_t> > >::~CStringT<wchar_t,StrTraitMFC<wchar_t,ATL::ChTraitsCRT<wchar_t> > >
__unwindfunclet$??__EstrDeviceDescription@@YAXXZ$68:
  002a8	b9 10 01 00 00	 mov	 ecx, OFFSET _strDeviceDescription+272
  002ad	e9 00 00 00 00	 jmp	 ??1?$CStringT@_WV?$StrTraitMFC@_WV?$ChTraitsCRT@_W@ATL@@@@@ATL@@QAE@XZ ; ATL::CStringT<wchar_t,StrTraitMFC<wchar_t,ATL::ChTraitsCRT<wchar_t> > >::~CStringT<wchar_t,StrTraitMFC<wchar_t,ATL::ChTraitsCRT<wchar_t> > >
__unwindfunclet$??__EstrDeviceDescription@@YAXXZ$69:
  002b2	b9 14 01 00 00	 mov	 ecx, OFFSET _strDeviceDescription+276
  002b7	e9 00 00 00 00	 jmp	 ??1?$CStringT@_WV?$StrTraitMFC@_WV?$ChTraitsCRT@_W@ATL@@@@@ATL@@QAE@XZ ; ATL::CStringT<wchar_t,StrTraitMFC<wchar_t,ATL::ChTraitsCRT<wchar_t> > >::~CStringT<wchar_t,StrTraitMFC<wchar_t,ATL::ChTraitsCRT<wchar_t> > >
__unwindfunclet$??__EstrDeviceDescription@@YAXXZ$70:
  002bc	b9 18 01 00 00	 mov	 ecx, OFFSET _strDeviceDescription+280
  002c1	e9 00 00 00 00	 jmp	 ??1?$CStringT@_WV?$StrTraitMFC@_WV?$ChTraitsCRT@_W@ATL@@@@@ATL@@QAE@XZ ; ATL::CStringT<wchar_t,StrTraitMFC<wchar_t,ATL::ChTraitsCRT<wchar_t> > >::~CStringT<wchar_t,StrTraitMFC<wchar_t,ATL::ChTraitsCRT<wchar_t> > >
__unwindfunclet$??__EstrDeviceDescription@@YAXXZ$71:
  002c6	b9 1c 01 00 00	 mov	 ecx, OFFSET _strDeviceDescription+284
  002cb	e9 00 00 00 00	 jmp	 ??1?$CStringT@_WV?$StrTraitMFC@_WV?$ChTraitsCRT@_W@ATL@@@@@ATL@@QAE@XZ ; ATL::CStringT<wchar_t,StrTraitMFC<wchar_t,ATL::ChTraitsCRT<wchar_t> > >::~CStringT<wchar_t,StrTraitMFC<wchar_t,ATL::ChTraitsCRT<wchar_t> > >
__unwindfunclet$??__EstrDeviceDescription@@YAXXZ$72:
  002d0	b9 20 01 00 00	 mov	 ecx, OFFSET _strDeviceDescription+288
  002d5	e9 00 00 00 00	 jmp	 ??1?$CStringT@_WV?$StrTraitMFC@_WV?$ChTraitsCRT@_W@ATL@@@@@ATL@@QAE@XZ ; ATL::CStringT<wchar_t,StrTraitMFC<wchar_t,ATL::ChTraitsCRT<wchar_t> > >::~CStringT<wchar_t,StrTraitMFC<wchar_t,ATL::ChTraitsCRT<wchar_t> > >
__unwindfunclet$??__EstrDeviceDescription@@YAXXZ$73:
  002da	b9 24 01 00 00	 mov	 ecx, OFFSET _strDeviceDescription+292
  002df	e9 00 00 00 00	 jmp	 ??1?$CStringT@_WV?$StrTraitMFC@_WV?$ChTraitsCRT@_W@ATL@@@@@ATL@@QAE@XZ ; ATL::CStringT<wchar_t,StrTraitMFC<wchar_t,ATL::ChTraitsCRT<wchar_t> > >::~CStringT<wchar_t,StrTraitMFC<wchar_t,ATL::ChTraitsCRT<wchar_t> > >
__unwindfunclet$??__EstrDeviceDescription@@YAXXZ$74:
  002e4	b9 28 01 00 00	 mov	 ecx, OFFSET _strDeviceDescription+296
  002e9	e9 00 00 00 00	 jmp	 ??1?$CStringT@_WV?$StrTraitMFC@_WV?$ChTraitsCRT@_W@ATL@@@@@ATL@@QAE@XZ ; ATL::CStringT<wchar_t,StrTraitMFC<wchar_t,ATL::ChTraitsCRT<wchar_t> > >::~CStringT<wchar_t,StrTraitMFC<wchar_t,ATL::ChTraitsCRT<wchar_t> > >
__unwindfunclet$??__EstrDeviceDescription@@YAXXZ$75:
  002ee	b9 2c 01 00 00	 mov	 ecx, OFFSET _strDeviceDescription+300
  002f3	e9 00 00 00 00	 jmp	 ??1?$CStringT@_WV?$StrTraitMFC@_WV?$ChTraitsCRT@_W@ATL@@@@@ATL@@QAE@XZ ; ATL::CStringT<wchar_t,StrTraitMFC<wchar_t,ATL::ChTraitsCRT<wchar_t> > >::~CStringT<wchar_t,StrTraitMFC<wchar_t,ATL::ChTraitsCRT<wchar_t> > >
__unwindfunclet$??__EstrDeviceDescription@@YAXXZ$76:
  002f8	b9 30 01 00 00	 mov	 ecx, OFFSET _strDeviceDescription+304
  002fd	e9 00 00 00 00	 jmp	 ??1?$CStringT@_WV?$StrTraitMFC@_WV?$ChTraitsCRT@_W@ATL@@@@@ATL@@QAE@XZ ; ATL::CStringT<wchar_t,StrTraitMFC<wchar_t,ATL::ChTraitsCRT<wchar_t> > >::~CStringT<wchar_t,StrTraitMFC<wchar_t,ATL::ChTraitsCRT<wchar_t> > >
__unwindfunclet$??__EstrDeviceDescription@@YAXXZ$77:
  00302	b9 34 01 00 00	 mov	 ecx, OFFSET _strDeviceDescription+308
  00307	e9 00 00 00 00	 jmp	 ??1?$CStringT@_WV?$StrTraitMFC@_WV?$ChTraitsCRT@_W@ATL@@@@@ATL@@QAE@XZ ; ATL::CStringT<wchar_t,StrTraitMFC<wchar_t,ATL::ChTraitsCRT<wchar_t> > >::~CStringT<wchar_t,StrTraitMFC<wchar_t,ATL::ChTraitsCRT<wchar_t> > >
__unwindfunclet$??__EstrDeviceDescription@@YAXXZ$78:
  0030c	b9 38 01 00 00	 mov	 ecx, OFFSET _strDeviceDescription+312
  00311	e9 00 00 00 00	 jmp	 ??1?$CStringT@_WV?$StrTraitMFC@_WV?$ChTraitsCRT@_W@ATL@@@@@ATL@@QAE@XZ ; ATL::CStringT<wchar_t,StrTraitMFC<wchar_t,ATL::ChTraitsCRT<wchar_t> > >::~CStringT<wchar_t,StrTraitMFC<wchar_t,ATL::ChTraitsCRT<wchar_t> > >
__unwindfunclet$??__EstrDeviceDescription@@YAXXZ$79:
  00316	b9 3c 01 00 00	 mov	 ecx, OFFSET _strDeviceDescription+316
  0031b	e9 00 00 00 00	 jmp	 ??1?$CStringT@_WV?$StrTraitMFC@_WV?$ChTraitsCRT@_W@ATL@@@@@ATL@@QAE@XZ ; ATL::CStringT<wchar_t,StrTraitMFC<wchar_t,ATL::ChTraitsCRT<wchar_t> > >::~CStringT<wchar_t,StrTraitMFC<wchar_t,ATL::ChTraitsCRT<wchar_t> > >
__unwindfunclet$??__EstrDeviceDescription@@YAXXZ$80:
  00320	b9 40 01 00 00	 mov	 ecx, OFFSET _strDeviceDescription+320
  00325	e9 00 00 00 00	 jmp	 ??1?$CStringT@_WV?$StrTraitMFC@_WV?$ChTraitsCRT@_W@ATL@@@@@ATL@@QAE@XZ ; ATL::CStringT<wchar_t,StrTraitMFC<wchar_t,ATL::ChTraitsCRT<wchar_t> > >::~CStringT<wchar_t,StrTraitMFC<wchar_t,ATL::ChTraitsCRT<wchar_t> > >
__unwindfunclet$??__EstrDeviceDescription@@YAXXZ$81:
  0032a	b9 44 01 00 00	 mov	 ecx, OFFSET _strDeviceDescription+324
  0032f	e9 00 00 00 00	 jmp	 ??1?$CStringT@_WV?$StrTraitMFC@_WV?$ChTraitsCRT@_W@ATL@@@@@ATL@@QAE@XZ ; ATL::CStringT<wchar_t,StrTraitMFC<wchar_t,ATL::ChTraitsCRT<wchar_t> > >::~CStringT<wchar_t,StrTraitMFC<wchar_t,ATL::ChTraitsCRT<wchar_t> > >
__unwindfunclet$??__EstrDeviceDescription@@YAXXZ$82:
  00334	b9 48 01 00 00	 mov	 ecx, OFFSET _strDeviceDescription+328
  00339	e9 00 00 00 00	 jmp	 ??1?$CStringT@_WV?$StrTraitMFC@_WV?$ChTraitsCRT@_W@ATL@@@@@ATL@@QAE@XZ ; ATL::CStringT<wchar_t,StrTraitMFC<wchar_t,ATL::ChTraitsCRT<wchar_t> > >::~CStringT<wchar_t,StrTraitMFC<wchar_t,ATL::ChTraitsCRT<wchar_t> > >
__unwindfunclet$??__EstrDeviceDescription@@YAXXZ$83:
  0033e	b9 4c 01 00 00	 mov	 ecx, OFFSET _strDeviceDescription+332
  00343	e9 00 00 00 00	 jmp	 ??1?$CStringT@_WV?$StrTraitMFC@_WV?$ChTraitsCRT@_W@ATL@@@@@ATL@@QAE@XZ ; ATL::CStringT<wchar_t,StrTraitMFC<wchar_t,ATL::ChTraitsCRT<wchar_t> > >::~CStringT<wchar_t,StrTraitMFC<wchar_t,ATL::ChTraitsCRT<wchar_t> > >
__unwindfunclet$??__EstrDeviceDescription@@YAXXZ$84:
  00348	b9 50 01 00 00	 mov	 ecx, OFFSET _strDeviceDescription+336
  0034d	e9 00 00 00 00	 jmp	 ??1?$CStringT@_WV?$StrTraitMFC@_WV?$ChTraitsCRT@_W@ATL@@@@@ATL@@QAE@XZ ; ATL::CStringT<wchar_t,StrTraitMFC<wchar_t,ATL::ChTraitsCRT<wchar_t> > >::~CStringT<wchar_t,StrTraitMFC<wchar_t,ATL::ChTraitsCRT<wchar_t> > >
__unwindfunclet$??__EstrDeviceDescription@@YAXXZ$85:
  00352	b9 54 01 00 00	 mov	 ecx, OFFSET _strDeviceDescription+340
  00357	e9 00 00 00 00	 jmp	 ??1?$CStringT@_WV?$StrTraitMFC@_WV?$ChTraitsCRT@_W@ATL@@@@@ATL@@QAE@XZ ; ATL::CStringT<wchar_t,StrTraitMFC<wchar_t,ATL::ChTraitsCRT<wchar_t> > >::~CStringT<wchar_t,StrTraitMFC<wchar_t,ATL::ChTraitsCRT<wchar_t> > >
__unwindfunclet$??__EstrDeviceDescription@@YAXXZ$86:
  0035c	b9 58 01 00 00	 mov	 ecx, OFFSET _strDeviceDescription+344
  00361	e9 00 00 00 00	 jmp	 ??1?$CStringT@_WV?$StrTraitMFC@_WV?$ChTraitsCRT@_W@ATL@@@@@ATL@@QAE@XZ ; ATL::CStringT<wchar_t,StrTraitMFC<wchar_t,ATL::ChTraitsCRT<wchar_t> > >::~CStringT<wchar_t,StrTraitMFC<wchar_t,ATL::ChTraitsCRT<wchar_t> > >
__unwindfunclet$??__EstrDeviceDescription@@YAXXZ$87:
  00366	b9 5c 01 00 00	 mov	 ecx, OFFSET _strDeviceDescription+348
  0036b	e9 00 00 00 00	 jmp	 ??1?$CStringT@_WV?$StrTraitMFC@_WV?$ChTraitsCRT@_W@ATL@@@@@ATL@@QAE@XZ ; ATL::CStringT<wchar_t,StrTraitMFC<wchar_t,ATL::ChTraitsCRT<wchar_t> > >::~CStringT<wchar_t,StrTraitMFC<wchar_t,ATL::ChTraitsCRT<wchar_t> > >
__unwindfunclet$??__EstrDeviceDescription@@YAXXZ$88:
  00370	b9 60 01 00 00	 mov	 ecx, OFFSET _strDeviceDescription+352
  00375	e9 00 00 00 00	 jmp	 ??1?$CStringT@_WV?$StrTraitMFC@_WV?$ChTraitsCRT@_W@ATL@@@@@ATL@@QAE@XZ ; ATL::CStringT<wchar_t,StrTraitMFC<wchar_t,ATL::ChTraitsCRT<wchar_t> > >::~CStringT<wchar_t,StrTraitMFC<wchar_t,ATL::ChTraitsCRT<wchar_t> > >
__unwindfunclet$??__EstrDeviceDescription@@YAXXZ$89:
  0037a	b9 64 01 00 00	 mov	 ecx, OFFSET _strDeviceDescription+356
  0037f	e9 00 00 00 00	 jmp	 ??1?$CStringT@_WV?$StrTraitMFC@_WV?$ChTraitsCRT@_W@ATL@@@@@ATL@@QAE@XZ ; ATL::CStringT<wchar_t,StrTraitMFC<wchar_t,ATL::ChTraitsCRT<wchar_t> > >::~CStringT<wchar_t,StrTraitMFC<wchar_t,ATL::ChTraitsCRT<wchar_t> > >
__unwindfunclet$??__EstrDeviceDescription@@YAXXZ$90:
  00384	b9 68 01 00 00	 mov	 ecx, OFFSET _strDeviceDescription+360
  00389	e9 00 00 00 00	 jmp	 ??1?$CStringT@_WV?$StrTraitMFC@_WV?$ChTraitsCRT@_W@ATL@@@@@ATL@@QAE@XZ ; ATL::CStringT<wchar_t,StrTraitMFC<wchar_t,ATL::ChTraitsCRT<wchar_t> > >::~CStringT<wchar_t,StrTraitMFC<wchar_t,ATL::ChTraitsCRT<wchar_t> > >
__unwindfunclet$??__EstrDeviceDescription@@YAXXZ$91:
  0038e	b9 6c 01 00 00	 mov	 ecx, OFFSET _strDeviceDescription+364
  00393	e9 00 00 00 00	 jmp	 ??1?$CStringT@_WV?$StrTraitMFC@_WV?$ChTraitsCRT@_W@ATL@@@@@ATL@@QAE@XZ ; ATL::CStringT<wchar_t,StrTraitMFC<wchar_t,ATL::ChTraitsCRT<wchar_t> > >::~CStringT<wchar_t,StrTraitMFC<wchar_t,ATL::ChTraitsCRT<wchar_t> > >
__unwindfunclet$??__EstrDeviceDescription@@YAXXZ$92:
  00398	b9 70 01 00 00	 mov	 ecx, OFFSET _strDeviceDescription+368
  0039d	e9 00 00 00 00	 jmp	 ??1?$CStringT@_WV?$StrTraitMFC@_WV?$ChTraitsCRT@_W@ATL@@@@@ATL@@QAE@XZ ; ATL::CStringT<wchar_t,StrTraitMFC<wchar_t,ATL::ChTraitsCRT<wchar_t> > >::~CStringT<wchar_t,StrTraitMFC<wchar_t,ATL::ChTraitsCRT<wchar_t> > >
__unwindfunclet$??__EstrDeviceDescription@@YAXXZ$93:
  003a2	b9 74 01 00 00	 mov	 ecx, OFFSET _strDeviceDescription+372
  003a7	e9 00 00 00 00	 jmp	 ??1?$CStringT@_WV?$StrTraitMFC@_WV?$ChTraitsCRT@_W@ATL@@@@@ATL@@QAE@XZ ; ATL::CStringT<wchar_t,StrTraitMFC<wchar_t,ATL::ChTraitsCRT<wchar_t> > >::~CStringT<wchar_t,StrTraitMFC<wchar_t,ATL::ChTraitsCRT<wchar_t> > >
__unwindfunclet$??__EstrDeviceDescription@@YAXXZ$94:
  003ac	b9 78 01 00 00	 mov	 ecx, OFFSET _strDeviceDescription+376
  003b1	e9 00 00 00 00	 jmp	 ??1?$CStringT@_WV?$StrTraitMFC@_WV?$ChTraitsCRT@_W@ATL@@@@@ATL@@QAE@XZ ; ATL::CStringT<wchar_t,StrTraitMFC<wchar_t,ATL::ChTraitsCRT<wchar_t> > >::~CStringT<wchar_t,StrTraitMFC<wchar_t,ATL::ChTraitsCRT<wchar_t> > >
__unwindfunclet$??__EstrDeviceDescription@@YAXXZ$95:
  003b6	b9 7c 01 00 00	 mov	 ecx, OFFSET _strDeviceDescription+380
  003bb	e9 00 00 00 00	 jmp	 ??1?$CStringT@_WV?$StrTraitMFC@_WV?$ChTraitsCRT@_W@ATL@@@@@ATL@@QAE@XZ ; ATL::CStringT<wchar_t,StrTraitMFC<wchar_t,ATL::ChTraitsCRT<wchar_t> > >::~CStringT<wchar_t,StrTraitMFC<wchar_t,ATL::ChTraitsCRT<wchar_t> > >
__unwindfunclet$??__EstrDeviceDescription@@YAXXZ$96:
  003c0	b9 80 01 00 00	 mov	 ecx, OFFSET _strDeviceDescription+384
  003c5	e9 00 00 00 00	 jmp	 ??1?$CStringT@_WV?$StrTraitMFC@_WV?$ChTraitsCRT@_W@ATL@@@@@ATL@@QAE@XZ ; ATL::CStringT<wchar_t,StrTraitMFC<wchar_t,ATL::ChTraitsCRT<wchar_t> > >::~CStringT<wchar_t,StrTraitMFC<wchar_t,ATL::ChTraitsCRT<wchar_t> > >
__unwindfunclet$??__EstrDeviceDescription@@YAXXZ$97:
  003ca	b9 84 01 00 00	 mov	 ecx, OFFSET _strDeviceDescription+388
  003cf	e9 00 00 00 00	 jmp	 ??1?$CStringT@_WV?$StrTraitMFC@_WV?$ChTraitsCRT@_W@ATL@@@@@ATL@@QAE@XZ ; ATL::CStringT<wchar_t,StrTraitMFC<wchar_t,ATL::ChTraitsCRT<wchar_t> > >::~CStringT<wchar_t,StrTraitMFC<wchar_t,ATL::ChTraitsCRT<wchar_t> > >
__unwindfunclet$??__EstrDeviceDescription@@YAXXZ$98:
  003d4	b9 88 01 00 00	 mov	 ecx, OFFSET _strDeviceDescription+392
  003d9	e9 00 00 00 00	 jmp	 ??1?$CStringT@_WV?$StrTraitMFC@_WV?$ChTraitsCRT@_W@ATL@@@@@ATL@@QAE@XZ ; ATL::CStringT<wchar_t,StrTraitMFC<wchar_t,ATL::ChTraitsCRT<wchar_t> > >::~CStringT<wchar_t,StrTraitMFC<wchar_t,ATL::ChTraitsCRT<wchar_t> > >
__unwindfunclet$??__EstrDeviceDescription@@YAXXZ$99:
  003de	b9 8c 01 00 00	 mov	 ecx, OFFSET _strDeviceDescription+396
  003e3	e9 00 00 00 00	 jmp	 ??1?$CStringT@_WV?$StrTraitMFC@_WV?$ChTraitsCRT@_W@ATL@@@@@ATL@@QAE@XZ ; ATL::CStringT<wchar_t,StrTraitMFC<wchar_t,ATL::ChTraitsCRT<wchar_t> > >::~CStringT<wchar_t,StrTraitMFC<wchar_t,ATL::ChTraitsCRT<wchar_t> > >
__unwindfunclet$??__EstrDeviceDescription@@YAXXZ$100:
  003e8	b9 90 01 00 00	 mov	 ecx, OFFSET _strDeviceDescription+400
  003ed	e9 00 00 00 00	 jmp	 ??1?$CStringT@_WV?$StrTraitMFC@_WV?$ChTraitsCRT@_W@ATL@@@@@ATL@@QAE@XZ ; ATL::CStringT<wchar_t,StrTraitMFC<wchar_t,ATL::ChTraitsCRT<wchar_t> > >::~CStringT<wchar_t,StrTraitMFC<wchar_t,ATL::ChTraitsCRT<wchar_t> > >
__unwindfunclet$??__EstrDeviceDescription@@YAXXZ$101:
  003f2	b9 94 01 00 00	 mov	 ecx, OFFSET _strDeviceDescription+404
  003f7	e9 00 00 00 00	 jmp	 ??1?$CStringT@_WV?$StrTraitMFC@_WV?$ChTraitsCRT@_W@ATL@@@@@ATL@@QAE@XZ ; ATL::CStringT<wchar_t,StrTraitMFC<wchar_t,ATL::ChTraitsCRT<wchar_t> > >::~CStringT<wchar_t,StrTraitMFC<wchar_t,ATL::ChTraitsCRT<wchar_t> > >
__unwindfunclet$??__EstrDeviceDescription@@YAXXZ$102:
  003fc	b9 98 01 00 00	 mov	 ecx, OFFSET _strDeviceDescription+408
  00401	e9 00 00 00 00	 jmp	 ??1?$CStringT@_WV?$StrTraitMFC@_WV?$ChTraitsCRT@_W@ATL@@@@@ATL@@QAE@XZ ; ATL::CStringT<wchar_t,StrTraitMFC<wchar_t,ATL::ChTraitsCRT<wchar_t> > >::~CStringT<wchar_t,StrTraitMFC<wchar_t,ATL::ChTraitsCRT<wchar_t> > >
__unwindfunclet$??__EstrDeviceDescription@@YAXXZ$103:
  00406	b9 9c 01 00 00	 mov	 ecx, OFFSET _strDeviceDescription+412
  0040b	e9 00 00 00 00	 jmp	 ??1?$CStringT@_WV?$StrTraitMFC@_WV?$ChTraitsCRT@_W@ATL@@@@@ATL@@QAE@XZ ; ATL::CStringT<wchar_t,StrTraitMFC<wchar_t,ATL::ChTraitsCRT<wchar_t> > >::~CStringT<wchar_t,StrTraitMFC<wchar_t,ATL::ChTraitsCRT<wchar_t> > >
__unwindfunclet$??__EstrDeviceDescription@@YAXXZ$104:
  00410	b9 a0 01 00 00	 mov	 ecx, OFFSET _strDeviceDescription+416
  00415	e9 00 00 00 00	 jmp	 ??1?$CStringT@_WV?$StrTraitMFC@_WV?$ChTraitsCRT@_W@ATL@@@@@ATL@@QAE@XZ ; ATL::CStringT<wchar_t,StrTraitMFC<wchar_t,ATL::ChTraitsCRT<wchar_t> > >::~CStringT<wchar_t,StrTraitMFC<wchar_t,ATL::ChTraitsCRT<wchar_t> > >
__unwindfunclet$??__EstrDeviceDescription@@YAXXZ$105:
  0041a	b9 a4 01 00 00	 mov	 ecx, OFFSET _strDeviceDescription+420
  0041f	e9 00 00 00 00	 jmp	 ??1?$CStringT@_WV?$StrTraitMFC@_WV?$ChTraitsCRT@_W@ATL@@@@@ATL@@QAE@XZ ; ATL::CStringT<wchar_t,StrTraitMFC<wchar_t,ATL::ChTraitsCRT<wchar_t> > >::~CStringT<wchar_t,StrTraitMFC<wchar_t,ATL::ChTraitsCRT<wchar_t> > >
__unwindfunclet$??__EstrDeviceDescription@@YAXXZ$106:
  00424	b9 a8 01 00 00	 mov	 ecx, OFFSET _strDeviceDescription+424
  00429	e9 00 00 00 00	 jmp	 ??1?$CStringT@_WV?$StrTraitMFC@_WV?$ChTraitsCRT@_W@ATL@@@@@ATL@@QAE@XZ ; ATL::CStringT<wchar_t,StrTraitMFC<wchar_t,ATL::ChTraitsCRT<wchar_t> > >::~CStringT<wchar_t,StrTraitMFC<wchar_t,ATL::ChTraitsCRT<wchar_t> > >
__unwindfunclet$??__EstrDeviceDescription@@YAXXZ$107:
  0042e	b9 ac 01 00 00	 mov	 ecx, OFFSET _strDeviceDescription+428
  00433	e9 00 00 00 00	 jmp	 ??1?$CStringT@_WV?$StrTraitMFC@_WV?$ChTraitsCRT@_W@ATL@@@@@ATL@@QAE@XZ ; ATL::CStringT<wchar_t,StrTraitMFC<wchar_t,ATL::ChTraitsCRT<wchar_t> > >::~CStringT<wchar_t,StrTraitMFC<wchar_t,ATL::ChTraitsCRT<wchar_t> > >
__unwindfunclet$??__EstrDeviceDescription@@YAXXZ$108:
  00438	b9 b0 01 00 00	 mov	 ecx, OFFSET _strDeviceDescription+432
  0043d	e9 00 00 00 00	 jmp	 ??1?$CStringT@_WV?$StrTraitMFC@_WV?$ChTraitsCRT@_W@ATL@@@@@ATL@@QAE@XZ ; ATL::CStringT<wchar_t,StrTraitMFC<wchar_t,ATL::ChTraitsCRT<wchar_t> > >::~CStringT<wchar_t,StrTraitMFC<wchar_t,ATL::ChTraitsCRT<wchar_t> > >
__unwindfunclet$??__EstrDeviceDescription@@YAXXZ$109:
  00442	b9 b4 01 00 00	 mov	 ecx, OFFSET _strDeviceDescription+436
  00447	e9 00 00 00 00	 jmp	 ??1?$CStringT@_WV?$StrTraitMFC@_WV?$ChTraitsCRT@_W@ATL@@@@@ATL@@QAE@XZ ; ATL::CStringT<wchar_t,StrTraitMFC<wchar_t,ATL::ChTraitsCRT<wchar_t> > >::~CStringT<wchar_t,StrTraitMFC<wchar_t,ATL::ChTraitsCRT<wchar_t> > >
__unwindfunclet$??__EstrDeviceDescription@@YAXXZ$110:
  0044c	b9 b8 01 00 00	 mov	 ecx, OFFSET _strDeviceDescription+440
  00451	e9 00 00 00 00	 jmp	 ??1?$CStringT@_WV?$StrTraitMFC@_WV?$ChTraitsCRT@_W@ATL@@@@@ATL@@QAE@XZ ; ATL::CStringT<wchar_t,StrTraitMFC<wchar_t,ATL::ChTraitsCRT<wchar_t> > >::~CStringT<wchar_t,StrTraitMFC<wchar_t,ATL::ChTraitsCRT<wchar_t> > >
__unwindfunclet$??__EstrDeviceDescription@@YAXXZ$111:
  00456	b9 bc 01 00 00	 mov	 ecx, OFFSET _strDeviceDescription+444
  0045b	e9 00 00 00 00	 jmp	 ??1?$CStringT@_WV?$StrTraitMFC@_WV?$ChTraitsCRT@_W@ATL@@@@@ATL@@QAE@XZ ; ATL::CStringT<wchar_t,StrTraitMFC<wchar_t,ATL::ChTraitsCRT<wchar_t> > >::~CStringT<wchar_t,StrTraitMFC<wchar_t,ATL::ChTraitsCRT<wchar_t> > >
__unwindfunclet$??__EstrDeviceDescription@@YAXXZ$112:
  00460	b9 c0 01 00 00	 mov	 ecx, OFFSET _strDeviceDescription+448
  00465	e9 00 00 00 00	 jmp	 ??1?$CStringT@_WV?$StrTraitMFC@_WV?$ChTraitsCRT@_W@ATL@@@@@ATL@@QAE@XZ ; ATL::CStringT<wchar_t,StrTraitMFC<wchar_t,ATL::ChTraitsCRT<wchar_t> > >::~CStringT<wchar_t,StrTraitMFC<wchar_t,ATL::ChTraitsCRT<wchar_t> > >
__unwindfunclet$??__EstrDeviceDescription@@YAXXZ$113:
  0046a	b9 c4 01 00 00	 mov	 ecx, OFFSET _strDeviceDescription+452
  0046f	e9 00 00 00 00	 jmp	 ??1?$CStringT@_WV?$StrTraitMFC@_WV?$ChTraitsCRT@_W@ATL@@@@@ATL@@QAE@XZ ; ATL::CStringT<wchar_t,StrTraitMFC<wchar_t,ATL::ChTraitsCRT<wchar_t> > >::~CStringT<wchar_t,StrTraitMFC<wchar_t,ATL::ChTraitsCRT<wchar_t> > >
__unwindfunclet$??__EstrDeviceDescription@@YAXXZ$114:
  00474	b9 c8 01 00 00	 mov	 ecx, OFFSET _strDeviceDescription+456
  00479	e9 00 00 00 00	 jmp	 ??1?$CStringT@_WV?$StrTraitMFC@_WV?$ChTraitsCRT@_W@ATL@@@@@ATL@@QAE@XZ ; ATL::CStringT<wchar_t,StrTraitMFC<wchar_t,ATL::ChTraitsCRT<wchar_t> > >::~CStringT<wchar_t,StrTraitMFC<wchar_t,ATL::ChTraitsCRT<wchar_t> > >
__unwindfunclet$??__EstrDeviceDescription@@YAXXZ$115:
  0047e	b9 cc 01 00 00	 mov	 ecx, OFFSET _strDeviceDescription+460
  00483	e9 00 00 00 00	 jmp	 ??1?$CStringT@_WV?$StrTraitMFC@_WV?$ChTraitsCRT@_W@ATL@@@@@ATL@@QAE@XZ ; ATL::CStringT<wchar_t,StrTraitMFC<wchar_t,ATL::ChTraitsCRT<wchar_t> > >::~CStringT<wchar_t,StrTraitMFC<wchar_t,ATL::ChTraitsCRT<wchar_t> > >
__unwindfunclet$??__EstrDeviceDescription@@YAXXZ$116:
  00488	b9 d0 01 00 00	 mov	 ecx, OFFSET _strDeviceDescription+464
  0048d	e9 00 00 00 00	 jmp	 ??1?$CStringT@_WV?$StrTraitMFC@_WV?$ChTraitsCRT@_W@ATL@@@@@ATL@@QAE@XZ ; ATL::CStringT<wchar_t,StrTraitMFC<wchar_t,ATL::ChTraitsCRT<wchar_t> > >::~CStringT<wchar_t,StrTraitMFC<wchar_t,ATL::ChTraitsCRT<wchar_t> > >
__unwindfunclet$??__EstrDeviceDescription@@YAXXZ$117:
  00492	b9 d4 01 00 00	 mov	 ecx, OFFSET _strDeviceDescription+468
  00497	e9 00 00 00 00	 jmp	 ??1?$CStringT@_WV?$StrTraitMFC@_WV?$ChTraitsCRT@_W@ATL@@@@@ATL@@QAE@XZ ; ATL::CStringT<wchar_t,StrTraitMFC<wchar_t,ATL::ChTraitsCRT<wchar_t> > >::~CStringT<wchar_t,StrTraitMFC<wchar_t,ATL::ChTraitsCRT<wchar_t> > >
__unwindfunclet$??__EstrDeviceDescription@@YAXXZ$118:
  0049c	b9 d8 01 00 00	 mov	 ecx, OFFSET _strDeviceDescription+472
  004a1	e9 00 00 00 00	 jmp	 ??1?$CStringT@_WV?$StrTraitMFC@_WV?$ChTraitsCRT@_W@ATL@@@@@ATL@@QAE@XZ ; ATL::CStringT<wchar_t,StrTraitMFC<wchar_t,ATL::ChTraitsCRT<wchar_t> > >::~CStringT<wchar_t,StrTraitMFC<wchar_t,ATL::ChTraitsCRT<wchar_t> > >
__unwindfunclet$??__EstrDeviceDescription@@YAXXZ$119:
  004a6	b9 dc 01 00 00	 mov	 ecx, OFFSET _strDeviceDescription+476
  004ab	e9 00 00 00 00	 jmp	 ??1?$CStringT@_WV?$StrTraitMFC@_WV?$ChTraitsCRT@_W@ATL@@@@@ATL@@QAE@XZ ; ATL::CStringT<wchar_t,StrTraitMFC<wchar_t,ATL::ChTraitsCRT<wchar_t> > >::~CStringT<wchar_t,StrTraitMFC<wchar_t,ATL::ChTraitsCRT<wchar_t> > >
__unwindfunclet$??__EstrDeviceDescription@@YAXXZ$120:
  004b0	b9 e0 01 00 00	 mov	 ecx, OFFSET _strDeviceDescription+480
  004b5	e9 00 00 00 00	 jmp	 ??1?$CStringT@_WV?$StrTraitMFC@_WV?$ChTraitsCRT@_W@ATL@@@@@ATL@@QAE@XZ ; ATL::CStringT<wchar_t,StrTraitMFC<wchar_t,ATL::ChTraitsCRT<wchar_t> > >::~CStringT<wchar_t,StrTraitMFC<wchar_t,ATL::ChTraitsCRT<wchar_t> > >
__unwindfunclet$??__EstrDeviceDescription@@YAXXZ$121:
  004ba	b9 e4 01 00 00	 mov	 ecx, OFFSET _strDeviceDescription+484
  004bf	e9 00 00 00 00	 jmp	 ??1?$CStringT@_WV?$StrTraitMFC@_WV?$ChTraitsCRT@_W@ATL@@@@@ATL@@QAE@XZ ; ATL::CStringT<wchar_t,StrTraitMFC<wchar_t,ATL::ChTraitsCRT<wchar_t> > >::~CStringT<wchar_t,StrTraitMFC<wchar_t,ATL::ChTraitsCRT<wchar_t> > >
__unwindfunclet$??__EstrDeviceDescription@@YAXXZ$122:
  004c4	b9 e8 01 00 00	 mov	 ecx, OFFSET _strDeviceDescription+488
  004c9	e9 00 00 00 00	 jmp	 ??1?$CStringT@_WV?$StrTraitMFC@_WV?$ChTraitsCRT@_W@ATL@@@@@ATL@@QAE@XZ ; ATL::CStringT<wchar_t,StrTraitMFC<wchar_t,ATL::ChTraitsCRT<wchar_t> > >::~CStringT<wchar_t,StrTraitMFC<wchar_t,ATL::ChTraitsCRT<wchar_t> > >
__unwindfunclet$??__EstrDeviceDescription@@YAXXZ$123:
  004ce	b9 ec 01 00 00	 mov	 ecx, OFFSET _strDeviceDescription+492
  004d3	e9 00 00 00 00	 jmp	 ??1?$CStringT@_WV?$StrTraitMFC@_WV?$ChTraitsCRT@_W@ATL@@@@@ATL@@QAE@XZ ; ATL::CStringT<wchar_t,StrTraitMFC<wchar_t,ATL::ChTraitsCRT<wchar_t> > >::~CStringT<wchar_t,StrTraitMFC<wchar_t,ATL::ChTraitsCRT<wchar_t> > >
__unwindfunclet$??__EstrDeviceDescription@@YAXXZ$124:
  004d8	b9 f0 01 00 00	 mov	 ecx, OFFSET _strDeviceDescription+496
  004dd	e9 00 00 00 00	 jmp	 ??1?$CStringT@_WV?$StrTraitMFC@_WV?$ChTraitsCRT@_W@ATL@@@@@ATL@@QAE@XZ ; ATL::CStringT<wchar_t,StrTraitMFC<wchar_t,ATL::ChTraitsCRT<wchar_t> > >::~CStringT<wchar_t,StrTraitMFC<wchar_t,ATL::ChTraitsCRT<wchar_t> > >
__unwindfunclet$??__EstrDeviceDescription@@YAXXZ$125:
  004e2	b9 f4 01 00 00	 mov	 ecx, OFFSET _strDeviceDescription+500
  004e7	e9 00 00 00 00	 jmp	 ??1?$CStringT@_WV?$StrTraitMFC@_WV?$ChTraitsCRT@_W@ATL@@@@@ATL@@QAE@XZ ; ATL::CStringT<wchar_t,StrTraitMFC<wchar_t,ATL::ChTraitsCRT<wchar_t> > >::~CStringT<wchar_t,StrTraitMFC<wchar_t,ATL::ChTraitsCRT<wchar_t> > >
__unwindfunclet$??__EstrDeviceDescription@@YAXXZ$126:
  004ec	b9 f8 01 00 00	 mov	 ecx, OFFSET _strDeviceDescription+504
  004f1	e9 00 00 00 00	 jmp	 ??1?$CStringT@_WV?$StrTraitMFC@_WV?$ChTraitsCRT@_W@ATL@@@@@ATL@@QAE@XZ ; ATL::CStringT<wchar_t,StrTraitMFC<wchar_t,ATL::ChTraitsCRT<wchar_t> > >::~CStringT<wchar_t,StrTraitMFC<wchar_t,ATL::ChTraitsCRT<wchar_t> > >
__unwindfunclet$??__EstrDeviceDescription@@YAXXZ$127:
  004f6	b9 fc 01 00 00	 mov	 ecx, OFFSET _strDeviceDescription+508
  004fb	e9 00 00 00 00	 jmp	 ??1?$CStringT@_WV?$StrTraitMFC@_WV?$ChTraitsCRT@_W@ATL@@@@@ATL@@QAE@XZ ; ATL::CStringT<wchar_t,StrTraitMFC<wchar_t,ATL::ChTraitsCRT<wchar_t> > >::~CStringT<wchar_t,StrTraitMFC<wchar_t,ATL::ChTraitsCRT<wchar_t> > >
__unwindfunclet$??__EstrDeviceDescription@@YAXXZ$128:
  00500	b9 00 02 00 00	 mov	 ecx, OFFSET _strDeviceDescription+512
  00505	e9 00 00 00 00	 jmp	 ??1?$CStringT@_WV?$StrTraitMFC@_WV?$ChTraitsCRT@_W@ATL@@@@@ATL@@QAE@XZ ; ATL::CStringT<wchar_t,StrTraitMFC<wchar_t,ATL::ChTraitsCRT<wchar_t> > >::~CStringT<wchar_t,StrTraitMFC<wchar_t,ATL::ChTraitsCRT<wchar_t> > >
__unwindfunclet$??__EstrDeviceDescription@@YAXXZ$129:
  0050a	b9 04 02 00 00	 mov	 ecx, OFFSET _strDeviceDescription+516
  0050f	e9 00 00 00 00	 jmp	 ??1?$CStringT@_WV?$StrTraitMFC@_WV?$ChTraitsCRT@_W@ATL@@@@@ATL@@QAE@XZ ; ATL::CStringT<wchar_t,StrTraitMFC<wchar_t,ATL::ChTraitsCRT<wchar_t> > >::~CStringT<wchar_t,StrTraitMFC<wchar_t,ATL::ChTraitsCRT<wchar_t> > >
__unwindfunclet$??__EstrDeviceDescription@@YAXXZ$130:
  00514	b9 08 02 00 00	 mov	 ecx, OFFSET _strDeviceDescription+520
  00519	e9 00 00 00 00	 jmp	 ??1?$CStringT@_WV?$StrTraitMFC@_WV?$ChTraitsCRT@_W@ATL@@@@@ATL@@QAE@XZ ; ATL::CStringT<wchar_t,StrTraitMFC<wchar_t,ATL::ChTraitsCRT<wchar_t> > >::~CStringT<wchar_t,StrTraitMFC<wchar_t,ATL::ChTraitsCRT<wchar_t> > >
__unwindfunclet$??__EstrDeviceDescription@@YAXXZ$131:
  0051e	b9 0c 02 00 00	 mov	 ecx, OFFSET _strDeviceDescription+524
  00523	e9 00 00 00 00	 jmp	 ??1?$CStringT@_WV?$StrTraitMFC@_WV?$ChTraitsCRT@_W@ATL@@@@@ATL@@QAE@XZ ; ATL::CStringT<wchar_t,StrTraitMFC<wchar_t,ATL::ChTraitsCRT<wchar_t> > >::~CStringT<wchar_t,StrTraitMFC<wchar_t,ATL::ChTraitsCRT<wchar_t> > >
__unwindfunclet$??__EstrDeviceDescription@@YAXXZ$132:
  00528	b9 10 02 00 00	 mov	 ecx, OFFSET _strDeviceDescription+528
  0052d	e9 00 00 00 00	 jmp	 ??1?$CStringT@_WV?$StrTraitMFC@_WV?$ChTraitsCRT@_W@ATL@@@@@ATL@@QAE@XZ ; ATL::CStringT<wchar_t,StrTraitMFC<wchar_t,ATL::ChTraitsCRT<wchar_t> > >::~CStringT<wchar_t,StrTraitMFC<wchar_t,ATL::ChTraitsCRT<wchar_t> > >
__unwindfunclet$??__EstrDeviceDescription@@YAXXZ$133:
  00532	b9 14 02 00 00	 mov	 ecx, OFFSET _strDeviceDescription+532
  00537	e9 00 00 00 00	 jmp	 ??1?$CStringT@_WV?$StrTraitMFC@_WV?$ChTraitsCRT@_W@ATL@@@@@ATL@@QAE@XZ ; ATL::CStringT<wchar_t,StrTraitMFC<wchar_t,ATL::ChTraitsCRT<wchar_t> > >::~CStringT<wchar_t,StrTraitMFC<wchar_t,ATL::ChTraitsCRT<wchar_t> > >
__unwindfunclet$??__EstrDeviceDescription@@YAXXZ$134:
  0053c	b9 18 02 00 00	 mov	 ecx, OFFSET _strDeviceDescription+536
  00541	e9 00 00 00 00	 jmp	 ??1?$CStringT@_WV?$StrTraitMFC@_WV?$ChTraitsCRT@_W@ATL@@@@@ATL@@QAE@XZ ; ATL::CStringT<wchar_t,StrTraitMFC<wchar_t,ATL::ChTraitsCRT<wchar_t> > >::~CStringT<wchar_t,StrTraitMFC<wchar_t,ATL::ChTraitsCRT<wchar_t> > >
__unwindfunclet$??__EstrDeviceDescription@@YAXXZ$135:
  00546	b9 1c 02 00 00	 mov	 ecx, OFFSET _strDeviceDescription+540
  0054b	e9 00 00 00 00	 jmp	 ??1?$CStringT@_WV?$StrTraitMFC@_WV?$ChTraitsCRT@_W@ATL@@@@@ATL@@QAE@XZ ; ATL::CStringT<wchar_t,StrTraitMFC<wchar_t,ATL::ChTraitsCRT<wchar_t> > >::~CStringT<wchar_t,StrTraitMFC<wchar_t,ATL::ChTraitsCRT<wchar_t> > >
__unwindfunclet$??__EstrDeviceDescription@@YAXXZ$136:
  00550	b9 20 02 00 00	 mov	 ecx, OFFSET _strDeviceDescription+544
  00555	e9 00 00 00 00	 jmp	 ??1?$CStringT@_WV?$StrTraitMFC@_WV?$ChTraitsCRT@_W@ATL@@@@@ATL@@QAE@XZ ; ATL::CStringT<wchar_t,StrTraitMFC<wchar_t,ATL::ChTraitsCRT<wchar_t> > >::~CStringT<wchar_t,StrTraitMFC<wchar_t,ATL::ChTraitsCRT<wchar_t> > >
__unwindfunclet$??__EstrDeviceDescription@@YAXXZ$137:
  0055a	b9 24 02 00 00	 mov	 ecx, OFFSET _strDeviceDescription+548
  0055f	e9 00 00 00 00	 jmp	 ??1?$CStringT@_WV?$StrTraitMFC@_WV?$ChTraitsCRT@_W@ATL@@@@@ATL@@QAE@XZ ; ATL::CStringT<wchar_t,StrTraitMFC<wchar_t,ATL::ChTraitsCRT<wchar_t> > >::~CStringT<wchar_t,StrTraitMFC<wchar_t,ATL::ChTraitsCRT<wchar_t> > >
__unwindfunclet$??__EstrDeviceDescription@@YAXXZ$138:
  00564	b9 28 02 00 00	 mov	 ecx, OFFSET _strDeviceDescription+552
  00569	e9 00 00 00 00	 jmp	 ??1?$CStringT@_WV?$StrTraitMFC@_WV?$ChTraitsCRT@_W@ATL@@@@@ATL@@QAE@XZ ; ATL::CStringT<wchar_t,StrTraitMFC<wchar_t,ATL::ChTraitsCRT<wchar_t> > >::~CStringT<wchar_t,StrTraitMFC<wchar_t,ATL::ChTraitsCRT<wchar_t> > >
__unwindfunclet$??__EstrDeviceDescription@@YAXXZ$139:
  0056e	b9 2c 02 00 00	 mov	 ecx, OFFSET _strDeviceDescription+556
  00573	e9 00 00 00 00	 jmp	 ??1?$CStringT@_WV?$StrTraitMFC@_WV?$ChTraitsCRT@_W@ATL@@@@@ATL@@QAE@XZ ; ATL::CStringT<wchar_t,StrTraitMFC<wchar_t,ATL::ChTraitsCRT<wchar_t> > >::~CStringT<wchar_t,StrTraitMFC<wchar_t,ATL::ChTraitsCRT<wchar_t> > >
__unwindfunclet$??__EstrDeviceDescription@@YAXXZ$140:
  00578	b9 30 02 00 00	 mov	 ecx, OFFSET _strDeviceDescription+560
  0057d	e9 00 00 00 00	 jmp	 ??1?$CStringT@_WV?$StrTraitMFC@_WV?$ChTraitsCRT@_W@ATL@@@@@ATL@@QAE@XZ ; ATL::CStringT<wchar_t,StrTraitMFC<wchar_t,ATL::ChTraitsCRT<wchar_t> > >::~CStringT<wchar_t,StrTraitMFC<wchar_t,ATL::ChTraitsCRT<wchar_t> > >
__unwindfunclet$??__EstrDeviceDescription@@YAXXZ$141:
  00582	b9 34 02 00 00	 mov	 ecx, OFFSET _strDeviceDescription+564
  00587	e9 00 00 00 00	 jmp	 ??1?$CStringT@_WV?$StrTraitMFC@_WV?$ChTraitsCRT@_W@ATL@@@@@ATL@@QAE@XZ ; ATL::CStringT<wchar_t,StrTraitMFC<wchar_t,ATL::ChTraitsCRT<wchar_t> > >::~CStringT<wchar_t,StrTraitMFC<wchar_t,ATL::ChTraitsCRT<wchar_t> > >
__unwindfunclet$??__EstrDeviceDescription@@YAXXZ$142:
  0058c	b9 38 02 00 00	 mov	 ecx, OFFSET _strDeviceDescription+568
  00591	e9 00 00 00 00	 jmp	 ??1?$CStringT@_WV?$StrTraitMFC@_WV?$ChTraitsCRT@_W@ATL@@@@@ATL@@QAE@XZ ; ATL::CStringT<wchar_t,StrTraitMFC<wchar_t,ATL::ChTraitsCRT<wchar_t> > >::~CStringT<wchar_t,StrTraitMFC<wchar_t,ATL::ChTraitsCRT<wchar_t> > >
__unwindfunclet$??__EstrDeviceDescription@@YAXXZ$143:
  00596	b9 3c 02 00 00	 mov	 ecx, OFFSET _strDeviceDescription+572
  0059b	e9 00 00 00 00	 jmp	 ??1?$CStringT@_WV?$StrTraitMFC@_WV?$ChTraitsCRT@_W@ATL@@@@@ATL@@QAE@XZ ; ATL::CStringT<wchar_t,StrTraitMFC<wchar_t,ATL::ChTraitsCRT<wchar_t> > >::~CStringT<wchar_t,StrTraitMFC<wchar_t,ATL::ChTraitsCRT<wchar_t> > >
__unwindfunclet$??__EstrDeviceDescription@@YAXXZ$144:
  005a0	b9 40 02 00 00	 mov	 ecx, OFFSET _strDeviceDescription+576
  005a5	e9 00 00 00 00	 jmp	 ??1?$CStringT@_WV?$StrTraitMFC@_WV?$ChTraitsCRT@_W@ATL@@@@@ATL@@QAE@XZ ; ATL::CStringT<wchar_t,StrTraitMFC<wchar_t,ATL::ChTraitsCRT<wchar_t> > >::~CStringT<wchar_t,StrTraitMFC<wchar_t,ATL::ChTraitsCRT<wchar_t> > >
__unwindfunclet$??__EstrDeviceDescription@@YAXXZ$145:
  005aa	b9 44 02 00 00	 mov	 ecx, OFFSET _strDeviceDescription+580
  005af	e9 00 00 00 00	 jmp	 ??1?$CStringT@_WV?$StrTraitMFC@_WV?$ChTraitsCRT@_W@ATL@@@@@ATL@@QAE@XZ ; ATL::CStringT<wchar_t,StrTraitMFC<wchar_t,ATL::ChTraitsCRT<wchar_t> > >::~CStringT<wchar_t,StrTraitMFC<wchar_t,ATL::ChTraitsCRT<wchar_t> > >
__unwindfunclet$??__EstrDeviceDescription@@YAXXZ$146:
  005b4	b9 48 02 00 00	 mov	 ecx, OFFSET _strDeviceDescription+584
  005b9	e9 00 00 00 00	 jmp	 ??1?$CStringT@_WV?$StrTraitMFC@_WV?$ChTraitsCRT@_W@ATL@@@@@ATL@@QAE@XZ ; ATL::CStringT<wchar_t,StrTraitMFC<wchar_t,ATL::ChTraitsCRT<wchar_t> > >::~CStringT<wchar_t,StrTraitMFC<wchar_t,ATL::ChTraitsCRT<wchar_t> > >
__unwindfunclet$??__EstrDeviceDescription@@YAXXZ$147:
  005be	b9 4c 02 00 00	 mov	 ecx, OFFSET _strDeviceDescription+588
  005c3	e9 00 00 00 00	 jmp	 ??1?$CStringT@_WV?$StrTraitMFC@_WV?$ChTraitsCRT@_W@ATL@@@@@ATL@@QAE@XZ ; ATL::CStringT<wchar_t,StrTraitMFC<wchar_t,ATL::ChTraitsCRT<wchar_t> > >::~CStringT<wchar_t,StrTraitMFC<wchar_t,ATL::ChTraitsCRT<wchar_t> > >
__unwindfunclet$??__EstrDeviceDescription@@YAXXZ$148:
  005c8	b9 50 02 00 00	 mov	 ecx, OFFSET _strDeviceDescription+592
  005cd	e9 00 00 00 00	 jmp	 ??1?$CStringT@_WV?$StrTraitMFC@_WV?$ChTraitsCRT@_W@ATL@@@@@ATL@@QAE@XZ ; ATL::CStringT<wchar_t,StrTraitMFC<wchar_t,ATL::ChTraitsCRT<wchar_t> > >::~CStringT<wchar_t,StrTraitMFC<wchar_t,ATL::ChTraitsCRT<wchar_t> > >
__unwindfunclet$??__EstrDeviceDescription@@YAXXZ$149:
  005d2	b9 54 02 00 00	 mov	 ecx, OFFSET _strDeviceDescription+596
  005d7	e9 00 00 00 00	 jmp	 ??1?$CStringT@_WV?$StrTraitMFC@_WV?$ChTraitsCRT@_W@ATL@@@@@ATL@@QAE@XZ ; ATL::CStringT<wchar_t,StrTraitMFC<wchar_t,ATL::ChTraitsCRT<wchar_t> > >::~CStringT<wchar_t,StrTraitMFC<wchar_t,ATL::ChTraitsCRT<wchar_t> > >
__unwindfunclet$??__EstrDeviceDescription@@YAXXZ$150:
  005dc	b9 58 02 00 00	 mov	 ecx, OFFSET _strDeviceDescription+600
  005e1	e9 00 00 00 00	 jmp	 ??1?$CStringT@_WV?$StrTraitMFC@_WV?$ChTraitsCRT@_W@ATL@@@@@ATL@@QAE@XZ ; ATL::CStringT<wchar_t,StrTraitMFC<wchar_t,ATL::ChTraitsCRT<wchar_t> > >::~CStringT<wchar_t,StrTraitMFC<wchar_t,ATL::ChTraitsCRT<wchar_t> > >
__unwindfunclet$??__EstrDeviceDescription@@YAXXZ$151:
  005e6	b9 5c 02 00 00	 mov	 ecx, OFFSET _strDeviceDescription+604
  005eb	e9 00 00 00 00	 jmp	 ??1?$CStringT@_WV?$StrTraitMFC@_WV?$ChTraitsCRT@_W@ATL@@@@@ATL@@QAE@XZ ; ATL::CStringT<wchar_t,StrTraitMFC<wchar_t,ATL::ChTraitsCRT<wchar_t> > >::~CStringT<wchar_t,StrTraitMFC<wchar_t,ATL::ChTraitsCRT<wchar_t> > >
__unwindfunclet$??__EstrDeviceDescription@@YAXXZ$152:
  005f0	b9 60 02 00 00	 mov	 ecx, OFFSET _strDeviceDescription+608
  005f5	e9 00 00 00 00	 jmp	 ??1?$CStringT@_WV?$StrTraitMFC@_WV?$ChTraitsCRT@_W@ATL@@@@@ATL@@QAE@XZ ; ATL::CStringT<wchar_t,StrTraitMFC<wchar_t,ATL::ChTraitsCRT<wchar_t> > >::~CStringT<wchar_t,StrTraitMFC<wchar_t,ATL::ChTraitsCRT<wchar_t> > >
__unwindfunclet$??__EstrDeviceDescription@@YAXXZ$153:
  005fa	b9 64 02 00 00	 mov	 ecx, OFFSET _strDeviceDescription+612
  005ff	e9 00 00 00 00	 jmp	 ??1?$CStringT@_WV?$StrTraitMFC@_WV?$ChTraitsCRT@_W@ATL@@@@@ATL@@QAE@XZ ; ATL::CStringT<wchar_t,StrTraitMFC<wchar_t,ATL::ChTraitsCRT<wchar_t> > >::~CStringT<wchar_t,StrTraitMFC<wchar_t,ATL::ChTraitsCRT<wchar_t> > >
__unwindfunclet$??__EstrDeviceDescription@@YAXXZ$154:
  00604	b9 68 02 00 00	 mov	 ecx, OFFSET _strDeviceDescription+616
  00609	e9 00 00 00 00	 jmp	 ??1?$CStringT@_WV?$StrTraitMFC@_WV?$ChTraitsCRT@_W@ATL@@@@@ATL@@QAE@XZ ; ATL::CStringT<wchar_t,StrTraitMFC<wchar_t,ATL::ChTraitsCRT<wchar_t> > >::~CStringT<wchar_t,StrTraitMFC<wchar_t,ATL::ChTraitsCRT<wchar_t> > >
__unwindfunclet$??__EstrDeviceDescription@@YAXXZ$155:
  0060e	b9 6c 02 00 00	 mov	 ecx, OFFSET _strDeviceDescription+620
  00613	e9 00 00 00 00	 jmp	 ??1?$CStringT@_WV?$StrTraitMFC@_WV?$ChTraitsCRT@_W@ATL@@@@@ATL@@QAE@XZ ; ATL::CStringT<wchar_t,StrTraitMFC<wchar_t,ATL::ChTraitsCRT<wchar_t> > >::~CStringT<wchar_t,StrTraitMFC<wchar_t,ATL::ChTraitsCRT<wchar_t> > >
__unwindfunclet$??__EstrDeviceDescription@@YAXXZ$156:
  00618	b9 70 02 00 00	 mov	 ecx, OFFSET _strDeviceDescription+624
  0061d	e9 00 00 00 00	 jmp	 ??1?$CStringT@_WV?$StrTraitMFC@_WV?$ChTraitsCRT@_W@ATL@@@@@ATL@@QAE@XZ ; ATL::CStringT<wchar_t,StrTraitMFC<wchar_t,ATL::ChTraitsCRT<wchar_t> > >::~CStringT<wchar_t,StrTraitMFC<wchar_t,ATL::ChTraitsCRT<wchar_t> > >
__unwindfunclet$??__EstrDeviceDescription@@YAXXZ$157:
  00622	b9 74 02 00 00	 mov	 ecx, OFFSET _strDeviceDescription+628
  00627	e9 00 00 00 00	 jmp	 ??1?$CStringT@_WV?$StrTraitMFC@_WV?$ChTraitsCRT@_W@ATL@@@@@ATL@@QAE@XZ ; ATL::CStringT<wchar_t,StrTraitMFC<wchar_t,ATL::ChTraitsCRT<wchar_t> > >::~CStringT<wchar_t,StrTraitMFC<wchar_t,ATL::ChTraitsCRT<wchar_t> > >
__unwindfunclet$??__EstrDeviceDescription@@YAXXZ$158:
  0062c	b9 78 02 00 00	 mov	 ecx, OFFSET _strDeviceDescription+632
  00631	e9 00 00 00 00	 jmp	 ??1?$CStringT@_WV?$StrTraitMFC@_WV?$ChTraitsCRT@_W@ATL@@@@@ATL@@QAE@XZ ; ATL::CStringT<wchar_t,StrTraitMFC<wchar_t,ATL::ChTraitsCRT<wchar_t> > >::~CStringT<wchar_t,StrTraitMFC<wchar_t,ATL::ChTraitsCRT<wchar_t> > >
__unwindfunclet$??__EstrDeviceDescription@@YAXXZ$159:
  00636	b9 7c 02 00 00	 mov	 ecx, OFFSET _strDeviceDescription+636
  0063b	e9 00 00 00 00	 jmp	 ??1?$CStringT@_WV?$StrTraitMFC@_WV?$ChTraitsCRT@_W@ATL@@@@@ATL@@QAE@XZ ; ATL::CStringT<wchar_t,StrTraitMFC<wchar_t,ATL::ChTraitsCRT<wchar_t> > >::~CStringT<wchar_t,StrTraitMFC<wchar_t,ATL::ChTraitsCRT<wchar_t> > >
__unwindfunclet$??__EstrDeviceDescription@@YAXXZ$160:
  00640	b9 80 02 00 00	 mov	 ecx, OFFSET _strDeviceDescription+640
  00645	e9 00 00 00 00	 jmp	 ??1?$CStringT@_WV?$StrTraitMFC@_WV?$ChTraitsCRT@_W@ATL@@@@@ATL@@QAE@XZ ; ATL::CStringT<wchar_t,StrTraitMFC<wchar_t,ATL::ChTraitsCRT<wchar_t> > >::~CStringT<wchar_t,StrTraitMFC<wchar_t,ATL::ChTraitsCRT<wchar_t> > >
__unwindfunclet$??__EstrDeviceDescription@@YAXXZ$161:
  0064a	b9 84 02 00 00	 mov	 ecx, OFFSET _strDeviceDescription+644
  0064f	e9 00 00 00 00	 jmp	 ??1?$CStringT@_WV?$StrTraitMFC@_WV?$ChTraitsCRT@_W@ATL@@@@@ATL@@QAE@XZ ; ATL::CStringT<wchar_t,StrTraitMFC<wchar_t,ATL::ChTraitsCRT<wchar_t> > >::~CStringT<wchar_t,StrTraitMFC<wchar_t,ATL::ChTraitsCRT<wchar_t> > >
__unwindfunclet$??__EstrDeviceDescription@@YAXXZ$162:
  00654	b9 88 02 00 00	 mov	 ecx, OFFSET _strDeviceDescription+648
  00659	e9 00 00 00 00	 jmp	 ??1?$CStringT@_WV?$StrTraitMFC@_WV?$ChTraitsCRT@_W@ATL@@@@@ATL@@QAE@XZ ; ATL::CStringT<wchar_t,StrTraitMFC<wchar_t,ATL::ChTraitsCRT<wchar_t> > >::~CStringT<wchar_t,StrTraitMFC<wchar_t,ATL::ChTraitsCRT<wchar_t> > >
__unwindfunclet$??__EstrDeviceDescription@@YAXXZ$163:
  0065e	b9 8c 02 00 00	 mov	 ecx, OFFSET _strDeviceDescription+652
  00663	e9 00 00 00 00	 jmp	 ??1?$CStringT@_WV?$StrTraitMFC@_WV?$ChTraitsCRT@_W@ATL@@@@@ATL@@QAE@XZ ; ATL::CStringT<wchar_t,StrTraitMFC<wchar_t,ATL::ChTraitsCRT<wchar_t> > >::~CStringT<wchar_t,StrTraitMFC<wchar_t,ATL::ChTraitsCRT<wchar_t> > >
__unwindfunclet$??__EstrDeviceDescription@@YAXXZ$164:
  00668	b9 90 02 00 00	 mov	 ecx, OFFSET _strDeviceDescription+656
  0066d	e9 00 00 00 00	 jmp	 ??1?$CStringT@_WV?$StrTraitMFC@_WV?$ChTraitsCRT@_W@ATL@@@@@ATL@@QAE@XZ ; ATL::CStringT<wchar_t,StrTraitMFC<wchar_t,ATL::ChTraitsCRT<wchar_t> > >::~CStringT<wchar_t,StrTraitMFC<wchar_t,ATL::ChTraitsCRT<wchar_t> > >
__unwindfunclet$??__EstrDeviceDescription@@YAXXZ$165:
  00672	b9 94 02 00 00	 mov	 ecx, OFFSET _strDeviceDescription+660
  00677	e9 00 00 00 00	 jmp	 ??1?$CStringT@_WV?$StrTraitMFC@_WV?$ChTraitsCRT@_W@ATL@@@@@ATL@@QAE@XZ ; ATL::CStringT<wchar_t,StrTraitMFC<wchar_t,ATL::ChTraitsCRT<wchar_t> > >::~CStringT<wchar_t,StrTraitMFC<wchar_t,ATL::ChTraitsCRT<wchar_t> > >
__unwindfunclet$??__EstrDeviceDescription@@YAXXZ$166:
  0067c	b9 98 02 00 00	 mov	 ecx, OFFSET _strDeviceDescription+664
  00681	e9 00 00 00 00	 jmp	 ??1?$CStringT@_WV?$StrTraitMFC@_WV?$ChTraitsCRT@_W@ATL@@@@@ATL@@QAE@XZ ; ATL::CStringT<wchar_t,StrTraitMFC<wchar_t,ATL::ChTraitsCRT<wchar_t> > >::~CStringT<wchar_t,StrTraitMFC<wchar_t,ATL::ChTraitsCRT<wchar_t> > >
__unwindfunclet$??__EstrDeviceDescription@@YAXXZ$167:
  00686	b9 9c 02 00 00	 mov	 ecx, OFFSET _strDeviceDescription+668
  0068b	e9 00 00 00 00	 jmp	 ??1?$CStringT@_WV?$StrTraitMFC@_WV?$ChTraitsCRT@_W@ATL@@@@@ATL@@QAE@XZ ; ATL::CStringT<wchar_t,StrTraitMFC<wchar_t,ATL::ChTraitsCRT<wchar_t> > >::~CStringT<wchar_t,StrTraitMFC<wchar_t,ATL::ChTraitsCRT<wchar_t> > >
__unwindfunclet$??__EstrDeviceDescription@@YAXXZ$168:
  00690	b9 a0 02 00 00	 mov	 ecx, OFFSET _strDeviceDescription+672
  00695	e9 00 00 00 00	 jmp	 ??1?$CStringT@_WV?$StrTraitMFC@_WV?$ChTraitsCRT@_W@ATL@@@@@ATL@@QAE@XZ ; ATL::CStringT<wchar_t,StrTraitMFC<wchar_t,ATL::ChTraitsCRT<wchar_t> > >::~CStringT<wchar_t,StrTraitMFC<wchar_t,ATL::ChTraitsCRT<wchar_t> > >
__unwindfunclet$??__EstrDeviceDescription@@YAXXZ$169:
  0069a	b9 a4 02 00 00	 mov	 ecx, OFFSET _strDeviceDescription+676
  0069f	e9 00 00 00 00	 jmp	 ??1?$CStringT@_WV?$StrTraitMFC@_WV?$ChTraitsCRT@_W@ATL@@@@@ATL@@QAE@XZ ; ATL::CStringT<wchar_t,StrTraitMFC<wchar_t,ATL::ChTraitsCRT<wchar_t> > >::~CStringT<wchar_t,StrTraitMFC<wchar_t,ATL::ChTraitsCRT<wchar_t> > >
__unwindfunclet$??__EstrDeviceDescription@@YAXXZ$170:
  006a4	b9 a8 02 00 00	 mov	 ecx, OFFSET _strDeviceDescription+680
  006a9	e9 00 00 00 00	 jmp	 ??1?$CStringT@_WV?$StrTraitMFC@_WV?$ChTraitsCRT@_W@ATL@@@@@ATL@@QAE@XZ ; ATL::CStringT<wchar_t,StrTraitMFC<wchar_t,ATL::ChTraitsCRT<wchar_t> > >::~CStringT<wchar_t,StrTraitMFC<wchar_t,ATL::ChTraitsCRT<wchar_t> > >
__unwindfunclet$??__EstrDeviceDescription@@YAXXZ$171:
  006ae	b9 ac 02 00 00	 mov	 ecx, OFFSET _strDeviceDescription+684
  006b3	e9 00 00 00 00	 jmp	 ??1?$CStringT@_WV?$StrTraitMFC@_WV?$ChTraitsCRT@_W@ATL@@@@@ATL@@QAE@XZ ; ATL::CStringT<wchar_t,StrTraitMFC<wchar_t,ATL::ChTraitsCRT<wchar_t> > >::~CStringT<wchar_t,StrTraitMFC<wchar_t,ATL::ChTraitsCRT<wchar_t> > >
__unwindfunclet$??__EstrDeviceDescription@@YAXXZ$172:
  006b8	b9 b0 02 00 00	 mov	 ecx, OFFSET _strDeviceDescription+688
  006bd	e9 00 00 00 00	 jmp	 ??1?$CStringT@_WV?$StrTraitMFC@_WV?$ChTraitsCRT@_W@ATL@@@@@ATL@@QAE@XZ ; ATL::CStringT<wchar_t,StrTraitMFC<wchar_t,ATL::ChTraitsCRT<wchar_t> > >::~CStringT<wchar_t,StrTraitMFC<wchar_t,ATL::ChTraitsCRT<wchar_t> > >
__unwindfunclet$??__EstrDeviceDescription@@YAXXZ$173:
  006c2	b9 b4 02 00 00	 mov	 ecx, OFFSET _strDeviceDescription+692
  006c7	e9 00 00 00 00	 jmp	 ??1?$CStringT@_WV?$StrTraitMFC@_WV?$ChTraitsCRT@_W@ATL@@@@@ATL@@QAE@XZ ; ATL::CStringT<wchar_t,StrTraitMFC<wchar_t,ATL::ChTraitsCRT<wchar_t> > >::~CStringT<wchar_t,StrTraitMFC<wchar_t,ATL::ChTraitsCRT<wchar_t> > >
__unwindfunclet$??__EstrDeviceDescription@@YAXXZ$174:
  006cc	b9 b8 02 00 00	 mov	 ecx, OFFSET _strDeviceDescription+696
  006d1	e9 00 00 00 00	 jmp	 ??1?$CStringT@_WV?$StrTraitMFC@_WV?$ChTraitsCRT@_W@ATL@@@@@ATL@@QAE@XZ ; ATL::CStringT<wchar_t,StrTraitMFC<wchar_t,ATL::ChTraitsCRT<wchar_t> > >::~CStringT<wchar_t,StrTraitMFC<wchar_t,ATL::ChTraitsCRT<wchar_t> > >
__unwindfunclet$??__EstrDeviceDescription@@YAXXZ$175:
  006d6	b9 bc 02 00 00	 mov	 ecx, OFFSET _strDeviceDescription+700
  006db	e9 00 00 00 00	 jmp	 ??1?$CStringT@_WV?$StrTraitMFC@_WV?$ChTraitsCRT@_W@ATL@@@@@ATL@@QAE@XZ ; ATL::CStringT<wchar_t,StrTraitMFC<wchar_t,ATL::ChTraitsCRT<wchar_t> > >::~CStringT<wchar_t,StrTraitMFC<wchar_t,ATL::ChTraitsCRT<wchar_t> > >
__unwindfunclet$??__EstrDeviceDescription@@YAXXZ$176:
  006e0	b9 c0 02 00 00	 mov	 ecx, OFFSET _strDeviceDescription+704
  006e5	e9 00 00 00 00	 jmp	 ??1?$CStringT@_WV?$StrTraitMFC@_WV?$ChTraitsCRT@_W@ATL@@@@@ATL@@QAE@XZ ; ATL::CStringT<wchar_t,StrTraitMFC<wchar_t,ATL::ChTraitsCRT<wchar_t> > >::~CStringT<wchar_t,StrTraitMFC<wchar_t,ATL::ChTraitsCRT<wchar_t> > >
__unwindfunclet$??__EstrDeviceDescription@@YAXXZ$177:
  006ea	b9 c4 02 00 00	 mov	 ecx, OFFSET _strDeviceDescription+708
  006ef	e9 00 00 00 00	 jmp	 ??1?$CStringT@_WV?$StrTraitMFC@_WV?$ChTraitsCRT@_W@ATL@@@@@ATL@@QAE@XZ ; ATL::CStringT<wchar_t,StrTraitMFC<wchar_t,ATL::ChTraitsCRT<wchar_t> > >::~CStringT<wchar_t,StrTraitMFC<wchar_t,ATL::ChTraitsCRT<wchar_t> > >
__ehhandler$??__EstrDeviceDescription@@YAXXZ:
  006f4	8b 54 24 08	 mov	 edx, DWORD PTR [esp+8]
  006f8	8d 42 0c	 lea	 eax, DWORD PTR [edx+12]
  006fb	8b 8a 30 ff ff
	ff		 mov	 ecx, DWORD PTR [edx-208]
  00701	33 c8		 xor	 ecx, eax
  00703	e8 00 00 00 00	 call	 @__security_check_cookie@4
  00708	b8 00 00 00 00	 mov	 eax, OFFSET __ehfuncinfo$??__EstrDeviceDescription@@YAXXZ
  0070d	e9 00 00 00 00	 jmp	 ___CxxFrameHandler3
text$x	ENDS
??__EstrDeviceDescription@@YAXXZ ENDP			; `dynamic initializer for 'strDeviceDescription''
PUBLIC	??4?$CStringT@_WV?$StrTraitMFC@_WV?$ChTraitsCRT@_W@ATL@@@@@ATL@@QAEAAV01@PB_W@Z ; ATL::CStringT<wchar_t,StrTraitMFC<wchar_t,ATL::ChTraitsCRT<wchar_t> > >::operator=
PUBLIC	?CheckImplicitLoad@?$CStringT@_WV?$StrTraitMFC@_WV?$ChTraitsCRT@_W@ATL@@@@@ATL@@AAE_NPBX@Z ; ATL::CStringT<wchar_t,StrTraitMFC<wchar_t,ATL::ChTraitsCRT<wchar_t> > >::CheckImplicitLoad
PUBLIC	??0?$CSimpleStringT@_W$0A@@ATL@@QAE@PAUIAtlStringMgr@1@@Z ; ATL::CSimpleStringT<wchar_t,0>::CSimpleStringT<wchar_t,0>
PUBLIC	?GetDefaultManager@?$StrTraitMFC@_WV?$ChTraitsCRT@_W@ATL@@@@SAPAUIAtlStringMgr@ATL@@XZ ; StrTraitMFC<wchar_t,ATL::ChTraitsCRT<wchar_t> >::GetDefaultManager
;	COMDAT xdata$x
; File c:\program files\microsoft visual studio 10.0\vc\atlmfc\include\cstringt.h
xdata$x	SEGMENT
__unwindtable$??0?$CStringT@_WV?$StrTraitMFC@_WV?$ChTraitsCRT@_W@ATL@@@@@ATL@@QAE@PB_W@Z DD 0ffffffffH
	DD	FLAT:__unwindfunclet$??0?$CStringT@_WV?$StrTraitMFC@_WV?$ChTraitsCRT@_W@ATL@@@@@ATL@@QAE@PB_W@Z$0
__ehfuncinfo$??0?$CStringT@_WV?$StrTraitMFC@_WV?$ChTraitsCRT@_W@ATL@@@@@ATL@@QAE@PB_W@Z DD 019930522H
	DD	01H
	DD	FLAT:__unwindtable$??0?$CStringT@_WV?$StrTraitMFC@_WV?$ChTraitsCRT@_W@ATL@@@@@ATL@@QAE@PB_W@Z
	DD	2 DUP(00H)
	DD	2 DUP(00H)
	DD	00H
	DD	01H
; Function compile flags: /Odtp /RTCsu /ZI
xdata$x	ENDS
;	COMDAT ??0?$CStringT@_WV?$StrTraitMFC@_WV?$ChTraitsCRT@_W@ATL@@@@@ATL@@QAE@PB_W@Z
_TEXT	SEGMENT
_this$ = -20						; size = 4
__$EHRec$ = -12						; size = 12
_pszSrc$ = 8						; size = 4
??0?$CStringT@_WV?$StrTraitMFC@_WV?$ChTraitsCRT@_W@ATL@@@@@ATL@@QAE@PB_W@Z PROC ; ATL::CStringT<wchar_t,StrTraitMFC<wchar_t,ATL::ChTraitsCRT<wchar_t> > >::CStringT<wchar_t,StrTraitMFC<wchar_t,ATL::ChTraitsCRT<wchar_t> > >, COMDAT
; _this$ = ecx

; 963  : 	{

  00000	55		 push	 ebp
  00001	8b ec		 mov	 ebp, esp
  00003	6a ff		 push	 -1
  00005	68 00 00 00 00	 push	 __ehhandler$??0?$CStringT@_WV?$StrTraitMFC@_WV?$ChTraitsCRT@_W@ATL@@@@@ATL@@QAE@PB_W@Z
  0000a	64 a1 00 00 00
	00		 mov	 eax, DWORD PTR fs:0
  00010	50		 push	 eax
  00011	81 ec cc 00 00
	00		 sub	 esp, 204		; 000000ccH
  00017	53		 push	 ebx
  00018	56		 push	 esi
  00019	57		 push	 edi
  0001a	51		 push	 ecx
  0001b	8d bd 28 ff ff
	ff		 lea	 edi, DWORD PTR [ebp-216]
  00021	b9 33 00 00 00	 mov	 ecx, 51			; 00000033H
  00026	b8 cc cc cc cc	 mov	 eax, -858993460		; ccccccccH
  0002b	f3 ab		 rep stosd
  0002d	59		 pop	 ecx
  0002e	a1 00 00 00 00	 mov	 eax, DWORD PTR ___security_cookie
  00033	33 c5		 xor	 eax, ebp
  00035	50		 push	 eax
  00036	8d 45 f4	 lea	 eax, DWORD PTR __$EHRec$[ebp]
  00039	64 a3 00 00 00
	00		 mov	 DWORD PTR fs:0, eax
  0003f	89 4d ec	 mov	 DWORD PTR _this$[ebp], ecx
  00042	e8 00 00 00 00	 call	 ?GetDefaultManager@?$StrTraitMFC@_WV?$ChTraitsCRT@_W@ATL@@@@SAPAUIAtlStringMgr@ATL@@XZ ; StrTraitMFC<wchar_t,ATL::ChTraitsCRT<wchar_t> >::GetDefaultManager
  00047	50		 push	 eax
  00048	8b 4d ec	 mov	 ecx, DWORD PTR _this$[ebp]
  0004b	e8 00 00 00 00	 call	 ??0?$CSimpleStringT@_W$0A@@ATL@@QAE@PAUIAtlStringMgr@1@@Z ; ATL::CSimpleStringT<wchar_t,0>::CSimpleStringT<wchar_t,0>
  00050	c7 45 fc 00 00
	00 00		 mov	 DWORD PTR __$EHRec$[ebp+8], 0

; 964  : 		if( !CheckImplicitLoad( pszSrc ) )

  00057	8b 45 08	 mov	 eax, DWORD PTR _pszSrc$[ebp]
  0005a	50		 push	 eax
  0005b	8b 4d ec	 mov	 ecx, DWORD PTR _this$[ebp]
  0005e	e8 00 00 00 00	 call	 ?CheckImplicitLoad@?$CStringT@_WV?$StrTraitMFC@_WV?$ChTraitsCRT@_W@ATL@@@@@ATL@@AAE_NPBX@Z ; ATL::CStringT<wchar_t,StrTraitMFC<wchar_t,ATL::ChTraitsCRT<wchar_t> > >::CheckImplicitLoad
  00063	0f b6 c8	 movzx	 ecx, al
  00066	85 c9		 test	 ecx, ecx
  00068	75 0c		 jne	 SHORT $LN2@CStringT@2

; 965  : 		{
; 966  : 			*this = pszSrc;

  0006a	8b 45 08	 mov	 eax, DWORD PTR _pszSrc$[ebp]
  0006d	50		 push	 eax
  0006e	8b 4d ec	 mov	 ecx, DWORD PTR _this$[ebp]
  00071	e8 00 00 00 00	 call	 ??4?$CStringT@_WV?$StrTraitMFC@_WV?$ChTraitsCRT@_W@ATL@@@@@ATL@@QAEAAV01@PB_W@Z ; ATL::CStringT<wchar_t,StrTraitMFC<wchar_t,ATL::ChTraitsCRT<wchar_t> > >::operator=
$LN2@CStringT@2:

; 967  : 		}
; 968  : 	}

  00076	c7 45 fc ff ff
	ff ff		 mov	 DWORD PTR __$EHRec$[ebp+8], -1
  0007d	8b 45 ec	 mov	 eax, DWORD PTR _this$[ebp]
  00080	8b 4d f4	 mov	 ecx, DWORD PTR __$EHRec$[ebp]
  00083	64 89 0d 00 00
	00 00		 mov	 DWORD PTR fs:0, ecx
  0008a	59		 pop	 ecx
  0008b	5f		 pop	 edi
  0008c	5e		 pop	 esi
  0008d	5b		 pop	 ebx
  0008e	81 c4 d8 00 00
	00		 add	 esp, 216		; 000000d8H
  00094	3b ec		 cmp	 ebp, esp
  00096	e8 00 00 00 00	 call	 __RTC_CheckEsp
  0009b	8b e5		 mov	 esp, ebp
  0009d	5d		 pop	 ebp
  0009e	c2 04 00	 ret	 4
_TEXT	ENDS
;	COMDAT text$x
text$x	SEGMENT
__unwindfunclet$??0?$CStringT@_WV?$StrTraitMFC@_WV?$ChTraitsCRT@_W@ATL@@@@@ATL@@QAE@PB_W@Z$0:
  00000	8b 4d ec	 mov	 ecx, DWORD PTR _this$[ebp]
  00003	e9 00 00 00 00	 jmp	 ??1?$CSimpleStringT@_W$0A@@ATL@@QAE@XZ ; ATL::CSimpleStringT<wchar_t,0>::~CSimpleStringT<wchar_t,0>
__ehhandler$??0?$CStringT@_WV?$StrTraitMFC@_WV?$ChTraitsCRT@_W@ATL@@@@@ATL@@QAE@PB_W@Z:
  00008	8b 54 24 08	 mov	 edx, DWORD PTR [esp+8]
  0000c	8d 42 0c	 lea	 eax, DWORD PTR [edx+12]
  0000f	8b 8a 24 ff ff
	ff		 mov	 ecx, DWORD PTR [edx-220]
  00015	33 c8		 xor	 ecx, eax
  00017	e8 00 00 00 00	 call	 @__security_check_cookie@4
  0001c	b8 00 00 00 00	 mov	 eax, OFFSET __ehfuncinfo$??0?$CStringT@_WV?$StrTraitMFC@_WV?$ChTraitsCRT@_W@ATL@@@@@ATL@@QAE@PB_W@Z
  00021	e9 00 00 00 00	 jmp	 ___CxxFrameHandler3
text$x	ENDS
??0?$CStringT@_WV?$StrTraitMFC@_WV?$ChTraitsCRT@_W@ATL@@@@@ATL@@QAE@PB_W@Z ENDP ; ATL::CStringT<wchar_t,StrTraitMFC<wchar_t,ATL::ChTraitsCRT<wchar_t> > >::CStringT<wchar_t,StrTraitMFC<wchar_t,ATL::ChTraitsCRT<wchar_t> > >
PUBLIC	??4?$CSimpleStringT@_W$0A@@ATL@@QAEAAV01@PB_W@Z	; ATL::CSimpleStringT<wchar_t,0>::operator=
; Function compile flags: /Odtp /RTCsu /ZI
;	COMDAT ??4?$CStringT@_WV?$StrTraitMFC@_WV?$ChTraitsCRT@_W@ATL@@@@@ATL@@QAEAAV01@PB_W@Z
_TEXT	SEGMENT
_this$ = -8						; size = 4
_pszSrc$ = 8						; size = 4
??4?$CStringT@_WV?$StrTraitMFC@_WV?$ChTraitsCRT@_W@ATL@@@@@ATL@@QAEAAV01@PB_W@Z PROC ; ATL::CStringT<wchar_t,StrTraitMFC<wchar_t,ATL::ChTraitsCRT<wchar_t> > >::operator=, COMDAT
; _this$ = ecx

; 1232 : 	{

  00000	55		 push	 ebp
  00001	8b ec		 mov	 ebp, esp
  00003	81 ec cc 00 00
	00		 sub	 esp, 204		; 000000ccH
  00009	53		 push	 ebx
  0000a	56		 push	 esi
  0000b	57		 push	 edi
  0000c	51		 push	 ecx
  0000d	8d bd 34 ff ff
	ff		 lea	 edi, DWORD PTR [ebp-204]
  00013	b9 33 00 00 00	 mov	 ecx, 51			; 00000033H
  00018	b8 cc cc cc cc	 mov	 eax, -858993460		; ccccccccH
  0001d	f3 ab		 rep stosd
  0001f	59		 pop	 ecx
  00020	89 4d f8	 mov	 DWORD PTR _this$[ebp], ecx

; 1233 : 		CThisSimpleString::operator=( pszSrc );

  00023	8b 45 08	 mov	 eax, DWORD PTR _pszSrc$[ebp]
  00026	50		 push	 eax
  00027	8b 4d f8	 mov	 ecx, DWORD PTR _this$[ebp]
  0002a	e8 00 00 00 00	 call	 ??4?$CSimpleStringT@_W$0A@@ATL@@QAEAAV01@PB_W@Z ; ATL::CSimpleStringT<wchar_t,0>::operator=

; 1234 : 
; 1235 : 		return( *this );

  0002f	8b 45 f8	 mov	 eax, DWORD PTR _this$[ebp]

; 1236 : 	}

  00032	5f		 pop	 edi
  00033	5e		 pop	 esi
  00034	5b		 pop	 ebx
  00035	81 c4 cc 00 00
	00		 add	 esp, 204		; 000000ccH
  0003b	3b ec		 cmp	 ebp, esp
  0003d	e8 00 00 00 00	 call	 __RTC_CheckEsp
  00042	8b e5		 mov	 esp, ebp
  00044	5d		 pop	 ebp
  00045	c2 04 00	 ret	 4
??4?$CStringT@_WV?$StrTraitMFC@_WV?$ChTraitsCRT@_W@ATL@@@@@ATL@@QAEAAV01@PB_W@Z ENDP ; ATL::CStringT<wchar_t,StrTraitMFC<wchar_t,ATL::ChTraitsCRT<wchar_t> > >::operator=
_TEXT	ENDS
PUBLIC	??RCTraceFileAndLineInfo@ATL@@QBAXKIPB_WZZ	; ATL::CTraceFileAndLineInfo::operator()
PUBLIC	??0CTraceFileAndLineInfo@ATL@@QAE@PBDH@Z	; ATL::CTraceFileAndLineInfo::CTraceFileAndLineInfo
PUBLIC	??_C@_0EL@DOLMBPMI@c?3?2program?5files?2microsoft?5visua@ ; `string'
PUBLIC	??BCTraceCategory@ATL@@QBEKXZ			; ATL::CTraceCategory::operator unsigned long
PUBLIC	??_C@_1FC@BMOLDHIO@?$AAW?$AAa?$AAr?$AAn?$AAi?$AAn?$AAg?$AA?3?$AA?5?$AAi?$AAm?$AAp?$AAl?$AAi?$AAc?$AAi?$AAt?$AA?5?$AAL?$AAo?$AAa?$AAd?$AAS?$AAt?$AAr?$AAi?$AAn?$AAg?$AA?$CI?$AA?$CF?$AAu?$AA?$CJ@ ; `string'
PUBLIC	?LoadStringW@?$CStringT@_WV?$StrTraitMFC@_WV?$ChTraitsCRT@_W@ATL@@@@@ATL@@QAEHI@Z ; ATL::CStringT<wchar_t,StrTraitMFC<wchar_t,ATL::ChTraitsCRT<wchar_t> > >::LoadStringW
EXTRN	?atlTraceString@ATL@@3VCTraceCategory@1@A:DWORD	; ATL::atlTraceString
;	COMDAT ??_C@_0EL@DOLMBPMI@c?3?2program?5files?2microsoft?5visua@
CONST	SEGMENT
??_C@_0EL@DOLMBPMI@c?3?2program?5files?2microsoft?5visua@ DB 'c:\program '
	DB	'files\microsoft visual studio 10.0\vc\atlmfc\include\cstringt'
	DB	'.h', 00H					; `string'
CONST	ENDS
;	COMDAT ??_C@_1FC@BMOLDHIO@?$AAW?$AAa?$AAr?$AAn?$AAi?$AAn?$AAg?$AA?3?$AA?5?$AAi?$AAm?$AAp?$AAl?$AAi?$AAc?$AAi?$AAt?$AA?5?$AAL?$AAo?$AAa?$AAd?$AAS?$AAt?$AAr?$AAi?$AAn?$AAg?$AA?$CI?$AA?$CF?$AAu?$AA?$CJ@
CONST	SEGMENT
??_C@_1FC@BMOLDHIO@?$AAW?$AAa?$AAr?$AAn?$AAi?$AAn?$AAg?$AA?3?$AA?5?$AAi?$AAm?$AAp?$AAl?$AAi?$AAc?$AAi?$AAt?$AA?5?$AAL?$AAo?$AAa?$AAd?$AAS?$AAt?$AAr?$AAi?$AAn?$AAg?$AA?$CI?$AA?$CF?$AAu?$AA?$CJ@ DB 'W'
	DB	00H, 'a', 00H, 'r', 00H, 'n', 00H, 'i', 00H, 'n', 00H, 'g', 00H
	DB	':', 00H, ' ', 00H, 'i', 00H, 'm', 00H, 'p', 00H, 'l', 00H, 'i'
	DB	00H, 'c', 00H, 'i', 00H, 't', 00H, ' ', 00H, 'L', 00H, 'o', 00H
	DB	'a', 00H, 'd', 00H, 'S', 00H, 't', 00H, 'r', 00H, 'i', 00H, 'n'
	DB	00H, 'g', 00H, '(', 00H, '%', 00H, 'u', 00H, ')', 00H, ' ', 00H
	DB	'f', 00H, 'a', 00H, 'i', 00H, 'l', 00H, 'e', 00H, 'd', 00H, 0aH
	DB	00H, 00H, 00H				; `string'
; Function compile flags: /Odtp /RTCsu /ZI
CONST	ENDS
;	COMDAT ?CheckImplicitLoad@?$CStringT@_WV?$StrTraitMFC@_WV?$ChTraitsCRT@_W@ATL@@@@@ATL@@AAE_NPBX@Z
_TEXT	SEGMENT
$T231164 = -240						; size = 8
_nID$196827 = -32					; size = 4
_bRet$ = -17						; size = 1
_this$ = -8						; size = 4
_pv$ = 8						; size = 4
?CheckImplicitLoad@?$CStringT@_WV?$StrTraitMFC@_WV?$ChTraitsCRT@_W@ATL@@@@@ATL@@AAE_NPBX@Z PROC ; ATL::CStringT<wchar_t,StrTraitMFC<wchar_t,ATL::ChTraitsCRT<wchar_t> > >::CheckImplicitLoad, COMDAT
; _this$ = ecx

; 2574 : 	{

  00000	55		 push	 ebp
  00001	8b ec		 mov	 ebp, esp
  00003	81 ec f4 00 00
	00		 sub	 esp, 244		; 000000f4H
  00009	53		 push	 ebx
  0000a	56		 push	 esi
  0000b	57		 push	 edi
  0000c	51		 push	 ecx
  0000d	8d bd 0c ff ff
	ff		 lea	 edi, DWORD PTR [ebp-244]
  00013	b9 3d 00 00 00	 mov	 ecx, 61			; 0000003dH
  00018	b8 cc cc cc cc	 mov	 eax, -858993460		; ccccccccH
  0001d	f3 ab		 rep stosd
  0001f	59		 pop	 ecx
  00020	89 4d f8	 mov	 DWORD PTR _this$[ebp], ecx

; 2575 : 		bool bRet = false;

  00023	c6 45 ef 00	 mov	 BYTE PTR _bRet$[ebp], 0

; 2576 : 
; 2577 : 		if( (pv != NULL) && IS_INTRESOURCE( pv ) )

  00027	83 7d 08 00	 cmp	 DWORD PTR _pv$[ebp], 0
  0002b	74 60		 je	 SHORT $LN2@CheckImpli
  0002d	8b 45 08	 mov	 eax, DWORD PTR _pv$[ebp]
  00030	c1 e8 10	 shr	 eax, 16			; 00000010H
  00033	85 c0		 test	 eax, eax
  00035	75 56		 jne	 SHORT $LN2@CheckImpli

; 2578 : 		{
; 2579 : 			UINT nID = LOWORD( reinterpret_cast< DWORD_PTR >( pv ) );

  00037	8b 45 08	 mov	 eax, DWORD PTR _pv$[ebp]
  0003a	25 ff ff 00 00	 and	 eax, 65535		; 0000ffffH
  0003f	0f b7 c8	 movzx	 ecx, ax
  00042	89 4d e0	 mov	 DWORD PTR _nID$196827[ebp], ecx

; 2580 : 			if( !LoadString( nID ) )

  00045	8b 45 e0	 mov	 eax, DWORD PTR _nID$196827[ebp]
  00048	50		 push	 eax
  00049	8b 4d f8	 mov	 ecx, DWORD PTR _this$[ebp]
  0004c	e8 00 00 00 00	 call	 ?LoadStringW@?$CStringT@_WV?$StrTraitMFC@_WV?$ChTraitsCRT@_W@ATL@@@@@ATL@@QAEHI@Z ; ATL::CStringT<wchar_t,StrTraitMFC<wchar_t,ATL::ChTraitsCRT<wchar_t> > >::LoadStringW
  00051	85 c0		 test	 eax, eax
  00053	75 34		 jne	 SHORT $LN1@CheckImpli

; 2581 : 			{
; 2582 : 				ATLTRACE( atlTraceString, 2, _T( "Warning: implicit LoadString(%u) failed\n" ), nID );

  00055	8b 45 e0	 mov	 eax, DWORD PTR _nID$196827[ebp]
  00058	50		 push	 eax
  00059	68 00 00 00 00	 push	 OFFSET ??_C@_1FC@BMOLDHIO@?$AAW?$AAa?$AAr?$AAn?$AAi?$AAn?$AAg?$AA?3?$AA?5?$AAi?$AAm?$AAp?$AAl?$AAi?$AAc?$AAi?$AAt?$AA?5?$AAL?$AAo?$AAa?$AAd?$AAS?$AAt?$AAr?$AAi?$AAn?$AAg?$AA?$CI?$AA?$CF?$AAu?$AA?$CJ@
  0005e	6a 02		 push	 2
  00060	b9 00 00 00 00	 mov	 ecx, OFFSET ?atlTraceString@ATL@@3VCTraceCategory@1@A ; ATL::atlTraceString
  00065	e8 00 00 00 00	 call	 ??BCTraceCategory@ATL@@QBEKXZ ; ATL::CTraceCategory::operator unsigned long
  0006a	50		 push	 eax
  0006b	68 16 0a 00 00	 push	 2582			; 00000a16H
  00070	68 00 00 00 00	 push	 OFFSET ??_C@_0EL@DOLMBPMI@c?3?2program?5files?2microsoft?5visua@
  00075	8d 8d 10 ff ff
	ff		 lea	 ecx, DWORD PTR $T231164[ebp]
  0007b	e8 00 00 00 00	 call	 ??0CTraceFileAndLineInfo@ATL@@QAE@PBDH@Z ; ATL::CTraceFileAndLineInfo::CTraceFileAndLineInfo
  00080	50		 push	 eax
  00081	e8 00 00 00 00	 call	 ??RCTraceFileAndLineInfo@ATL@@QBAXKIPB_WZZ ; ATL::CTraceFileAndLineInfo::operator()
  00086	83 c4 14	 add	 esp, 20			; 00000014H
$LN1@CheckImpli:

; 2583 : 			}
; 2584 : 			bRet = true;

  00089	c6 45 ef 01	 mov	 BYTE PTR _bRet$[ebp], 1
$LN2@CheckImpli:

; 2585 : 		}
; 2586 : 
; 2587 : 		return( bRet );

  0008d	8a 45 ef	 mov	 al, BYTE PTR _bRet$[ebp]

; 2588 : 	}

  00090	5f		 pop	 edi
  00091	5e		 pop	 esi
  00092	5b		 pop	 ebx
  00093	81 c4 f4 00 00
	00		 add	 esp, 244		; 000000f4H
  00099	3b ec		 cmp	 ebp, esp
  0009b	e8 00 00 00 00	 call	 __RTC_CheckEsp
  000a0	8b e5		 mov	 esp, ebp
  000a2	5d		 pop	 ebp
  000a3	c2 04 00	 ret	 4
?CheckImplicitLoad@?$CStringT@_WV?$StrTraitMFC@_WV?$ChTraitsCRT@_W@ATL@@@@@ATL@@AAE_NPBX@Z ENDP ; ATL::CStringT<wchar_t,StrTraitMFC<wchar_t,ATL::ChTraitsCRT<wchar_t> > >::CheckImplicitLoad
; Function compile flags: /Odtp /RTCsu /ZI
; File c:\program files\microsoft visual studio 10.0\vc\atlmfc\include\atltrace.h
_TEXT	ENDS
;	COMDAT ??0CTraceFileAndLineInfo@ATL@@QAE@PBDH@Z
_TEXT	SEGMENT
_this$ = -8						; size = 4
_pszFileName$ = 8					; size = 4
_nLineNo$ = 12						; size = 4
??0CTraceFileAndLineInfo@ATL@@QAE@PBDH@Z PROC		; ATL::CTraceFileAndLineInfo::CTraceFileAndLineInfo, COMDAT
; _this$ = ecx

; 224  : 	{

  00000	55		 push	 ebp
  00001	8b ec		 mov	 ebp, esp
  00003	81 ec cc 00 00
	00		 sub	 esp, 204		; 000000ccH
  00009	53		 push	 ebx
  0000a	56		 push	 esi
  0000b	57		 push	 edi
  0000c	51		 push	 ecx
  0000d	8d bd 34 ff ff
	ff		 lea	 edi, DWORD PTR [ebp-204]
  00013	b9 33 00 00 00	 mov	 ecx, 51			; 00000033H
  00018	b8 cc cc cc cc	 mov	 eax, -858993460		; ccccccccH
  0001d	f3 ab		 rep stosd
  0001f	59		 pop	 ecx
  00020	89 4d f8	 mov	 DWORD PTR _this$[ebp], ecx
  00023	8b 45 f8	 mov	 eax, DWORD PTR _this$[ebp]
  00026	8b 4d 08	 mov	 ecx, DWORD PTR _pszFileName$[ebp]
  00029	89 08		 mov	 DWORD PTR [eax], ecx
  0002b	8b 45 f8	 mov	 eax, DWORD PTR _this$[ebp]
  0002e	8b 4d 0c	 mov	 ecx, DWORD PTR _nLineNo$[ebp]
  00031	89 48 04	 mov	 DWORD PTR [eax+4], ecx

; 225  : 	}

  00034	8b 45 f8	 mov	 eax, DWORD PTR _this$[ebp]
  00037	5f		 pop	 edi
  00038	5e		 pop	 esi
  00039	5b		 pop	 ebx
  0003a	8b e5		 mov	 esp, ebp
  0003c	5d		 pop	 ebp
  0003d	c2 08 00	 ret	 8
??0CTraceFileAndLineInfo@ATL@@QAE@PBDH@Z ENDP		; ATL::CTraceFileAndLineInfo::CTraceFileAndLineInfo
_TEXT	ENDS
PUBLIC	?TraceV@CTrace@ATL@@QBAXPBDHKIPB_WPAD@Z		; ATL::CTrace::TraceV
EXTRN	?s_trace@CTrace@ATL@@2V12@A:QWORD		; ATL::CTrace::s_trace
; Function compile flags: /Odtp /RTCsu /ZI
;	COMDAT ??RCTraceFileAndLineInfo@ATL@@QBAXKIPB_WZZ
_TEXT	SEGMENT
_ptr$ = -8						; size = 4
_this$ = 8						; size = 4
_dwCategory$ = 12					; size = 4
_nLevel$ = 16						; size = 4
_pszFmt$ = 20						; size = 4
??RCTraceFileAndLineInfo@ATL@@QBAXKIPB_WZZ PROC		; ATL::CTraceFileAndLineInfo::operator(), COMDAT

; 248  : 	{

  00000	55		 push	 ebp
  00001	8b ec		 mov	 ebp, esp
  00003	81 ec cc 00 00
	00		 sub	 esp, 204		; 000000ccH
  00009	53		 push	 ebx
  0000a	56		 push	 esi
  0000b	57		 push	 edi
  0000c	8d bd 34 ff ff
	ff		 lea	 edi, DWORD PTR [ebp-204]
  00012	b9 33 00 00 00	 mov	 ecx, 51			; 00000033H
  00017	b8 cc cc cc cc	 mov	 eax, -858993460		; ccccccccH
  0001c	f3 ab		 rep stosd

; 249  : 		va_list ptr; va_start(ptr, pszFmt);

  0001e	8d 45 18	 lea	 eax, DWORD PTR _pszFmt$[ebp+4]
  00021	89 45 f8	 mov	 DWORD PTR _ptr$[ebp], eax

; 250  : 		ATL::CTrace::s_trace.TraceV(m_pszFileName, m_nLineNo, dwCategory, nLevel, pszFmt, ptr);

  00024	8b 45 f8	 mov	 eax, DWORD PTR _ptr$[ebp]
  00027	50		 push	 eax
  00028	8b 4d 14	 mov	 ecx, DWORD PTR _pszFmt$[ebp]
  0002b	51		 push	 ecx
  0002c	8b 55 10	 mov	 edx, DWORD PTR _nLevel$[ebp]
  0002f	52		 push	 edx
  00030	8b 45 0c	 mov	 eax, DWORD PTR _dwCategory$[ebp]
  00033	50		 push	 eax
  00034	8b 4d 08	 mov	 ecx, DWORD PTR _this$[ebp]
  00037	8b 51 04	 mov	 edx, DWORD PTR [ecx+4]
  0003a	52		 push	 edx
  0003b	8b 45 08	 mov	 eax, DWORD PTR _this$[ebp]
  0003e	8b 08		 mov	 ecx, DWORD PTR [eax]
  00040	51		 push	 ecx
  00041	68 00 00 00 00	 push	 OFFSET ?s_trace@CTrace@ATL@@2V12@A ; ATL::CTrace::s_trace
  00046	e8 00 00 00 00	 call	 ?TraceV@CTrace@ATL@@QBAXPBDHKIPB_WPAD@Z ; ATL::CTrace::TraceV
  0004b	83 c4 1c	 add	 esp, 28			; 0000001cH

; 251  : 		va_end(ptr);

  0004e	c7 45 f8 00 00
	00 00		 mov	 DWORD PTR _ptr$[ebp], 0

; 252  : 	}

  00055	5f		 pop	 edi
  00056	5e		 pop	 esi
  00057	5b		 pop	 ebx
  00058	81 c4 cc 00 00
	00		 add	 esp, 204		; 000000ccH
  0005e	3b ec		 cmp	 ebp, esp
  00060	e8 00 00 00 00	 call	 __RTC_CheckEsp
  00065	8b e5		 mov	 esp, ebp
  00067	5d		 pop	 ebp
  00068	c3		 ret	 0
??RCTraceFileAndLineInfo@ATL@@QBAXKIPB_WZZ ENDP		; ATL::CTraceFileAndLineInfo::operator()
_TEXT	ENDS
EXTRN	_AtlTraceVU:PROC
; Function compile flags: /Odtp /RTCsu /ZI
;	COMDAT ?TraceV@CTrace@ATL@@QBAXPBDHKIPB_WPAD@Z
_TEXT	SEGMENT
_this$ = 8						; size = 4
_pszFileName$ = 12					; size = 4
_nLine$ = 16						; size = 4
_dwCategory$ = 20					; size = 4
_nLevel$ = 24						; size = 4
_pszFmt$ = 28						; size = 4
_args$ = 32						; size = 4
?TraceV@CTrace@ATL@@QBAXPBDHKIPB_WPAD@Z PROC		; ATL::CTrace::TraceV, COMDAT

; 211  : {

  00000	55		 push	 ebp
  00001	8b ec		 mov	 ebp, esp
  00003	81 ec c0 00 00
	00		 sub	 esp, 192		; 000000c0H
  00009	53		 push	 ebx
  0000a	56		 push	 esi
  0000b	57		 push	 edi
  0000c	8d bd 40 ff ff
	ff		 lea	 edi, DWORD PTR [ebp-192]
  00012	b9 30 00 00 00	 mov	 ecx, 48			; 00000030H
  00017	b8 cc cc cc cc	 mov	 eax, -858993460		; ccccccccH
  0001c	f3 ab		 rep stosd

; 212  : 	AtlTraceVU(m_dwModule, pszFileName, nLine, dwCategory, nLevel, pszFmt, args);

  0001e	8b 45 20	 mov	 eax, DWORD PTR _args$[ebp]
  00021	50		 push	 eax
  00022	8b 4d 1c	 mov	 ecx, DWORD PTR _pszFmt$[ebp]
  00025	51		 push	 ecx
  00026	8b 55 18	 mov	 edx, DWORD PTR _nLevel$[ebp]
  00029	52		 push	 edx
  0002a	8b 45 14	 mov	 eax, DWORD PTR _dwCategory$[ebp]
  0002d	50		 push	 eax
  0002e	8b 4d 10	 mov	 ecx, DWORD PTR _nLine$[ebp]
  00031	51		 push	 ecx
  00032	8b 55 0c	 mov	 edx, DWORD PTR _pszFileName$[ebp]
  00035	52		 push	 edx
  00036	8b 45 08	 mov	 eax, DWORD PTR _this$[ebp]
  00039	8b 48 04	 mov	 ecx, DWORD PTR [eax+4]
  0003c	51		 push	 ecx
  0003d	e8 00 00 00 00	 call	 _AtlTraceVU
  00042	83 c4 1c	 add	 esp, 28			; 0000001cH

; 213  : }

  00045	5f		 pop	 edi
  00046	5e		 pop	 esi
  00047	5b		 pop	 ebx
  00048	81 c4 c0 00 00
	00		 add	 esp, 192		; 000000c0H
  0004e	3b ec		 cmp	 ebp, esp
  00050	e8 00 00 00 00	 call	 __RTC_CheckEsp
  00055	8b e5		 mov	 esp, ebp
  00057	5d		 pop	 ebp
  00058	c3		 ret	 0
?TraceV@CTrace@ATL@@QBAXPBDHKIPB_WPAD@Z ENDP		; ATL::CTrace::TraceV
; Function compile flags: /Odtp /RTCsu /ZI
_TEXT	ENDS
;	COMDAT ??BCTraceCategory@ATL@@QBEKXZ
_TEXT	SEGMENT
_this$ = -8						; size = 4
??BCTraceCategory@ATL@@QBEKXZ PROC			; ATL::CTraceCategory::operator unsigned long, COMDAT
; _this$ = ecx

; 301  : {

  00000	55		 push	 ebp
  00001	8b ec		 mov	 ebp, esp
  00003	81 ec cc 00 00
	00		 sub	 esp, 204		; 000000ccH
  00009	53		 push	 ebx
  0000a	56		 push	 esi
  0000b	57		 push	 edi
  0000c	51		 push	 ecx
  0000d	8d bd 34 ff ff
	ff		 lea	 edi, DWORD PTR [ebp-204]
  00013	b9 33 00 00 00	 mov	 ecx, 51			; 00000033H
  00018	b8 cc cc cc cc	 mov	 eax, -858993460		; ccccccccH
  0001d	f3 ab		 rep stosd
  0001f	59		 pop	 ecx
  00020	89 4d f8	 mov	 DWORD PTR _this$[ebp], ecx

; 302  : 	return( m_dwCategory );

  00023	8b 45 f8	 mov	 eax, DWORD PTR _this$[ebp]
  00026	8b 00		 mov	 eax, DWORD PTR [eax]

; 303  : }

  00028	5f		 pop	 edi
  00029	5e		 pop	 esi
  0002a	5b		 pop	 ebx
  0002b	8b e5		 mov	 esp, ebp
  0002d	5d		 pop	 ebp
  0002e	c3		 ret	 0
??BCTraceCategory@ATL@@QBEKXZ ENDP			; ATL::CTraceCategory::operator unsigned long
_TEXT	ENDS
PUBLIC	?LoadStringW@?$CStringT@_WV?$StrTraitMFC@_WV?$ChTraitsCRT@_W@ATL@@@@@ATL@@QAEHPAUHINSTANCE__@@I@Z ; ATL::CStringT<wchar_t,StrTraitMFC<wchar_t,ATL::ChTraitsCRT<wchar_t> > >::LoadStringW
PUBLIC	?FindStringResourceInstance@?$StrTraitMFC@_WV?$ChTraitsCRT@_W@ATL@@@@SAPAUHINSTANCE__@@I@Z ; StrTraitMFC<wchar_t,ATL::ChTraitsCRT<wchar_t> >::FindStringResourceInstance
; Function compile flags: /Odtp /RTCsu /ZI
; File c:\program files\microsoft visual studio 10.0\vc\atlmfc\include\cstringt.h
;	COMDAT ?LoadStringW@?$CStringT@_WV?$StrTraitMFC@_WV?$ChTraitsCRT@_W@ATL@@@@@ATL@@QAEHI@Z
_TEXT	SEGMENT
_hInst$ = -20						; size = 4
_this$ = -8						; size = 4
_nID$ = 8						; size = 4
?LoadStringW@?$CStringT@_WV?$StrTraitMFC@_WV?$ChTraitsCRT@_W@ATL@@@@@ATL@@QAEHI@Z PROC ; ATL::CStringT<wchar_t,StrTraitMFC<wchar_t,ATL::ChTraitsCRT<wchar_t> > >::LoadStringW, COMDAT
; _this$ = ecx

; 2240 : 	{

  00000	55		 push	 ebp
  00001	8b ec		 mov	 ebp, esp
  00003	81 ec d8 00 00
	00		 sub	 esp, 216		; 000000d8H
  00009	53		 push	 ebx
  0000a	56		 push	 esi
  0000b	57		 push	 edi
  0000c	51		 push	 ecx
  0000d	8d bd 28 ff ff
	ff		 lea	 edi, DWORD PTR [ebp-216]
  00013	b9 36 00 00 00	 mov	 ecx, 54			; 00000036H
  00018	b8 cc cc cc cc	 mov	 eax, -858993460		; ccccccccH
  0001d	f3 ab		 rep stosd
  0001f	59		 pop	 ecx
  00020	89 4d f8	 mov	 DWORD PTR _this$[ebp], ecx

; 2241 : 		HINSTANCE hInst = StringTraits::FindStringResourceInstance( nID );

  00023	8b 45 08	 mov	 eax, DWORD PTR _nID$[ebp]
  00026	50		 push	 eax
  00027	e8 00 00 00 00	 call	 ?FindStringResourceInstance@?$StrTraitMFC@_WV?$ChTraitsCRT@_W@ATL@@@@SAPAUHINSTANCE__@@I@Z ; StrTraitMFC<wchar_t,ATL::ChTraitsCRT<wchar_t> >::FindStringResourceInstance
  0002c	83 c4 04	 add	 esp, 4
  0002f	89 45 ec	 mov	 DWORD PTR _hInst$[ebp], eax

; 2242 : 		if( hInst == NULL )

  00032	83 7d ec 00	 cmp	 DWORD PTR _hInst$[ebp], 0
  00036	75 04		 jne	 SHORT $LN1@LoadString

; 2243 : 		{
; 2244 : 			return( FALSE );

  00038	33 c0		 xor	 eax, eax
  0003a	eb 10		 jmp	 SHORT $LN2@LoadString
$LN1@LoadString:

; 2245 : 		}
; 2246 : 
; 2247 : 		return( LoadString( hInst, nID ) );

  0003c	8b 45 08	 mov	 eax, DWORD PTR _nID$[ebp]
  0003f	50		 push	 eax
  00040	8b 4d ec	 mov	 ecx, DWORD PTR _hInst$[ebp]
  00043	51		 push	 ecx
  00044	8b 4d f8	 mov	 ecx, DWORD PTR _this$[ebp]
  00047	e8 00 00 00 00	 call	 ?LoadStringW@?$CStringT@_WV?$StrTraitMFC@_WV?$ChTraitsCRT@_W@ATL@@@@@ATL@@QAEHPAUHINSTANCE__@@I@Z ; ATL::CStringT<wchar_t,StrTraitMFC<wchar_t,ATL::ChTraitsCRT<wchar_t> > >::LoadStringW
$LN2@LoadString:

; 2248 : 	}

  0004c	5f		 pop	 edi
  0004d	5e		 pop	 esi
  0004e	5b		 pop	 ebx
  0004f	81 c4 d8 00 00
	00		 add	 esp, 216		; 000000d8H
  00055	3b ec		 cmp	 ebp, esp
  00057	e8 00 00 00 00	 call	 __RTC_CheckEsp
  0005c	8b e5		 mov	 esp, ebp
  0005e	5d		 pop	 ebp
  0005f	c2 04 00	 ret	 4
?LoadStringW@?$CStringT@_WV?$StrTraitMFC@_WV?$ChTraitsCRT@_W@ATL@@@@@ATL@@QAEHI@Z ENDP ; ATL::CStringT<wchar_t,StrTraitMFC<wchar_t,ATL::ChTraitsCRT<wchar_t> > >::LoadStringW
_TEXT	ENDS
PUBLIC	?ReleaseBufferSetLength@?$CSimpleStringT@_W$0A@@ATL@@QAEXH@Z ; ATL::CSimpleStringT<wchar_t,0>::ReleaseBufferSetLength
PUBLIC	?ConvertToBaseType@?$ChTraitsCRT@_W@ATL@@SAXPA_WHPB_WH@Z ; ATL::ChTraitsCRT<wchar_t>::ConvertToBaseType
PUBLIC	?GetBuffer@?$CSimpleStringT@_W$0A@@ATL@@QAEPA_WH@Z ; ATL::CSimpleStringT<wchar_t,0>::GetBuffer
PUBLIC	?GetBaseTypeLength@?$ChTraitsCRT@_W@ATL@@SAHPB_WH@Z ; ATL::ChTraitsCRT<wchar_t>::GetBaseTypeLength
PUBLIC	?AtlGetStringResourceImage@ATL@@YAPBUATLSTRINGRESOURCEIMAGE@1@PAUHINSTANCE__@@I@Z ; ATL::AtlGetStringResourceImage
; Function compile flags: /Odtp /RTCsu /ZI
;	COMDAT ?LoadStringW@?$CStringT@_WV?$StrTraitMFC@_WV?$ChTraitsCRT@_W@ATL@@@@@ATL@@QAEHPAUHINSTANCE__@@I@Z
_TEXT	SEGMENT
_pszBuffer$ = -44					; size = 4
_nLength$ = -32						; size = 4
_pImage$ = -20						; size = 4
_this$ = -8						; size = 4
_hInstance$ = 8						; size = 4
_nID$ = 12						; size = 4
?LoadStringW@?$CStringT@_WV?$StrTraitMFC@_WV?$ChTraitsCRT@_W@ATL@@@@@ATL@@QAEHPAUHINSTANCE__@@I@Z PROC ; ATL::CStringT<wchar_t,StrTraitMFC<wchar_t,ATL::ChTraitsCRT<wchar_t> > >::LoadStringW, COMDAT
; _this$ = ecx

; 2254 : 	{

  00000	55		 push	 ebp
  00001	8b ec		 mov	 ebp, esp
  00003	81 ec f0 00 00
	00		 sub	 esp, 240		; 000000f0H
  00009	53		 push	 ebx
  0000a	56		 push	 esi
  0000b	57		 push	 edi
  0000c	51		 push	 ecx
  0000d	8d bd 10 ff ff
	ff		 lea	 edi, DWORD PTR [ebp-240]
  00013	b9 3c 00 00 00	 mov	 ecx, 60			; 0000003cH
  00018	b8 cc cc cc cc	 mov	 eax, -858993460		; ccccccccH
  0001d	f3 ab		 rep stosd
  0001f	59		 pop	 ecx
  00020	89 4d f8	 mov	 DWORD PTR _this$[ebp], ecx

; 2255 : 		const ATLSTRINGRESOURCEIMAGE* pImage = AtlGetStringResourceImage( hInstance, nID );

  00023	8b 45 0c	 mov	 eax, DWORD PTR _nID$[ebp]
  00026	50		 push	 eax
  00027	8b 4d 08	 mov	 ecx, DWORD PTR _hInstance$[ebp]
  0002a	51		 push	 ecx
  0002b	e8 00 00 00 00	 call	 ?AtlGetStringResourceImage@ATL@@YAPBUATLSTRINGRESOURCEIMAGE@1@PAUHINSTANCE__@@I@Z ; ATL::AtlGetStringResourceImage
  00030	83 c4 08	 add	 esp, 8
  00033	89 45 ec	 mov	 DWORD PTR _pImage$[ebp], eax

; 2256 : 		if( pImage == NULL )

  00036	83 7d ec 00	 cmp	 DWORD PTR _pImage$[ebp], 0
  0003a	75 04		 jne	 SHORT $LN1@LoadString@2

; 2257 : 		{
; 2258 : 			return( FALSE );

  0003c	33 c0		 xor	 eax, eax
  0003e	eb 57		 jmp	 SHORT $LN2@LoadString@2
$LN1@LoadString@2:

; 2259 : 		}
; 2260 : 
; 2261 : 		int nLength = StringTraits::GetBaseTypeLength( pImage->achString, pImage->nLength );

  00040	8b 45 ec	 mov	 eax, DWORD PTR _pImage$[ebp]
  00043	0f b7 08	 movzx	 ecx, WORD PTR [eax]
  00046	51		 push	 ecx
  00047	8b 55 ec	 mov	 edx, DWORD PTR _pImage$[ebp]
  0004a	83 c2 02	 add	 edx, 2
  0004d	52		 push	 edx
  0004e	e8 00 00 00 00	 call	 ?GetBaseTypeLength@?$ChTraitsCRT@_W@ATL@@SAHPB_WH@Z ; ATL::ChTraitsCRT<wchar_t>::GetBaseTypeLength
  00053	83 c4 08	 add	 esp, 8
  00056	89 45 e0	 mov	 DWORD PTR _nLength$[ebp], eax

; 2262 : 		PXSTR pszBuffer = GetBuffer( nLength );

  00059	8b 45 e0	 mov	 eax, DWORD PTR _nLength$[ebp]
  0005c	50		 push	 eax
  0005d	8b 4d f8	 mov	 ecx, DWORD PTR _this$[ebp]
  00060	e8 00 00 00 00	 call	 ?GetBuffer@?$CSimpleStringT@_W$0A@@ATL@@QAEPA_WH@Z ; ATL::CSimpleStringT<wchar_t,0>::GetBuffer
  00065	89 45 d4	 mov	 DWORD PTR _pszBuffer$[ebp], eax

; 2263 : 		StringTraits::ConvertToBaseType( pszBuffer, nLength, pImage->achString, pImage->nLength );

  00068	8b 45 ec	 mov	 eax, DWORD PTR _pImage$[ebp]
  0006b	0f b7 08	 movzx	 ecx, WORD PTR [eax]
  0006e	51		 push	 ecx
  0006f	8b 55 ec	 mov	 edx, DWORD PTR _pImage$[ebp]
  00072	83 c2 02	 add	 edx, 2
  00075	52		 push	 edx
  00076	8b 45 e0	 mov	 eax, DWORD PTR _nLength$[ebp]
  00079	50		 push	 eax
  0007a	8b 4d d4	 mov	 ecx, DWORD PTR _pszBuffer$[ebp]
  0007d	51		 push	 ecx
  0007e	e8 00 00 00 00	 call	 ?ConvertToBaseType@?$ChTraitsCRT@_W@ATL@@SAXPA_WHPB_WH@Z ; ATL::ChTraitsCRT<wchar_t>::ConvertToBaseType
  00083	83 c4 10	 add	 esp, 16			; 00000010H

; 2264 : 		ReleaseBufferSetLength( nLength );

  00086	8b 45 e0	 mov	 eax, DWORD PTR _nLength$[ebp]
  00089	50		 push	 eax
  0008a	8b 4d f8	 mov	 ecx, DWORD PTR _this$[ebp]
  0008d	e8 00 00 00 00	 call	 ?ReleaseBufferSetLength@?$CSimpleStringT@_W$0A@@ATL@@QAEXH@Z ; ATL::CSimpleStringT<wchar_t,0>::ReleaseBufferSetLength

; 2265 : 
; 2266 : 		return( TRUE );

  00092	b8 01 00 00 00	 mov	 eax, 1
$LN2@LoadString@2:

; 2267 : 	}

  00097	5f		 pop	 edi
  00098	5e		 pop	 esi
  00099	5b		 pop	 ebx
  0009a	81 c4 f0 00 00
	00		 add	 esp, 240		; 000000f0H
  000a0	3b ec		 cmp	 ebp, esp
  000a2	e8 00 00 00 00	 call	 __RTC_CheckEsp
  000a7	8b e5		 mov	 esp, ebp
  000a9	5d		 pop	 ebp
  000aa	c2 08 00	 ret	 8
?LoadStringW@?$CStringT@_WV?$StrTraitMFC@_WV?$ChTraitsCRT@_W@ATL@@@@@ATL@@QAEHPAUHINSTANCE__@@I@Z ENDP ; ATL::CStringT<wchar_t,StrTraitMFC<wchar_t,ATL::ChTraitsCRT<wchar_t> > >::LoadStringW
_TEXT	ENDS
PUBLIC	?_AtlGetStringResourceImage@ATL@@YAPBUATLSTRINGRESOURCEIMAGE@1@PAUHINSTANCE__@@PAUHRSRC__@@I@Z ; ATL::_AtlGetStringResourceImage
EXTRN	__imp__FindResourceW@12:PROC
; Function compile flags: /Odtp /RTCsu /ZI
; File c:\program files\microsoft visual studio 10.0\vc\atlmfc\include\atlcore.h
;	COMDAT ?AtlGetStringResourceImage@ATL@@YAPBUATLSTRINGRESOURCEIMAGE@1@PAUHINSTANCE__@@I@Z
_TEXT	SEGMENT
_hResource$ = -8					; size = 4
_hInstance$ = 8						; size = 4
_id$ = 12						; size = 4
?AtlGetStringResourceImage@ATL@@YAPBUATLSTRINGRESOURCEIMAGE@1@PAUHINSTANCE__@@I@Z PROC ; ATL::AtlGetStringResourceImage, COMDAT

; 333  : {

  00000	55		 push	 ebp
  00001	8b ec		 mov	 ebp, esp
  00003	81 ec cc 00 00
	00		 sub	 esp, 204		; 000000ccH
  00009	53		 push	 ebx
  0000a	56		 push	 esi
  0000b	57		 push	 edi
  0000c	8d bd 34 ff ff
	ff		 lea	 edi, DWORD PTR [ebp-204]
  00012	b9 33 00 00 00	 mov	 ecx, 51			; 00000033H
  00017	b8 cc cc cc cc	 mov	 eax, -858993460		; ccccccccH
  0001c	f3 ab		 rep stosd

; 334  : 	HRSRC hResource;
; 335  : 	/*
; 336  : 		The and operation (& static_cast<WORD>(~0)) protects the expression from being greater
; 337  : 		than WORD - this would cause a runtime error when the application is compiled with /RTCc flag.
; 338  : 	*/
; 339  : 	hResource = ::FindResourceW(hInstance, MAKEINTRESOURCEW( (((id>>4)+1) & static_cast<WORD>(~0)) ), (LPWSTR) RT_STRING);

  0001e	8b f4		 mov	 esi, esp
  00020	6a 06		 push	 6
  00022	8b 45 0c	 mov	 eax, DWORD PTR _id$[ebp]
  00025	c1 e8 04	 shr	 eax, 4
  00028	83 c0 01	 add	 eax, 1
  0002b	25 ff ff 00 00	 and	 eax, 65535		; 0000ffffH
  00030	0f b7 c8	 movzx	 ecx, ax
  00033	51		 push	 ecx
  00034	8b 55 08	 mov	 edx, DWORD PTR _hInstance$[ebp]
  00037	52		 push	 edx
  00038	ff 15 00 00 00
	00		 call	 DWORD PTR __imp__FindResourceW@12
  0003e	3b f4		 cmp	 esi, esp
  00040	e8 00 00 00 00	 call	 __RTC_CheckEsp
  00045	89 45 f8	 mov	 DWORD PTR _hResource$[ebp], eax

; 340  : 	if( hResource == NULL )

  00048	83 7d f8 00	 cmp	 DWORD PTR _hResource$[ebp], 0
  0004c	75 04		 jne	 SHORT $LN1@AtlGetStri

; 341  : 	{
; 342  : 		return( NULL );

  0004e	33 c0		 xor	 eax, eax
  00050	eb 14		 jmp	 SHORT $LN2@AtlGetStri
$LN1@AtlGetStri:

; 343  : 	}
; 344  : 
; 345  : 	return _AtlGetStringResourceImage( hInstance, hResource, id );

  00052	8b 45 0c	 mov	 eax, DWORD PTR _id$[ebp]
  00055	50		 push	 eax
  00056	8b 4d f8	 mov	 ecx, DWORD PTR _hResource$[ebp]
  00059	51		 push	 ecx
  0005a	8b 55 08	 mov	 edx, DWORD PTR _hInstance$[ebp]
  0005d	52		 push	 edx
  0005e	e8 00 00 00 00	 call	 ?_AtlGetStringResourceImage@ATL@@YAPBUATLSTRINGRESOURCEIMAGE@1@PAUHINSTANCE__@@PAUHRSRC__@@I@Z ; ATL::_AtlGetStringResourceImage
  00063	83 c4 0c	 add	 esp, 12			; 0000000cH
$LN2@AtlGetStri:

; 346  : }

  00066	5f		 pop	 edi
  00067	5e		 pop	 esi
  00068	5b		 pop	 ebx
  00069	81 c4 cc 00 00
	00		 add	 esp, 204		; 000000ccH
  0006f	3b ec		 cmp	 ebp, esp
  00071	e8 00 00 00 00	 call	 __RTC_CheckEsp
  00076	8b e5		 mov	 esp, ebp
  00078	5d		 pop	 ebp
  00079	c3		 ret	 0
?AtlGetStringResourceImage@ATL@@YAPBUATLSTRINGRESOURCEIMAGE@1@PAUHINSTANCE__@@I@Z ENDP ; ATL::AtlGetStringResourceImage
_TEXT	ENDS
EXTRN	__imp__SizeofResource@8:PROC
EXTRN	__imp__LockResource@4:PROC
EXTRN	__imp__LoadResource@8:PROC
; Function compile flags: /Odtp /RTCsu /ZI
;	COMDAT ?_AtlGetStringResourceImage@ATL@@YAPBUATLSTRINGRESOURCEIMAGE@1@PAUHINSTANCE__@@PAUHRSRC__@@I@Z
_TEXT	SEGMENT
_iIndex$ = -56						; size = 4
_hGlobal$ = -44						; size = 4
_nResourceSize$ = -32					; size = 4
_pImageEnd$ = -20					; size = 4
_pImage$ = -8						; size = 4
_hInstance$ = 8						; size = 4
_hResource$ = 12					; size = 4
_id$ = 16						; size = 4
?_AtlGetStringResourceImage@ATL@@YAPBUATLSTRINGRESOURCEIMAGE@1@PAUHINSTANCE__@@PAUHRSRC__@@I@Z PROC ; ATL::_AtlGetStringResourceImage, COMDAT

; 290  : {

  00000	55		 push	 ebp
  00001	8b ec		 mov	 ebp, esp
  00003	81 ec fc 00 00
	00		 sub	 esp, 252		; 000000fcH
  00009	53		 push	 ebx
  0000a	56		 push	 esi
  0000b	57		 push	 edi
  0000c	8d bd 04 ff ff
	ff		 lea	 edi, DWORD PTR [ebp-252]
  00012	b9 3f 00 00 00	 mov	 ecx, 63			; 0000003fH
  00017	b8 cc cc cc cc	 mov	 eax, -858993460		; ccccccccH
  0001c	f3 ab		 rep stosd

; 291  : 	const ATLSTRINGRESOURCEIMAGE* pImage;
; 292  : 	const ATLSTRINGRESOURCEIMAGE* pImageEnd;
; 293  : 	ULONG nResourceSize;
; 294  : 	HGLOBAL hGlobal;
; 295  : 	UINT iIndex;
; 296  : 
; 297  : 	hGlobal = ::LoadResource( hInstance, hResource );

  0001e	8b f4		 mov	 esi, esp
  00020	8b 45 0c	 mov	 eax, DWORD PTR _hResource$[ebp]
  00023	50		 push	 eax
  00024	8b 4d 08	 mov	 ecx, DWORD PTR _hInstance$[ebp]
  00027	51		 push	 ecx
  00028	ff 15 00 00 00
	00		 call	 DWORD PTR __imp__LoadResource@8
  0002e	3b f4		 cmp	 esi, esp
  00030	e8 00 00 00 00	 call	 __RTC_CheckEsp
  00035	89 45 d4	 mov	 DWORD PTR _hGlobal$[ebp], eax

; 298  : 	if( hGlobal == NULL )

  00038	83 7d d4 00	 cmp	 DWORD PTR _hGlobal$[ebp], 0
  0003c	75 07		 jne	 SHORT $LN6@AtlGetStri@2

; 299  : 	{
; 300  : 		return( NULL );

  0003e	33 c0		 xor	 eax, eax
  00040	e9 92 00 00 00	 jmp	 $LN7@AtlGetStri@2
$LN6@AtlGetStri@2:

; 301  : 	}
; 302  : 
; 303  : 	pImage = (const ATLSTRINGRESOURCEIMAGE*)::LockResource( hGlobal );

  00045	8b f4		 mov	 esi, esp
  00047	8b 45 d4	 mov	 eax, DWORD PTR _hGlobal$[ebp]
  0004a	50		 push	 eax
  0004b	ff 15 00 00 00
	00		 call	 DWORD PTR __imp__LockResource@4
  00051	3b f4		 cmp	 esi, esp
  00053	e8 00 00 00 00	 call	 __RTC_CheckEsp
  00058	89 45 f8	 mov	 DWORD PTR _pImage$[ebp], eax

; 304  : 	if( pImage == NULL )

  0005b	83 7d f8 00	 cmp	 DWORD PTR _pImage$[ebp], 0
  0005f	75 04		 jne	 SHORT $LN5@AtlGetStri@2

; 305  : 	{
; 306  : 		return( NULL );

  00061	33 c0		 xor	 eax, eax
  00063	eb 72		 jmp	 SHORT $LN7@AtlGetStri@2
$LN5@AtlGetStri@2:

; 307  : 	}
; 308  : 
; 309  : 	nResourceSize = ::SizeofResource( hInstance, hResource );

  00065	8b f4		 mov	 esi, esp
  00067	8b 45 0c	 mov	 eax, DWORD PTR _hResource$[ebp]
  0006a	50		 push	 eax
  0006b	8b 4d 08	 mov	 ecx, DWORD PTR _hInstance$[ebp]
  0006e	51		 push	 ecx
  0006f	ff 15 00 00 00
	00		 call	 DWORD PTR __imp__SizeofResource@8
  00075	3b f4		 cmp	 esi, esp
  00077	e8 00 00 00 00	 call	 __RTC_CheckEsp
  0007c	89 45 e0	 mov	 DWORD PTR _nResourceSize$[ebp], eax

; 310  : 	pImageEnd = (const ATLSTRINGRESOURCEIMAGE*)(LPBYTE( pImage )+nResourceSize);

  0007f	8b 45 f8	 mov	 eax, DWORD PTR _pImage$[ebp]
  00082	03 45 e0	 add	 eax, DWORD PTR _nResourceSize$[ebp]
  00085	89 45 ec	 mov	 DWORD PTR _pImageEnd$[ebp], eax

; 311  : 	iIndex = id&0x000f;

  00088	8b 45 10	 mov	 eax, DWORD PTR _id$[ebp]
  0008b	83 e0 0f	 and	 eax, 15			; 0000000fH
  0008e	89 45 c8	 mov	 DWORD PTR _iIndex$[ebp], eax
$LN4@AtlGetStri@2:

; 312  : 
; 313  : 	while( (iIndex > 0) && (pImage < pImageEnd) )

  00091	83 7d c8 00	 cmp	 DWORD PTR _iIndex$[ebp], 0
  00095	76 23		 jbe	 SHORT $LN3@AtlGetStri@2
  00097	8b 45 f8	 mov	 eax, DWORD PTR _pImage$[ebp]
  0009a	3b 45 ec	 cmp	 eax, DWORD PTR _pImageEnd$[ebp]
  0009d	73 1b		 jae	 SHORT $LN3@AtlGetStri@2

; 314  : 	{
; 315  : 		pImage = (const ATLSTRINGRESOURCEIMAGE*)(LPBYTE( pImage )+(sizeof( ATLSTRINGRESOURCEIMAGE )+(pImage->nLength*sizeof( WCHAR ))));

  0009f	8b 45 f8	 mov	 eax, DWORD PTR _pImage$[ebp]
  000a2	0f b7 08	 movzx	 ecx, WORD PTR [eax]
  000a5	8b 55 f8	 mov	 edx, DWORD PTR _pImage$[ebp]
  000a8	8d 44 4a 02	 lea	 eax, DWORD PTR [edx+ecx*2+2]
  000ac	89 45 f8	 mov	 DWORD PTR _pImage$[ebp], eax

; 316  : 		iIndex--;

  000af	8b 45 c8	 mov	 eax, DWORD PTR _iIndex$[ebp]
  000b2	83 e8 01	 sub	 eax, 1
  000b5	89 45 c8	 mov	 DWORD PTR _iIndex$[ebp], eax

; 317  : 	}

  000b8	eb d7		 jmp	 SHORT $LN4@AtlGetStri@2
$LN3@AtlGetStri@2:

; 318  : 	if( pImage >= pImageEnd )

  000ba	8b 45 f8	 mov	 eax, DWORD PTR _pImage$[ebp]
  000bd	3b 45 ec	 cmp	 eax, DWORD PTR _pImageEnd$[ebp]
  000c0	72 04		 jb	 SHORT $LN2@AtlGetStri@2

; 319  : 	{
; 320  : 		return( NULL );

  000c2	33 c0		 xor	 eax, eax
  000c4	eb 11		 jmp	 SHORT $LN7@AtlGetStri@2
$LN2@AtlGetStri@2:

; 321  : 	}
; 322  : 	if( pImage->nLength == 0 )

  000c6	8b 45 f8	 mov	 eax, DWORD PTR _pImage$[ebp]
  000c9	0f b7 08	 movzx	 ecx, WORD PTR [eax]
  000cc	85 c9		 test	 ecx, ecx
  000ce	75 04		 jne	 SHORT $LN1@AtlGetStri@2

; 323  : 	{
; 324  : 		return( NULL );

  000d0	33 c0		 xor	 eax, eax
  000d2	eb 03		 jmp	 SHORT $LN7@AtlGetStri@2
$LN1@AtlGetStri@2:

; 325  : 	}
; 326  : 
; 327  : 	return( pImage );

  000d4	8b 45 f8	 mov	 eax, DWORD PTR _pImage$[ebp]
$LN7@AtlGetStri@2:

; 328  : }

  000d7	5f		 pop	 edi
  000d8	5e		 pop	 esi
  000d9	5b		 pop	 ebx
  000da	81 c4 fc 00 00
	00		 add	 esp, 252		; 000000fcH
  000e0	3b ec		 cmp	 ebp, esp
  000e2	e8 00 00 00 00	 call	 __RTC_CheckEsp
  000e7	8b e5		 mov	 esp, ebp
  000e9	5d		 pop	 ebp
  000ea	c3		 ret	 0
?_AtlGetStringResourceImage@ATL@@YAPBUATLSTRINGRESOURCEIMAGE@1@PAUHINSTANCE__@@PAUHRSRC__@@I@Z ENDP ; ATL::_AtlGetStringResourceImage
; Function compile flags: /Odtp /RTCsu /ZI
; File c:\program files\microsoft visual studio 10.0\vc\atlmfc\include\cstringt.h
_TEXT	ENDS
;	COMDAT ?GetBaseTypeLength@?$ChTraitsCRT@_W@ATL@@SAHPB_WH@Z
_TEXT	SEGMENT
_pszSrc$ = 8						; size = 4
_nLength$ = 12						; size = 4
?GetBaseTypeLength@?$ChTraitsCRT@_W@ATL@@SAHPB_WH@Z PROC ; ATL::ChTraitsCRT<wchar_t>::GetBaseTypeLength, COMDAT

; 701  : 	{

  00000	55		 push	 ebp
  00001	8b ec		 mov	 ebp, esp
  00003	81 ec c0 00 00
	00		 sub	 esp, 192		; 000000c0H
  00009	53		 push	 ebx
  0000a	56		 push	 esi
  0000b	57		 push	 edi
  0000c	8d bd 40 ff ff
	ff		 lea	 edi, DWORD PTR [ebp-192]
  00012	b9 30 00 00 00	 mov	 ecx, 48			; 00000030H
  00017	b8 cc cc cc cc	 mov	 eax, -858993460		; ccccccccH
  0001c	f3 ab		 rep stosd

; 702  : 		(void)pszSrc;
; 703  : 		// Returns required buffer size in wchar_ts
; 704  : 		return nLength;

  0001e	8b 45 0c	 mov	 eax, DWORD PTR _nLength$[ebp]

; 705  : 	}

  00021	5f		 pop	 edi
  00022	5e		 pop	 esi
  00023	5b		 pop	 ebx
  00024	8b e5		 mov	 esp, ebp
  00026	5d		 pop	 ebp
  00027	c3		 ret	 0
?GetBaseTypeLength@?$ChTraitsCRT@_W@ATL@@SAHPB_WH@Z ENDP ; ATL::ChTraitsCRT<wchar_t>::GetBaseTypeLength
_TEXT	ENDS
PUBLIC	?wmemcpy_s@Checked@ATL@@YAXPA_WIPB_WI@Z		; ATL::Checked::wmemcpy_s
PUBLIC	?GetBaseTypeLength@?$ChTraitsCRT@_W@ATL@@SAHPB_W@Z ; ATL::ChTraitsCRT<wchar_t>::GetBaseTypeLength
; Function compile flags: /Odtp /RTCsu /ZI
;	COMDAT ?ConvertToBaseType@?$ChTraitsCRT@_W@ATL@@SAXPA_WHPB_WH@Z
_TEXT	SEGMENT
_pszDest$ = 8						; size = 4
_nDestLength$ = 12					; size = 4
_pszSrc$ = 16						; size = 4
_nSrcLength$ = 20					; size = 4
?ConvertToBaseType@?$ChTraitsCRT@_W@ATL@@SAXPA_WHPB_WH@Z PROC ; ATL::ChTraitsCRT<wchar_t>::ConvertToBaseType, COMDAT

; 722  : 	{

  00000	55		 push	 ebp
  00001	8b ec		 mov	 ebp, esp
  00003	81 ec c0 00 00
	00		 sub	 esp, 192		; 000000c0H
  00009	53		 push	 ebx
  0000a	56		 push	 esi
  0000b	57		 push	 edi
  0000c	8d bd 40 ff ff
	ff		 lea	 edi, DWORD PTR [ebp-192]
  00012	b9 30 00 00 00	 mov	 ecx, 48			; 00000030H
  00017	b8 cc cc cc cc	 mov	 eax, -858993460		; ccccccccH
  0001c	f3 ab		 rep stosd

; 723  : 		if (nSrcLength == -1) { nSrcLength=1 + GetBaseTypeLength(pszSrc); }

  0001e	83 7d 14 ff	 cmp	 DWORD PTR _nSrcLength$[ebp], -1
  00022	75 12		 jne	 SHORT $LN1@ConvertToB
  00024	8b 45 10	 mov	 eax, DWORD PTR _pszSrc$[ebp]
  00027	50		 push	 eax
  00028	e8 00 00 00 00	 call	 ?GetBaseTypeLength@?$ChTraitsCRT@_W@ATL@@SAHPB_W@Z ; ATL::ChTraitsCRT<wchar_t>::GetBaseTypeLength
  0002d	83 c4 04	 add	 esp, 4
  00030	83 c0 01	 add	 eax, 1
  00033	89 45 14	 mov	 DWORD PTR _nSrcLength$[ebp], eax
$LN1@ConvertToB:

; 724  : 		// nLen is in wchar_ts
; 725  : 		Checked::wmemcpy_s(pszDest, nDestLength, pszSrc, nSrcLength);

  00036	8b 45 14	 mov	 eax, DWORD PTR _nSrcLength$[ebp]
  00039	50		 push	 eax
  0003a	8b 4d 10	 mov	 ecx, DWORD PTR _pszSrc$[ebp]
  0003d	51		 push	 ecx
  0003e	8b 55 0c	 mov	 edx, DWORD PTR _nDestLength$[ebp]
  00041	52		 push	 edx
  00042	8b 45 08	 mov	 eax, DWORD PTR _pszDest$[ebp]
  00045	50		 push	 eax
  00046	e8 00 00 00 00	 call	 ?wmemcpy_s@Checked@ATL@@YAXPA_WIPB_WI@Z ; ATL::Checked::wmemcpy_s
  0004b	83 c4 10	 add	 esp, 16			; 00000010H

; 726  : 	}

  0004e	5f		 pop	 edi
  0004f	5e		 pop	 esi
  00050	5b		 pop	 ebx
  00051	81 c4 c0 00 00
	00		 add	 esp, 192		; 000000c0H
  00057	3b ec		 cmp	 ebp, esp
  00059	e8 00 00 00 00	 call	 __RTC_CheckEsp
  0005e	8b e5		 mov	 esp, ebp
  00060	5d		 pop	 ebp
  00061	c3		 ret	 0
?ConvertToBaseType@?$ChTraitsCRT@_W@ATL@@SAXPA_WHPB_WH@Z ENDP ; ATL::ChTraitsCRT<wchar_t>::ConvertToBaseType
_TEXT	ENDS
PUBLIC	?AfxCrtErrorCheck@@YAHH@Z			; AfxCrtErrorCheck
EXTRN	_wmemcpy_s:PROC
; Function compile flags: /Odtp /RTCsu /ZI
; File c:\program files\microsoft visual studio 10.0\vc\atlmfc\include\atlchecked.h
;	COMDAT ?wmemcpy_s@Checked@ATL@@YAXPA_WIPB_WI@Z
_TEXT	SEGMENT
__S1$ = 8						; size = 4
__N1$ = 12						; size = 4
__S2$ = 16						; size = 4
__N$ = 20						; size = 4
?wmemcpy_s@Checked@ATL@@YAXPA_WIPB_WI@Z PROC		; ATL::Checked::wmemcpy_s, COMDAT

; 77   : {

  00000	55		 push	 ebp
  00001	8b ec		 mov	 ebp, esp
  00003	81 ec c0 00 00
	00		 sub	 esp, 192		; 000000c0H
  00009	53		 push	 ebx
  0000a	56		 push	 esi
  0000b	57		 push	 edi
  0000c	8d bd 40 ff ff
	ff		 lea	 edi, DWORD PTR [ebp-192]
  00012	b9 30 00 00 00	 mov	 ecx, 48			; 00000030H
  00017	b8 cc cc cc cc	 mov	 eax, -858993460		; ccccccccH
  0001c	f3 ab		 rep stosd

; 78   : 	ATLMFC_CRT_ERRORCHECK(::wmemcpy_s(_S1, _N1, _S2, _N));

  0001e	8b 45 14	 mov	 eax, DWORD PTR __N$[ebp]
  00021	50		 push	 eax
  00022	8b 4d 10	 mov	 ecx, DWORD PTR __S2$[ebp]
  00025	51		 push	 ecx
  00026	8b 55 0c	 mov	 edx, DWORD PTR __N1$[ebp]
  00029	52		 push	 edx
  0002a	8b 45 08	 mov	 eax, DWORD PTR __S1$[ebp]
  0002d	50		 push	 eax
  0002e	e8 00 00 00 00	 call	 _wmemcpy_s
  00033	83 c4 10	 add	 esp, 16			; 00000010H
  00036	50		 push	 eax
  00037	e8 00 00 00 00	 call	 ?AfxCrtErrorCheck@@YAHH@Z ; AfxCrtErrorCheck
  0003c	83 c4 04	 add	 esp, 4

; 79   : }

  0003f	5f		 pop	 edi
  00040	5e		 pop	 esi
  00041	5b		 pop	 ebx
  00042	81 c4 c0 00 00
	00		 add	 esp, 192		; 000000c0H
  00048	3b ec		 cmp	 ebp, esp
  0004a	e8 00 00 00 00	 call	 __RTC_CheckEsp
  0004f	8b e5		 mov	 esp, ebp
  00051	5d		 pop	 ebp
  00052	c3		 ret	 0
?wmemcpy_s@Checked@ATL@@YAXPA_WIPB_WI@Z ENDP		; ATL::Checked::wmemcpy_s
_TEXT	ENDS
EXTRN	?AfxThrowInvalidArgException@@YGXXZ:PROC	; AfxThrowInvalidArgException
EXTRN	?AfxThrowMemoryException@@YGXXZ:PROC		; AfxThrowMemoryException
; Function compile flags: /Odtp /RTCsu /ZI
; File c:\program files\microsoft visual studio 10.0\vc\atlmfc\include\afx.h
;	COMDAT ?AfxCrtErrorCheck@@YAHH@Z
_TEXT	SEGMENT
tv64 = -196						; size = 4
_error$ = 8						; size = 4
?AfxCrtErrorCheck@@YAHH@Z PROC				; AfxCrtErrorCheck, COMDAT

; 470  : {

  00000	55		 push	 ebp
  00001	8b ec		 mov	 ebp, esp
  00003	81 ec c4 00 00
	00		 sub	 esp, 196		; 000000c4H
  00009	53		 push	 ebx
  0000a	56		 push	 esi
  0000b	57		 push	 edi
  0000c	8d bd 3c ff ff
	ff		 lea	 edi, DWORD PTR [ebp-196]
  00012	b9 31 00 00 00	 mov	 ecx, 49			; 00000031H
  00017	b8 cc cc cc cc	 mov	 eax, -858993460		; ccccccccH
  0001c	f3 ab		 rep stosd

; 471  : 	switch(error)

  0001e	8b 45 08	 mov	 eax, DWORD PTR _error$[ebp]
  00021	89 85 3c ff ff
	ff		 mov	 DWORD PTR tv64[ebp], eax
  00027	83 bd 3c ff ff
	ff 50		 cmp	 DWORD PTR tv64[ebp], 80	; 00000050H
  0002e	77 24		 ja	 SHORT $LN1@AfxCrtErro
  00030	8b 8d 3c ff ff
	ff		 mov	 ecx, DWORD PTR tv64[ebp]
  00036	0f b6 91 00 00
	00 00		 movzx	 edx, BYTE PTR $LN9@AfxCrtErro[ecx]
  0003d	ff 24 95 00 00
	00 00		 jmp	 DWORD PTR $LN10@AfxCrtErro[edx*4]
$LN4@AfxCrtErro:

; 472  : 	{
; 473  : 	case ENOMEM:
; 474  : 		AfxThrowMemoryException();

  00044	e8 00 00 00 00	 call	 ?AfxThrowMemoryException@@YGXXZ ; AfxThrowMemoryException

; 475  : 		break;

  00049	eb 0e		 jmp	 SHORT $LN5@AfxCrtErro
$LN3@AfxCrtErro:

; 476  : 	case EINVAL:
; 477  : 	case ERANGE:
; 478  : 		AfxThrowInvalidArgException();

  0004b	e8 00 00 00 00	 call	 ?AfxThrowInvalidArgException@@YGXXZ ; AfxThrowInvalidArgException

; 479  : 		break;

  00050	eb 07		 jmp	 SHORT $LN5@AfxCrtErro
$LN2@AfxCrtErro:

; 480  : 	case STRUNCATE:
; 481  : 	case 0:
; 482  : 		break;

  00052	eb 05		 jmp	 SHORT $LN5@AfxCrtErro
$LN1@AfxCrtErro:

; 483  : 	default:
; 484  : 		AfxThrowInvalidArgException();

  00054	e8 00 00 00 00	 call	 ?AfxThrowInvalidArgException@@YGXXZ ; AfxThrowInvalidArgException
$LN5@AfxCrtErro:

; 485  : 		break;
; 486  : 	}
; 487  : 	return error;

  00059	8b 45 08	 mov	 eax, DWORD PTR _error$[ebp]
$LN8@AfxCrtErro:

; 488  : }

  0005c	5f		 pop	 edi
  0005d	5e		 pop	 esi
  0005e	5b		 pop	 ebx
  0005f	81 c4 c4 00 00
	00		 add	 esp, 196		; 000000c4H
  00065	3b ec		 cmp	 ebp, esp
  00067	e8 00 00 00 00	 call	 __RTC_CheckEsp
  0006c	8b e5		 mov	 esp, ebp
  0006e	5d		 pop	 ebp
  0006f	c3		 ret	 0
$LN10@AfxCrtErro:
  00070	00 00 00 00	 DD	 $LN2@AfxCrtErro
  00074	00 00 00 00	 DD	 $LN4@AfxCrtErro
  00078	00 00 00 00	 DD	 $LN3@AfxCrtErro
  0007c	00 00 00 00	 DD	 $LN1@AfxCrtErro
$LN9@AfxCrtErro:
  00080	00		 DB	 0
  00081	03		 DB	 3
  00082	03		 DB	 3
  00083	03		 DB	 3
  00084	03		 DB	 3
  00085	03		 DB	 3
  00086	03		 DB	 3
  00087	03		 DB	 3
  00088	03		 DB	 3
  00089	03		 DB	 3
  0008a	03		 DB	 3
  0008b	03		 DB	 3
  0008c	01		 DB	 1
  0008d	03		 DB	 3
  0008e	03		 DB	 3
  0008f	03		 DB	 3
  00090	03		 DB	 3
  00091	03		 DB	 3
  00092	03		 DB	 3
  00093	03		 DB	 3
  00094	03		 DB	 3
  00095	03		 DB	 3
  00096	02		 DB	 2
  00097	03		 DB	 3
  00098	03		 DB	 3
  00099	03		 DB	 3
  0009a	03		 DB	 3
  0009b	03		 DB	 3
  0009c	03		 DB	 3
  0009d	03		 DB	 3
  0009e	03		 DB	 3
  0009f	03		 DB	 3
  000a0	03		 DB	 3
  000a1	03		 DB	 3
  000a2	02		 DB	 2
  000a3	03		 DB	 3
  000a4	03		 DB	 3
  000a5	03		 DB	 3
  000a6	03		 DB	 3
  000a7	03		 DB	 3
  000a8	03		 DB	 3
  000a9	03		 DB	 3
  000aa	03		 DB	 3
  000ab	03		 DB	 3
  000ac	03		 DB	 3
  000ad	03		 DB	 3
  000ae	03		 DB	 3
  000af	03		 DB	 3
  000b0	03		 DB	 3
  000b1	03		 DB	 3
  000b2	03		 DB	 3
  000b3	03		 DB	 3
  000b4	03		 DB	 3
  000b5	03		 DB	 3
  000b6	03		 DB	 3
  000b7	03		 DB	 3
  000b8	03		 DB	 3
  000b9	03		 DB	 3
  000ba	03		 DB	 3
  000bb	03		 DB	 3
  000bc	03		 DB	 3
  000bd	03		 DB	 3
  000be	03		 DB	 3
  000bf	03		 DB	 3
  000c0	03		 DB	 3
  000c1	03		 DB	 3
  000c2	03		 DB	 3
  000c3	03		 DB	 3
  000c4	03		 DB	 3
  000c5	03		 DB	 3
  000c6	03		 DB	 3
  000c7	03		 DB	 3
  000c8	03		 DB	 3
  000c9	03		 DB	 3
  000ca	03		 DB	 3
  000cb	03		 DB	 3
  000cc	03		 DB	 3
  000cd	03		 DB	 3
  000ce	03		 DB	 3
  000cf	03		 DB	 3
  000d0	00		 DB	 0
?AfxCrtErrorCheck@@YAHH@Z ENDP				; AfxCrtErrorCheck
_TEXT	ENDS
EXTRN	_wcslen:PROC
; Function compile flags: /Odtp /RTCsu /ZI
; File c:\program files\microsoft visual studio 10.0\vc\atlmfc\include\cstringt.h
;	COMDAT ?GetBaseTypeLength@?$ChTraitsCRT@_W@ATL@@SAHPB_W@Z
_TEXT	SEGMENT
_pszSrc$ = 8						; size = 4
?GetBaseTypeLength@?$ChTraitsCRT@_W@ATL@@SAHPB_W@Z PROC	; ATL::ChTraitsCRT<wchar_t>::GetBaseTypeLength, COMDAT

; 693  : 	{

  00000	55		 push	 ebp
  00001	8b ec		 mov	 ebp, esp
  00003	81 ec c0 00 00
	00		 sub	 esp, 192		; 000000c0H
  00009	53		 push	 ebx
  0000a	56		 push	 esi
  0000b	57		 push	 edi
  0000c	8d bd 40 ff ff
	ff		 lea	 edi, DWORD PTR [ebp-192]
  00012	b9 30 00 00 00	 mov	 ecx, 48			; 00000030H
  00017	b8 cc cc cc cc	 mov	 eax, -858993460		; ccccccccH
  0001c	f3 ab		 rep stosd

; 694  : 		// Returns required buffer size in wchar_ts
; 695  : 		return (int)wcslen( pszSrc );

  0001e	8b 45 08	 mov	 eax, DWORD PTR _pszSrc$[ebp]
  00021	50		 push	 eax
  00022	e8 00 00 00 00	 call	 _wcslen
  00027	83 c4 04	 add	 esp, 4

; 696  : 	}

  0002a	5f		 pop	 edi
  0002b	5e		 pop	 esi
  0002c	5b		 pop	 ebx
  0002d	81 c4 c0 00 00
	00		 add	 esp, 192		; 000000c0H
  00033	3b ec		 cmp	 ebp, esp
  00035	e8 00 00 00 00	 call	 __RTC_CheckEsp
  0003a	8b e5		 mov	 esp, ebp
  0003c	5d		 pop	 ebp
  0003d	c3		 ret	 0
?GetBaseTypeLength@?$ChTraitsCRT@_W@ATL@@SAHPB_W@Z ENDP	; ATL::ChTraitsCRT<wchar_t>::GetBaseTypeLength
_TEXT	ENDS
PUBLIC	?Attach@?$CSimpleStringT@_W$0A@@ATL@@AAEXPAUCStringData@2@@Z ; ATL::CSimpleStringT<wchar_t,0>::Attach
PUBLIC	?AtlThrowImpl@ATL@@YGXJ@Z			; ATL::AtlThrowImpl
PUBLIC	??_C@_1BM@GBBOFEAE@?$AA_?$AA_?$AAa?$AAt?$AAl?$AA_?$AAc?$AAo?$AAn?$AAd?$AAV?$AAa?$AAl?$AA?$AA@ ; `string'
;	COMDAT ??_C@_1BM@GBBOFEAE@?$AA_?$AA_?$AAa?$AAt?$AAl?$AA_?$AAc?$AAo?$AAn?$AAd?$AAV?$AAa?$AAl?$AA?$AA@
; File c:\program files\microsoft visual studio 10.0\vc\atlmfc\include\atlsimpstr.h
CONST	SEGMENT
??_C@_1BM@GBBOFEAE@?$AA_?$AA_?$AAa?$AAt?$AAl?$AA_?$AAc?$AAo?$AAn?$AAd?$AAV?$AAa?$AAl?$AA?$AA@ DB '_'
	DB	00H, '_', 00H, 'a', 00H, 't', 00H, 'l', 00H, '_', 00H, 'c', 00H
	DB	'o', 00H, 'n', 00H, 'd', 00H, 'V', 00H, 'a', 00H, 'l', 00H, 00H
	DB	00H						; `string'
; Function compile flags: /Odtp /RTCsu /ZI
CONST	ENDS
;	COMDAT ??0?$CSimpleStringT@_W$0A@@ATL@@QAE@PAUIAtlStringMgr@1@@Z
_TEXT	SEGMENT
_pData$ = -32						; size = 4
___atl_condVal$196839 = -20				; size = 4
_this$ = -8						; size = 4
_pStringMgr$ = 8					; size = 4
??0?$CSimpleStringT@_W$0A@@ATL@@QAE@PAUIAtlStringMgr@1@@Z PROC ; ATL::CSimpleStringT<wchar_t,0>::CSimpleStringT<wchar_t,0>, COMDAT
; _this$ = ecx

; 229  : 	explicit CSimpleStringT(_Inout_ IAtlStringMgr* pStringMgr)

  00000	55		 push	 ebp
  00001	8b ec		 mov	 ebp, esp
  00003	81 ec e4 00 00
	00		 sub	 esp, 228		; 000000e4H
  00009	53		 push	 ebx
  0000a	56		 push	 esi
  0000b	57		 push	 edi
  0000c	51		 push	 ecx
  0000d	8d bd 1c ff ff
	ff		 lea	 edi, DWORD PTR [ebp-228]
  00013	b9 39 00 00 00	 mov	 ecx, 57			; 00000039H
  00018	b8 cc cc cc cc	 mov	 eax, -858993460		; ccccccccH
  0001d	f3 ab		 rep stosd
  0001f	59		 pop	 ecx
  00020	89 4d f8	 mov	 DWORD PTR _this$[ebp], ecx
$LN10@CSimpleStr:

; 230  : 	{
; 231  : 		ATLENSURE( pStringMgr != NULL );

  00023	33 c0		 xor	 eax, eax
  00025	83 7d 08 00	 cmp	 DWORD PTR _pStringMgr$[ebp], 0
  00029	0f 95 c0	 setne	 al
  0002c	89 45 ec	 mov	 DWORD PTR ___atl_condVal$196839[ebp], eax
$LN7@CSimpleStr:
  0002f	83 7d ec 00	 cmp	 DWORD PTR ___atl_condVal$196839[ebp], 0
  00033	75 21		 jne	 SHORT $LN3@CSimpleStr
  00035	68 00 00 00 00	 push	 OFFSET ??_C@_1BM@GBBOFEAE@?$AA_?$AA_?$AAa?$AAt?$AAl?$AA_?$AAc?$AAo?$AAn?$AAd?$AAV?$AAa?$AAl?$AA?$AA@
  0003a	6a 00		 push	 0
  0003c	68 e7 00 00 00	 push	 231			; 000000e7H
  00041	68 00 00 00 00	 push	 OFFSET ??_C@_1JK@OKOEFEHL@?$AAc?$AA?3?$AA?2?$AAp?$AAr?$AAo?$AAg?$AAr?$AAa?$AAm?$AA?5?$AAf?$AAi?$AAl?$AAe?$AAs?$AA?2?$AAm?$AAi?$AAc?$AAr?$AAo?$AAs?$AAo?$AAf?$AAt?$AA?5?$AAv?$AAi?$AAs?$AAu?$AAa@
  00046	6a 02		 push	 2
  00048	e8 00 00 00 00	 call	 __CrtDbgReportW
  0004d	83 c4 14	 add	 esp, 20			; 00000014H
  00050	83 f8 01	 cmp	 eax, 1
  00053	75 01		 jne	 SHORT $LN3@CSimpleStr
  00055	cc		 int	 3
$LN3@CSimpleStr:
  00056	33 c0		 xor	 eax, eax
  00058	75 fc		 jne	 SHORT $LN3@CSimpleStr
  0005a	33 c0		 xor	 eax, eax
  0005c	75 d1		 jne	 SHORT $LN7@CSimpleStr
  0005e	83 7d ec 00	 cmp	 DWORD PTR ___atl_condVal$196839[ebp], 0
  00062	75 0a		 jne	 SHORT $LN9@CSimpleStr
  00064	68 05 40 00 80	 push	 -2147467259		; 80004005H
  00069	e8 00 00 00 00	 call	 ?AtlThrowImpl@ATL@@YGXJ@Z ; ATL::AtlThrowImpl
$LN9@CSimpleStr:
  0006e	33 c0		 xor	 eax, eax
  00070	75 b1		 jne	 SHORT $LN10@CSimpleStr

; 232  : 		CStringData* pData = pStringMgr->GetNilString();

  00072	8b 45 08	 mov	 eax, DWORD PTR _pStringMgr$[ebp]
  00075	8b 10		 mov	 edx, DWORD PTR [eax]
  00077	8b f4		 mov	 esi, esp
  00079	8b 4d 08	 mov	 ecx, DWORD PTR _pStringMgr$[ebp]
  0007c	8b 42 0c	 mov	 eax, DWORD PTR [edx+12]
  0007f	ff d0		 call	 eax
  00081	3b f4		 cmp	 esi, esp
  00083	e8 00 00 00 00	 call	 __RTC_CheckEsp
  00088	89 45 e0	 mov	 DWORD PTR _pData$[ebp], eax

; 233  : 		Attach( pData );

  0008b	8b 45 e0	 mov	 eax, DWORD PTR _pData$[ebp]
  0008e	50		 push	 eax
  0008f	8b 4d f8	 mov	 ecx, DWORD PTR _this$[ebp]
  00092	e8 00 00 00 00	 call	 ?Attach@?$CSimpleStringT@_W$0A@@ATL@@AAEXPAUCStringData@2@@Z ; ATL::CSimpleStringT<wchar_t,0>::Attach

; 234  : 	}

  00097	8b 45 f8	 mov	 eax, DWORD PTR _this$[ebp]
$LN12@CSimpleStr:
  0009a	5f		 pop	 edi
  0009b	5e		 pop	 esi
  0009c	5b		 pop	 ebx
  0009d	81 c4 e4 00 00
	00		 add	 esp, 228		; 000000e4H
  000a3	3b ec		 cmp	 ebp, esp
  000a5	e8 00 00 00 00	 call	 __RTC_CheckEsp
  000aa	8b e5		 mov	 esp, ebp
  000ac	5d		 pop	 ebp
  000ad	c2 04 00	 ret	 4
??0?$CSimpleStringT@_W$0A@@ATL@@QAE@PAUIAtlStringMgr@1@@Z ENDP ; ATL::CSimpleStringT<wchar_t,0>::CSimpleStringT<wchar_t,0>
_TEXT	ENDS
PUBLIC	??_C@_0EM@LIFEDLIA@c?3?2program?5files?2microsoft?5visua@ ; `string'
PUBLIC	?__LINE__Var@?1??AtlThrowImpl@ATL@@YGXJ@Z@4JA	; `ATL::AtlThrowImpl'::`2'::__LINE__Var
PUBLIC	??_C@_1CK@DFMKPFAK@?$AAA?$AAt?$AAl?$AAT?$AAh?$AAr?$AAo?$AAw?$AA?3?$AA?5?$AAh?$AAr?$AA?5?$AA?$DN?$AA?5?$AA0?$AAx?$AA?$CF?$AAx?$AA?6?$AA?$AA@ ; `string'
EXTRN	?AfxThrowOleException@@YGXJ@Z:PROC		; AfxThrowOleException
EXTRN	?atlTraceException@ATL@@3VCTraceCategory@1@A:DWORD ; ATL::atlTraceException
;	COMDAT ??_C@_0EM@LIFEDLIA@c?3?2program?5files?2microsoft?5visua@
; File c:\program files\microsoft visual studio 10.0\vc\atlmfc\include\atlexcept.h
CONST	SEGMENT
??_C@_0EM@LIFEDLIA@c?3?2program?5files?2microsoft?5visua@ DB 'c:\program '
	DB	'files\microsoft visual studio 10.0\vc\atlmfc\include\atlexcep'
	DB	't.h', 00H					; `string'
CONST	ENDS
;	COMDAT ?__LINE__Var@?1??AtlThrowImpl@ATL@@YGXJ@Z@4JA
_DATA	SEGMENT
?__LINE__Var@?1??AtlThrowImpl@ATL@@YGXJ@Z@4JA DD 041H	; `ATL::AtlThrowImpl'::`2'::__LINE__Var
_DATA	ENDS
;	COMDAT ??_C@_1CK@DFMKPFAK@?$AAA?$AAt?$AAl?$AAT?$AAh?$AAr?$AAo?$AAw?$AA?3?$AA?5?$AAh?$AAr?$AA?5?$AA?$DN?$AA?5?$AA0?$AAx?$AA?$CF?$AAx?$AA?6?$AA?$AA@
CONST	SEGMENT
??_C@_1CK@DFMKPFAK@?$AAA?$AAt?$AAl?$AAT?$AAh?$AAr?$AAo?$AAw?$AA?3?$AA?5?$AAh?$AAr?$AA?5?$AA?$DN?$AA?5?$AA0?$AAx?$AA?$CF?$AAx?$AA?6?$AA?$AA@ DB 'A'
	DB	00H, 't', 00H, 'l', 00H, 'T', 00H, 'h', 00H, 'r', 00H, 'o', 00H
	DB	'w', 00H, ':', 00H, ' ', 00H, 'h', 00H, 'r', 00H, ' ', 00H, '='
	DB	00H, ' ', 00H, '0', 00H, 'x', 00H, '%', 00H, 'x', 00H, 0aH, 00H
	DB	00H, 00H					; `string'
; Function compile flags: /Odtp /RTCsu /ZI
CONST	ENDS
;	COMDAT ?AtlThrowImpl@ATL@@YGXJ@Z
_TEXT	SEGMENT
$T231198 = -204						; size = 8
_hr$ = 8						; size = 4
?AtlThrowImpl@ATL@@YGXJ@Z PROC				; ATL::AtlThrowImpl, COMDAT

; 65   : {

  00000	55		 push	 ebp
  00001	8b ec		 mov	 ebp, esp
  00003	81 ec d0 00 00
	00		 sub	 esp, 208		; 000000d0H
  00009	53		 push	 ebx
  0000a	56		 push	 esi
  0000b	57		 push	 edi
  0000c	8d bd 30 ff ff
	ff		 lea	 edi, DWORD PTR [ebp-208]
  00012	b9 34 00 00 00	 mov	 ecx, 52			; 00000034H
  00017	b8 cc cc cc cc	 mov	 eax, -858993460		; ccccccccH
  0001c	f3 ab		 rep stosd

; 66   : 	ATLTRACE(atlTraceException, 0, _T("AtlThrow: hr = 0x%x\n"), hr );

  0001e	8b 45 08	 mov	 eax, DWORD PTR _hr$[ebp]
  00021	50		 push	 eax
  00022	68 00 00 00 00	 push	 OFFSET ??_C@_1CK@DFMKPFAK@?$AAA?$AAt?$AAl?$AAT?$AAh?$AAr?$AAo?$AAw?$AA?3?$AA?5?$AAh?$AAr?$AA?5?$AA?$DN?$AA?5?$AA0?$AAx?$AA?$CF?$AAx?$AA?6?$AA?$AA@
  00027	6a 00		 push	 0
  00029	b9 00 00 00 00	 mov	 ecx, OFFSET ?atlTraceException@ATL@@3VCTraceCategory@1@A ; ATL::atlTraceException
  0002e	e8 00 00 00 00	 call	 ??BCTraceCategory@ATL@@QBEKXZ ; ATL::CTraceCategory::operator unsigned long
  00033	50		 push	 eax
  00034	8b 0d 00 00 00
	00		 mov	 ecx, DWORD PTR ?__LINE__Var@?1??AtlThrowImpl@ATL@@YGXJ@Z@4JA
  0003a	83 c1 01	 add	 ecx, 1
  0003d	51		 push	 ecx
  0003e	68 00 00 00 00	 push	 OFFSET ??_C@_0EM@LIFEDLIA@c?3?2program?5files?2microsoft?5visua@
  00043	8d 8d 34 ff ff
	ff		 lea	 ecx, DWORD PTR $T231198[ebp]
  00049	e8 00 00 00 00	 call	 ??0CTraceFileAndLineInfo@ATL@@QAE@PBDH@Z ; ATL::CTraceFileAndLineInfo::CTraceFileAndLineInfo
  0004e	50		 push	 eax
  0004f	e8 00 00 00 00	 call	 ??RCTraceFileAndLineInfo@ATL@@QBAXKIPB_WZZ ; ATL::CTraceFileAndLineInfo::operator()
  00054	83 c4 14	 add	 esp, 20			; 00000014H

; 67   : #ifdef _AFX
; 68   : 	if( hr == E_OUTOFMEMORY )

  00057	81 7d 08 0e 00
	07 80		 cmp	 DWORD PTR _hr$[ebp], -2147024882 ; 8007000eH
  0005e	75 07		 jne	 SHORT $LN2@AtlThrowIm

; 69   : 	{
; 70   : 		AfxThrowMemoryException();

  00060	e8 00 00 00 00	 call	 ?AfxThrowMemoryException@@YGXXZ ; AfxThrowMemoryException

; 71   : 	}
; 72   : 	else

  00065	eb 09		 jmp	 SHORT $LN4@AtlThrowIm
$LN2@AtlThrowIm:

; 73   : 	{
; 74   : 		AfxThrowOleException( hr );

  00067	8b 45 08	 mov	 eax, DWORD PTR _hr$[ebp]
  0006a	50		 push	 eax
  0006b	e8 00 00 00 00	 call	 ?AfxThrowOleException@@YGXJ@Z ; AfxThrowOleException
$LN4@AtlThrowIm:

; 75   : 	}
; 76   : #else
; 77   : 	throw CAtlException( hr );
; 78   : #endif
; 79   : };

  00070	5f		 pop	 edi
  00071	5e		 pop	 esi
  00072	5b		 pop	 ebx
  00073	81 c4 d0 00 00
	00		 add	 esp, 208		; 000000d0H
  00079	3b ec		 cmp	 ebp, esp
  0007b	e8 00 00 00 00	 call	 __RTC_CheckEsp
  00080	8b e5		 mov	 esp, ebp
  00082	5d		 pop	 ebp
  00083	c2 04 00	 ret	 4
?AtlThrowImpl@ATL@@YGXJ@Z ENDP				; ATL::AtlThrowImpl
_TEXT	ENDS
PUBLIC	?SetString@?$CSimpleStringT@_W$0A@@ATL@@QAEXPB_W@Z ; ATL::CSimpleStringT<wchar_t,0>::SetString
; Function compile flags: /Odtp /RTCsu /ZI
; File c:\program files\microsoft visual studio 10.0\vc\atlmfc\include\atlsimpstr.h
;	COMDAT ??4?$CSimpleStringT@_W$0A@@ATL@@QAEAAV01@PB_W@Z
_TEXT	SEGMENT
_this$ = -8						; size = 4
_pszSrc$ = 8						; size = 4
??4?$CSimpleStringT@_W$0A@@ATL@@QAEAAV01@PB_W@Z PROC	; ATL::CSimpleStringT<wchar_t,0>::operator=, COMDAT
; _this$ = ecx

; 339  : 	{

  00000	55		 push	 ebp
  00001	8b ec		 mov	 ebp, esp
  00003	81 ec cc 00 00
	00		 sub	 esp, 204		; 000000ccH
  00009	53		 push	 ebx
  0000a	56		 push	 esi
  0000b	57		 push	 edi
  0000c	51		 push	 ecx
  0000d	8d bd 34 ff ff
	ff		 lea	 edi, DWORD PTR [ebp-204]
  00013	b9 33 00 00 00	 mov	 ecx, 51			; 00000033H
  00018	b8 cc cc cc cc	 mov	 eax, -858993460		; ccccccccH
  0001d	f3 ab		 rep stosd
  0001f	59		 pop	 ecx
  00020	89 4d f8	 mov	 DWORD PTR _this$[ebp], ecx

; 340  : 		SetString( pszSrc );

  00023	8b 45 08	 mov	 eax, DWORD PTR _pszSrc$[ebp]
  00026	50		 push	 eax
  00027	8b 4d f8	 mov	 ecx, DWORD PTR _this$[ebp]
  0002a	e8 00 00 00 00	 call	 ?SetString@?$CSimpleStringT@_W$0A@@ATL@@QAEXPB_W@Z ; ATL::CSimpleStringT<wchar_t,0>::SetString

; 341  : 
; 342  : 		return( *this );

  0002f	8b 45 f8	 mov	 eax, DWORD PTR _this$[ebp]

; 343  : 	}

  00032	5f		 pop	 edi
  00033	5e		 pop	 esi
  00034	5b		 pop	 ebx
  00035	81 c4 cc 00 00
	00		 add	 esp, 204		; 000000ccH
  0003b	3b ec		 cmp	 ebp, esp
  0003d	e8 00 00 00 00	 call	 __RTC_CheckEsp
  00042	8b e5		 mov	 esp, ebp
  00044	5d		 pop	 ebp
  00045	c2 04 00	 ret	 4
??4?$CSimpleStringT@_W$0A@@ATL@@QAEAAV01@PB_W@Z ENDP	; ATL::CSimpleStringT<wchar_t,0>::operator=
_TEXT	ENDS
PUBLIC	?PrepareWrite@?$CSimpleStringT@_W$0A@@ATL@@AAEPA_WH@Z ; ATL::CSimpleStringT<wchar_t,0>::PrepareWrite
; Function compile flags: /Odtp /RTCsu /ZI
;	COMDAT ?GetBuffer@?$CSimpleStringT@_W$0A@@ATL@@QAEPA_WH@Z
_TEXT	SEGMENT
_this$ = -8						; size = 4
_nMinBufferLength$ = 8					; size = 4
?GetBuffer@?$CSimpleStringT@_W$0A@@ATL@@QAEPA_WH@Z PROC	; ATL::CSimpleStringT<wchar_t,0>::GetBuffer, COMDAT
; _this$ = ecx

; 533  : 	{

  00000	55		 push	 ebp
  00001	8b ec		 mov	 ebp, esp
  00003	81 ec cc 00 00
	00		 sub	 esp, 204		; 000000ccH
  00009	53		 push	 ebx
  0000a	56		 push	 esi
  0000b	57		 push	 edi
  0000c	51		 push	 ecx
  0000d	8d bd 34 ff ff
	ff		 lea	 edi, DWORD PTR [ebp-204]
  00013	b9 33 00 00 00	 mov	 ecx, 51			; 00000033H
  00018	b8 cc cc cc cc	 mov	 eax, -858993460		; ccccccccH
  0001d	f3 ab		 rep stosd
  0001f	59		 pop	 ecx
  00020	89 4d f8	 mov	 DWORD PTR _this$[ebp], ecx

; 534  : 		return( PrepareWrite( nMinBufferLength ) );

  00023	8b 45 08	 mov	 eax, DWORD PTR _nMinBufferLength$[ebp]
  00026	50		 push	 eax
  00027	8b 4d f8	 mov	 ecx, DWORD PTR _this$[ebp]
  0002a	e8 00 00 00 00	 call	 ?PrepareWrite@?$CSimpleStringT@_W$0A@@ATL@@AAEPA_WH@Z ; ATL::CSimpleStringT<wchar_t,0>::PrepareWrite

; 535  : 	}

  0002f	5f		 pop	 edi
  00030	5e		 pop	 esi
  00031	5b		 pop	 ebx
  00032	81 c4 cc 00 00
	00		 add	 esp, 204		; 000000ccH
  00038	3b ec		 cmp	 ebp, esp
  0003a	e8 00 00 00 00	 call	 __RTC_CheckEsp
  0003f	8b e5		 mov	 esp, ebp
  00041	5d		 pop	 ebp
  00042	c2 04 00	 ret	 4
?GetBuffer@?$CSimpleStringT@_W$0A@@ATL@@QAEPA_WH@Z ENDP	; ATL::CSimpleStringT<wchar_t,0>::GetBuffer
_TEXT	ENDS
PUBLIC	?data@CStringData@ATL@@QAEPAXXZ			; ATL::CStringData::data
; Function compile flags: /Odtp /RTCsu /ZI
;	COMDAT ?Attach@?$CSimpleStringT@_W$0A@@ATL@@AAEXPAUCStringData@2@@Z
_TEXT	SEGMENT
_this$ = -8						; size = 4
_pData$ = 8						; size = 4
?Attach@?$CSimpleStringT@_W$0A@@ATL@@AAEXPAUCStringData@2@@Z PROC ; ATL::CSimpleStringT<wchar_t,0>::Attach, COMDAT
; _this$ = ecx

; 802  : 	{

  00000	55		 push	 ebp
  00001	8b ec		 mov	 ebp, esp
  00003	81 ec cc 00 00
	00		 sub	 esp, 204		; 000000ccH
  00009	53		 push	 ebx
  0000a	56		 push	 esi
  0000b	57		 push	 edi
  0000c	51		 push	 ecx
  0000d	8d bd 34 ff ff
	ff		 lea	 edi, DWORD PTR [ebp-204]
  00013	b9 33 00 00 00	 mov	 ecx, 51			; 00000033H
  00018	b8 cc cc cc cc	 mov	 eax, -858993460		; ccccccccH
  0001d	f3 ab		 rep stosd
  0001f	59		 pop	 ecx
  00020	89 4d f8	 mov	 DWORD PTR _this$[ebp], ecx

; 803  : 		m_pszData = static_cast< PXSTR >( pData->data() );

  00023	8b 4d 08	 mov	 ecx, DWORD PTR _pData$[ebp]
  00026	e8 00 00 00 00	 call	 ?data@CStringData@ATL@@QAEPAXXZ ; ATL::CStringData::data
  0002b	8b 4d f8	 mov	 ecx, DWORD PTR _this$[ebp]
  0002e	89 01		 mov	 DWORD PTR [ecx], eax

; 804  : 	}

  00030	5f		 pop	 edi
  00031	5e		 pop	 esi
  00032	5b		 pop	 ebx
  00033	81 c4 cc 00 00
	00		 add	 esp, 204		; 000000ccH
  00039	3b ec		 cmp	 ebp, esp
  0003b	e8 00 00 00 00	 call	 __RTC_CheckEsp
  00040	8b e5		 mov	 esp, ebp
  00042	5d		 pop	 ebp
  00043	c2 04 00	 ret	 4
?Attach@?$CSimpleStringT@_W$0A@@ATL@@AAEXPAUCStringData@2@@Z ENDP ; ATL::CSimpleStringT<wchar_t,0>::Attach
; Function compile flags: /Odtp /RTCsu /ZI
_TEXT	ENDS
;	COMDAT ?data@CStringData@ATL@@QAEPAXXZ
_TEXT	SEGMENT
_this$ = -8						; size = 4
?data@CStringData@ATL@@QAEPAXXZ PROC			; ATL::CStringData::data, COMDAT
; _this$ = ecx

; 84   : 	{

  00000	55		 push	 ebp
  00001	8b ec		 mov	 ebp, esp
  00003	81 ec cc 00 00
	00		 sub	 esp, 204		; 000000ccH
  00009	53		 push	 ebx
  0000a	56		 push	 esi
  0000b	57		 push	 edi
  0000c	51		 push	 ecx
  0000d	8d bd 34 ff ff
	ff		 lea	 edi, DWORD PTR [ebp-204]
  00013	b9 33 00 00 00	 mov	 ecx, 51			; 00000033H
  00018	b8 cc cc cc cc	 mov	 eax, -858993460		; ccccccccH
  0001d	f3 ab		 rep stosd
  0001f	59		 pop	 ecx
  00020	89 4d f8	 mov	 DWORD PTR _this$[ebp], ecx

; 85   : 		return (this+1);

  00023	8b 45 f8	 mov	 eax, DWORD PTR _this$[ebp]
  00026	83 c0 10	 add	 eax, 16			; 00000010H

; 86   : 	}

  00029	5f		 pop	 edi
  0002a	5e		 pop	 esi
  0002b	5b		 pop	 ebx
  0002c	8b e5		 mov	 esp, ebp
  0002e	5d		 pop	 ebp
  0002f	c3		 ret	 0
?data@CStringData@ATL@@QAEPAXXZ ENDP			; ATL::CStringData::data
_TEXT	ENDS
PUBLIC	?PrepareWrite2@?$CSimpleStringT@_W$0A@@ATL@@AAEXH@Z ; ATL::CSimpleStringT<wchar_t,0>::PrepareWrite2
; Function compile flags: /Odtp /RTCsu /ZI
;	COMDAT ?PrepareWrite@?$CSimpleStringT@_W$0A@@ATL@@AAEPA_WH@Z
_TEXT	SEGMENT
_nTooShort$ = -44					; size = 4
_nShared$ = -32						; size = 4
_pOldData$ = -20					; size = 4
_this$ = -8						; size = 4
_nLength$ = 8						; size = 4
?PrepareWrite@?$CSimpleStringT@_W$0A@@ATL@@AAEPA_WH@Z PROC ; ATL::CSimpleStringT<wchar_t,0>::PrepareWrite, COMDAT
; _this$ = ecx

; 826  : 	{

  00000	55		 push	 ebp
  00001	8b ec		 mov	 ebp, esp
  00003	81 ec f0 00 00
	00		 sub	 esp, 240		; 000000f0H
  00009	53		 push	 ebx
  0000a	56		 push	 esi
  0000b	57		 push	 edi
  0000c	51		 push	 ecx
  0000d	8d bd 10 ff ff
	ff		 lea	 edi, DWORD PTR [ebp-240]
  00013	b9 3c 00 00 00	 mov	 ecx, 60			; 0000003cH
  00018	b8 cc cc cc cc	 mov	 eax, -858993460		; ccccccccH
  0001d	f3 ab		 rep stosd
  0001f	59		 pop	 ecx
  00020	89 4d f8	 mov	 DWORD PTR _this$[ebp], ecx

; 827  : 		if (nLength < 0)

  00023	83 7d 08 00	 cmp	 DWORD PTR _nLength$[ebp], 0
  00027	7d 0a		 jge	 SHORT $LN2@PrepareWri

; 828  : 			AtlThrow(E_INVALIDARG);

  00029	68 57 00 07 80	 push	 -2147024809		; 80070057H
  0002e	e8 00 00 00 00	 call	 ?AtlThrowImpl@ATL@@YGXJ@Z ; ATL::AtlThrowImpl
$LN2@PrepareWri:

; 829  : 
; 830  : 		CStringData* pOldData = GetData();

  00033	8b 4d f8	 mov	 ecx, DWORD PTR _this$[ebp]
  00036	e8 00 00 00 00	 call	 ?GetData@?$CSimpleStringT@_W$0A@@ATL@@ABEPAUCStringData@2@XZ ; ATL::CSimpleStringT<wchar_t,0>::GetData
  0003b	89 45 ec	 mov	 DWORD PTR _pOldData$[ebp], eax

; 831  : 		int nShared = 1-pOldData->nRefs;  // nShared < 0 means true, >= 0 means false

  0003e	8b 45 ec	 mov	 eax, DWORD PTR _pOldData$[ebp]
  00041	b9 01 00 00 00	 mov	 ecx, 1
  00046	2b 48 0c	 sub	 ecx, DWORD PTR [eax+12]
  00049	89 4d e0	 mov	 DWORD PTR _nShared$[ebp], ecx

; 832  : 		int nTooShort = pOldData->nAllocLength-nLength;  // nTooShort < 0 means true, >= 0 means false

  0004c	8b 45 ec	 mov	 eax, DWORD PTR _pOldData$[ebp]
  0004f	8b 48 08	 mov	 ecx, DWORD PTR [eax+8]
  00052	2b 4d 08	 sub	 ecx, DWORD PTR _nLength$[ebp]
  00055	89 4d d4	 mov	 DWORD PTR _nTooShort$[ebp], ecx

; 833  : 		if( (nShared|nTooShort) < 0 )  // If either sign bit is set (i.e. either is less than zero), we need to copy data

  00058	8b 45 e0	 mov	 eax, DWORD PTR _nShared$[ebp]
  0005b	0b 45 d4	 or	 eax, DWORD PTR _nTooShort$[ebp]
  0005e	7d 0c		 jge	 SHORT $LN1@PrepareWri

; 834  : 		{
; 835  : 			PrepareWrite2( nLength );

  00060	8b 45 08	 mov	 eax, DWORD PTR _nLength$[ebp]
  00063	50		 push	 eax
  00064	8b 4d f8	 mov	 ecx, DWORD PTR _this$[ebp]
  00067	e8 00 00 00 00	 call	 ?PrepareWrite2@?$CSimpleStringT@_W$0A@@ATL@@AAEXH@Z ; ATL::CSimpleStringT<wchar_t,0>::PrepareWrite2
$LN1@PrepareWri:

; 836  : 		}
; 837  : 
; 838  : 		return( m_pszData );

  0006c	8b 45 f8	 mov	 eax, DWORD PTR _this$[ebp]
  0006f	8b 00		 mov	 eax, DWORD PTR [eax]
$LN4@PrepareWri:

; 839  : 	}

  00071	5f		 pop	 edi
  00072	5e		 pop	 esi
  00073	5b		 pop	 ebx
  00074	81 c4 f0 00 00
	00		 add	 esp, 240		; 000000f0H
  0007a	3b ec		 cmp	 ebp, esp
  0007c	e8 00 00 00 00	 call	 __RTC_CheckEsp
  00081	8b e5		 mov	 esp, ebp
  00083	5d		 pop	 ebp
  00084	c2 04 00	 ret	 4
?PrepareWrite@?$CSimpleStringT@_W$0A@@ATL@@AAEPA_WH@Z ENDP ; ATL::CSimpleStringT<wchar_t,0>::PrepareWrite
_TEXT	ENDS
EXTRN	?AfxFindStringResourceHandle@@YGPAUHINSTANCE__@@I@Z:PROC ; AfxFindStringResourceHandle
; Function compile flags: /Odtp /RTCsu /ZI
; File c:\program files\microsoft visual studio 10.0\vc\atlmfc\include\afxstr.h
;	COMDAT ?FindStringResourceInstance@?$StrTraitMFC@_WV?$ChTraitsCRT@_W@ATL@@@@SAPAUHINSTANCE__@@I@Z
_TEXT	SEGMENT
_nID$ = 8						; size = 4
?FindStringResourceInstance@?$StrTraitMFC@_WV?$ChTraitsCRT@_W@ATL@@@@SAPAUHINSTANCE__@@I@Z PROC ; StrTraitMFC<wchar_t,ATL::ChTraitsCRT<wchar_t> >::FindStringResourceInstance, COMDAT

; 46   : 	{

  00000	55		 push	 ebp
  00001	8b ec		 mov	 ebp, esp
  00003	81 ec c0 00 00
	00		 sub	 esp, 192		; 000000c0H
  00009	53		 push	 ebx
  0000a	56		 push	 esi
  0000b	57		 push	 edi
  0000c	8d bd 40 ff ff
	ff		 lea	 edi, DWORD PTR [ebp-192]
  00012	b9 30 00 00 00	 mov	 ecx, 48			; 00000030H
  00017	b8 cc cc cc cc	 mov	 eax, -858993460		; ccccccccH
  0001c	f3 ab		 rep stosd

; 47   : 		return( AfxFindStringResourceHandle( nID ) );

  0001e	8b 45 08	 mov	 eax, DWORD PTR _nID$[ebp]
  00021	50		 push	 eax
  00022	e8 00 00 00 00	 call	 ?AfxFindStringResourceHandle@@YGPAUHINSTANCE__@@I@Z ; AfxFindStringResourceHandle

; 48   : 	}

  00027	5f		 pop	 edi
  00028	5e		 pop	 esi
  00029	5b		 pop	 ebx
  0002a	81 c4 c0 00 00
	00		 add	 esp, 192		; 000000c0H
  00030	3b ec		 cmp	 ebp, esp
  00032	e8 00 00 00 00	 call	 __RTC_CheckEsp
  00037	8b e5		 mov	 esp, ebp
  00039	5d		 pop	 ebp
  0003a	c3		 ret	 0
?FindStringResourceInstance@?$StrTraitMFC@_WV?$ChTraitsCRT@_W@ATL@@@@SAPAUHINSTANCE__@@I@Z ENDP ; StrTraitMFC<wchar_t,ATL::ChTraitsCRT<wchar_t> >::FindStringResourceInstance
_TEXT	ENDS
EXTRN	?AfxGetStringManager@@YGPAUIAtlStringMgr@ATL@@XZ:PROC ; AfxGetStringManager
; Function compile flags: /Odtp /RTCsu /ZI
;	COMDAT ?GetDefaultManager@?$StrTraitMFC@_WV?$ChTraitsCRT@_W@ATL@@@@SAPAUIAtlStringMgr@ATL@@XZ
_TEXT	SEGMENT
?GetDefaultManager@?$StrTraitMFC@_WV?$ChTraitsCRT@_W@ATL@@@@SAPAUIAtlStringMgr@ATL@@XZ PROC ; StrTraitMFC<wchar_t,ATL::ChTraitsCRT<wchar_t> >::GetDefaultManager, COMDAT

; 51   : 	{

  00000	55		 push	 ebp
  00001	8b ec		 mov	 ebp, esp
  00003	81 ec c0 00 00
	00		 sub	 esp, 192		; 000000c0H
  00009	53		 push	 ebx
  0000a	56		 push	 esi
  0000b	57		 push	 edi
  0000c	8d bd 40 ff ff
	ff		 lea	 edi, DWORD PTR [ebp-192]
  00012	b9 30 00 00 00	 mov	 ecx, 48			; 00000030H
  00017	b8 cc cc cc cc	 mov	 eax, -858993460		; ccccccccH
  0001c	f3 ab		 rep stosd

; 52   : 		return( AfxGetStringManager() );

  0001e	e8 00 00 00 00	 call	 ?AfxGetStringManager@@YGPAUIAtlStringMgr@ATL@@XZ ; AfxGetStringManager

; 53   : 	}

  00023	5f		 pop	 edi
  00024	5e		 pop	 esi
  00025	5b		 pop	 ebx
  00026	81 c4 c0 00 00
	00		 add	 esp, 192		; 000000c0H
  0002c	3b ec		 cmp	 ebp, esp
  0002e	e8 00 00 00 00	 call	 __RTC_CheckEsp
  00033	8b e5		 mov	 esp, ebp
  00035	5d		 pop	 ebp
  00036	c3		 ret	 0
?GetDefaultManager@?$StrTraitMFC@_WV?$ChTraitsCRT@_W@ATL@@@@SAPAUIAtlStringMgr@ATL@@XZ ENDP ; StrTraitMFC<wchar_t,ATL::ChTraitsCRT<wchar_t> >::GetDefaultManager
_TEXT	ENDS
PUBLIC	?SetLength@?$CSimpleStringT@_W$0A@@ATL@@AAEXH@Z	; ATL::CSimpleStringT<wchar_t,0>::SetLength
PUBLIC	??_C@_1CA@FILBIMGF@?$AAn?$AAN?$AAe?$AAw?$AAL?$AAe?$AAn?$AAg?$AAt?$AAh?$AA?5?$AA?$DO?$AA?$DN?$AA?5?$AA0?$AA?$AA@ ; `string'
;	COMDAT ??_C@_1CA@FILBIMGF@?$AAn?$AAN?$AAe?$AAw?$AAL?$AAe?$AAn?$AAg?$AAt?$AAh?$AA?5?$AA?$DO?$AA?$DN?$AA?5?$AA0?$AA?$AA@
; File c:\program files\microsoft visual studio 10.0\vc\atlmfc\include\atlsimpstr.h
CONST	SEGMENT
??_C@_1CA@FILBIMGF@?$AAn?$AAN?$AAe?$AAw?$AAL?$AAe?$AAn?$AAg?$AAt?$AAh?$AA?5?$AA?$DO?$AA?$DN?$AA?5?$AA0?$AA?$AA@ DB 'n'
	DB	00H, 'N', 00H, 'e', 00H, 'w', 00H, 'L', 00H, 'e', 00H, 'n', 00H
	DB	'g', 00H, 't', 00H, 'h', 00H, ' ', 00H, '>', 00H, '=', 00H, ' '
	DB	00H, '0', 00H, 00H, 00H			; `string'
; Function compile flags: /Odtp /RTCsu /ZI
CONST	ENDS
;	COMDAT ?ReleaseBufferSetLength@?$CSimpleStringT@_W$0A@@ATL@@QAEXH@Z
_TEXT	SEGMENT
_this$ = -8						; size = 4
_nNewLength$ = 8					; size = 4
?ReleaseBufferSetLength@?$CSimpleStringT@_W$0A@@ATL@@QAEXH@Z PROC ; ATL::CSimpleStringT<wchar_t,0>::ReleaseBufferSetLength, COMDAT
; _this$ = ecx

; 592  : 	{

  00000	55		 push	 ebp
  00001	8b ec		 mov	 ebp, esp
  00003	81 ec cc 00 00
	00		 sub	 esp, 204		; 000000ccH
  00009	53		 push	 ebx
  0000a	56		 push	 esi
  0000b	57		 push	 edi
  0000c	51		 push	 ecx
  0000d	8d bd 34 ff ff
	ff		 lea	 edi, DWORD PTR [ebp-204]
  00013	b9 33 00 00 00	 mov	 ecx, 51			; 00000033H
  00018	b8 cc cc cc cc	 mov	 eax, -858993460		; ccccccccH
  0001d	f3 ab		 rep stosd
  0001f	59		 pop	 ecx
  00020	89 4d f8	 mov	 DWORD PTR _this$[ebp], ecx

; 593  : 		ATLASSERT( nNewLength >= 0 );

  00023	83 7d 08 00	 cmp	 DWORD PTR _nNewLength$[ebp], 0
  00027	7d 21		 jge	 SHORT $LN3@ReleaseBuf
  00029	68 00 00 00 00	 push	 OFFSET ??_C@_1CA@FILBIMGF@?$AAn?$AAN?$AAe?$AAw?$AAL?$AAe?$AAn?$AAg?$AAt?$AAh?$AA?5?$AA?$DO?$AA?$DN?$AA?5?$AA0?$AA?$AA@
  0002e	6a 00		 push	 0
  00030	68 51 02 00 00	 push	 593			; 00000251H
  00035	68 00 00 00 00	 push	 OFFSET ??_C@_1JK@OKOEFEHL@?$AAc?$AA?3?$AA?2?$AAp?$AAr?$AAo?$AAg?$AAr?$AAa?$AAm?$AA?5?$AAf?$AAi?$AAl?$AAe?$AAs?$AA?2?$AAm?$AAi?$AAc?$AAr?$AAo?$AAs?$AAo?$AAf?$AAt?$AA?5?$AAv?$AAi?$AAs?$AAu?$AAa@
  0003a	6a 02		 push	 2
  0003c	e8 00 00 00 00	 call	 __CrtDbgReportW
  00041	83 c4 14	 add	 esp, 20			; 00000014H
  00044	83 f8 01	 cmp	 eax, 1
  00047	75 01		 jne	 SHORT $LN3@ReleaseBuf
  00049	cc		 int	 3
$LN3@ReleaseBuf:

; 594  : 		SetLength( nNewLength );

  0004a	8b 45 08	 mov	 eax, DWORD PTR _nNewLength$[ebp]
  0004d	50		 push	 eax
  0004e	8b 4d f8	 mov	 ecx, DWORD PTR _this$[ebp]
  00051	e8 00 00 00 00	 call	 ?SetLength@?$CSimpleStringT@_W$0A@@ATL@@AAEXH@Z ; ATL::CSimpleStringT<wchar_t,0>::SetLength

; 595  : 	}

  00056	5f		 pop	 edi
  00057	5e		 pop	 esi
  00058	5b		 pop	 ebx
  00059	81 c4 cc 00 00
	00		 add	 esp, 204		; 000000ccH
  0005f	3b ec		 cmp	 ebp, esp
  00061	e8 00 00 00 00	 call	 __RTC_CheckEsp
  00066	8b e5		 mov	 esp, ebp
  00068	5d		 pop	 ebp
  00069	c2 04 00	 ret	 4
?ReleaseBufferSetLength@?$CSimpleStringT@_W$0A@@ATL@@QAEXH@Z ENDP ; ATL::CSimpleStringT<wchar_t,0>::ReleaseBufferSetLength
_TEXT	ENDS
PUBLIC	??_C@_1EG@PELIOAAG@?$AAn?$AAL?$AAe?$AAn?$AAg?$AAt?$AAh?$AA?5?$AA?$DM?$AA?$DN?$AA?5?$AAG?$AAe?$AAt?$AAD?$AAa?$AAt?$AAa?$AA?$CI?$AA?$CJ?$AA?9?$AA?$DO?$AAn?$AAA?$AAl?$AAl?$AAo?$AAc?$AAL?$AAe?$AAn?$AAg@ ; `string'
PUBLIC	??_C@_1BK@OGOKLNEF@?$AAn?$AAL?$AAe?$AAn?$AAg?$AAt?$AAh?$AA?5?$AA?$DO?$AA?$DN?$AA?5?$AA0?$AA?$AA@ ; `string'
;	COMDAT ??_C@_1EG@PELIOAAG@?$AAn?$AAL?$AAe?$AAn?$AAg?$AAt?$AAh?$AA?5?$AA?$DM?$AA?$DN?$AA?5?$AAG?$AAe?$AAt?$AAD?$AAa?$AAt?$AAa?$AA?$CI?$AA?$CJ?$AA?9?$AA?$DO?$AAn?$AAA?$AAl?$AAl?$AAo?$AAc?$AAL?$AAe?$AAn?$AAg@
CONST	SEGMENT
??_C@_1EG@PELIOAAG@?$AAn?$AAL?$AAe?$AAn?$AAg?$AAt?$AAh?$AA?5?$AA?$DM?$AA?$DN?$AA?5?$AAG?$AAe?$AAt?$AAD?$AAa?$AAt?$AAa?$AA?$CI?$AA?$CJ?$AA?9?$AA?$DO?$AAn?$AAA?$AAl?$AAl?$AAo?$AAc?$AAL?$AAe?$AAn?$AAg@ DB 'n'
	DB	00H, 'L', 00H, 'e', 00H, 'n', 00H, 'g', 00H, 't', 00H, 'h', 00H
	DB	' ', 00H, '<', 00H, '=', 00H, ' ', 00H, 'G', 00H, 'e', 00H, 't'
	DB	00H, 'D', 00H, 'a', 00H, 't', 00H, 'a', 00H, '(', 00H, ')', 00H
	DB	'-', 00H, '>', 00H, 'n', 00H, 'A', 00H, 'l', 00H, 'l', 00H, 'o'
	DB	00H, 'c', 00H, 'L', 00H, 'e', 00H, 'n', 00H, 'g', 00H, 't', 00H
	DB	'h', 00H, 00H, 00H				; `string'
CONST	ENDS
;	COMDAT ??_C@_1BK@OGOKLNEF@?$AAn?$AAL?$AAe?$AAn?$AAg?$AAt?$AAh?$AA?5?$AA?$DO?$AA?$DN?$AA?5?$AA0?$AA?$AA@
CONST	SEGMENT
??_C@_1BK@OGOKLNEF@?$AAn?$AAL?$AAe?$AAn?$AAg?$AAt?$AAh?$AA?5?$AA?$DO?$AA?$DN?$AA?5?$AA0?$AA?$AA@ DB 'n'
	DB	00H, 'L', 00H, 'e', 00H, 'n', 00H, 'g', 00H, 't', 00H, 'h', 00H
	DB	' ', 00H, '>', 00H, '=', 00H, ' ', 00H, '0', 00H, 00H, 00H ; `string'
; Function compile flags: /Odtp /RTCsu /ZI
CONST	ENDS
;	COMDAT ?SetLength@?$CSimpleStringT@_W$0A@@ATL@@AAEXH@Z
_TEXT	SEGMENT
_this$ = -8						; size = 4
_nLength$ = 8						; size = 4
?SetLength@?$CSimpleStringT@_W$0A@@ATL@@AAEXH@Z PROC	; ATL::CSimpleStringT<wchar_t,0>::SetLength, COMDAT
; _this$ = ecx

; 890  : 	{

  00000	55		 push	 ebp
  00001	8b ec		 mov	 ebp, esp
  00003	81 ec cc 00 00
	00		 sub	 esp, 204		; 000000ccH
  00009	53		 push	 ebx
  0000a	56		 push	 esi
  0000b	57		 push	 edi
  0000c	51		 push	 ecx
  0000d	8d bd 34 ff ff
	ff		 lea	 edi, DWORD PTR [ebp-204]
  00013	b9 33 00 00 00	 mov	 ecx, 51			; 00000033H
  00018	b8 cc cc cc cc	 mov	 eax, -858993460		; ccccccccH
  0001d	f3 ab		 rep stosd
  0001f	59		 pop	 ecx
  00020	89 4d f8	 mov	 DWORD PTR _this$[ebp], ecx

; 891  : 		ATLASSERT( nLength >= 0 );

  00023	83 7d 08 00	 cmp	 DWORD PTR _nLength$[ebp], 0
  00027	7d 21		 jge	 SHORT $LN5@SetLength
  00029	68 00 00 00 00	 push	 OFFSET ??_C@_1BK@OGOKLNEF@?$AAn?$AAL?$AAe?$AAn?$AAg?$AAt?$AAh?$AA?5?$AA?$DO?$AA?$DN?$AA?5?$AA0?$AA?$AA@
  0002e	6a 00		 push	 0
  00030	68 7b 03 00 00	 push	 891			; 0000037bH
  00035	68 00 00 00 00	 push	 OFFSET ??_C@_1JK@OKOEFEHL@?$AAc?$AA?3?$AA?2?$AAp?$AAr?$AAo?$AAg?$AAr?$AAa?$AAm?$AA?5?$AAf?$AAi?$AAl?$AAe?$AAs?$AA?2?$AAm?$AAi?$AAc?$AAr?$AAo?$AAs?$AAo?$AAf?$AAt?$AA?5?$AAv?$AAi?$AAs?$AAu?$AAa@
  0003a	6a 02		 push	 2
  0003c	e8 00 00 00 00	 call	 __CrtDbgReportW
  00041	83 c4 14	 add	 esp, 20			; 00000014H
  00044	83 f8 01	 cmp	 eax, 1
  00047	75 01		 jne	 SHORT $LN5@SetLength
  00049	cc		 int	 3
$LN5@SetLength:

; 892  : 		ATLASSERT( nLength <= GetData()->nAllocLength );

  0004a	8b 4d f8	 mov	 ecx, DWORD PTR _this$[ebp]
  0004d	e8 00 00 00 00	 call	 ?GetData@?$CSimpleStringT@_W$0A@@ATL@@ABEPAUCStringData@2@XZ ; ATL::CSimpleStringT<wchar_t,0>::GetData
  00052	8b 4d 08	 mov	 ecx, DWORD PTR _nLength$[ebp]
  00055	3b 48 08	 cmp	 ecx, DWORD PTR [eax+8]
  00058	7e 21		 jle	 SHORT $LN6@SetLength
  0005a	68 00 00 00 00	 push	 OFFSET ??_C@_1EG@PELIOAAG@?$AAn?$AAL?$AAe?$AAn?$AAg?$AAt?$AAh?$AA?5?$AA?$DM?$AA?$DN?$AA?5?$AAG?$AAe?$AAt?$AAD?$AAa?$AAt?$AAa?$AA?$CI?$AA?$CJ?$AA?9?$AA?$DO?$AAn?$AAA?$AAl?$AAl?$AAo?$AAc?$AAL?$AAe?$AAn?$AAg@
  0005f	6a 00		 push	 0
  00061	68 7c 03 00 00	 push	 892			; 0000037cH
  00066	68 00 00 00 00	 push	 OFFSET ??_C@_1JK@OKOEFEHL@?$AAc?$AA?3?$AA?2?$AAp?$AAr?$AAo?$AAg?$AAr?$AAa?$AAm?$AA?5?$AAf?$AAi?$AAl?$AAe?$AAs?$AA?2?$AAm?$AAi?$AAc?$AAr?$AAo?$AAs?$AAo?$AAf?$AAt?$AA?5?$AAv?$AAi?$AAs?$AAu?$AAa@
  0006b	6a 02		 push	 2
  0006d	e8 00 00 00 00	 call	 __CrtDbgReportW
  00072	83 c4 14	 add	 esp, 20			; 00000014H
  00075	83 f8 01	 cmp	 eax, 1
  00078	75 01		 jne	 SHORT $LN6@SetLength
  0007a	cc		 int	 3
$LN6@SetLength:

; 893  : 
; 894  : 		if( nLength < 0 || nLength > GetData()->nAllocLength)

  0007b	83 7d 08 00	 cmp	 DWORD PTR _nLength$[ebp], 0
  0007f	7c 10		 jl	 SHORT $LN1@SetLength
  00081	8b 4d f8	 mov	 ecx, DWORD PTR _this$[ebp]
  00084	e8 00 00 00 00	 call	 ?GetData@?$CSimpleStringT@_W$0A@@ATL@@ABEPAUCStringData@2@XZ ; ATL::CSimpleStringT<wchar_t,0>::GetData
  00089	8b 4d 08	 mov	 ecx, DWORD PTR _nLength$[ebp]
  0008c	3b 48 08	 cmp	 ecx, DWORD PTR [eax+8]
  0008f	7e 0a		 jle	 SHORT $LN2@SetLength
$LN1@SetLength:

; 895  : 			AtlThrow(E_INVALIDARG);

  00091	68 57 00 07 80	 push	 -2147024809		; 80070057H
  00096	e8 00 00 00 00	 call	 ?AtlThrowImpl@ATL@@YGXJ@Z ; ATL::AtlThrowImpl
$LN2@SetLength:

; 896  : 
; 897  : 		GetData()->nDataLength = nLength;

  0009b	8b 4d f8	 mov	 ecx, DWORD PTR _this$[ebp]
  0009e	e8 00 00 00 00	 call	 ?GetData@?$CSimpleStringT@_W$0A@@ATL@@ABEPAUCStringData@2@XZ ; ATL::CSimpleStringT<wchar_t,0>::GetData
  000a3	8b 4d 08	 mov	 ecx, DWORD PTR _nLength$[ebp]
  000a6	89 48 04	 mov	 DWORD PTR [eax+4], ecx

; 898  : 		m_pszData[nLength] = 0;

  000a9	8b 45 f8	 mov	 eax, DWORD PTR _this$[ebp]
  000ac	8b 08		 mov	 ecx, DWORD PTR [eax]
  000ae	33 d2		 xor	 edx, edx
  000b0	8b 45 08	 mov	 eax, DWORD PTR _nLength$[ebp]
  000b3	66 89 14 41	 mov	 WORD PTR [ecx+eax*2], dx
$LN4@SetLength:

; 899  : 	}

  000b7	5f		 pop	 edi
  000b8	5e		 pop	 esi
  000b9	5b		 pop	 ebx
  000ba	81 c4 cc 00 00
	00		 add	 esp, 204		; 000000ccH
  000c0	3b ec		 cmp	 ebp, esp
  000c2	e8 00 00 00 00	 call	 __RTC_CheckEsp
  000c7	8b e5		 mov	 esp, ebp
  000c9	5d		 pop	 ebp
  000ca	c2 04 00	 ret	 4
?SetLength@?$CSimpleStringT@_W$0A@@ATL@@AAEXH@Z ENDP	; ATL::CSimpleStringT<wchar_t,0>::SetLength
_TEXT	ENDS
PUBLIC	?SetString@?$CSimpleStringT@_W$0A@@ATL@@QAEXPB_WH@Z ; ATL::CSimpleStringT<wchar_t,0>::SetString
PUBLIC	?StringLength@?$CSimpleStringT@_W$0A@@ATL@@SAHPB_W@Z ; ATL::CSimpleStringT<wchar_t,0>::StringLength
; Function compile flags: /Odtp /RTCsu /ZI
;	COMDAT ?SetString@?$CSimpleStringT@_W$0A@@ATL@@QAEXPB_W@Z
_TEXT	SEGMENT
_this$ = -8						; size = 4
_pszSrc$ = 8						; size = 4
?SetString@?$CSimpleStringT@_W$0A@@ATL@@QAEXPB_W@Z PROC	; ATL::CSimpleStringT<wchar_t,0>::SetString, COMDAT
; _this$ = ecx

; 627  : 	{

  00000	55		 push	 ebp
  00001	8b ec		 mov	 ebp, esp
  00003	81 ec cc 00 00
	00		 sub	 esp, 204		; 000000ccH
  00009	53		 push	 ebx
  0000a	56		 push	 esi
  0000b	57		 push	 edi
  0000c	51		 push	 ecx
  0000d	8d bd 34 ff ff
	ff		 lea	 edi, DWORD PTR [ebp-204]
  00013	b9 33 00 00 00	 mov	 ecx, 51			; 00000033H
  00018	b8 cc cc cc cc	 mov	 eax, -858993460		; ccccccccH
  0001d	f3 ab		 rep stosd
  0001f	59		 pop	 ecx
  00020	89 4d f8	 mov	 DWORD PTR _this$[ebp], ecx

; 628  : 		SetString( pszSrc, StringLength( pszSrc ) );

  00023	8b 45 08	 mov	 eax, DWORD PTR _pszSrc$[ebp]
  00026	50		 push	 eax
  00027	e8 00 00 00 00	 call	 ?StringLength@?$CSimpleStringT@_W$0A@@ATL@@SAHPB_W@Z ; ATL::CSimpleStringT<wchar_t,0>::StringLength
  0002c	83 c4 04	 add	 esp, 4
  0002f	50		 push	 eax
  00030	8b 4d 08	 mov	 ecx, DWORD PTR _pszSrc$[ebp]
  00033	51		 push	 ecx
  00034	8b 4d f8	 mov	 ecx, DWORD PTR _this$[ebp]
  00037	e8 00 00 00 00	 call	 ?SetString@?$CSimpleStringT@_W$0A@@ATL@@QAEXPB_WH@Z ; ATL::CSimpleStringT<wchar_t,0>::SetString

; 629  : 	}

  0003c	5f		 pop	 edi
  0003d	5e		 pop	 esi
  0003e	5b		 pop	 ebx
  0003f	81 c4 cc 00 00
	00		 add	 esp, 204		; 000000ccH
  00045	3b ec		 cmp	 ebp, esp
  00047	e8 00 00 00 00	 call	 __RTC_CheckEsp
  0004c	8b e5		 mov	 esp, ebp
  0004e	5d		 pop	 ebp
  0004f	c2 04 00	 ret	 4
?SetString@?$CSimpleStringT@_W$0A@@ATL@@QAEXPB_W@Z ENDP	; ATL::CSimpleStringT<wchar_t,0>::SetString
; Function compile flags: /Odtp /RTCsu /ZI
_TEXT	ENDS
;	COMDAT ?StringLength@?$CSimpleStringT@_W$0A@@ATL@@SAHPB_W@Z
_TEXT	SEGMENT
_psz$ = 8						; size = 4
?StringLength@?$CSimpleStringT@_W$0A@@ATL@@SAHPB_W@Z PROC ; ATL::CSimpleStringT<wchar_t,0>::StringLength, COMDAT

; 752  : 	{

  00000	55		 push	 ebp
  00001	8b ec		 mov	 ebp, esp
  00003	81 ec c0 00 00
	00		 sub	 esp, 192		; 000000c0H
  00009	53		 push	 ebx
  0000a	56		 push	 esi
  0000b	57		 push	 edi
  0000c	8d bd 40 ff ff
	ff		 lea	 edi, DWORD PTR [ebp-192]
  00012	b9 30 00 00 00	 mov	 ecx, 48			; 00000030H
  00017	b8 cc cc cc cc	 mov	 eax, -858993460		; ccccccccH
  0001c	f3 ab		 rep stosd

; 753  : 		if( psz == NULL )

  0001e	83 7d 08 00	 cmp	 DWORD PTR _psz$[ebp], 0
  00022	75 04		 jne	 SHORT $LN1@StringLeng

; 754  : 		{
; 755  : 			return( 0 );

  00024	33 c0		 xor	 eax, eax
  00026	eb 0c		 jmp	 SHORT $LN2@StringLeng
$LN1@StringLeng:

; 756  : 		}
; 757  : 		return( int( wcslen( psz ) ) );

  00028	8b 45 08	 mov	 eax, DWORD PTR _psz$[ebp]
  0002b	50		 push	 eax
  0002c	e8 00 00 00 00	 call	 _wcslen
  00031	83 c4 04	 add	 esp, 4
$LN2@StringLeng:

; 758  : 	}

  00034	5f		 pop	 edi
  00035	5e		 pop	 esi
  00036	5b		 pop	 ebx
  00037	81 c4 c0 00 00
	00		 add	 esp, 192		; 000000c0H
  0003d	3b ec		 cmp	 ebp, esp
  0003f	e8 00 00 00 00	 call	 __RTC_CheckEsp
  00044	8b e5		 mov	 esp, ebp
  00046	5d		 pop	 ebp
  00047	c3		 ret	 0
?StringLength@?$CSimpleStringT@_W$0A@@ATL@@SAHPB_W@Z ENDP ; ATL::CSimpleStringT<wchar_t,0>::StringLength
_TEXT	ENDS
PUBLIC	?CopyChars@?$CSimpleStringT@_W$0A@@ATL@@SAXPA_WIPB_WH@Z ; ATL::CSimpleStringT<wchar_t,0>::CopyChars
PUBLIC	?CopyCharsOverlapped@?$CSimpleStringT@_W$0A@@ATL@@SAXPA_WIPB_WH@Z ; ATL::CSimpleStringT<wchar_t,0>::CopyCharsOverlapped
PUBLIC	?GetAllocLength@?$CSimpleStringT@_W$0A@@ATL@@QBEHXZ ; ATL::CSimpleStringT<wchar_t,0>::GetAllocLength
PUBLIC	?GetString@?$CSimpleStringT@_W$0A@@ATL@@QBEPB_WXZ ; ATL::CSimpleStringT<wchar_t,0>::GetString
PUBLIC	?GetLength@?$CSimpleStringT@_W$0A@@ATL@@QBEHXZ	; ATL::CSimpleStringT<wchar_t,0>::GetLength
PUBLIC	?Empty@?$CSimpleStringT@_W$0A@@ATL@@QAEXXZ	; ATL::CSimpleStringT<wchar_t,0>::Empty
; Function compile flags: /Odtp /RTCsu /ZI
;	COMDAT ?SetString@?$CSimpleStringT@_W$0A@@ATL@@QAEXPB_WH@Z
_TEXT	SEGMENT
_pszBuffer$197131 = -44					; size = 4
_nOffset$197130 = -32					; size = 4
_nOldLength$197129 = -20				; size = 4
_this$ = -8						; size = 4
_pszSrc$ = 8						; size = 4
_nLength$ = 12						; size = 4
?SetString@?$CSimpleStringT@_W$0A@@ATL@@QAEXPB_WH@Z PROC ; ATL::CSimpleStringT<wchar_t,0>::SetString, COMDAT
; _this$ = ecx

; 633  : 	{

  00000	55		 push	 ebp
  00001	8b ec		 mov	 ebp, esp
  00003	81 ec f0 00 00
	00		 sub	 esp, 240		; 000000f0H
  00009	53		 push	 ebx
  0000a	56		 push	 esi
  0000b	57		 push	 edi
  0000c	51		 push	 ecx
  0000d	8d bd 10 ff ff
	ff		 lea	 edi, DWORD PTR [ebp-240]
  00013	b9 3c 00 00 00	 mov	 ecx, 60			; 0000003cH
  00018	b8 cc cc cc cc	 mov	 eax, -858993460		; ccccccccH
  0001d	f3 ab		 rep stosd
  0001f	59		 pop	 ecx
  00020	89 4d f8	 mov	 DWORD PTR _this$[ebp], ecx

; 634  : 		if( nLength == 0 )

  00023	83 7d 0c 00	 cmp	 DWORD PTR _nLength$[ebp], 0
  00027	75 0d		 jne	 SHORT $LN5@SetString

; 635  : 		{
; 636  : 			Empty();

  00029	8b 4d f8	 mov	 ecx, DWORD PTR _this$[ebp]
  0002c	e8 00 00 00 00	 call	 ?Empty@?$CSimpleStringT@_W$0A@@ATL@@QAEXXZ ; ATL::CSimpleStringT<wchar_t,0>::Empty

; 637  : 		}
; 638  : 		else

  00031	e9 92 00 00 00	 jmp	 $LN7@SetString
$LN5@SetString:

; 639  : 		{
; 640  : 			// It is possible that pszSrc points to a location inside of our
; 641  : 			// buffer.  GetBuffer() might change m_pszData if (1) the buffer
; 642  : 			// is shared or (2) the buffer is too small to hold the new
; 643  : 			// string.  We detect this aliasing, and modify pszSrc to point
; 644  : 			// into the newly allocated buffer instead.
; 645  : 
; 646  : 			if(pszSrc == NULL)

  00036	83 7d 08 00	 cmp	 DWORD PTR _pszSrc$[ebp], 0
  0003a	75 0a		 jne	 SHORT $LN3@SetString

; 647  : 				AtlThrow(E_INVALIDARG);

  0003c	68 57 00 07 80	 push	 -2147024809		; 80070057H
  00041	e8 00 00 00 00	 call	 ?AtlThrowImpl@ATL@@YGXJ@Z ; ATL::AtlThrowImpl
$LN3@SetString:

; 648  : 
; 649  : 			UINT nOldLength = GetLength();

  00046	8b 4d f8	 mov	 ecx, DWORD PTR _this$[ebp]
  00049	e8 00 00 00 00	 call	 ?GetLength@?$CSimpleStringT@_W$0A@@ATL@@QBEHXZ ; ATL::CSimpleStringT<wchar_t,0>::GetLength
  0004e	89 45 ec	 mov	 DWORD PTR _nOldLength$197129[ebp], eax

; 650  : 			UINT_PTR nOffset = pszSrc-GetString();

  00051	8b 4d f8	 mov	 ecx, DWORD PTR _this$[ebp]
  00054	e8 00 00 00 00	 call	 ?GetString@?$CSimpleStringT@_W$0A@@ATL@@QBEPB_WXZ ; ATL::CSimpleStringT<wchar_t,0>::GetString
  00059	8b 4d 08	 mov	 ecx, DWORD PTR _pszSrc$[ebp]
  0005c	2b c8		 sub	 ecx, eax
  0005e	d1 f9		 sar	 ecx, 1
  00060	89 4d e0	 mov	 DWORD PTR _nOffset$197130[ebp], ecx

; 651  : 			// If 0 <= nOffset <= nOldLength, then pszSrc points into our
; 652  : 			// buffer
; 653  : 
; 654  : 			PXSTR pszBuffer = GetBuffer( nLength );

  00063	8b 45 0c	 mov	 eax, DWORD PTR _nLength$[ebp]
  00066	50		 push	 eax
  00067	8b 4d f8	 mov	 ecx, DWORD PTR _this$[ebp]
  0006a	e8 00 00 00 00	 call	 ?GetBuffer@?$CSimpleStringT@_W$0A@@ATL@@QAEPA_WH@Z ; ATL::CSimpleStringT<wchar_t,0>::GetBuffer
  0006f	89 45 d4	 mov	 DWORD PTR _pszBuffer$197131[ebp], eax

; 655  : 			if( nOffset <= nOldLength )

  00072	8b 45 e0	 mov	 eax, DWORD PTR _nOffset$197130[ebp]
  00075	3b 45 ec	 cmp	 eax, DWORD PTR _nOldLength$197129[ebp]
  00078	77 25		 ja	 SHORT $LN2@SetString

; 656  : 			{
; 657  : 				CopyCharsOverlapped( pszBuffer, GetAllocLength(),
; 658  : 					pszBuffer+nOffset, nLength );

  0007a	8b 45 0c	 mov	 eax, DWORD PTR _nLength$[ebp]
  0007d	50		 push	 eax
  0007e	8b 4d e0	 mov	 ecx, DWORD PTR _nOffset$197130[ebp]
  00081	8b 55 d4	 mov	 edx, DWORD PTR _pszBuffer$197131[ebp]
  00084	8d 04 4a	 lea	 eax, DWORD PTR [edx+ecx*2]
  00087	50		 push	 eax
  00088	8b 4d f8	 mov	 ecx, DWORD PTR _this$[ebp]
  0008b	e8 00 00 00 00	 call	 ?GetAllocLength@?$CSimpleStringT@_W$0A@@ATL@@QBEHXZ ; ATL::CSimpleStringT<wchar_t,0>::GetAllocLength
  00090	50		 push	 eax
  00091	8b 4d d4	 mov	 ecx, DWORD PTR _pszBuffer$197131[ebp]
  00094	51		 push	 ecx
  00095	e8 00 00 00 00	 call	 ?CopyCharsOverlapped@?$CSimpleStringT@_W$0A@@ATL@@SAXPA_WIPB_WH@Z ; ATL::CSimpleStringT<wchar_t,0>::CopyCharsOverlapped
  0009a	83 c4 10	 add	 esp, 16			; 00000010H

; 659  : 			}
; 660  : 			else

  0009d	eb 1d		 jmp	 SHORT $LN1@SetString
$LN2@SetString:

; 661  : 			{
; 662  : 				CopyChars( pszBuffer, GetAllocLength(), pszSrc, nLength );

  0009f	8b 45 0c	 mov	 eax, DWORD PTR _nLength$[ebp]
  000a2	50		 push	 eax
  000a3	8b 4d 08	 mov	 ecx, DWORD PTR _pszSrc$[ebp]
  000a6	51		 push	 ecx
  000a7	8b 4d f8	 mov	 ecx, DWORD PTR _this$[ebp]
  000aa	e8 00 00 00 00	 call	 ?GetAllocLength@?$CSimpleStringT@_W$0A@@ATL@@QBEHXZ ; ATL::CSimpleStringT<wchar_t,0>::GetAllocLength
  000af	50		 push	 eax
  000b0	8b 55 d4	 mov	 edx, DWORD PTR _pszBuffer$197131[ebp]
  000b3	52		 push	 edx
  000b4	e8 00 00 00 00	 call	 ?CopyChars@?$CSimpleStringT@_W$0A@@ATL@@SAXPA_WIPB_WH@Z ; ATL::CSimpleStringT<wchar_t,0>::CopyChars
  000b9	83 c4 10	 add	 esp, 16			; 00000010H
$LN1@SetString:

; 663  : 			}
; 664  : 			ReleaseBufferSetLength( nLength );

  000bc	8b 45 0c	 mov	 eax, DWORD PTR _nLength$[ebp]
  000bf	50		 push	 eax
  000c0	8b 4d f8	 mov	 ecx, DWORD PTR _this$[ebp]
  000c3	e8 00 00 00 00	 call	 ?ReleaseBufferSetLength@?$CSimpleStringT@_W$0A@@ATL@@QAEXH@Z ; ATL::CSimpleStringT<wchar_t,0>::ReleaseBufferSetLength
$LN7@SetString:

; 665  : 		}
; 666  : 	}

  000c8	5f		 pop	 edi
  000c9	5e		 pop	 esi
  000ca	5b		 pop	 ebx
  000cb	81 c4 f0 00 00
	00		 add	 esp, 240		; 000000f0H
  000d1	3b ec		 cmp	 ebp, esp
  000d3	e8 00 00 00 00	 call	 __RTC_CheckEsp
  000d8	8b e5		 mov	 esp, ebp
  000da	5d		 pop	 ebp
  000db	c2 08 00	 ret	 8
?SetString@?$CSimpleStringT@_W$0A@@ATL@@QAEXPB_WH@Z ENDP ; ATL::CSimpleStringT<wchar_t,0>::SetString
_TEXT	ENDS
PUBLIC	?IsLocked@CStringData@ATL@@QBE_NXZ		; ATL::CStringData::IsLocked
; Function compile flags: /Odtp /RTCsu /ZI
;	COMDAT ?Empty@?$CSimpleStringT@_W$0A@@ATL@@QAEXXZ
_TEXT	SEGMENT
_pNewData$196422 = -44					; size = 4
_pStringMgr$ = -32					; size = 4
_pOldData$ = -20					; size = 4
_this$ = -8						; size = 4
?Empty@?$CSimpleStringT@_W$0A@@ATL@@QAEXXZ PROC		; ATL::CSimpleStringT<wchar_t,0>::Empty, COMDAT
; _this$ = ecx

; 462  : 	{

  00000	55		 push	 ebp
  00001	8b ec		 mov	 ebp, esp
  00003	81 ec f0 00 00
	00		 sub	 esp, 240		; 000000f0H
  00009	53		 push	 ebx
  0000a	56		 push	 esi
  0000b	57		 push	 edi
  0000c	51		 push	 ecx
  0000d	8d bd 10 ff ff
	ff		 lea	 edi, DWORD PTR [ebp-240]
  00013	b9 3c 00 00 00	 mov	 ecx, 60			; 0000003cH
  00018	b8 cc cc cc cc	 mov	 eax, -858993460		; ccccccccH
  0001d	f3 ab		 rep stosd
  0001f	59		 pop	 ecx
  00020	89 4d f8	 mov	 DWORD PTR _this$[ebp], ecx

; 463  : 		CStringData* pOldData = GetData();

  00023	8b 4d f8	 mov	 ecx, DWORD PTR _this$[ebp]
  00026	e8 00 00 00 00	 call	 ?GetData@?$CSimpleStringT@_W$0A@@ATL@@ABEPAUCStringData@2@XZ ; ATL::CSimpleStringT<wchar_t,0>::GetData
  0002b	89 45 ec	 mov	 DWORD PTR _pOldData$[ebp], eax

; 464  : 		IAtlStringMgr* pStringMgr = pOldData->pStringMgr;

  0002e	8b 45 ec	 mov	 eax, DWORD PTR _pOldData$[ebp]
  00031	8b 08		 mov	 ecx, DWORD PTR [eax]
  00033	89 4d e0	 mov	 DWORD PTR _pStringMgr$[ebp], ecx

; 465  : 		if( pOldData->nDataLength == 0 )

  00036	8b 45 ec	 mov	 eax, DWORD PTR _pOldData$[ebp]
  00039	83 78 04 00	 cmp	 DWORD PTR [eax+4], 0
  0003d	75 02		 jne	 SHORT $LN3@Empty

; 466  : 		{
; 467  : 			return;

  0003f	eb 48		 jmp	 SHORT $LN4@Empty
$LN3@Empty:

; 468  : 		}
; 469  : 
; 470  : 		if( pOldData->IsLocked() )

  00041	8b 4d ec	 mov	 ecx, DWORD PTR _pOldData$[ebp]
  00044	e8 00 00 00 00	 call	 ?IsLocked@CStringData@ATL@@QBE_NXZ ; ATL::CStringData::IsLocked
  00049	0f b6 c0	 movzx	 eax, al
  0004c	85 c0		 test	 eax, eax
  0004e	74 0c		 je	 SHORT $LN2@Empty

; 471  : 		{
; 472  : 			// Don't reallocate a locked buffer that's shrinking
; 473  : 			SetLength( 0 );

  00050	6a 00		 push	 0
  00052	8b 4d f8	 mov	 ecx, DWORD PTR _this$[ebp]
  00055	e8 00 00 00 00	 call	 ?SetLength@?$CSimpleStringT@_W$0A@@ATL@@AAEXH@Z ; ATL::CSimpleStringT<wchar_t,0>::SetLength

; 474  : 		}
; 475  : 		else

  0005a	eb 2d		 jmp	 SHORT $LN4@Empty
$LN2@Empty:

; 476  : 		{
; 477  : 			pOldData->Release();

  0005c	8b 4d ec	 mov	 ecx, DWORD PTR _pOldData$[ebp]
  0005f	e8 00 00 00 00	 call	 ?Release@CStringData@ATL@@QAEXXZ ; ATL::CStringData::Release

; 478  : 			CStringData* pNewData = pStringMgr->GetNilString();

  00064	8b 45 e0	 mov	 eax, DWORD PTR _pStringMgr$[ebp]
  00067	8b 10		 mov	 edx, DWORD PTR [eax]
  00069	8b f4		 mov	 esi, esp
  0006b	8b 4d e0	 mov	 ecx, DWORD PTR _pStringMgr$[ebp]
  0006e	8b 42 0c	 mov	 eax, DWORD PTR [edx+12]
  00071	ff d0		 call	 eax
  00073	3b f4		 cmp	 esi, esp
  00075	e8 00 00 00 00	 call	 __RTC_CheckEsp
  0007a	89 45 d4	 mov	 DWORD PTR _pNewData$196422[ebp], eax

; 479  : 			Attach( pNewData );

  0007d	8b 45 d4	 mov	 eax, DWORD PTR _pNewData$196422[ebp]
  00080	50		 push	 eax
  00081	8b 4d f8	 mov	 ecx, DWORD PTR _this$[ebp]
  00084	e8 00 00 00 00	 call	 ?Attach@?$CSimpleStringT@_W$0A@@ATL@@AAEXPAUCStringData@2@@Z ; ATL::CSimpleStringT<wchar_t,0>::Attach
$LN4@Empty:

; 480  : 		}
; 481  : 	}

  00089	5f		 pop	 edi
  0008a	5e		 pop	 esi
  0008b	5b		 pop	 ebx
  0008c	81 c4 f0 00 00
	00		 add	 esp, 240		; 000000f0H
  00092	3b ec		 cmp	 ebp, esp
  00094	e8 00 00 00 00	 call	 __RTC_CheckEsp
  00099	8b e5		 mov	 esp, ebp
  0009b	5d		 pop	 ebp
  0009c	c3		 ret	 0
?Empty@?$CSimpleStringT@_W$0A@@ATL@@QAEXXZ ENDP		; ATL::CSimpleStringT<wchar_t,0>::Empty
; Function compile flags: /Odtp /RTCsu /ZI
_TEXT	ENDS
;	COMDAT ?IsLocked@CStringData@ATL@@QBE_NXZ
_TEXT	SEGMENT
_this$ = -8						; size = 4
?IsLocked@CStringData@ATL@@QBE_NXZ PROC			; ATL::CStringData::IsLocked, COMDAT
; _this$ = ecx

; 94   : 	{

  00000	55		 push	 ebp
  00001	8b ec		 mov	 ebp, esp
  00003	81 ec cc 00 00
	00		 sub	 esp, 204		; 000000ccH
  00009	53		 push	 ebx
  0000a	56		 push	 esi
  0000b	57		 push	 edi
  0000c	51		 push	 ecx
  0000d	8d bd 34 ff ff
	ff		 lea	 edi, DWORD PTR [ebp-204]
  00013	b9 33 00 00 00	 mov	 ecx, 51			; 00000033H
  00018	b8 cc cc cc cc	 mov	 eax, -858993460		; ccccccccH
  0001d	f3 ab		 rep stosd
  0001f	59		 pop	 ecx
  00020	89 4d f8	 mov	 DWORD PTR _this$[ebp], ecx

; 95   : 		return nRefs < 0;

  00023	8b 45 f8	 mov	 eax, DWORD PTR _this$[ebp]
  00026	33 c9		 xor	 ecx, ecx
  00028	83 78 0c 00	 cmp	 DWORD PTR [eax+12], 0
  0002c	0f 9c c1	 setl	 cl
  0002f	8a c1		 mov	 al, cl

; 96   : 	}

  00031	5f		 pop	 edi
  00032	5e		 pop	 esi
  00033	5b		 pop	 ebx
  00034	8b e5		 mov	 esp, ebp
  00036	5d		 pop	 ebp
  00037	c3		 ret	 0
?IsLocked@CStringData@ATL@@QBE_NXZ ENDP			; ATL::CStringData::IsLocked
; Function compile flags: /Odtp /RTCsu /ZI
_TEXT	ENDS
;	COMDAT ?GetLength@?$CSimpleStringT@_W$0A@@ATL@@QBEHXZ
_TEXT	SEGMENT
_this$ = -8						; size = 4
?GetLength@?$CSimpleStringT@_W$0A@@ATL@@QBEHXZ PROC	; ATL::CSimpleStringT<wchar_t,0>::GetLength, COMDAT
; _this$ = ecx

; 544  : 	{

  00000	55		 push	 ebp
  00001	8b ec		 mov	 ebp, esp
  00003	81 ec cc 00 00
	00		 sub	 esp, 204		; 000000ccH
  00009	53		 push	 ebx
  0000a	56		 push	 esi
  0000b	57		 push	 edi
  0000c	51		 push	 ecx
  0000d	8d bd 34 ff ff
	ff		 lea	 edi, DWORD PTR [ebp-204]
  00013	b9 33 00 00 00	 mov	 ecx, 51			; 00000033H
  00018	b8 cc cc cc cc	 mov	 eax, -858993460		; ccccccccH
  0001d	f3 ab		 rep stosd
  0001f	59		 pop	 ecx
  00020	89 4d f8	 mov	 DWORD PTR _this$[ebp], ecx

; 545  : 		return( GetData()->nDataLength );

  00023	8b 4d f8	 mov	 ecx, DWORD PTR _this$[ebp]
  00026	e8 00 00 00 00	 call	 ?GetData@?$CSimpleStringT@_W$0A@@ATL@@ABEPAUCStringData@2@XZ ; ATL::CSimpleStringT<wchar_t,0>::GetData
  0002b	8b 40 04	 mov	 eax, DWORD PTR [eax+4]

; 546  : 	}

  0002e	5f		 pop	 edi
  0002f	5e		 pop	 esi
  00030	5b		 pop	 ebx
  00031	81 c4 cc 00 00
	00		 add	 esp, 204		; 000000ccH
  00037	3b ec		 cmp	 ebp, esp
  00039	e8 00 00 00 00	 call	 __RTC_CheckEsp
  0003e	8b e5		 mov	 esp, ebp
  00040	5d		 pop	 ebp
  00041	c3		 ret	 0
?GetLength@?$CSimpleStringT@_W$0A@@ATL@@QBEHXZ ENDP	; ATL::CSimpleStringT<wchar_t,0>::GetLength
; Function compile flags: /Odtp /RTCsu /ZI
_TEXT	ENDS
;	COMDAT ?GetString@?$CSimpleStringT@_W$0A@@ATL@@QBEPB_WXZ
_TEXT	SEGMENT
_this$ = -8						; size = 4
?GetString@?$CSimpleStringT@_W$0A@@ATL@@QBEPB_WXZ PROC	; ATL::CSimpleStringT<wchar_t,0>::GetString, COMDAT
; _this$ = ecx

; 554  : 	{

  00000	55		 push	 ebp
  00001	8b ec		 mov	 ebp, esp
  00003	81 ec cc 00 00
	00		 sub	 esp, 204		; 000000ccH
  00009	53		 push	 ebx
  0000a	56		 push	 esi
  0000b	57		 push	 edi
  0000c	51		 push	 ecx
  0000d	8d bd 34 ff ff
	ff		 lea	 edi, DWORD PTR [ebp-204]
  00013	b9 33 00 00 00	 mov	 ecx, 51			; 00000033H
  00018	b8 cc cc cc cc	 mov	 eax, -858993460		; ccccccccH
  0001d	f3 ab		 rep stosd
  0001f	59		 pop	 ecx
  00020	89 4d f8	 mov	 DWORD PTR _this$[ebp], ecx

; 555  : 		return( m_pszData );

  00023	8b 45 f8	 mov	 eax, DWORD PTR _this$[ebp]
  00026	8b 00		 mov	 eax, DWORD PTR [eax]

; 556  : 	}

  00028	5f		 pop	 edi
  00029	5e		 pop	 esi
  0002a	5b		 pop	 ebx
  0002b	8b e5		 mov	 esp, ebp
  0002d	5d		 pop	 ebp
  0002e	c3		 ret	 0
?GetString@?$CSimpleStringT@_W$0A@@ATL@@QBEPB_WXZ ENDP	; ATL::CSimpleStringT<wchar_t,0>::GetString
_TEXT	ENDS
EXTRN	_memcpy_s:PROC
; Function compile flags: /Odtp /RTCsu /ZI
;	COMDAT ?CopyChars@?$CSimpleStringT@_W$0A@@ATL@@SAXPA_WIPB_WH@Z
_TEXT	SEGMENT
_pchDest$ = 8						; size = 4
_nDestLen$ = 12						; size = 4
_pchSrc$ = 16						; size = 4
_nChars$ = 20						; size = 4
?CopyChars@?$CSimpleStringT@_W$0A@@ATL@@SAXPA_WIPB_WH@Z PROC ; ATL::CSimpleStringT<wchar_t,0>::CopyChars, COMDAT

; 718  : 	{

  00000	55		 push	 ebp
  00001	8b ec		 mov	 ebp, esp
  00003	81 ec c0 00 00
	00		 sub	 esp, 192		; 000000c0H
  00009	53		 push	 ebx
  0000a	56		 push	 esi
  0000b	57		 push	 edi
  0000c	8d bd 40 ff ff
	ff		 lea	 edi, DWORD PTR [ebp-192]
  00012	b9 30 00 00 00	 mov	 ecx, 48			; 00000030H
  00017	b8 cc cc cc cc	 mov	 eax, -858993460		; ccccccccH
  0001c	f3 ab		 rep stosd

; 719  : 		memcpy_s( pchDest, nDestLen*sizeof( XCHAR ),
; 720  : 			pchSrc, nChars*sizeof( XCHAR ) );

  0001e	8b 45 14	 mov	 eax, DWORD PTR _nChars$[ebp]
  00021	d1 e0		 shl	 eax, 1
  00023	50		 push	 eax
  00024	8b 4d 10	 mov	 ecx, DWORD PTR _pchSrc$[ebp]
  00027	51		 push	 ecx
  00028	8b 55 0c	 mov	 edx, DWORD PTR _nDestLen$[ebp]
  0002b	d1 e2		 shl	 edx, 1
  0002d	52		 push	 edx
  0002e	8b 45 08	 mov	 eax, DWORD PTR _pchDest$[ebp]
  00031	50		 push	 eax
  00032	e8 00 00 00 00	 call	 _memcpy_s
  00037	83 c4 10	 add	 esp, 16			; 00000010H

; 721  : 	}

  0003a	5f		 pop	 edi
  0003b	5e		 pop	 esi
  0003c	5b		 pop	 ebx
  0003d	81 c4 c0 00 00
	00		 add	 esp, 192		; 000000c0H
  00043	3b ec		 cmp	 ebp, esp
  00045	e8 00 00 00 00	 call	 __RTC_CheckEsp
  0004a	8b e5		 mov	 esp, ebp
  0004c	5d		 pop	 ebp
  0004d	c3		 ret	 0
?CopyChars@?$CSimpleStringT@_W$0A@@ATL@@SAXPA_WIPB_WH@Z ENDP ; ATL::CSimpleStringT<wchar_t,0>::CopyChars
_TEXT	ENDS
PUBLIC	?Reallocate@?$CSimpleStringT@_W$0A@@ATL@@AAEXH@Z ; ATL::CSimpleStringT<wchar_t,0>::Reallocate
PUBLIC	?Fork@?$CSimpleStringT@_W$0A@@ATL@@AAEXH@Z	; ATL::CSimpleStringT<wchar_t,0>::Fork
PUBLIC	?IsShared@CStringData@ATL@@QBE_NXZ		; ATL::CStringData::IsShared
; Function compile flags: /Odtp /RTCsu /ZI
;	COMDAT ?PrepareWrite2@?$CSimpleStringT@_W$0A@@ATL@@AAEXH@Z
_TEXT	SEGMENT
_nNewLength$197144 = -32				; size = 4
_pOldData$ = -20					; size = 4
_this$ = -8						; size = 4
_nLength$ = 8						; size = 4
?PrepareWrite2@?$CSimpleStringT@_W$0A@@ATL@@AAEXH@Z PROC ; ATL::CSimpleStringT<wchar_t,0>::PrepareWrite2, COMDAT
; _this$ = ecx

; 841  : 	{

  00000	55		 push	 ebp
  00001	8b ec		 mov	 ebp, esp
  00003	81 ec e4 00 00
	00		 sub	 esp, 228		; 000000e4H
  00009	53		 push	 ebx
  0000a	56		 push	 esi
  0000b	57		 push	 edi
  0000c	51		 push	 ecx
  0000d	8d bd 1c ff ff
	ff		 lea	 edi, DWORD PTR [ebp-228]
  00013	b9 39 00 00 00	 mov	 ecx, 57			; 00000039H
  00018	b8 cc cc cc cc	 mov	 eax, -858993460		; ccccccccH
  0001d	f3 ab		 rep stosd
  0001f	59		 pop	 ecx
  00020	89 4d f8	 mov	 DWORD PTR _this$[ebp], ecx

; 842  : 		CStringData* pOldData = GetData();

  00023	8b 4d f8	 mov	 ecx, DWORD PTR _this$[ebp]
  00026	e8 00 00 00 00	 call	 ?GetData@?$CSimpleStringT@_W$0A@@ATL@@ABEPAUCStringData@2@XZ ; ATL::CSimpleStringT<wchar_t,0>::GetData
  0002b	89 45 ec	 mov	 DWORD PTR _pOldData$[ebp], eax

; 843  : 		if( pOldData->nDataLength > nLength )

  0002e	8b 45 ec	 mov	 eax, DWORD PTR _pOldData$[ebp]
  00031	8b 48 04	 mov	 ecx, DWORD PTR [eax+4]
  00034	3b 4d 08	 cmp	 ecx, DWORD PTR _nLength$[ebp]
  00037	7e 09		 jle	 SHORT $LN7@PrepareWri@2

; 844  : 		{
; 845  : 			nLength = pOldData->nDataLength;

  00039	8b 45 ec	 mov	 eax, DWORD PTR _pOldData$[ebp]
  0003c	8b 48 04	 mov	 ecx, DWORD PTR [eax+4]
  0003f	89 4d 08	 mov	 DWORD PTR _nLength$[ebp], ecx
$LN7@PrepareWri@2:

; 846  : 		}
; 847  : 		if( pOldData->IsShared() )

  00042	8b 4d ec	 mov	 ecx, DWORD PTR _pOldData$[ebp]
  00045	e8 00 00 00 00	 call	 ?IsShared@CStringData@ATL@@QBE_NXZ ; ATL::CStringData::IsShared
  0004a	0f b6 c0	 movzx	 eax, al
  0004d	85 c0		 test	 eax, eax
  0004f	74 0e		 je	 SHORT $LN6@PrepareWri@2

; 848  : 		{
; 849  : 			Fork( nLength );

  00051	8b 45 08	 mov	 eax, DWORD PTR _nLength$[ebp]
  00054	50		 push	 eax
  00055	8b 4d f8	 mov	 ecx, DWORD PTR _this$[ebp]
  00058	e8 00 00 00 00	 call	 ?Fork@?$CSimpleStringT@_W$0A@@ATL@@AAEXH@Z ; ATL::CSimpleStringT<wchar_t,0>::Fork
  0005d	eb 52		 jmp	 SHORT $LN8@PrepareWri@2
$LN6@PrepareWri@2:

; 850  : 		}
; 851  : 		else if( pOldData->nAllocLength < nLength )

  0005f	8b 45 ec	 mov	 eax, DWORD PTR _pOldData$[ebp]
  00062	8b 48 08	 mov	 ecx, DWORD PTR [eax+8]
  00065	3b 4d 08	 cmp	 ecx, DWORD PTR _nLength$[ebp]
  00068	7d 47		 jge	 SHORT $LN8@PrepareWri@2

; 852  : 		{
; 853  : 			// Grow exponentially, until we hit 1G, then by 1M thereafter.
; 854  : 			int nNewLength = pOldData->nAllocLength;

  0006a	8b 45 ec	 mov	 eax, DWORD PTR _pOldData$[ebp]
  0006d	8b 48 08	 mov	 ecx, DWORD PTR [eax+8]
  00070	89 4d e0	 mov	 DWORD PTR _nNewLength$197144[ebp], ecx

; 855  : 			if( nNewLength > 1024 * 1024 * 1024 )

  00073	81 7d e0 00 00
	00 40		 cmp	 DWORD PTR _nNewLength$197144[ebp], 1073741824 ; 40000000H
  0007a	7e 0d		 jle	 SHORT $LN3@PrepareWri@2

; 856  : 			{
; 857  : 				nNewLength += 1024 * 1024;

  0007c	8b 45 e0	 mov	 eax, DWORD PTR _nNewLength$197144[ebp]
  0007f	05 00 00 10 00	 add	 eax, 1048576		; 00100000H
  00084	89 45 e0	 mov	 DWORD PTR _nNewLength$197144[ebp], eax

; 858  : 			}
; 859  : 			else

  00087	eb 0e		 jmp	 SHORT $LN2@PrepareWri@2
$LN3@PrepareWri@2:

; 860  : 			{
; 861  : 				// Exponential growth factor is 1.5.
; 862  : 				nNewLength = nNewLength + nNewLength / 2;

  00089	8b 45 e0	 mov	 eax, DWORD PTR _nNewLength$197144[ebp]
  0008c	99		 cdq
  0008d	2b c2		 sub	 eax, edx
  0008f	d1 f8		 sar	 eax, 1
  00091	03 45 e0	 add	 eax, DWORD PTR _nNewLength$197144[ebp]
  00094	89 45 e0	 mov	 DWORD PTR _nNewLength$197144[ebp], eax
$LN2@PrepareWri@2:

; 863  : 			}
; 864  : 			if( nNewLength < nLength )

  00097	8b 45 e0	 mov	 eax, DWORD PTR _nNewLength$197144[ebp]
  0009a	3b 45 08	 cmp	 eax, DWORD PTR _nLength$[ebp]
  0009d	7d 06		 jge	 SHORT $LN1@PrepareWri@2

; 865  : 			{
; 866  : 				nNewLength = nLength;

  0009f	8b 45 08	 mov	 eax, DWORD PTR _nLength$[ebp]
  000a2	89 45 e0	 mov	 DWORD PTR _nNewLength$197144[ebp], eax
$LN1@PrepareWri@2:

; 867  : 			}
; 868  : 			Reallocate( nNewLength );

  000a5	8b 45 e0	 mov	 eax, DWORD PTR _nNewLength$197144[ebp]
  000a8	50		 push	 eax
  000a9	8b 4d f8	 mov	 ecx, DWORD PTR _this$[ebp]
  000ac	e8 00 00 00 00	 call	 ?Reallocate@?$CSimpleStringT@_W$0A@@ATL@@AAEXH@Z ; ATL::CSimpleStringT<wchar_t,0>::Reallocate
$LN8@PrepareWri@2:

; 869  : 		}
; 870  : 	}

  000b1	5f		 pop	 edi
  000b2	5e		 pop	 esi
  000b3	5b		 pop	 ebx
  000b4	81 c4 e4 00 00
	00		 add	 esp, 228		; 000000e4H
  000ba	3b ec		 cmp	 ebp, esp
  000bc	e8 00 00 00 00	 call	 __RTC_CheckEsp
  000c1	8b e5		 mov	 esp, ebp
  000c3	5d		 pop	 ebp
  000c4	c2 04 00	 ret	 4
?PrepareWrite2@?$CSimpleStringT@_W$0A@@ATL@@AAEXH@Z ENDP ; ATL::CSimpleStringT<wchar_t,0>::PrepareWrite2
; Function compile flags: /Odtp /RTCsu /ZI
_TEXT	ENDS
;	COMDAT ?IsShared@CStringData@ATL@@QBE_NXZ
_TEXT	SEGMENT
_this$ = -8						; size = 4
?IsShared@CStringData@ATL@@QBE_NXZ PROC			; ATL::CStringData::IsShared, COMDAT
; _this$ = ecx

; 98   : 	{

  00000	55		 push	 ebp
  00001	8b ec		 mov	 ebp, esp
  00003	81 ec cc 00 00
	00		 sub	 esp, 204		; 000000ccH
  00009	53		 push	 ebx
  0000a	56		 push	 esi
  0000b	57		 push	 edi
  0000c	51		 push	 ecx
  0000d	8d bd 34 ff ff
	ff		 lea	 edi, DWORD PTR [ebp-204]
  00013	b9 33 00 00 00	 mov	 ecx, 51			; 00000033H
  00018	b8 cc cc cc cc	 mov	 eax, -858993460		; ccccccccH
  0001d	f3 ab		 rep stosd
  0001f	59		 pop	 ecx
  00020	89 4d f8	 mov	 DWORD PTR _this$[ebp], ecx

; 99   : 		return( nRefs > 1 );

  00023	8b 45 f8	 mov	 eax, DWORD PTR _this$[ebp]
  00026	33 c9		 xor	 ecx, ecx
  00028	83 78 0c 01	 cmp	 DWORD PTR [eax+12], 1
  0002c	0f 9f c1	 setg	 cl
  0002f	8a c1		 mov	 al, cl

; 100  : 	}

  00031	5f		 pop	 edi
  00032	5e		 pop	 esi
  00033	5b		 pop	 ebx
  00034	8b e5		 mov	 esp, ebp
  00036	5d		 pop	 ebp
  00037	c3		 ret	 0
?IsShared@CStringData@ATL@@QBE_NXZ ENDP			; ATL::CStringData::IsShared
; Function compile flags: /Odtp /RTCsu /ZI
_TEXT	ENDS
;	COMDAT ?GetAllocLength@?$CSimpleStringT@_W$0A@@ATL@@QBEHXZ
_TEXT	SEGMENT
_this$ = -8						; size = 4
?GetAllocLength@?$CSimpleStringT@_W$0A@@ATL@@QBEHXZ PROC ; ATL::CSimpleStringT<wchar_t,0>::GetAllocLength, COMDAT
; _this$ = ecx

; 511  : 	{

  00000	55		 push	 ebp
  00001	8b ec		 mov	 ebp, esp
  00003	81 ec cc 00 00
	00		 sub	 esp, 204		; 000000ccH
  00009	53		 push	 ebx
  0000a	56		 push	 esi
  0000b	57		 push	 edi
  0000c	51		 push	 ecx
  0000d	8d bd 34 ff ff
	ff		 lea	 edi, DWORD PTR [ebp-204]
  00013	b9 33 00 00 00	 mov	 ecx, 51			; 00000033H
  00018	b8 cc cc cc cc	 mov	 eax, -858993460		; ccccccccH
  0001d	f3 ab		 rep stosd
  0001f	59		 pop	 ecx
  00020	89 4d f8	 mov	 DWORD PTR _this$[ebp], ecx

; 512  : 		return( GetData()->nAllocLength );

  00023	8b 4d f8	 mov	 ecx, DWORD PTR _this$[ebp]
  00026	e8 00 00 00 00	 call	 ?GetData@?$CSimpleStringT@_W$0A@@ATL@@ABEPAUCStringData@2@XZ ; ATL::CSimpleStringT<wchar_t,0>::GetData
  0002b	8b 40 08	 mov	 eax, DWORD PTR [eax+8]

; 513  : 	}

  0002e	5f		 pop	 edi
  0002f	5e		 pop	 esi
  00030	5b		 pop	 ebx
  00031	81 c4 cc 00 00
	00		 add	 esp, 204		; 000000ccH
  00037	3b ec		 cmp	 ebp, esp
  00039	e8 00 00 00 00	 call	 __RTC_CheckEsp
  0003e	8b e5		 mov	 esp, ebp
  00040	5d		 pop	 ebp
  00041	c3		 ret	 0
?GetAllocLength@?$CSimpleStringT@_W$0A@@ATL@@QBEHXZ ENDP ; ATL::CSimpleStringT<wchar_t,0>::GetAllocLength
_TEXT	ENDS
EXTRN	_memmove_s:PROC
; Function compile flags: /Odtp /RTCsu /ZI
;	COMDAT ?CopyCharsOverlapped@?$CSimpleStringT@_W$0A@@ATL@@SAXPA_WIPB_WH@Z
_TEXT	SEGMENT
_pchDest$ = 8						; size = 4
_nDestLen$ = 12						; size = 4
_pchSrc$ = 16						; size = 4
_nChars$ = 20						; size = 4
?CopyCharsOverlapped@?$CSimpleStringT@_W$0A@@ATL@@SAXPA_WIPB_WH@Z PROC ; ATL::CSimpleStringT<wchar_t,0>::CopyCharsOverlapped, COMDAT

; 739  : 	{

  00000	55		 push	 ebp
  00001	8b ec		 mov	 ebp, esp
  00003	81 ec c0 00 00
	00		 sub	 esp, 192		; 000000c0H
  00009	53		 push	 ebx
  0000a	56		 push	 esi
  0000b	57		 push	 edi
  0000c	8d bd 40 ff ff
	ff		 lea	 edi, DWORD PTR [ebp-192]
  00012	b9 30 00 00 00	 mov	 ecx, 48			; 00000030H
  00017	b8 cc cc cc cc	 mov	 eax, -858993460		; ccccccccH
  0001c	f3 ab		 rep stosd

; 740  : 		memmove_s( pchDest, nDestLen*sizeof( XCHAR ),
; 741  : 			pchSrc, nChars*sizeof( XCHAR ) );

  0001e	8b 45 14	 mov	 eax, DWORD PTR _nChars$[ebp]
  00021	d1 e0		 shl	 eax, 1
  00023	50		 push	 eax
  00024	8b 4d 10	 mov	 ecx, DWORD PTR _pchSrc$[ebp]
  00027	51		 push	 ecx
  00028	8b 55 0c	 mov	 edx, DWORD PTR _nDestLen$[ebp]
  0002b	d1 e2		 shl	 edx, 1
  0002d	52		 push	 edx
  0002e	8b 45 08	 mov	 eax, DWORD PTR _pchDest$[ebp]
  00031	50		 push	 eax
  00032	e8 00 00 00 00	 call	 _memmove_s
  00037	83 c4 10	 add	 esp, 16			; 00000010H

; 742  : 	}

  0003a	5f		 pop	 edi
  0003b	5e		 pop	 esi
  0003c	5b		 pop	 ebx
  0003d	81 c4 c0 00 00
	00		 add	 esp, 192		; 000000c0H
  00043	3b ec		 cmp	 ebp, esp
  00045	e8 00 00 00 00	 call	 __RTC_CheckEsp
  0004a	8b e5		 mov	 esp, ebp
  0004c	5d		 pop	 ebp
  0004d	c3		 ret	 0
?CopyCharsOverlapped@?$CSimpleStringT@_W$0A@@ATL@@SAXPA_WIPB_WH@Z ENDP ; ATL::CSimpleStringT<wchar_t,0>::CopyCharsOverlapped
_TEXT	ENDS
PUBLIC	?ThrowMemoryException@?$CSimpleStringT@_W$0A@@ATL@@KAXXZ ; ATL::CSimpleStringT<wchar_t,0>::ThrowMemoryException
; Function compile flags: /Odtp /RTCsu /ZI
;	COMDAT ?Fork@?$CSimpleStringT@_W$0A@@ATL@@AAEXH@Z
_TEXT	SEGMENT
tv82 = -256						; size = 4
tv74 = -256						; size = 4
_nCharsToCopy$ = -56					; size = 4
_pNewData$ = -44					; size = 4
_nOldLength$ = -32					; size = 4
_pOldData$ = -20					; size = 4
_this$ = -8						; size = 4
_nLength$ = 8						; size = 4
?Fork@?$CSimpleStringT@_W$0A@@ATL@@AAEXH@Z PROC		; ATL::CSimpleStringT<wchar_t,0>::Fork, COMDAT
; _this$ = ecx

; 806  : 	{

  00000	55		 push	 ebp
  00001	8b ec		 mov	 ebp, esp
  00003	81 ec 00 01 00
	00		 sub	 esp, 256		; 00000100H
  00009	53		 push	 ebx
  0000a	56		 push	 esi
  0000b	57		 push	 edi
  0000c	51		 push	 ecx
  0000d	8d bd 00 ff ff
	ff		 lea	 edi, DWORD PTR [ebp-256]
  00013	b9 40 00 00 00	 mov	 ecx, 64			; 00000040H
  00018	b8 cc cc cc cc	 mov	 eax, -858993460		; ccccccccH
  0001d	f3 ab		 rep stosd
  0001f	59		 pop	 ecx
  00020	89 4d f8	 mov	 DWORD PTR _this$[ebp], ecx

; 807  : 		CStringData* pOldData = GetData();

  00023	8b 4d f8	 mov	 ecx, DWORD PTR _this$[ebp]
  00026	e8 00 00 00 00	 call	 ?GetData@?$CSimpleStringT@_W$0A@@ATL@@ABEPAUCStringData@2@XZ ; ATL::CSimpleStringT<wchar_t,0>::GetData
  0002b	89 45 ec	 mov	 DWORD PTR _pOldData$[ebp], eax

; 808  : 		int nOldLength = pOldData->nDataLength;

  0002e	8b 45 ec	 mov	 eax, DWORD PTR _pOldData$[ebp]
  00031	8b 48 04	 mov	 ecx, DWORD PTR [eax+4]
  00034	89 4d e0	 mov	 DWORD PTR _nOldLength$[ebp], ecx

; 809  : 		CStringData* pNewData = pOldData->pStringMgr->Clone()->Allocate( nLength, sizeof( XCHAR ) );

  00037	8b 45 ec	 mov	 eax, DWORD PTR _pOldData$[ebp]
  0003a	8b 08		 mov	 ecx, DWORD PTR [eax]
  0003c	8b 55 ec	 mov	 edx, DWORD PTR _pOldData$[ebp]
  0003f	8b 02		 mov	 eax, DWORD PTR [edx]
  00041	8b 11		 mov	 edx, DWORD PTR [ecx]
  00043	8b f4		 mov	 esi, esp
  00045	8b c8		 mov	 ecx, eax
  00047	8b 42 10	 mov	 eax, DWORD PTR [edx+16]
  0004a	ff d0		 call	 eax
  0004c	3b f4		 cmp	 esi, esp
  0004e	e8 00 00 00 00	 call	 __RTC_CheckEsp
  00053	89 85 00 ff ff
	ff		 mov	 DWORD PTR tv74[ebp], eax
  00059	8b f4		 mov	 esi, esp
  0005b	6a 02		 push	 2
  0005d	8b 4d 08	 mov	 ecx, DWORD PTR _nLength$[ebp]
  00060	51		 push	 ecx
  00061	8b 95 00 ff ff
	ff		 mov	 edx, DWORD PTR tv74[ebp]
  00067	8b 02		 mov	 eax, DWORD PTR [edx]
  00069	8b 8d 00 ff ff
	ff		 mov	 ecx, DWORD PTR tv74[ebp]
  0006f	8b 10		 mov	 edx, DWORD PTR [eax]
  00071	ff d2		 call	 edx
  00073	3b f4		 cmp	 esi, esp
  00075	e8 00 00 00 00	 call	 __RTC_CheckEsp
  0007a	89 45 d4	 mov	 DWORD PTR _pNewData$[ebp], eax

; 810  : 		if( pNewData == NULL )

  0007d	83 7d d4 00	 cmp	 DWORD PTR _pNewData$[ebp], 0
  00081	75 05		 jne	 SHORT $LN1@Fork

; 811  : 		{
; 812  : 			ThrowMemoryException();

  00083	e8 00 00 00 00	 call	 ?ThrowMemoryException@?$CSimpleStringT@_W$0A@@ATL@@KAXXZ ; ATL::CSimpleStringT<wchar_t,0>::ThrowMemoryException
$LN1@Fork:

; 813  : 		}
; 814  : 		int nCharsToCopy = ((nOldLength < nLength) ? nOldLength : nLength)+1;  // Copy '\0'

  00088	8b 45 e0	 mov	 eax, DWORD PTR _nOldLength$[ebp]
  0008b	3b 45 08	 cmp	 eax, DWORD PTR _nLength$[ebp]
  0008e	7d 0b		 jge	 SHORT $LN4@Fork
  00090	8b 4d e0	 mov	 ecx, DWORD PTR _nOldLength$[ebp]
  00093	89 8d 00 ff ff
	ff		 mov	 DWORD PTR tv82[ebp], ecx
  00099	eb 09		 jmp	 SHORT $LN5@Fork
$LN4@Fork:
  0009b	8b 55 08	 mov	 edx, DWORD PTR _nLength$[ebp]
  0009e	89 95 00 ff ff
	ff		 mov	 DWORD PTR tv82[ebp], edx
$LN5@Fork:
  000a4	8b 85 00 ff ff
	ff		 mov	 eax, DWORD PTR tv82[ebp]
  000aa	83 c0 01	 add	 eax, 1
  000ad	89 45 c8	 mov	 DWORD PTR _nCharsToCopy$[ebp], eax

; 815  : 		CopyChars( PXSTR( pNewData->data() ), nCharsToCopy,
; 816  : 			PCXSTR( pOldData->data() ), nCharsToCopy );

  000b0	8b 45 c8	 mov	 eax, DWORD PTR _nCharsToCopy$[ebp]
  000b3	50		 push	 eax
  000b4	8b 4d ec	 mov	 ecx, DWORD PTR _pOldData$[ebp]
  000b7	e8 00 00 00 00	 call	 ?data@CStringData@ATL@@QAEPAXXZ ; ATL::CStringData::data
  000bc	50		 push	 eax
  000bd	8b 4d c8	 mov	 ecx, DWORD PTR _nCharsToCopy$[ebp]
  000c0	51		 push	 ecx
  000c1	8b 4d d4	 mov	 ecx, DWORD PTR _pNewData$[ebp]
  000c4	e8 00 00 00 00	 call	 ?data@CStringData@ATL@@QAEPAXXZ ; ATL::CStringData::data
  000c9	50		 push	 eax
  000ca	e8 00 00 00 00	 call	 ?CopyChars@?$CSimpleStringT@_W$0A@@ATL@@SAXPA_WIPB_WH@Z ; ATL::CSimpleStringT<wchar_t,0>::CopyChars
  000cf	83 c4 10	 add	 esp, 16			; 00000010H

; 817  : 		pNewData->nDataLength = nOldLength;

  000d2	8b 45 d4	 mov	 eax, DWORD PTR _pNewData$[ebp]
  000d5	8b 4d e0	 mov	 ecx, DWORD PTR _nOldLength$[ebp]
  000d8	89 48 04	 mov	 DWORD PTR [eax+4], ecx

; 818  : 		pOldData->Release();

  000db	8b 4d ec	 mov	 ecx, DWORD PTR _pOldData$[ebp]
  000de	e8 00 00 00 00	 call	 ?Release@CStringData@ATL@@QAEXXZ ; ATL::CStringData::Release

; 819  : 		Attach( pNewData );

  000e3	8b 45 d4	 mov	 eax, DWORD PTR _pNewData$[ebp]
  000e6	50		 push	 eax
  000e7	8b 4d f8	 mov	 ecx, DWORD PTR _this$[ebp]
  000ea	e8 00 00 00 00	 call	 ?Attach@?$CSimpleStringT@_W$0A@@ATL@@AAEXPAUCStringData@2@@Z ; ATL::CSimpleStringT<wchar_t,0>::Attach
$LN3@Fork:

; 820  : 	}

  000ef	5f		 pop	 edi
  000f0	5e		 pop	 esi
  000f1	5b		 pop	 ebx
  000f2	81 c4 00 01 00
	00		 add	 esp, 256		; 00000100H
  000f8	3b ec		 cmp	 ebp, esp
  000fa	e8 00 00 00 00	 call	 __RTC_CheckEsp
  000ff	8b e5		 mov	 esp, ebp
  00101	5d		 pop	 ebp
  00102	c2 04 00	 ret	 4
?Fork@?$CSimpleStringT@_W$0A@@ATL@@AAEXH@Z ENDP		; ATL::CSimpleStringT<wchar_t,0>::Fork
; Function compile flags: /Odtp /RTCsu /ZI
_TEXT	ENDS
;	COMDAT ?ThrowMemoryException@?$CSimpleStringT@_W$0A@@ATL@@KAXXZ
_TEXT	SEGMENT
?ThrowMemoryException@?$CSimpleStringT@_W$0A@@ATL@@KAXXZ PROC ; ATL::CSimpleStringT<wchar_t,0>::ThrowMemoryException, COMDAT

; 795  : 	{

  00000	55		 push	 ebp
  00001	8b ec		 mov	 ebp, esp
  00003	81 ec c0 00 00
	00		 sub	 esp, 192		; 000000c0H
  00009	53		 push	 ebx
  0000a	56		 push	 esi
  0000b	57		 push	 edi
  0000c	8d bd 40 ff ff
	ff		 lea	 edi, DWORD PTR [ebp-192]
  00012	b9 30 00 00 00	 mov	 ecx, 48			; 00000030H
  00017	b8 cc cc cc cc	 mov	 eax, -858993460		; ccccccccH
  0001c	f3 ab		 rep stosd

; 796  : 		AtlThrow( E_OUTOFMEMORY );

  0001e	68 0e 00 07 80	 push	 -2147024882		; 8007000eH
  00023	e8 00 00 00 00	 call	 ?AtlThrowImpl@ATL@@YGXJ@Z ; ATL::AtlThrowImpl
$LN2@ThrowMemor:

; 797  : 	}

  00028	5f		 pop	 edi
  00029	5e		 pop	 esi
  0002a	5b		 pop	 ebx
  0002b	81 c4 c0 00 00
	00		 add	 esp, 192		; 000000c0H
  00031	3b ec		 cmp	 ebp, esp
  00033	e8 00 00 00 00	 call	 __RTC_CheckEsp
  00038	8b e5		 mov	 esp, ebp
  0003a	5d		 pop	 ebp
  0003b	c3		 ret	 0
?ThrowMemoryException@?$CSimpleStringT@_W$0A@@ATL@@KAXXZ ENDP ; ATL::CSimpleStringT<wchar_t,0>::ThrowMemoryException
_TEXT	ENDS
PUBLIC	??_C@_1EC@BCBEFJPM@?$AAp?$AAO?$AAl?$AAd?$AAD?$AAa?$AAt?$AAa?$AA?9?$AA?$DO?$AAn?$AAA?$AAl?$AAl?$AAo?$AAc?$AAL?$AAe?$AAn?$AAg?$AAt?$AAh?$AA?5?$AA?$DM?$AA?5?$AAn?$AAL?$AAe?$AAn?$AAg?$AAt?$AAh@ ; `string'
;	COMDAT ??_C@_1EC@BCBEFJPM@?$AAp?$AAO?$AAl?$AAd?$AAD?$AAa?$AAt?$AAa?$AA?9?$AA?$DO?$AAn?$AAA?$AAl?$AAl?$AAo?$AAc?$AAL?$AAe?$AAn?$AAg?$AAt?$AAh?$AA?5?$AA?$DM?$AA?5?$AAn?$AAL?$AAe?$AAn?$AAg?$AAt?$AAh@
CONST	SEGMENT
??_C@_1EC@BCBEFJPM@?$AAp?$AAO?$AAl?$AAd?$AAD?$AAa?$AAt?$AAa?$AA?9?$AA?$DO?$AAn?$AAA?$AAl?$AAl?$AAo?$AAc?$AAL?$AAe?$AAn?$AAg?$AAt?$AAh?$AA?5?$AA?$DM?$AA?5?$AAn?$AAL?$AAe?$AAn?$AAg?$AAt?$AAh@ DB 'p'
	DB	00H, 'O', 00H, 'l', 00H, 'd', 00H, 'D', 00H, 'a', 00H, 't', 00H
	DB	'a', 00H, '-', 00H, '>', 00H, 'n', 00H, 'A', 00H, 'l', 00H, 'l'
	DB	00H, 'o', 00H, 'c', 00H, 'L', 00H, 'e', 00H, 'n', 00H, 'g', 00H
	DB	't', 00H, 'h', 00H, ' ', 00H, '<', 00H, ' ', 00H, 'n', 00H, 'L'
	DB	00H, 'e', 00H, 'n', 00H, 'g', 00H, 't', 00H, 'h', 00H, 00H, 00H ; `string'
; Function compile flags: /Odtp /RTCsu /ZI
CONST	ENDS
;	COMDAT ?Reallocate@?$CSimpleStringT@_W$0A@@ATL@@AAEXH@Z
_TEXT	SEGMENT
_pNewData$ = -44					; size = 4
_pStringMgr$ = -32					; size = 4
_pOldData$ = -20					; size = 4
_this$ = -8						; size = 4
_nLength$ = 8						; size = 4
?Reallocate@?$CSimpleStringT@_W$0A@@ATL@@AAEXH@Z PROC	; ATL::CSimpleStringT<wchar_t,0>::Reallocate, COMDAT
; _this$ = ecx

; 872  : 	{

  00000	55		 push	 ebp
  00001	8b ec		 mov	 ebp, esp
  00003	81 ec f0 00 00
	00		 sub	 esp, 240		; 000000f0H
  00009	53		 push	 ebx
  0000a	56		 push	 esi
  0000b	57		 push	 edi
  0000c	51		 push	 ecx
  0000d	8d bd 10 ff ff
	ff		 lea	 edi, DWORD PTR [ebp-240]
  00013	b9 3c 00 00 00	 mov	 ecx, 60			; 0000003cH
  00018	b8 cc cc cc cc	 mov	 eax, -858993460		; ccccccccH
  0001d	f3 ab		 rep stosd
  0001f	59		 pop	 ecx
  00020	89 4d f8	 mov	 DWORD PTR _this$[ebp], ecx

; 873  : 		CStringData* pOldData = GetData();

  00023	8b 4d f8	 mov	 ecx, DWORD PTR _this$[ebp]
  00026	e8 00 00 00 00	 call	 ?GetData@?$CSimpleStringT@_W$0A@@ATL@@ABEPAUCStringData@2@XZ ; ATL::CSimpleStringT<wchar_t,0>::GetData
  0002b	89 45 ec	 mov	 DWORD PTR _pOldData$[ebp], eax

; 874  : 		ATLASSERT( pOldData->nAllocLength < nLength );

  0002e	8b 45 ec	 mov	 eax, DWORD PTR _pOldData$[ebp]
  00031	8b 48 08	 mov	 ecx, DWORD PTR [eax+8]
  00034	3b 4d 08	 cmp	 ecx, DWORD PTR _nLength$[ebp]
  00037	7c 21		 jl	 SHORT $LN6@Reallocate
  00039	68 00 00 00 00	 push	 OFFSET ??_C@_1EC@BCBEFJPM@?$AAp?$AAO?$AAl?$AAd?$AAD?$AAa?$AAt?$AAa?$AA?9?$AA?$DO?$AAn?$AAA?$AAl?$AAl?$AAo?$AAc?$AAL?$AAe?$AAn?$AAg?$AAt?$AAh?$AA?5?$AA?$DM?$AA?5?$AAn?$AAL?$AAe?$AAn?$AAg?$AAt?$AAh@
  0003e	6a 00		 push	 0
  00040	68 6a 03 00 00	 push	 874			; 0000036aH
  00045	68 00 00 00 00	 push	 OFFSET ??_C@_1JK@OKOEFEHL@?$AAc?$AA?3?$AA?2?$AAp?$AAr?$AAo?$AAg?$AAr?$AAa?$AAm?$AA?5?$AAf?$AAi?$AAl?$AAe?$AAs?$AA?2?$AAm?$AAi?$AAc?$AAr?$AAo?$AAs?$AAo?$AAf?$AAt?$AA?5?$AAv?$AAi?$AAs?$AAu?$AAa@
  0004a	6a 02		 push	 2
  0004c	e8 00 00 00 00	 call	 __CrtDbgReportW
  00051	83 c4 14	 add	 esp, 20			; 00000014H
  00054	83 f8 01	 cmp	 eax, 1
  00057	75 01		 jne	 SHORT $LN6@Reallocate
  00059	cc		 int	 3
$LN6@Reallocate:

; 875  : 		IAtlStringMgr* pStringMgr = pOldData->pStringMgr;

  0005a	8b 45 ec	 mov	 eax, DWORD PTR _pOldData$[ebp]
  0005d	8b 08		 mov	 ecx, DWORD PTR [eax]
  0005f	89 4d e0	 mov	 DWORD PTR _pStringMgr$[ebp], ecx

; 876  : 		if ( pOldData->nAllocLength >= nLength || nLength <= 0)

  00062	8b 45 ec	 mov	 eax, DWORD PTR _pOldData$[ebp]
  00065	8b 48 08	 mov	 ecx, DWORD PTR [eax+8]
  00068	3b 4d 08	 cmp	 ecx, DWORD PTR _nLength$[ebp]
  0006b	7d 06		 jge	 SHORT $LN2@Reallocate
  0006d	83 7d 08 00	 cmp	 DWORD PTR _nLength$[ebp], 0
  00071	7f 07		 jg	 SHORT $LN3@Reallocate
$LN2@Reallocate:

; 877  : 		{
; 878  : 			ThrowMemoryException();

  00073	e8 00 00 00 00	 call	 ?ThrowMemoryException@?$CSimpleStringT@_W$0A@@ATL@@KAXXZ ; ATL::CSimpleStringT<wchar_t,0>::ThrowMemoryException

; 879  : 			return;

  00078	eb 3a		 jmp	 SHORT $LN5@Reallocate
$LN3@Reallocate:

; 880  : 		}
; 881  : 		CStringData* pNewData = pStringMgr->Reallocate( pOldData, nLength, sizeof( XCHAR ) );

  0007a	8b f4		 mov	 esi, esp
  0007c	6a 02		 push	 2
  0007e	8b 45 08	 mov	 eax, DWORD PTR _nLength$[ebp]
  00081	50		 push	 eax
  00082	8b 4d ec	 mov	 ecx, DWORD PTR _pOldData$[ebp]
  00085	51		 push	 ecx
  00086	8b 55 e0	 mov	 edx, DWORD PTR _pStringMgr$[ebp]
  00089	8b 02		 mov	 eax, DWORD PTR [edx]
  0008b	8b 4d e0	 mov	 ecx, DWORD PTR _pStringMgr$[ebp]
  0008e	8b 50 08	 mov	 edx, DWORD PTR [eax+8]
  00091	ff d2		 call	 edx
  00093	3b f4		 cmp	 esi, esp
  00095	e8 00 00 00 00	 call	 __RTC_CheckEsp
  0009a	89 45 d4	 mov	 DWORD PTR _pNewData$[ebp], eax

; 882  : 		if( pNewData == NULL )

  0009d	83 7d d4 00	 cmp	 DWORD PTR _pNewData$[ebp], 0
  000a1	75 05		 jne	 SHORT $LN1@Reallocate

; 883  : 		{
; 884  : 			ThrowMemoryException();

  000a3	e8 00 00 00 00	 call	 ?ThrowMemoryException@?$CSimpleStringT@_W$0A@@ATL@@KAXXZ ; ATL::CSimpleStringT<wchar_t,0>::ThrowMemoryException
$LN1@Reallocate:

; 885  : 		}
; 886  : 		Attach( pNewData );

  000a8	8b 45 d4	 mov	 eax, DWORD PTR _pNewData$[ebp]
  000ab	50		 push	 eax
  000ac	8b 4d f8	 mov	 ecx, DWORD PTR _this$[ebp]
  000af	e8 00 00 00 00	 call	 ?Attach@?$CSimpleStringT@_W$0A@@ATL@@AAEXPAUCStringData@2@@Z ; ATL::CSimpleStringT<wchar_t,0>::Attach
$LN5@Reallocate:

; 887  : 	}

  000b4	5f		 pop	 edi
  000b5	5e		 pop	 esi
  000b6	5b		 pop	 ebx
  000b7	81 c4 f0 00 00
	00		 add	 esp, 240		; 000000f0H
  000bd	3b ec		 cmp	 ebp, esp
  000bf	e8 00 00 00 00	 call	 __RTC_CheckEsp
  000c4	8b e5		 mov	 esp, ebp
  000c6	5d		 pop	 ebp
  000c7	c2 04 00	 ret	 4
?Reallocate@?$CSimpleStringT@_W$0A@@ATL@@AAEXH@Z ENDP	; ATL::CSimpleStringT<wchar_t,0>::Reallocate
_TEXT	ENDS
PUBLIC	??_C@_1M@FLOKEGB@?$AA0?$AA7?$AA?5?$AA0?$AA3?$AA?$AA@ ; `string'
PUBLIC	??_C@_1M@LNACMDAE@?$AA0?$AA7?$AA?5?$AA0?$AA2?$AA?$AA@ ; `string'
PUBLIC	??_C@_1BC@COHPOCGK@?$AA0?$AA7?$AA?5?$AA0?$AA5?$AA?5?$AAF?$AAF?$AA?$AA@ ; `string'
PUBLIC	??_C@_1BC@MBLNIJFE@?$AA0?$AA7?$AA?5?$AA0?$AA4?$AA?5?$AAF?$AAF?$AA?$AA@ ; `string'
PUBLIC	??_C@_1BC@CHJEECBA@?$AA0?$AA7?$AA?5?$AA0?$AA1?$AA?5?$AAF?$AAF?$AA?$AA@ ; `string'
PUBLIC	??_C@_1BC@MIFGCJCO@?$AA0?$AA7?$AA?5?$AA0?$AA0?$AA?5?$AAF?$AAF?$AA?$AA@ ; `string'
PUBLIC	??_C@_1BC@HGOFLOFO@?$AA0?$AA9?$AA?5?$AA0?$AA6?$AA?5?$AA0?$AA0?$AA?$AA@ ; `string'
PUBLIC	??_C@_1BC@OFMKKPMC@?$AA0?$AA9?$AA?5?$AA0?$AA6?$AA?5?$AAF?$AAF?$AA?$AA@ ; `string'
PUBLIC	??_C@_1BC@JNNCAFFN@?$AA0?$AA9?$AA?5?$AA0?$AA5?$AA?5?$AA0?$AA0?$AA?$AA@ ; `string'
PUBLIC	??_C@_1BC@OPNBEMB@?$AA0?$AA9?$AA?5?$AA0?$AA5?$AA?5?$AAF?$AAF?$AA?$AA@ ; `string'
PUBLIC	??_C@_1BC@HCBAGOGD@?$AA0?$AA9?$AA?5?$AA0?$AA4?$AA?5?$AA0?$AA0?$AA?$AA@ ; `string'
PUBLIC	??_C@_1BC@OBDPHPPP@?$AA0?$AA9?$AA?5?$AA0?$AA4?$AA?5?$AAF?$AAF?$AA?$AA@ ; `string'
PUBLIC	??_C@_1BC@JAMMHFBK@?$AA0?$AA9?$AA?5?$AA0?$AA3?$AA?5?$AA0?$AA0?$AA?$AA@ ; `string'
PUBLIC	??_C@_1BC@DODGEIG@?$AA0?$AA9?$AA?5?$AA0?$AA3?$AA?5?$AAF?$AAF?$AA?$AA@ ; `string'
PUBLIC	??_C@_1BC@HPAOBOCE@?$AA0?$AA9?$AA?5?$AA0?$AA2?$AA?5?$AA0?$AA0?$AA?$AA@ ; `string'
PUBLIC	??_C@_1BC@OMCBAPLI@?$AA0?$AA9?$AA?5?$AA0?$AA2?$AA?5?$AAF?$AAF?$AA?$AA@ ; `string'
PUBLIC	??_C@_1BC@JEDJKFCH@?$AA0?$AA9?$AA?5?$AA0?$AA1?$AA?5?$AA0?$AA0?$AA?$AA@ ; `string'
PUBLIC	??_C@_1BC@HBGLELL@?$AA0?$AA9?$AA?5?$AA0?$AA1?$AA?5?$AAF?$AAF?$AA?$AA@ ; `string'
PUBLIC	??_C@_1BC@HLPLMOBJ@?$AA0?$AA9?$AA?5?$AA0?$AA0?$AA?5?$AA0?$AA0?$AA?$AA@ ; `string'
PUBLIC	??_C@_1BC@OINENPIF@?$AA0?$AA9?$AA?5?$AA0?$AA0?$AA?5?$AAF?$AAF?$AA?$AA@ ; `string'
PUBLIC	??_C@_1BC@DDLKJEMM@?$AA0?$AA8?$AA?5?$AA0?$AA5?$AA?5?$AA0?$AA0?$AA?$AA@ ; `string'
PUBLIC	??_C@_1BC@KAJFIFFA@?$AA0?$AA8?$AA?5?$AA0?$AA5?$AA?5?$AAF?$AAF?$AA?$AA@ ; `string'
PUBLIC	??_C@_1BC@NMHIPPPC@?$AA0?$AA8?$AA?5?$AA0?$AA4?$AA?5?$AA0?$AA0?$AA?$AA@ ; `string'
PUBLIC	??_C@_1BC@EPFHOOGO@?$AA0?$AA8?$AA?5?$AA0?$AA4?$AA?5?$AAF?$AAF?$AA?$AA@ ; `string'
PUBLIC	??_C@_1BC@DOKEOEIL@?$AA0?$AA8?$AA?5?$AA0?$AA3?$AA?5?$AA0?$AA0?$AA?$AA@ ; `string'
PUBLIC	??_C@_1BC@KNILPFBH@?$AA0?$AA8?$AA?5?$AA0?$AA3?$AA?5?$AAF?$AAF?$AA?$AA@ ; `string'
PUBLIC	??_C@_1BC@NBGGIPLF@?$AA0?$AA8?$AA?5?$AA0?$AA2?$AA?5?$AA0?$AA0?$AA?$AA@ ; `string'
PUBLIC	??_C@_1BC@ECEJJOCJ@?$AA0?$AA8?$AA?5?$AA0?$AA2?$AA?5?$AAF?$AAF?$AA?$AA@ ; `string'
PUBLIC	??_C@_1BC@DKFBDELG@?$AA0?$AA8?$AA?5?$AA0?$AA1?$AA?5?$AA0?$AA0?$AA?$AA@ ; `string'
PUBLIC	??_C@_1BC@KJHOCFCK@?$AA0?$AA8?$AA?5?$AA0?$AA1?$AA?5?$AAF?$AAF?$AA?$AA@ ; `string'
PUBLIC	??_C@_1BC@NFJDFPII@?$AA0?$AA8?$AA?5?$AA0?$AA0?$AA?5?$AA0?$AA0?$AA?$AA@ ; `string'
PUBLIC	??_C@_1BC@EGLMEOBE@?$AA0?$AA8?$AA?5?$AA0?$AA0?$AA?5?$AAF?$AAF?$AA?$AA@ ; `string'
PUBLIC	??_C@_1M@OHNAJINM@?$AA5?$AAA?$AA?5?$AAF?$AAF?$AA?$AA@ ; `string'
PUBLIC	??_C@_1M@OFLHFOCK@?$AA0?$AAE?$AA?5?$AA0?$AA0?$AA?$AA@ ; `string'
PUBLIC	??_C@_1M@BIMAJKPK@?$AA0?$AAD?$AA?5?$AA0?$AA3?$AA?$AA@ ; `string'
PUBLIC	??_C@_1M@KAHMPNJP@?$AA0?$AAD?$AA?5?$AA0?$AA2?$AA?$AA@ ; `string'
PUBLIC	??_C@_1M@LCMJFCHB@?$AA0?$AAD?$AA?5?$AA0?$AA1?$AA?$AA@ ; `string'
PUBLIC	??_C@_1M@KHFDFBE@?$AA0?$AAD?$AA?5?$AA0?$AA0?$AA?$AA@ ; `string'
PUBLIC	??_C@_1BC@LPOMKMBC@?$AA0?$AAC?$AA?5?$AA0?$AA1?$AA?5?$AA0?$AA0?$AA?$AA@ ; `string'
PUBLIC	??_C@_1BC@CMMDLNIO@?$AA0?$AAC?$AA?5?$AA0?$AA1?$AA?5?$AAF?$AAF?$AA?$AA@ ; `string'
PUBLIC	??_C@_1BC@FACOMHCM@?$AA0?$AAC?$AA?5?$AA0?$AA0?$AA?5?$AA0?$AA0?$AA?$AA@ ; `string'
PUBLIC	??_C@_1BC@MDABNGLA@?$AA0?$AAC?$AA?5?$AA0?$AA0?$AA?5?$AAF?$AAF?$AA?$AA@ ; `string'
PUBLIC	??_C@_1BC@FLHJDILC@?$AA0?$AA7?$AA?5?$AA0?$AA0?$AA?5?$AA0?$AA0?$AA?$AA@ ; `string'
PUBLIC	??_C@_1BC@IIPKPPEL@?$AA0?$AA7?$AA?5?$AA0?$AA0?$AA?5?$AA0?$AAA?$AA?$AA@ ; `string'
PUBLIC	??_C@_1BC@INAJADLM@?$AA0?$AA6?$AA?5?$AA0?$AA3?$AA?5?$AAF?$AAF?$AA?$AA@ ; `string'
PUBLIC	??_C@_1BC@BOCGBCCA@?$AA0?$AA6?$AA?5?$AA0?$AA3?$AA?5?$AA0?$AA0?$AA?$AA@ ; `string'
PUBLIC	??_C@_1BC@GCMLGIIC@?$AA0?$AA6?$AA?5?$AA0?$AA2?$AA?5?$AAF?$AAF?$AA?$AA@ ; `string'
PUBLIC	??_C@_1BC@PBOEHJBO@?$AA0?$AA6?$AA?5?$AA0?$AA2?$AA?5?$AA0?$AA0?$AA?$AA@ ; `string'
PUBLIC	??_C@_1BC@IJPMNDIB@?$AA0?$AA6?$AA?5?$AA0?$AA1?$AA?5?$AAF?$AAF?$AA?$AA@ ; `string'
PUBLIC	??_C@_1BC@BKNDMCBN@?$AA0?$AA6?$AA?5?$AA0?$AA1?$AA?5?$AA0?$AA0?$AA?$AA@ ; `string'
PUBLIC	??_C@_1BC@GGDOLILP@?$AA0?$AA6?$AA?5?$AA0?$AA0?$AA?5?$AAF?$AAF?$AA?$AA@ ; `string'
PUBLIC	??_C@_1BC@PFBBKJCD@?$AA0?$AA6?$AA?5?$AA0?$AA0?$AA?5?$AA0?$AA0?$AA?$AA@ ; `string'
PUBLIC	??_C@_1M@BELHEFM@?$AA0?$AA5?$AA?5?$AA0?$AA3?$AA?$AA@ ; `string'
PUBLIC	??_C@_1M@LJPHBDDJ@?$AA0?$AA5?$AA?5?$AA0?$AA2?$AA?$AA@ ; `string'
PUBLIC	??_C@_1M@KLECLMNH@?$AA0?$AA5?$AA?5?$AA0?$AA1?$AA?$AA@ ; `string'
PUBLIC	??_C@_1M@BDPONLLC@?$AA0?$AA5?$AA?5?$AA0?$AA0?$AA?$AA@ ; `string'
PUBLIC	??_C@_1BC@MMLJFDAN@?$AA0?$AA5?$AA?5?$AA0?$AAE?$AA?5?$AA0?$AA0?$AA?$AA@ ; `string'
PUBLIC	??_C@_1BC@FPJGECJB@?$AA0?$AA5?$AA?5?$AA0?$AAE?$AA?5?$AAF?$AAF?$AA?$AA@ ; `string'
PUBLIC	??_C@_1BC@CDHLDIDD@?$AA0?$AA5?$AA?5?$AA0?$AAD?$AA?5?$AA0?$AA0?$AA?$AA@ ; `string'
PUBLIC	??_C@_1BC@LAFECJKP@?$AA0?$AA5?$AA?5?$AA0?$AAD?$AA?5?$AAF?$AAF?$AA?$AA@ ; `string'
PUBLIC	??_C@_1BC@MBKHCDEK@?$AA0?$AA5?$AA?5?$AA0?$AAC?$AA?5?$AA0?$AA0?$AA?$AA@ ; `string'
PUBLIC	??_C@_1BC@FCIIDCNG@?$AA0?$AA5?$AA?5?$AA0?$AAC?$AA?5?$AAF?$AAF?$AA?$AA@ ; `string'
PUBLIC	??_C@_1BC@MPAOFNCF@?$AA0?$AA5?$AA?5?$AA0?$AA8?$AA?5?$AA0?$AA0?$AA?$AA@ ; `string'
PUBLIC	??_C@_1BC@FMCBEMLJ@?$AA0?$AA5?$AA?5?$AA0?$AA8?$AA?5?$AAF?$AAF?$AA?$AA@ ; `string'
PUBLIC	??_C@_1BC@DOAFAGKI@?$AA0?$AA5?$AA?5?$AA0?$AA7?$AA?5?$AA0?$AA0?$AA?$AA@ ; `string'
PUBLIC	??_C@_1BC@KNCKBHDE@?$AA0?$AA5?$AA?5?$AA0?$AA7?$AA?5?$AAF?$AAF?$AA?$AA@ ; `string'
PUBLIC	??_C@_1M@CCAABKIP@?$AA0?$AAB?$AA?5?$AA0?$AA6?$AA?$AA@ ; `string'
PUBLIC	??_C@_1M@JKLMHNOK@?$AA0?$AAB?$AA?5?$AA0?$AA7?$AA?$AA@ ; `string'
PUBLIC	??_C@_1M@DALFLFGB@?$AA0?$AAB?$AA?5?$AA0?$AA5?$AA?$AA@ ; `string'
PUBLIC	??_C@_1M@IIAJNCAE@?$AA0?$AAB?$AA?5?$AA0?$AA4?$AA?$AA@ ; `string'
PUBLIC	??_C@_1M@BFNOOKLN@?$AA0?$AAB?$AA?5?$AA0?$AA3?$AA?$AA@ ; `string'
PUBLIC	??_C@_1M@KNGCINNI@?$AA0?$AAB?$AA?5?$AA0?$AA2?$AA?$AA@ ; `string'
PUBLIC	??_C@_1M@LPNHCCDG@?$AA0?$AAB?$AA?5?$AA0?$AA1?$AA?$AA@ ; `string'
PUBLIC	??_C@_1M@HGLEFFD@?$AA0?$AAB?$AA?5?$AA0?$AA0?$AA?$AA@ ; `string'
PUBLIC	??_C@_15INLCFBGC@?$AA0?$AA5?$AA?$AA@		; `string'
PUBLIC	??_C@_1M@LCGIEPMM@?$AA0?$AA4?$AA?5?$AA0?$AAF?$AA?$AA@ ; `string'
PUBLIC	??_C@_1M@KANNOACC@?$AA0?$AA4?$AA?5?$AA0?$AAE?$AA?$AA@ ; `string'
PUBLIC	??_C@_1M@BIGBIHEH@?$AA0?$AA4?$AA?5?$AA0?$AAD?$AA?$AA@ ; `string'
PUBLIC	??_C@_1M@IFLGLPPO@?$AA0?$AA4?$AA?5?$AA0?$AAC?$AA?$AA@ ; `string'
PUBLIC	??_C@_1M@DNAKNIJL@?$AA0?$AA4?$AA?5?$AA0?$AAB?$AA?$AA@ ; `string'
PUBLIC	??_C@_1M@IBDEPPAG@?$AA0?$AA4?$AA?5?$AA0?$AA9?$AA?$AA@ ; `string'
PUBLIC	??_C@_1M@DJIIJIGD@?$AA0?$AA4?$AA?5?$AA0?$AA8?$AA?$AA@ ; `string'
PUBLIC	??_C@_1M@GBOLIIDF@?$AA0?$AA4?$AA?5?$AA0?$AA7?$AA?$AA@ ; `string'
PUBLIC	??_C@_1M@NJFHOPFA@?$AA0?$AA4?$AA?5?$AA0?$AA6?$AA?$AA@ ; `string'
PUBLIC	??_C@_1M@MLOCEALO@?$AA0?$AA4?$AA?5?$AA0?$AA5?$AA?$AA@ ; `string'
PUBLIC	??_C@_1M@HDFOCHNL@?$AA0?$AA4?$AA?5?$AA0?$AA4?$AA?$AA@ ; `string'
PUBLIC	??_C@_1M@FGDFHIAH@?$AA0?$AA4?$AA?5?$AA0?$AA2?$AA?$AA@ ; `string'
PUBLIC	??_C@_1M@EEIANHOJ@?$AA0?$AA4?$AA?5?$AA0?$AA1?$AA?$AA@ ; `string'
PUBLIC	??_C@_1M@PMDMLAIM@?$AA0?$AA4?$AA?5?$AA0?$AA0?$AA?$AA@ ; `string'
PUBLIC	??_C@_1BC@IJOGHJJP@?$AA0?$AA4?$AA?5?$AA0?$AAF?$AA?5?$AA0?$AA0?$AA?$AA@ ; `string'
PUBLIC	??_C@_1BC@BKMJGIAD@?$AA0?$AA4?$AA?5?$AA0?$AAF?$AA?5?$AAF?$AAF?$AA?$AA@ ; `string'
PUBLIC	??_C@_1BC@GCNBMCJM@?$AA0?$AA4?$AA?5?$AA0?$AAE?$AA?5?$AA0?$AA0?$AA?$AA@ ; `string'
PUBLIC	??_C@_1BC@PBPONDAA@?$AA0?$AA4?$AA?5?$AA0?$AAE?$AA?5?$AAF?$AAF?$AA?$AA@ ; `string'
PUBLIC	??_C@_1BC@INBDKJKC@?$AA0?$AA4?$AA?5?$AA0?$AAD?$AA?5?$AA0?$AA0?$AA?$AA@ ; `string'
PUBLIC	??_C@_1BC@BODMLIDO@?$AA0?$AA4?$AA?5?$AA0?$AAD?$AA?5?$AAF?$AAF?$AA?$AA@ ; `string'
PUBLIC	??_C@_1BC@GPMPLCNL@?$AA0?$AA4?$AA?5?$AA0?$AAC?$AA?5?$AA0?$AA0?$AA?$AA@ ; `string'
PUBLIC	??_C@_1BC@PMOAKDEH@?$AA0?$AA4?$AA?5?$AA0?$AAC?$AA?5?$AAF?$AAF?$AA?$AA@ ; `string'
PUBLIC	??_C@_1BC@IAANNJOF@?$AA0?$AA4?$AA?5?$AA0?$AAB?$AA?5?$AA0?$AA0?$AA?$AA@ ; `string'
PUBLIC	??_C@_1BC@BDCCMIHJ@?$AA0?$AA4?$AA?5?$AA0?$AAB?$AA?5?$AAF?$AAF?$AA?$AA@ ; `string'
PUBLIC	??_C@_1M@CPLPHHHF@?$AA0?$AA4?$AA?5?$AA0?$AAA?$AA?$AA@ ; `string'
PUBLIC	??_C@_1BC@IOKEKHIK@?$AA0?$AA4?$AA?5?$AA0?$AA9?$AA?5?$AA0?$AA0?$AA?$AA@ ; `string'
PUBLIC	??_C@_1BC@BNILLGBG@?$AA0?$AA4?$AA?5?$AA0?$AA9?$AA?5?$AAF?$AAF?$AA?$AA@ ; `string'
PUBLIC	??_C@_1BC@GBGGMMLE@?$AA0?$AA4?$AA?5?$AA0?$AA8?$AA?5?$AA0?$AA0?$AA?$AA@ ; `string'
PUBLIC	??_C@_1BC@PCEJNNCI@?$AA0?$AA4?$AA?5?$AA0?$AA8?$AA?5?$AAF?$AAF?$AA?$AA@ ; `string'
PUBLIC	??_C@_1BC@JAGNJHDJ@?$AA0?$AA4?$AA?5?$AA0?$AA7?$AA?5?$AA0?$AA0?$AA?$AA@ ; `string'
PUBLIC	??_C@_1BC@DECIGKF@?$AA0?$AA4?$AA?5?$AA0?$AA7?$AA?5?$AAF?$AAF?$AA?$AA@ ; `string'
PUBLIC	??_C@_1BC@HPKPPMAH@?$AA0?$AA4?$AA?5?$AA0?$AA6?$AA?5?$AA0?$AA0?$AA?$AA@ ; `string'
PUBLIC	??_C@_1BC@OMIAONJL@?$AA0?$AA4?$AA?5?$AA0?$AA6?$AA?5?$AAF?$AAF?$AA?$AA@ ; `string'
PUBLIC	??_C@_1BC@JEJIEHAE@?$AA0?$AA4?$AA?5?$AA0?$AA5?$AA?5?$AA0?$AA0?$AA?$AA@ ; `string'
PUBLIC	??_C@_1BC@HLHFGJI@?$AA0?$AA4?$AA?5?$AA0?$AA5?$AA?5?$AAF?$AAF?$AA?$AA@ ; `string'
PUBLIC	??_C@_1BC@HLFKCMDK@?$AA0?$AA4?$AA?5?$AA0?$AA4?$AA?5?$AA0?$AA0?$AA?$AA@ ; `string'
PUBLIC	??_C@_1BC@OIHFDNKG@?$AA0?$AA4?$AA?5?$AA0?$AA4?$AA?5?$AAF?$AAF?$AA?$AA@ ; `string'
PUBLIC	??_C@_1M@OOIJBPGC@?$AA0?$AA4?$AA?5?$AA0?$AA3?$AA?$AA@ ; `string'
PUBLIC	??_C@_1BC@HGEEFMHN@?$AA0?$AA4?$AA?5?$AA0?$AA2?$AA?5?$AA0?$AA0?$AA?$AA@ ; `string'
PUBLIC	??_C@_1BC@OFGLENOB@?$AA0?$AA4?$AA?5?$AA0?$AA2?$AA?5?$AAF?$AAF?$AA?$AA@ ; `string'
PUBLIC	??_C@_1BC@JNHDOHHO@?$AA0?$AA4?$AA?5?$AA0?$AA1?$AA?5?$AA0?$AA0?$AA?$AA@ ; `string'
PUBLIC	??_C@_1BC@OFMPGOC@?$AA0?$AA4?$AA?5?$AA0?$AA1?$AA?5?$AAF?$AAF?$AA?$AA@ ; `string'
PUBLIC	??_C@_1BC@HCLBIMEA@?$AA0?$AA4?$AA?5?$AA0?$AA0?$AA?5?$AA0?$AA0?$AA?$AA@ ; `string'
PUBLIC	??_C@_1BC@OBJOJNNM@?$AA0?$AA4?$AA?5?$AA0?$AA0?$AA?5?$AAF?$AAF?$AA?$AA@ ; `string'
PUBLIC	??_C@_1M@MFFAEBL@?$AA0?$AA3?$AA?5?$AA0?$AA3?$AA?$AA@ ; `string'
PUBLIC	??_C@_1M@LEOJGDHO@?$AA0?$AA3?$AA?5?$AA0?$AA2?$AA?$AA@ ; `string'
PUBLIC	??_C@_1M@KGFMMMJA@?$AA0?$AA3?$AA?5?$AA0?$AA1?$AA?$AA@ ; `string'
PUBLIC	??_C@_1M@GCANNBFH@?$AA0?$AA2?$AA?5?$AAF?$AAF?$AA?$AA@ ; `string'
PUBLIC	??_C@_1M@KHKJCLNH@?$AA0?$AA2?$AA?5?$AA1?$AA7?$AA?$AA@ ; `string'
PUBLIC	??_C@_1M@BPBFEMLC@?$AA0?$AA2?$AA?5?$AA1?$AA6?$AA?$AA@ ; `string'
PUBLIC	??_C@_1M@NKAODFM@?$AA0?$AA2?$AA?5?$AA1?$AA5?$AA?$AA@ ; `string'
PUBLIC	??_C@_1M@LFBMIEDJ@?$AA0?$AA2?$AA?5?$AA1?$AA4?$AA?$AA@ ; `string'
PUBLIC	??_C@_1M@CIMLLMIA@?$AA0?$AA2?$AA?5?$AA1?$AA3?$AA?$AA@ ; `string'
PUBLIC	??_C@_1M@JAHHNLOF@?$AA0?$AA2?$AA?5?$AA1?$AA2?$AA?$AA@ ; `string'
PUBLIC	??_C@_1M@ICMCHEAL@?$AA0?$AA2?$AA?5?$AA1?$AA1?$AA?$AA@ ; `string'
PUBLIC	??_C@_1BC@FIFJLCLC@?$AA0?$AA2?$AA?5?$AA1?$AA7?$AA?5?$AA0?$AA0?$AA?$AA@ ; `string'
PUBLIC	??_C@_1BC@MLHGKDCO@?$AA0?$AA2?$AA?5?$AA1?$AA7?$AA?5?$AAF?$AAF?$AA?$AA@ ; `string'
PUBLIC	??_C@_1BC@LHJLNJIM@?$AA0?$AA2?$AA?5?$AA1?$AA6?$AA?5?$AA0?$AA0?$AA?$AA@ ; `string'
PUBLIC	??_C@_1BC@CELEMIBA@?$AA0?$AA2?$AA?5?$AA1?$AA6?$AA?5?$AAF?$AAF?$AA?$AA@ ; `string'
PUBLIC	??_C@_1BC@FMKMGCIP@?$AA0?$AA2?$AA?5?$AA1?$AA5?$AA?5?$AA0?$AA0?$AA?$AA@ ; `string'
PUBLIC	??_C@_1BC@MPIDHDBD@?$AA0?$AA2?$AA?5?$AA1?$AA5?$AA?5?$AAF?$AAF?$AA?$AA@ ; `string'
PUBLIC	??_C@_1BC@LDGOAJLB@?$AA0?$AA2?$AA?5?$AA1?$AA4?$AA?5?$AA0?$AA0?$AA?$AA@ ; `string'
PUBLIC	??_C@_1BC@CAEBBICN@?$AA0?$AA2?$AA?5?$AA1?$AA4?$AA?5?$AAF?$AAF?$AA?$AA@ ; `string'
PUBLIC	??_C@_1BC@FBLCBCMI@?$AA0?$AA2?$AA?5?$AA1?$AA3?$AA?5?$AA0?$AA0?$AA?$AA@ ; `string'
PUBLIC	??_C@_1BC@MCJNADFE@?$AA0?$AA2?$AA?5?$AA1?$AA3?$AA?5?$AAF?$AAF?$AA?$AA@ ; `string'
PUBLIC	??_C@_1BC@LOHAHJPG@?$AA0?$AA2?$AA?5?$AA1?$AA2?$AA?5?$AA0?$AA0?$AA?$AA@ ; `string'
PUBLIC	??_C@_1BC@CNFPGIGK@?$AA0?$AA2?$AA?5?$AA1?$AA2?$AA?5?$AAF?$AAF?$AA?$AA@ ; `string'
PUBLIC	??_C@_1BC@FFEHMCPF@?$AA0?$AA2?$AA?5?$AA1?$AA1?$AA?5?$AA0?$AA0?$AA?$AA@ ; `string'
PUBLIC	??_C@_1BC@MGGINDGJ@?$AA0?$AA2?$AA?5?$AA1?$AA1?$AA?5?$AAF?$AAF?$AA?$AA@ ; `string'
PUBLIC	??_C@_1M@ODJHGPCF@?$AA0?$AA2?$AA?5?$AA0?$AA3?$AA?$AA@ ; `string'
PUBLIC	??_C@_1M@FLCLAIEA@?$AA0?$AA2?$AA?5?$AA0?$AA2?$AA?$AA@ ; `string'
PUBLIC	??_C@_1M@EJJOKHKO@?$AA0?$AA2?$AA?5?$AA0?$AA1?$AA?$AA@ ; `string'
PUBLIC	??_C@_1BC@MKBHFOKH@?$AA0?$AA2?$AA?5?$AA0?$AA3?$AA?5?$AA0?$AA0?$AA?$AA@ ; `string'
PUBLIC	??_C@_1BC@FJDIEPDL@?$AA0?$AA2?$AA?5?$AA0?$AA3?$AA?5?$AAF?$AAF?$AA?$AA@ ; `string'
PUBLIC	??_C@_1BC@CFNFDFJJ@?$AA0?$AA2?$AA?5?$AA0?$AA2?$AA?5?$AA0?$AA0?$AA?$AA@ ; `string'
PUBLIC	??_C@_1BC@LGPKCEAF@?$AA0?$AA2?$AA?5?$AA0?$AA2?$AA?5?$AAF?$AAF?$AA?$AA@ ; `string'
PUBLIC	??_C@_1BC@MOOCIOJK@?$AA0?$AA2?$AA?5?$AA0?$AA1?$AA?5?$AA0?$AA0?$AA?$AA@ ; `string'
PUBLIC	??_C@_1BC@FNMNJPAG@?$AA0?$AA2?$AA?5?$AA0?$AA1?$AA?5?$AAF?$AAF?$AA?$AA@ ; `string'
PUBLIC	??_C@_1BI@PGCDAFOE@?$AA0?$AA2?$AA?5?$AA0?$AA0?$AA?5?$AA0?$AA0?$AA?5?$AA0?$AA0?$AA?$AA@ ; `string'
PUBLIC	??_C@_1BI@NMKJGAPN@?$AA0?$AA2?$AA?5?$AA0?$AA0?$AA?5?$AA3?$AA1?$AA?5?$AA1?$AAC?$AA?$AA@ ; `string'
PUBLIC	??_C@_1BI@DNDANGBL@?$AA0?$AA2?$AA?5?$AA0?$AA0?$AA?5?$AA1?$AAC?$AA?5?$AA2?$AA0?$AA?$AA@ ; `string'
PUBLIC	??_C@_1BI@HGKCEBDG@?$AA0?$AA2?$AA?5?$AA0?$AA0?$AA?5?$AA1?$AA2?$AA?5?$AAD?$AA4?$AA?$AA@ ; `string'
PUBLIC	??_C@_1M@KCKJBMKN@?$AA0?$AA1?$AA?5?$AA0?$AA1?$AA?$AA@ ; `string'
PUBLIC	??_C@_1BC@OHCKDKGI@?$AA0?$AA1?$AA?5?$AA0?$AA1?$AA?5?$AA0?$AA0?$AA?$AA@ ; `string'
PUBLIC	??_C@_1BC@HEAFCLPE@?$AA0?$AA1?$AA?5?$AA0?$AA1?$AA?5?$AAF?$AAF?$AA?$AA@ ; `string'
PUBLIC	??_C@_1M@BKBFHLMI@?$AA0?$AA1?$AA?5?$AA0?$AA0?$AA?$AA@ ; `string'
PUBLIC	??_C@_1M@GGPIABGK@?$AA0?$AA0?$AA?5?$AAF?$AAF?$AA?$AA@ ; `string'
PUBLIC	??_C@_1M@PFNHBAPG@?$AA0?$AA0?$AA?5?$AA0?$AA0?$AA?$AA@ ; `string'
;	COMDAT ??_C@_1M@FLOKEGB@?$AA0?$AA7?$AA?5?$AA0?$AA3?$AA?$AA@
; File e:\cz\vs\dvicectrldlg_new_signal_1\serialcommand.h
CONST	SEGMENT
??_C@_1M@FLOKEGB@?$AA0?$AA7?$AA?5?$AA0?$AA3?$AA?$AA@ DB '0', 00H, '7', 00H
	DB	' ', 00H, '0', 00H, '3', 00H, 00H, 00H	; `string'
CONST	ENDS
;	COMDAT ??_C@_1M@LNACMDAE@?$AA0?$AA7?$AA?5?$AA0?$AA2?$AA?$AA@
CONST	SEGMENT
??_C@_1M@LNACMDAE@?$AA0?$AA7?$AA?5?$AA0?$AA2?$AA?$AA@ DB '0', 00H, '7', 00H
	DB	' ', 00H, '0', 00H, '2', 00H, 00H, 00H	; `string'
CONST	ENDS
;	COMDAT ??_C@_1BC@COHPOCGK@?$AA0?$AA7?$AA?5?$AA0?$AA5?$AA?5?$AAF?$AAF?$AA?$AA@
CONST	SEGMENT
??_C@_1BC@COHPOCGK@?$AA0?$AA7?$AA?5?$AA0?$AA5?$AA?5?$AAF?$AAF?$AA?$AA@ DB '0'
	DB	00H, '7', 00H, ' ', 00H, '0', 00H, '5', 00H, ' ', 00H, 'F', 00H
	DB	'F', 00H, 00H, 00H				; `string'
CONST	ENDS
;	COMDAT ??_C@_1BC@MBLNIJFE@?$AA0?$AA7?$AA?5?$AA0?$AA4?$AA?5?$AAF?$AAF?$AA?$AA@
CONST	SEGMENT
??_C@_1BC@MBLNIJFE@?$AA0?$AA7?$AA?5?$AA0?$AA4?$AA?5?$AAF?$AAF?$AA?$AA@ DB '0'
	DB	00H, '7', 00H, ' ', 00H, '0', 00H, '4', 00H, ' ', 00H, 'F', 00H
	DB	'F', 00H, 00H, 00H				; `string'
CONST	ENDS
;	COMDAT ??_C@_1BC@CHJEECBA@?$AA0?$AA7?$AA?5?$AA0?$AA1?$AA?5?$AAF?$AAF?$AA?$AA@
CONST	SEGMENT
??_C@_1BC@CHJEECBA@?$AA0?$AA7?$AA?5?$AA0?$AA1?$AA?5?$AAF?$AAF?$AA?$AA@ DB '0'
	DB	00H, '7', 00H, ' ', 00H, '0', 00H, '1', 00H, ' ', 00H, 'F', 00H
	DB	'F', 00H, 00H, 00H				; `string'
CONST	ENDS
;	COMDAT ??_C@_1BC@MIFGCJCO@?$AA0?$AA7?$AA?5?$AA0?$AA0?$AA?5?$AAF?$AAF?$AA?$AA@
CONST	SEGMENT
??_C@_1BC@MIFGCJCO@?$AA0?$AA7?$AA?5?$AA0?$AA0?$AA?5?$AAF?$AAF?$AA?$AA@ DB '0'
	DB	00H, '7', 00H, ' ', 00H, '0', 00H, '0', 00H, ' ', 00H, 'F', 00H
	DB	'F', 00H, 00H, 00H				; `string'
CONST	ENDS
;	COMDAT ??_C@_1BC@HGOFLOFO@?$AA0?$AA9?$AA?5?$AA0?$AA6?$AA?5?$AA0?$AA0?$AA?$AA@
CONST	SEGMENT
??_C@_1BC@HGOFLOFO@?$AA0?$AA9?$AA?5?$AA0?$AA6?$AA?5?$AA0?$AA0?$AA?$AA@ DB '0'
	DB	00H, '9', 00H, ' ', 00H, '0', 00H, '6', 00H, ' ', 00H, '0', 00H
	DB	'0', 00H, 00H, 00H				; `string'
CONST	ENDS
;	COMDAT ??_C@_1BC@OFMKKPMC@?$AA0?$AA9?$AA?5?$AA0?$AA6?$AA?5?$AAF?$AAF?$AA?$AA@
CONST	SEGMENT
??_C@_1BC@OFMKKPMC@?$AA0?$AA9?$AA?5?$AA0?$AA6?$AA?5?$AAF?$AAF?$AA?$AA@ DB '0'
	DB	00H, '9', 00H, ' ', 00H, '0', 00H, '6', 00H, ' ', 00H, 'F', 00H
	DB	'F', 00H, 00H, 00H				; `string'
CONST	ENDS
;	COMDAT ??_C@_1BC@JNNCAFFN@?$AA0?$AA9?$AA?5?$AA0?$AA5?$AA?5?$AA0?$AA0?$AA?$AA@
CONST	SEGMENT
??_C@_1BC@JNNCAFFN@?$AA0?$AA9?$AA?5?$AA0?$AA5?$AA?5?$AA0?$AA0?$AA?$AA@ DB '0'
	DB	00H, '9', 00H, ' ', 00H, '0', 00H, '5', 00H, ' ', 00H, '0', 00H
	DB	'0', 00H, 00H, 00H				; `string'
CONST	ENDS
;	COMDAT ??_C@_1BC@OPNBEMB@?$AA0?$AA9?$AA?5?$AA0?$AA5?$AA?5?$AAF?$AAF?$AA?$AA@
CONST	SEGMENT
??_C@_1BC@OPNBEMB@?$AA0?$AA9?$AA?5?$AA0?$AA5?$AA?5?$AAF?$AAF?$AA?$AA@ DB '0'
	DB	00H, '9', 00H, ' ', 00H, '0', 00H, '5', 00H, ' ', 00H, 'F', 00H
	DB	'F', 00H, 00H, 00H				; `string'
CONST	ENDS
;	COMDAT ??_C@_1BC@HCBAGOGD@?$AA0?$AA9?$AA?5?$AA0?$AA4?$AA?5?$AA0?$AA0?$AA?$AA@
CONST	SEGMENT
??_C@_1BC@HCBAGOGD@?$AA0?$AA9?$AA?5?$AA0?$AA4?$AA?5?$AA0?$AA0?$AA?$AA@ DB '0'
	DB	00H, '9', 00H, ' ', 00H, '0', 00H, '4', 00H, ' ', 00H, '0', 00H
	DB	'0', 00H, 00H, 00H				; `string'
CONST	ENDS
;	COMDAT ??_C@_1BC@OBDPHPPP@?$AA0?$AA9?$AA?5?$AA0?$AA4?$AA?5?$AAF?$AAF?$AA?$AA@
CONST	SEGMENT
??_C@_1BC@OBDPHPPP@?$AA0?$AA9?$AA?5?$AA0?$AA4?$AA?5?$AAF?$AAF?$AA?$AA@ DB '0'
	DB	00H, '9', 00H, ' ', 00H, '0', 00H, '4', 00H, ' ', 00H, 'F', 00H
	DB	'F', 00H, 00H, 00H				; `string'
CONST	ENDS
;	COMDAT ??_C@_1BC@JAMMHFBK@?$AA0?$AA9?$AA?5?$AA0?$AA3?$AA?5?$AA0?$AA0?$AA?$AA@
CONST	SEGMENT
??_C@_1BC@JAMMHFBK@?$AA0?$AA9?$AA?5?$AA0?$AA3?$AA?5?$AA0?$AA0?$AA?$AA@ DB '0'
	DB	00H, '9', 00H, ' ', 00H, '0', 00H, '3', 00H, ' ', 00H, '0', 00H
	DB	'0', 00H, 00H, 00H				; `string'
CONST	ENDS
;	COMDAT ??_C@_1BC@DODGEIG@?$AA0?$AA9?$AA?5?$AA0?$AA3?$AA?5?$AAF?$AAF?$AA?$AA@
CONST	SEGMENT
??_C@_1BC@DODGEIG@?$AA0?$AA9?$AA?5?$AA0?$AA3?$AA?5?$AAF?$AAF?$AA?$AA@ DB '0'
	DB	00H, '9', 00H, ' ', 00H, '0', 00H, '3', 00H, ' ', 00H, 'F', 00H
	DB	'F', 00H, 00H, 00H				; `string'
CONST	ENDS
;	COMDAT ??_C@_1BC@HPAOBOCE@?$AA0?$AA9?$AA?5?$AA0?$AA2?$AA?5?$AA0?$AA0?$AA?$AA@
CONST	SEGMENT
??_C@_1BC@HPAOBOCE@?$AA0?$AA9?$AA?5?$AA0?$AA2?$AA?5?$AA0?$AA0?$AA?$AA@ DB '0'
	DB	00H, '9', 00H, ' ', 00H, '0', 00H, '2', 00H, ' ', 00H, '0', 00H
	DB	'0', 00H, 00H, 00H				; `string'
CONST	ENDS
;	COMDAT ??_C@_1BC@OMCBAPLI@?$AA0?$AA9?$AA?5?$AA0?$AA2?$AA?5?$AAF?$AAF?$AA?$AA@
CONST	SEGMENT
??_C@_1BC@OMCBAPLI@?$AA0?$AA9?$AA?5?$AA0?$AA2?$AA?5?$AAF?$AAF?$AA?$AA@ DB '0'
	DB	00H, '9', 00H, ' ', 00H, '0', 00H, '2', 00H, ' ', 00H, 'F', 00H
	DB	'F', 00H, 00H, 00H				; `string'
CONST	ENDS
;	COMDAT ??_C@_1BC@JEDJKFCH@?$AA0?$AA9?$AA?5?$AA0?$AA1?$AA?5?$AA0?$AA0?$AA?$AA@
CONST	SEGMENT
??_C@_1BC@JEDJKFCH@?$AA0?$AA9?$AA?5?$AA0?$AA1?$AA?5?$AA0?$AA0?$AA?$AA@ DB '0'
	DB	00H, '9', 00H, ' ', 00H, '0', 00H, '1', 00H, ' ', 00H, '0', 00H
	DB	'0', 00H, 00H, 00H				; `string'
CONST	ENDS
;	COMDAT ??_C@_1BC@HBGLELL@?$AA0?$AA9?$AA?5?$AA0?$AA1?$AA?5?$AAF?$AAF?$AA?$AA@
CONST	SEGMENT
??_C@_1BC@HBGLELL@?$AA0?$AA9?$AA?5?$AA0?$AA1?$AA?5?$AAF?$AAF?$AA?$AA@ DB '0'
	DB	00H, '9', 00H, ' ', 00H, '0', 00H, '1', 00H, ' ', 00H, 'F', 00H
	DB	'F', 00H, 00H, 00H				; `string'
CONST	ENDS
;	COMDAT ??_C@_1BC@HLPLMOBJ@?$AA0?$AA9?$AA?5?$AA0?$AA0?$AA?5?$AA0?$AA0?$AA?$AA@
CONST	SEGMENT
??_C@_1BC@HLPLMOBJ@?$AA0?$AA9?$AA?5?$AA0?$AA0?$AA?5?$AA0?$AA0?$AA?$AA@ DB '0'
	DB	00H, '9', 00H, ' ', 00H, '0', 00H, '0', 00H, ' ', 00H, '0', 00H
	DB	'0', 00H, 00H, 00H				; `string'
CONST	ENDS
;	COMDAT ??_C@_1BC@OINENPIF@?$AA0?$AA9?$AA?5?$AA0?$AA0?$AA?5?$AAF?$AAF?$AA?$AA@
CONST	SEGMENT
??_C@_1BC@OINENPIF@?$AA0?$AA9?$AA?5?$AA0?$AA0?$AA?5?$AAF?$AAF?$AA?$AA@ DB '0'
	DB	00H, '9', 00H, ' ', 00H, '0', 00H, '0', 00H, ' ', 00H, 'F', 00H
	DB	'F', 00H, 00H, 00H				; `string'
CONST	ENDS
;	COMDAT ??_C@_1BC@DDLKJEMM@?$AA0?$AA8?$AA?5?$AA0?$AA5?$AA?5?$AA0?$AA0?$AA?$AA@
CONST	SEGMENT
??_C@_1BC@DDLKJEMM@?$AA0?$AA8?$AA?5?$AA0?$AA5?$AA?5?$AA0?$AA0?$AA?$AA@ DB '0'
	DB	00H, '8', 00H, ' ', 00H, '0', 00H, '5', 00H, ' ', 00H, '0', 00H
	DB	'0', 00H, 00H, 00H				; `string'
CONST	ENDS
;	COMDAT ??_C@_1BC@KAJFIFFA@?$AA0?$AA8?$AA?5?$AA0?$AA5?$AA?5?$AAF?$AAF?$AA?$AA@
CONST	SEGMENT
??_C@_1BC@KAJFIFFA@?$AA0?$AA8?$AA?5?$AA0?$AA5?$AA?5?$AAF?$AAF?$AA?$AA@ DB '0'
	DB	00H, '8', 00H, ' ', 00H, '0', 00H, '5', 00H, ' ', 00H, 'F', 00H
	DB	'F', 00H, 00H, 00H				; `string'
CONST	ENDS
;	COMDAT ??_C@_1BC@NMHIPPPC@?$AA0?$AA8?$AA?5?$AA0?$AA4?$AA?5?$AA0?$AA0?$AA?$AA@
CONST	SEGMENT
??_C@_1BC@NMHIPPPC@?$AA0?$AA8?$AA?5?$AA0?$AA4?$AA?5?$AA0?$AA0?$AA?$AA@ DB '0'
	DB	00H, '8', 00H, ' ', 00H, '0', 00H, '4', 00H, ' ', 00H, '0', 00H
	DB	'0', 00H, 00H, 00H				; `string'
CONST	ENDS
;	COMDAT ??_C@_1BC@EPFHOOGO@?$AA0?$AA8?$AA?5?$AA0?$AA4?$AA?5?$AAF?$AAF?$AA?$AA@
CONST	SEGMENT
??_C@_1BC@EPFHOOGO@?$AA0?$AA8?$AA?5?$AA0?$AA4?$AA?5?$AAF?$AAF?$AA?$AA@ DB '0'
	DB	00H, '8', 00H, ' ', 00H, '0', 00H, '4', 00H, ' ', 00H, 'F', 00H
	DB	'F', 00H, 00H, 00H				; `string'
CONST	ENDS
;	COMDAT ??_C@_1BC@DOKEOEIL@?$AA0?$AA8?$AA?5?$AA0?$AA3?$AA?5?$AA0?$AA0?$AA?$AA@
CONST	SEGMENT
??_C@_1BC@DOKEOEIL@?$AA0?$AA8?$AA?5?$AA0?$AA3?$AA?5?$AA0?$AA0?$AA?$AA@ DB '0'
	DB	00H, '8', 00H, ' ', 00H, '0', 00H, '3', 00H, ' ', 00H, '0', 00H
	DB	'0', 00H, 00H, 00H				; `string'
CONST	ENDS
;	COMDAT ??_C@_1BC@KNILPFBH@?$AA0?$AA8?$AA?5?$AA0?$AA3?$AA?5?$AAF?$AAF?$AA?$AA@
CONST	SEGMENT
??_C@_1BC@KNILPFBH@?$AA0?$AA8?$AA?5?$AA0?$AA3?$AA?5?$AAF?$AAF?$AA?$AA@ DB '0'
	DB	00H, '8', 00H, ' ', 00H, '0', 00H, '3', 00H, ' ', 00H, 'F', 00H
	DB	'F', 00H, 00H, 00H				; `string'
CONST	ENDS
;	COMDAT ??_C@_1BC@NBGGIPLF@?$AA0?$AA8?$AA?5?$AA0?$AA2?$AA?5?$AA0?$AA0?$AA?$AA@
CONST	SEGMENT
??_C@_1BC@NBGGIPLF@?$AA0?$AA8?$AA?5?$AA0?$AA2?$AA?5?$AA0?$AA0?$AA?$AA@ DB '0'
	DB	00H, '8', 00H, ' ', 00H, '0', 00H, '2', 00H, ' ', 00H, '0', 00H
	DB	'0', 00H, 00H, 00H				; `string'
CONST	ENDS
;	COMDAT ??_C@_1BC@ECEJJOCJ@?$AA0?$AA8?$AA?5?$AA0?$AA2?$AA?5?$AAF?$AAF?$AA?$AA@
CONST	SEGMENT
??_C@_1BC@ECEJJOCJ@?$AA0?$AA8?$AA?5?$AA0?$AA2?$AA?5?$AAF?$AAF?$AA?$AA@ DB '0'
	DB	00H, '8', 00H, ' ', 00H, '0', 00H, '2', 00H, ' ', 00H, 'F', 00H
	DB	'F', 00H, 00H, 00H				; `string'
CONST	ENDS
;	COMDAT ??_C@_1BC@DKFBDELG@?$AA0?$AA8?$AA?5?$AA0?$AA1?$AA?5?$AA0?$AA0?$AA?$AA@
CONST	SEGMENT
??_C@_1BC@DKFBDELG@?$AA0?$AA8?$AA?5?$AA0?$AA1?$AA?5?$AA0?$AA0?$AA?$AA@ DB '0'
	DB	00H, '8', 00H, ' ', 00H, '0', 00H, '1', 00H, ' ', 00H, '0', 00H
	DB	'0', 00H, 00H, 00H				; `string'
CONST	ENDS
;	COMDAT ??_C@_1BC@KJHOCFCK@?$AA0?$AA8?$AA?5?$AA0?$AA1?$AA?5?$AAF?$AAF?$AA?$AA@
CONST	SEGMENT
??_C@_1BC@KJHOCFCK@?$AA0?$AA8?$AA?5?$AA0?$AA1?$AA?5?$AAF?$AAF?$AA?$AA@ DB '0'
	DB	00H, '8', 00H, ' ', 00H, '0', 00H, '1', 00H, ' ', 00H, 'F', 00H
	DB	'F', 00H, 00H, 00H				; `string'
CONST	ENDS
;	COMDAT ??_C@_1BC@NFJDFPII@?$AA0?$AA8?$AA?5?$AA0?$AA0?$AA?5?$AA0?$AA0?$AA?$AA@
CONST	SEGMENT
??_C@_1BC@NFJDFPII@?$AA0?$AA8?$AA?5?$AA0?$AA0?$AA?5?$AA0?$AA0?$AA?$AA@ DB '0'
	DB	00H, '8', 00H, ' ', 00H, '0', 00H, '0', 00H, ' ', 00H, '0', 00H
	DB	'0', 00H, 00H, 00H				; `string'
CONST	ENDS
;	COMDAT ??_C@_1BC@EGLMEOBE@?$AA0?$AA8?$AA?5?$AA0?$AA0?$AA?5?$AAF?$AAF?$AA?$AA@
CONST	SEGMENT
??_C@_1BC@EGLMEOBE@?$AA0?$AA8?$AA?5?$AA0?$AA0?$AA?5?$AAF?$AAF?$AA?$AA@ DB '0'
	DB	00H, '8', 00H, ' ', 00H, '0', 00H, '0', 00H, ' ', 00H, 'F', 00H
	DB	'F', 00H, 00H, 00H				; `string'
CONST	ENDS
;	COMDAT ??_C@_1M@OHNAJINM@?$AA5?$AAA?$AA?5?$AAF?$AAF?$AA?$AA@
CONST	SEGMENT
??_C@_1M@OHNAJINM@?$AA5?$AAA?$AA?5?$AAF?$AAF?$AA?$AA@ DB '5', 00H, 'A', 00H
	DB	' ', 00H, 'F', 00H, 'F', 00H, 00H, 00H	; `string'
CONST	ENDS
;	COMDAT ??_C@_1M@OFLHFOCK@?$AA0?$AAE?$AA?5?$AA0?$AA0?$AA?$AA@
CONST	SEGMENT
??_C@_1M@OFLHFOCK@?$AA0?$AAE?$AA?5?$AA0?$AA0?$AA?$AA@ DB '0', 00H, 'E', 00H
	DB	' ', 00H, '0', 00H, '0', 00H, 00H, 00H	; `string'
CONST	ENDS
;	COMDAT ??_C@_1M@BIMAJKPK@?$AA0?$AAD?$AA?5?$AA0?$AA3?$AA?$AA@
CONST	SEGMENT
??_C@_1M@BIMAJKPK@?$AA0?$AAD?$AA?5?$AA0?$AA3?$AA?$AA@ DB '0', 00H, 'D', 00H
	DB	' ', 00H, '0', 00H, '3', 00H, 00H, 00H	; `string'
CONST	ENDS
;	COMDAT ??_C@_1M@KAHMPNJP@?$AA0?$AAD?$AA?5?$AA0?$AA2?$AA?$AA@
CONST	SEGMENT
??_C@_1M@KAHMPNJP@?$AA0?$AAD?$AA?5?$AA0?$AA2?$AA?$AA@ DB '0', 00H, 'D', 00H
	DB	' ', 00H, '0', 00H, '2', 00H, 00H, 00H	; `string'
CONST	ENDS
;	COMDAT ??_C@_1M@LCMJFCHB@?$AA0?$AAD?$AA?5?$AA0?$AA1?$AA?$AA@
CONST	SEGMENT
??_C@_1M@LCMJFCHB@?$AA0?$AAD?$AA?5?$AA0?$AA1?$AA?$AA@ DB '0', 00H, 'D', 00H
	DB	' ', 00H, '0', 00H, '1', 00H, 00H, 00H	; `string'
CONST	ENDS
;	COMDAT ??_C@_1M@KHFDFBE@?$AA0?$AAD?$AA?5?$AA0?$AA0?$AA?$AA@
CONST	SEGMENT
??_C@_1M@KHFDFBE@?$AA0?$AAD?$AA?5?$AA0?$AA0?$AA?$AA@ DB '0', 00H, 'D', 00H
	DB	' ', 00H, '0', 00H, '0', 00H, 00H, 00H	; `string'
CONST	ENDS
;	COMDAT ??_C@_1BC@LPOMKMBC@?$AA0?$AAC?$AA?5?$AA0?$AA1?$AA?5?$AA0?$AA0?$AA?$AA@
CONST	SEGMENT
??_C@_1BC@LPOMKMBC@?$AA0?$AAC?$AA?5?$AA0?$AA1?$AA?5?$AA0?$AA0?$AA?$AA@ DB '0'
	DB	00H, 'C', 00H, ' ', 00H, '0', 00H, '1', 00H, ' ', 00H, '0', 00H
	DB	'0', 00H, 00H, 00H				; `string'
CONST	ENDS
;	COMDAT ??_C@_1BC@CMMDLNIO@?$AA0?$AAC?$AA?5?$AA0?$AA1?$AA?5?$AAF?$AAF?$AA?$AA@
CONST	SEGMENT
??_C@_1BC@CMMDLNIO@?$AA0?$AAC?$AA?5?$AA0?$AA1?$AA?5?$AAF?$AAF?$AA?$AA@ DB '0'
	DB	00H, 'C', 00H, ' ', 00H, '0', 00H, '1', 00H, ' ', 00H, 'F', 00H
	DB	'F', 00H, 00H, 00H				; `string'
CONST	ENDS
;	COMDAT ??_C@_1BC@FACOMHCM@?$AA0?$AAC?$AA?5?$AA0?$AA0?$AA?5?$AA0?$AA0?$AA?$AA@
CONST	SEGMENT
??_C@_1BC@FACOMHCM@?$AA0?$AAC?$AA?5?$AA0?$AA0?$AA?5?$AA0?$AA0?$AA?$AA@ DB '0'
	DB	00H, 'C', 00H, ' ', 00H, '0', 00H, '0', 00H, ' ', 00H, '0', 00H
	DB	'0', 00H, 00H, 00H				; `string'
CONST	ENDS
;	COMDAT ??_C@_1BC@MDABNGLA@?$AA0?$AAC?$AA?5?$AA0?$AA0?$AA?5?$AAF?$AAF?$AA?$AA@
CONST	SEGMENT
??_C@_1BC@MDABNGLA@?$AA0?$AAC?$AA?5?$AA0?$AA0?$AA?5?$AAF?$AAF?$AA?$AA@ DB '0'
	DB	00H, 'C', 00H, ' ', 00H, '0', 00H, '0', 00H, ' ', 00H, 'F', 00H
	DB	'F', 00H, 00H, 00H				; `string'
CONST	ENDS
;	COMDAT ??_C@_1BC@FLHJDILC@?$AA0?$AA7?$AA?5?$AA0?$AA0?$AA?5?$AA0?$AA0?$AA?$AA@
CONST	SEGMENT
??_C@_1BC@FLHJDILC@?$AA0?$AA7?$AA?5?$AA0?$AA0?$AA?5?$AA0?$AA0?$AA?$AA@ DB '0'
	DB	00H, '7', 00H, ' ', 00H, '0', 00H, '0', 00H, ' ', 00H, '0', 00H
	DB	'0', 00H, 00H, 00H				; `string'
CONST	ENDS
;	COMDAT ??_C@_1BC@IIPKPPEL@?$AA0?$AA7?$AA?5?$AA0?$AA0?$AA?5?$AA0?$AAA?$AA?$AA@
CONST	SEGMENT
??_C@_1BC@IIPKPPEL@?$AA0?$AA7?$AA?5?$AA0?$AA0?$AA?5?$AA0?$AAA?$AA?$AA@ DB '0'
	DB	00H, '7', 00H, ' ', 00H, '0', 00H, '0', 00H, ' ', 00H, '0', 00H
	DB	'A', 00H, 00H, 00H				; `string'
CONST	ENDS
;	COMDAT ??_C@_1BC@INAJADLM@?$AA0?$AA6?$AA?5?$AA0?$AA3?$AA?5?$AAF?$AAF?$AA?$AA@
CONST	SEGMENT
??_C@_1BC@INAJADLM@?$AA0?$AA6?$AA?5?$AA0?$AA3?$AA?5?$AAF?$AAF?$AA?$AA@ DB '0'
	DB	00H, '6', 00H, ' ', 00H, '0', 00H, '3', 00H, ' ', 00H, 'F', 00H
	DB	'F', 00H, 00H, 00H				; `string'
CONST	ENDS
;	COMDAT ??_C@_1BC@BOCGBCCA@?$AA0?$AA6?$AA?5?$AA0?$AA3?$AA?5?$AA0?$AA0?$AA?$AA@
CONST	SEGMENT
??_C@_1BC@BOCGBCCA@?$AA0?$AA6?$AA?5?$AA0?$AA3?$AA?5?$AA0?$AA0?$AA?$AA@ DB '0'
	DB	00H, '6', 00H, ' ', 00H, '0', 00H, '3', 00H, ' ', 00H, '0', 00H
	DB	'0', 00H, 00H, 00H				; `string'
CONST	ENDS
;	COMDAT ??_C@_1BC@GCMLGIIC@?$AA0?$AA6?$AA?5?$AA0?$AA2?$AA?5?$AAF?$AAF?$AA?$AA@
CONST	SEGMENT
??_C@_1BC@GCMLGIIC@?$AA0?$AA6?$AA?5?$AA0?$AA2?$AA?5?$AAF?$AAF?$AA?$AA@ DB '0'
	DB	00H, '6', 00H, ' ', 00H, '0', 00H, '2', 00H, ' ', 00H, 'F', 00H
	DB	'F', 00H, 00H, 00H				; `string'
CONST	ENDS
;	COMDAT ??_C@_1BC@PBOEHJBO@?$AA0?$AA6?$AA?5?$AA0?$AA2?$AA?5?$AA0?$AA0?$AA?$AA@
CONST	SEGMENT
??_C@_1BC@PBOEHJBO@?$AA0?$AA6?$AA?5?$AA0?$AA2?$AA?5?$AA0?$AA0?$AA?$AA@ DB '0'
	DB	00H, '6', 00H, ' ', 00H, '0', 00H, '2', 00H, ' ', 00H, '0', 00H
	DB	'0', 00H, 00H, 00H				; `string'
CONST	ENDS
;	COMDAT ??_C@_1BC@IJPMNDIB@?$AA0?$AA6?$AA?5?$AA0?$AA1?$AA?5?$AAF?$AAF?$AA?$AA@
CONST	SEGMENT
??_C@_1BC@IJPMNDIB@?$AA0?$AA6?$AA?5?$AA0?$AA1?$AA?5?$AAF?$AAF?$AA?$AA@ DB '0'
	DB	00H, '6', 00H, ' ', 00H, '0', 00H, '1', 00H, ' ', 00H, 'F', 00H
	DB	'F', 00H, 00H, 00H				; `string'
CONST	ENDS
;	COMDAT ??_C@_1BC@BKNDMCBN@?$AA0?$AA6?$AA?5?$AA0?$AA1?$AA?5?$AA0?$AA0?$AA?$AA@
CONST	SEGMENT
??_C@_1BC@BKNDMCBN@?$AA0?$AA6?$AA?5?$AA0?$AA1?$AA?5?$AA0?$AA0?$AA?$AA@ DB '0'
	DB	00H, '6', 00H, ' ', 00H, '0', 00H, '1', 00H, ' ', 00H, '0', 00H
	DB	'0', 00H, 00H, 00H				; `string'
CONST	ENDS
;	COMDAT ??_C@_1BC@GGDOLILP@?$AA0?$AA6?$AA?5?$AA0?$AA0?$AA?5?$AAF?$AAF?$AA?$AA@
CONST	SEGMENT
??_C@_1BC@GGDOLILP@?$AA0?$AA6?$AA?5?$AA0?$AA0?$AA?5?$AAF?$AAF?$AA?$AA@ DB '0'
	DB	00H, '6', 00H, ' ', 00H, '0', 00H, '0', 00H, ' ', 00H, 'F', 00H
	DB	'F', 00H, 00H, 00H				; `string'
CONST	ENDS
;	COMDAT ??_C@_1BC@PFBBKJCD@?$AA0?$AA6?$AA?5?$AA0?$AA0?$AA?5?$AA0?$AA0?$AA?$AA@
CONST	SEGMENT
??_C@_1BC@PFBBKJCD@?$AA0?$AA6?$AA?5?$AA0?$AA0?$AA?5?$AA0?$AA0?$AA?$AA@ DB '0'
	DB	00H, '6', 00H, ' ', 00H, '0', 00H, '0', 00H, ' ', 00H, '0', 00H
	DB	'0', 00H, 00H, 00H				; `string'
CONST	ENDS
;	COMDAT ??_C@_1M@BELHEFM@?$AA0?$AA5?$AA?5?$AA0?$AA3?$AA?$AA@
CONST	SEGMENT
??_C@_1M@BELHEFM@?$AA0?$AA5?$AA?5?$AA0?$AA3?$AA?$AA@ DB '0', 00H, '5', 00H
	DB	' ', 00H, '0', 00H, '3', 00H, 00H, 00H	; `string'
CONST	ENDS
;	COMDAT ??_C@_1M@LJPHBDDJ@?$AA0?$AA5?$AA?5?$AA0?$AA2?$AA?$AA@
CONST	SEGMENT
??_C@_1M@LJPHBDDJ@?$AA0?$AA5?$AA?5?$AA0?$AA2?$AA?$AA@ DB '0', 00H, '5', 00H
	DB	' ', 00H, '0', 00H, '2', 00H, 00H, 00H	; `string'
CONST	ENDS
;	COMDAT ??_C@_1M@KLECLMNH@?$AA0?$AA5?$AA?5?$AA0?$AA1?$AA?$AA@
CONST	SEGMENT
??_C@_1M@KLECLMNH@?$AA0?$AA5?$AA?5?$AA0?$AA1?$AA?$AA@ DB '0', 00H, '5', 00H
	DB	' ', 00H, '0', 00H, '1', 00H, 00H, 00H	; `string'
CONST	ENDS
;	COMDAT ??_C@_1M@BDPONLLC@?$AA0?$AA5?$AA?5?$AA0?$AA0?$AA?$AA@
CONST	SEGMENT
??_C@_1M@BDPONLLC@?$AA0?$AA5?$AA?5?$AA0?$AA0?$AA?$AA@ DB '0', 00H, '5', 00H
	DB	' ', 00H, '0', 00H, '0', 00H, 00H, 00H	; `string'
CONST	ENDS
;	COMDAT ??_C@_1BC@MMLJFDAN@?$AA0?$AA5?$AA?5?$AA0?$AAE?$AA?5?$AA0?$AA0?$AA?$AA@
CONST	SEGMENT
??_C@_1BC@MMLJFDAN@?$AA0?$AA5?$AA?5?$AA0?$AAE?$AA?5?$AA0?$AA0?$AA?$AA@ DB '0'
	DB	00H, '5', 00H, ' ', 00H, '0', 00H, 'E', 00H, ' ', 00H, '0', 00H
	DB	'0', 00H, 00H, 00H				; `string'
CONST	ENDS
;	COMDAT ??_C@_1BC@FPJGECJB@?$AA0?$AA5?$AA?5?$AA0?$AAE?$AA?5?$AAF?$AAF?$AA?$AA@
CONST	SEGMENT
??_C@_1BC@FPJGECJB@?$AA0?$AA5?$AA?5?$AA0?$AAE?$AA?5?$AAF?$AAF?$AA?$AA@ DB '0'
	DB	00H, '5', 00H, ' ', 00H, '0', 00H, 'E', 00H, ' ', 00H, 'F', 00H
	DB	'F', 00H, 00H, 00H				; `string'
CONST	ENDS
;	COMDAT ??_C@_1BC@CDHLDIDD@?$AA0?$AA5?$AA?5?$AA0?$AAD?$AA?5?$AA0?$AA0?$AA?$AA@
CONST	SEGMENT
??_C@_1BC@CDHLDIDD@?$AA0?$AA5?$AA?5?$AA0?$AAD?$AA?5?$AA0?$AA0?$AA?$AA@ DB '0'
	DB	00H, '5', 00H, ' ', 00H, '0', 00H, 'D', 00H, ' ', 00H, '0', 00H
	DB	'0', 00H, 00H, 00H				; `string'
CONST	ENDS
;	COMDAT ??_C@_1BC@LAFECJKP@?$AA0?$AA5?$AA?5?$AA0?$AAD?$AA?5?$AAF?$AAF?$AA?$AA@
CONST	SEGMENT
??_C@_1BC@LAFECJKP@?$AA0?$AA5?$AA?5?$AA0?$AAD?$AA?5?$AAF?$AAF?$AA?$AA@ DB '0'
	DB	00H, '5', 00H, ' ', 00H, '0', 00H, 'D', 00H, ' ', 00H, 'F', 00H
	DB	'F', 00H, 00H, 00H				; `string'
CONST	ENDS
;	COMDAT ??_C@_1BC@MBKHCDEK@?$AA0?$AA5?$AA?5?$AA0?$AAC?$AA?5?$AA0?$AA0?$AA?$AA@
CONST	SEGMENT
??_C@_1BC@MBKHCDEK@?$AA0?$AA5?$AA?5?$AA0?$AAC?$AA?5?$AA0?$AA0?$AA?$AA@ DB '0'
	DB	00H, '5', 00H, ' ', 00H, '0', 00H, 'C', 00H, ' ', 00H, '0', 00H
	DB	'0', 00H, 00H, 00H				; `string'
CONST	ENDS
;	COMDAT ??_C@_1BC@FCIIDCNG@?$AA0?$AA5?$AA?5?$AA0?$AAC?$AA?5?$AAF?$AAF?$AA?$AA@
CONST	SEGMENT
??_C@_1BC@FCIIDCNG@?$AA0?$AA5?$AA?5?$AA0?$AAC?$AA?5?$AAF?$AAF?$AA?$AA@ DB '0'
	DB	00H, '5', 00H, ' ', 00H, '0', 00H, 'C', 00H, ' ', 00H, 'F', 00H
	DB	'F', 00H, 00H, 00H				; `string'
CONST	ENDS
;	COMDAT ??_C@_1BC@MPAOFNCF@?$AA0?$AA5?$AA?5?$AA0?$AA8?$AA?5?$AA0?$AA0?$AA?$AA@
CONST	SEGMENT
??_C@_1BC@MPAOFNCF@?$AA0?$AA5?$AA?5?$AA0?$AA8?$AA?5?$AA0?$AA0?$AA?$AA@ DB '0'
	DB	00H, '5', 00H, ' ', 00H, '0', 00H, '8', 00H, ' ', 00H, '0', 00H
	DB	'0', 00H, 00H, 00H				; `string'
CONST	ENDS
;	COMDAT ??_C@_1BC@FMCBEMLJ@?$AA0?$AA5?$AA?5?$AA0?$AA8?$AA?5?$AAF?$AAF?$AA?$AA@
CONST	SEGMENT
??_C@_1BC@FMCBEMLJ@?$AA0?$AA5?$AA?5?$AA0?$AA8?$AA?5?$AAF?$AAF?$AA?$AA@ DB '0'
	DB	00H, '5', 00H, ' ', 00H, '0', 00H, '8', 00H, ' ', 00H, 'F', 00H
	DB	'F', 00H, 00H, 00H				; `string'
CONST	ENDS
;	COMDAT ??_C@_1BC@DOAFAGKI@?$AA0?$AA5?$AA?5?$AA0?$AA7?$AA?5?$AA0?$AA0?$AA?$AA@
CONST	SEGMENT
??_C@_1BC@DOAFAGKI@?$AA0?$AA5?$AA?5?$AA0?$AA7?$AA?5?$AA0?$AA0?$AA?$AA@ DB '0'
	DB	00H, '5', 00H, ' ', 00H, '0', 00H, '7', 00H, ' ', 00H, '0', 00H
	DB	'0', 00H, 00H, 00H				; `string'
CONST	ENDS
;	COMDAT ??_C@_1BC@KNCKBHDE@?$AA0?$AA5?$AA?5?$AA0?$AA7?$AA?5?$AAF?$AAF?$AA?$AA@
CONST	SEGMENT
??_C@_1BC@KNCKBHDE@?$AA0?$AA5?$AA?5?$AA0?$AA7?$AA?5?$AAF?$AAF?$AA?$AA@ DB '0'
	DB	00H, '5', 00H, ' ', 00H, '0', 00H, '7', 00H, ' ', 00H, 'F', 00H
	DB	'F', 00H, 00H, 00H				; `string'
CONST	ENDS
;	COMDAT ??_C@_1M@CCAABKIP@?$AA0?$AAB?$AA?5?$AA0?$AA6?$AA?$AA@
CONST	SEGMENT
??_C@_1M@CCAABKIP@?$AA0?$AAB?$AA?5?$AA0?$AA6?$AA?$AA@ DB '0', 00H, 'B', 00H
	DB	' ', 00H, '0', 00H, '6', 00H, 00H, 00H	; `string'
CONST	ENDS
;	COMDAT ??_C@_1M@JKLMHNOK@?$AA0?$AAB?$AA?5?$AA0?$AA7?$AA?$AA@
CONST	SEGMENT
??_C@_1M@JKLMHNOK@?$AA0?$AAB?$AA?5?$AA0?$AA7?$AA?$AA@ DB '0', 00H, 'B', 00H
	DB	' ', 00H, '0', 00H, '7', 00H, 00H, 00H	; `string'
CONST	ENDS
;	COMDAT ??_C@_1M@DALFLFGB@?$AA0?$AAB?$AA?5?$AA0?$AA5?$AA?$AA@
CONST	SEGMENT
??_C@_1M@DALFLFGB@?$AA0?$AAB?$AA?5?$AA0?$AA5?$AA?$AA@ DB '0', 00H, 'B', 00H
	DB	' ', 00H, '0', 00H, '5', 00H, 00H, 00H	; `string'
CONST	ENDS
;	COMDAT ??_C@_1M@IIAJNCAE@?$AA0?$AAB?$AA?5?$AA0?$AA4?$AA?$AA@
CONST	SEGMENT
??_C@_1M@IIAJNCAE@?$AA0?$AAB?$AA?5?$AA0?$AA4?$AA?$AA@ DB '0', 00H, 'B', 00H
	DB	' ', 00H, '0', 00H, '4', 00H, 00H, 00H	; `string'
CONST	ENDS
;	COMDAT ??_C@_1M@BFNOOKLN@?$AA0?$AAB?$AA?5?$AA0?$AA3?$AA?$AA@
CONST	SEGMENT
??_C@_1M@BFNOOKLN@?$AA0?$AAB?$AA?5?$AA0?$AA3?$AA?$AA@ DB '0', 00H, 'B', 00H
	DB	' ', 00H, '0', 00H, '3', 00H, 00H, 00H	; `string'
CONST	ENDS
;	COMDAT ??_C@_1M@KNGCINNI@?$AA0?$AAB?$AA?5?$AA0?$AA2?$AA?$AA@
CONST	SEGMENT
??_C@_1M@KNGCINNI@?$AA0?$AAB?$AA?5?$AA0?$AA2?$AA?$AA@ DB '0', 00H, 'B', 00H
	DB	' ', 00H, '0', 00H, '2', 00H, 00H, 00H	; `string'
CONST	ENDS
;	COMDAT ??_C@_1M@LPNHCCDG@?$AA0?$AAB?$AA?5?$AA0?$AA1?$AA?$AA@
CONST	SEGMENT
??_C@_1M@LPNHCCDG@?$AA0?$AAB?$AA?5?$AA0?$AA1?$AA?$AA@ DB '0', 00H, 'B', 00H
	DB	' ', 00H, '0', 00H, '1', 00H, 00H, 00H	; `string'
CONST	ENDS
;	COMDAT ??_C@_1M@HGLEFFD@?$AA0?$AAB?$AA?5?$AA0?$AA0?$AA?$AA@
CONST	SEGMENT
??_C@_1M@HGLEFFD@?$AA0?$AAB?$AA?5?$AA0?$AA0?$AA?$AA@ DB '0', 00H, 'B', 00H
	DB	' ', 00H, '0', 00H, '0', 00H, 00H, 00H	; `string'
CONST	ENDS
;	COMDAT ??_C@_15INLCFBGC@?$AA0?$AA5?$AA?$AA@
CONST	SEGMENT
??_C@_15INLCFBGC@?$AA0?$AA5?$AA?$AA@ DB '0', 00H, '5', 00H, 00H, 00H ; `string'
CONST	ENDS
;	COMDAT ??_C@_1M@LCGIEPMM@?$AA0?$AA4?$AA?5?$AA0?$AAF?$AA?$AA@
CONST	SEGMENT
??_C@_1M@LCGIEPMM@?$AA0?$AA4?$AA?5?$AA0?$AAF?$AA?$AA@ DB '0', 00H, '4', 00H
	DB	' ', 00H, '0', 00H, 'F', 00H, 00H, 00H	; `string'
CONST	ENDS
;	COMDAT ??_C@_1M@KANNOACC@?$AA0?$AA4?$AA?5?$AA0?$AAE?$AA?$AA@
CONST	SEGMENT
??_C@_1M@KANNOACC@?$AA0?$AA4?$AA?5?$AA0?$AAE?$AA?$AA@ DB '0', 00H, '4', 00H
	DB	' ', 00H, '0', 00H, 'E', 00H, 00H, 00H	; `string'
CONST	ENDS
;	COMDAT ??_C@_1M@BIGBIHEH@?$AA0?$AA4?$AA?5?$AA0?$AAD?$AA?$AA@
CONST	SEGMENT
??_C@_1M@BIGBIHEH@?$AA0?$AA4?$AA?5?$AA0?$AAD?$AA?$AA@ DB '0', 00H, '4', 00H
	DB	' ', 00H, '0', 00H, 'D', 00H, 00H, 00H	; `string'
CONST	ENDS
;	COMDAT ??_C@_1M@IFLGLPPO@?$AA0?$AA4?$AA?5?$AA0?$AAC?$AA?$AA@
CONST	SEGMENT
??_C@_1M@IFLGLPPO@?$AA0?$AA4?$AA?5?$AA0?$AAC?$AA?$AA@ DB '0', 00H, '4', 00H
	DB	' ', 00H, '0', 00H, 'C', 00H, 00H, 00H	; `string'
CONST	ENDS
;	COMDAT ??_C@_1M@DNAKNIJL@?$AA0?$AA4?$AA?5?$AA0?$AAB?$AA?$AA@
CONST	SEGMENT
??_C@_1M@DNAKNIJL@?$AA0?$AA4?$AA?5?$AA0?$AAB?$AA?$AA@ DB '0', 00H, '4', 00H
	DB	' ', 00H, '0', 00H, 'B', 00H, 00H, 00H	; `string'
CONST	ENDS
;	COMDAT ??_C@_1M@IBDEPPAG@?$AA0?$AA4?$AA?5?$AA0?$AA9?$AA?$AA@
CONST	SEGMENT
??_C@_1M@IBDEPPAG@?$AA0?$AA4?$AA?5?$AA0?$AA9?$AA?$AA@ DB '0', 00H, '4', 00H
	DB	' ', 00H, '0', 00H, '9', 00H, 00H, 00H	; `string'
CONST	ENDS
;	COMDAT ??_C@_1M@DJIIJIGD@?$AA0?$AA4?$AA?5?$AA0?$AA8?$AA?$AA@
CONST	SEGMENT
??_C@_1M@DJIIJIGD@?$AA0?$AA4?$AA?5?$AA0?$AA8?$AA?$AA@ DB '0', 00H, '4', 00H
	DB	' ', 00H, '0', 00H, '8', 00H, 00H, 00H	; `string'
CONST	ENDS
;	COMDAT ??_C@_1M@GBOLIIDF@?$AA0?$AA4?$AA?5?$AA0?$AA7?$AA?$AA@
CONST	SEGMENT
??_C@_1M@GBOLIIDF@?$AA0?$AA4?$AA?5?$AA0?$AA7?$AA?$AA@ DB '0', 00H, '4', 00H
	DB	' ', 00H, '0', 00H, '7', 00H, 00H, 00H	; `string'
CONST	ENDS
;	COMDAT ??_C@_1M@NJFHOPFA@?$AA0?$AA4?$AA?5?$AA0?$AA6?$AA?$AA@
CONST	SEGMENT
??_C@_1M@NJFHOPFA@?$AA0?$AA4?$AA?5?$AA0?$AA6?$AA?$AA@ DB '0', 00H, '4', 00H
	DB	' ', 00H, '0', 00H, '6', 00H, 00H, 00H	; `string'
CONST	ENDS
;	COMDAT ??_C@_1M@MLOCEALO@?$AA0?$AA4?$AA?5?$AA0?$AA5?$AA?$AA@
CONST	SEGMENT
??_C@_1M@MLOCEALO@?$AA0?$AA4?$AA?5?$AA0?$AA5?$AA?$AA@ DB '0', 00H, '4', 00H
	DB	' ', 00H, '0', 00H, '5', 00H, 00H, 00H	; `string'
CONST	ENDS
;	COMDAT ??_C@_1M@HDFOCHNL@?$AA0?$AA4?$AA?5?$AA0?$AA4?$AA?$AA@
CONST	SEGMENT
??_C@_1M@HDFOCHNL@?$AA0?$AA4?$AA?5?$AA0?$AA4?$AA?$AA@ DB '0', 00H, '4', 00H
	DB	' ', 00H, '0', 00H, '4', 00H, 00H, 00H	; `string'
CONST	ENDS
;	COMDAT ??_C@_1M@FGDFHIAH@?$AA0?$AA4?$AA?5?$AA0?$AA2?$AA?$AA@
CONST	SEGMENT
??_C@_1M@FGDFHIAH@?$AA0?$AA4?$AA?5?$AA0?$AA2?$AA?$AA@ DB '0', 00H, '4', 00H
	DB	' ', 00H, '0', 00H, '2', 00H, 00H, 00H	; `string'
CONST	ENDS
;	COMDAT ??_C@_1M@EEIANHOJ@?$AA0?$AA4?$AA?5?$AA0?$AA1?$AA?$AA@
CONST	SEGMENT
??_C@_1M@EEIANHOJ@?$AA0?$AA4?$AA?5?$AA0?$AA1?$AA?$AA@ DB '0', 00H, '4', 00H
	DB	' ', 00H, '0', 00H, '1', 00H, 00H, 00H	; `string'
CONST	ENDS
;	COMDAT ??_C@_1M@PMDMLAIM@?$AA0?$AA4?$AA?5?$AA0?$AA0?$AA?$AA@
CONST	SEGMENT
??_C@_1M@PMDMLAIM@?$AA0?$AA4?$AA?5?$AA0?$AA0?$AA?$AA@ DB '0', 00H, '4', 00H
	DB	' ', 00H, '0', 00H, '0', 00H, 00H, 00H	; `string'
CONST	ENDS
;	COMDAT ??_C@_1BC@IJOGHJJP@?$AA0?$AA4?$AA?5?$AA0?$AAF?$AA?5?$AA0?$AA0?$AA?$AA@
CONST	SEGMENT
??_C@_1BC@IJOGHJJP@?$AA0?$AA4?$AA?5?$AA0?$AAF?$AA?5?$AA0?$AA0?$AA?$AA@ DB '0'
	DB	00H, '4', 00H, ' ', 00H, '0', 00H, 'F', 00H, ' ', 00H, '0', 00H
	DB	'0', 00H, 00H, 00H				; `string'
CONST	ENDS
;	COMDAT ??_C@_1BC@BKMJGIAD@?$AA0?$AA4?$AA?5?$AA0?$AAF?$AA?5?$AAF?$AAF?$AA?$AA@
CONST	SEGMENT
??_C@_1BC@BKMJGIAD@?$AA0?$AA4?$AA?5?$AA0?$AAF?$AA?5?$AAF?$AAF?$AA?$AA@ DB '0'
	DB	00H, '4', 00H, ' ', 00H, '0', 00H, 'F', 00H, ' ', 00H, 'F', 00H
	DB	'F', 00H, 00H, 00H				; `string'
CONST	ENDS
;	COMDAT ??_C@_1BC@GCNBMCJM@?$AA0?$AA4?$AA?5?$AA0?$AAE?$AA?5?$AA0?$AA0?$AA?$AA@
CONST	SEGMENT
??_C@_1BC@GCNBMCJM@?$AA0?$AA4?$AA?5?$AA0?$AAE?$AA?5?$AA0?$AA0?$AA?$AA@ DB '0'
	DB	00H, '4', 00H, ' ', 00H, '0', 00H, 'E', 00H, ' ', 00H, '0', 00H
	DB	'0', 00H, 00H, 00H				; `string'
CONST	ENDS
;	COMDAT ??_C@_1BC@PBPONDAA@?$AA0?$AA4?$AA?5?$AA0?$AAE?$AA?5?$AAF?$AAF?$AA?$AA@
CONST	SEGMENT
??_C@_1BC@PBPONDAA@?$AA0?$AA4?$AA?5?$AA0?$AAE?$AA?5?$AAF?$AAF?$AA?$AA@ DB '0'
	DB	00H, '4', 00H, ' ', 00H, '0', 00H, 'E', 00H, ' ', 00H, 'F', 00H
	DB	'F', 00H, 00H, 00H				; `string'
CONST	ENDS
;	COMDAT ??_C@_1BC@INBDKJKC@?$AA0?$AA4?$AA?5?$AA0?$AAD?$AA?5?$AA0?$AA0?$AA?$AA@
CONST	SEGMENT
??_C@_1BC@INBDKJKC@?$AA0?$AA4?$AA?5?$AA0?$AAD?$AA?5?$AA0?$AA0?$AA?$AA@ DB '0'
	DB	00H, '4', 00H, ' ', 00H, '0', 00H, 'D', 00H, ' ', 00H, '0', 00H
	DB	'0', 00H, 00H, 00H				; `string'
CONST	ENDS
;	COMDAT ??_C@_1BC@BODMLIDO@?$AA0?$AA4?$AA?5?$AA0?$AAD?$AA?5?$AAF?$AAF?$AA?$AA@
CONST	SEGMENT
??_C@_1BC@BODMLIDO@?$AA0?$AA4?$AA?5?$AA0?$AAD?$AA?5?$AAF?$AAF?$AA?$AA@ DB '0'
	DB	00H, '4', 00H, ' ', 00H, '0', 00H, 'D', 00H, ' ', 00H, 'F', 00H
	DB	'F', 00H, 00H, 00H				; `string'
CONST	ENDS
;	COMDAT ??_C@_1BC@GPMPLCNL@?$AA0?$AA4?$AA?5?$AA0?$AAC?$AA?5?$AA0?$AA0?$AA?$AA@
CONST	SEGMENT
??_C@_1BC@GPMPLCNL@?$AA0?$AA4?$AA?5?$AA0?$AAC?$AA?5?$AA0?$AA0?$AA?$AA@ DB '0'
	DB	00H, '4', 00H, ' ', 00H, '0', 00H, 'C', 00H, ' ', 00H, '0', 00H
	DB	'0', 00H, 00H, 00H				; `string'
CONST	ENDS
;	COMDAT ??_C@_1BC@PMOAKDEH@?$AA0?$AA4?$AA?5?$AA0?$AAC?$AA?5?$AAF?$AAF?$AA?$AA@
CONST	SEGMENT
??_C@_1BC@PMOAKDEH@?$AA0?$AA4?$AA?5?$AA0?$AAC?$AA?5?$AAF?$AAF?$AA?$AA@ DB '0'
	DB	00H, '4', 00H, ' ', 00H, '0', 00H, 'C', 00H, ' ', 00H, 'F', 00H
	DB	'F', 00H, 00H, 00H				; `string'
CONST	ENDS
;	COMDAT ??_C@_1BC@IAANNJOF@?$AA0?$AA4?$AA?5?$AA0?$AAB?$AA?5?$AA0?$AA0?$AA?$AA@
CONST	SEGMENT
??_C@_1BC@IAANNJOF@?$AA0?$AA4?$AA?5?$AA0?$AAB?$AA?5?$AA0?$AA0?$AA?$AA@ DB '0'
	DB	00H, '4', 00H, ' ', 00H, '0', 00H, 'B', 00H, ' ', 00H, '0', 00H
	DB	'0', 00H, 00H, 00H				; `string'
CONST	ENDS
;	COMDAT ??_C@_1BC@BDCCMIHJ@?$AA0?$AA4?$AA?5?$AA0?$AAB?$AA?5?$AAF?$AAF?$AA?$AA@
CONST	SEGMENT
??_C@_1BC@BDCCMIHJ@?$AA0?$AA4?$AA?5?$AA0?$AAB?$AA?5?$AAF?$AAF?$AA?$AA@ DB '0'
	DB	00H, '4', 00H, ' ', 00H, '0', 00H, 'B', 00H, ' ', 00H, 'F', 00H
	DB	'F', 00H, 00H, 00H				; `string'
CONST	ENDS
;	COMDAT ??_C@_1M@CPLPHHHF@?$AA0?$AA4?$AA?5?$AA0?$AAA?$AA?$AA@
CONST	SEGMENT
??_C@_1M@CPLPHHHF@?$AA0?$AA4?$AA?5?$AA0?$AAA?$AA?$AA@ DB '0', 00H, '4', 00H
	DB	' ', 00H, '0', 00H, 'A', 00H, 00H, 00H	; `string'
CONST	ENDS
;	COMDAT ??_C@_1BC@IOKEKHIK@?$AA0?$AA4?$AA?5?$AA0?$AA9?$AA?5?$AA0?$AA0?$AA?$AA@
CONST	SEGMENT
??_C@_1BC@IOKEKHIK@?$AA0?$AA4?$AA?5?$AA0?$AA9?$AA?5?$AA0?$AA0?$AA?$AA@ DB '0'
	DB	00H, '4', 00H, ' ', 00H, '0', 00H, '9', 00H, ' ', 00H, '0', 00H
	DB	'0', 00H, 00H, 00H				; `string'
CONST	ENDS
;	COMDAT ??_C@_1BC@BNILLGBG@?$AA0?$AA4?$AA?5?$AA0?$AA9?$AA?5?$AAF?$AAF?$AA?$AA@
CONST	SEGMENT
??_C@_1BC@BNILLGBG@?$AA0?$AA4?$AA?5?$AA0?$AA9?$AA?5?$AAF?$AAF?$AA?$AA@ DB '0'
	DB	00H, '4', 00H, ' ', 00H, '0', 00H, '9', 00H, ' ', 00H, 'F', 00H
	DB	'F', 00H, 00H, 00H				; `string'
CONST	ENDS
;	COMDAT ??_C@_1BC@GBGGMMLE@?$AA0?$AA4?$AA?5?$AA0?$AA8?$AA?5?$AA0?$AA0?$AA?$AA@
CONST	SEGMENT
??_C@_1BC@GBGGMMLE@?$AA0?$AA4?$AA?5?$AA0?$AA8?$AA?5?$AA0?$AA0?$AA?$AA@ DB '0'
	DB	00H, '4', 00H, ' ', 00H, '0', 00H, '8', 00H, ' ', 00H, '0', 00H
	DB	'0', 00H, 00H, 00H				; `string'
CONST	ENDS
;	COMDAT ??_C@_1BC@PCEJNNCI@?$AA0?$AA4?$AA?5?$AA0?$AA8?$AA?5?$AAF?$AAF?$AA?$AA@
CONST	SEGMENT
??_C@_1BC@PCEJNNCI@?$AA0?$AA4?$AA?5?$AA0?$AA8?$AA?5?$AAF?$AAF?$AA?$AA@ DB '0'
	DB	00H, '4', 00H, ' ', 00H, '0', 00H, '8', 00H, ' ', 00H, 'F', 00H
	DB	'F', 00H, 00H, 00H				; `string'
CONST	ENDS
;	COMDAT ??_C@_1BC@JAGNJHDJ@?$AA0?$AA4?$AA?5?$AA0?$AA7?$AA?5?$AA0?$AA0?$AA?$AA@
CONST	SEGMENT
??_C@_1BC@JAGNJHDJ@?$AA0?$AA4?$AA?5?$AA0?$AA7?$AA?5?$AA0?$AA0?$AA?$AA@ DB '0'
	DB	00H, '4', 00H, ' ', 00H, '0', 00H, '7', 00H, ' ', 00H, '0', 00H
	DB	'0', 00H, 00H, 00H				; `string'
CONST	ENDS
;	COMDAT ??_C@_1BC@DECIGKF@?$AA0?$AA4?$AA?5?$AA0?$AA7?$AA?5?$AAF?$AAF?$AA?$AA@
CONST	SEGMENT
??_C@_1BC@DECIGKF@?$AA0?$AA4?$AA?5?$AA0?$AA7?$AA?5?$AAF?$AAF?$AA?$AA@ DB '0'
	DB	00H, '4', 00H, ' ', 00H, '0', 00H, '7', 00H, ' ', 00H, 'F', 00H
	DB	'F', 00H, 00H, 00H				; `string'
CONST	ENDS
;	COMDAT ??_C@_1BC@HPKPPMAH@?$AA0?$AA4?$AA?5?$AA0?$AA6?$AA?5?$AA0?$AA0?$AA?$AA@
CONST	SEGMENT
??_C@_1BC@HPKPPMAH@?$AA0?$AA4?$AA?5?$AA0?$AA6?$AA?5?$AA0?$AA0?$AA?$AA@ DB '0'
	DB	00H, '4', 00H, ' ', 00H, '0', 00H, '6', 00H, ' ', 00H, '0', 00H
	DB	'0', 00H, 00H, 00H				; `string'
CONST	ENDS
;	COMDAT ??_C@_1BC@OMIAONJL@?$AA0?$AA4?$AA?5?$AA0?$AA6?$AA?5?$AAF?$AAF?$AA?$AA@
CONST	SEGMENT
??_C@_1BC@OMIAONJL@?$AA0?$AA4?$AA?5?$AA0?$AA6?$AA?5?$AAF?$AAF?$AA?$AA@ DB '0'
	DB	00H, '4', 00H, ' ', 00H, '0', 00H, '6', 00H, ' ', 00H, 'F', 00H
	DB	'F', 00H, 00H, 00H				; `string'
CONST	ENDS
;	COMDAT ??_C@_1BC@JEJIEHAE@?$AA0?$AA4?$AA?5?$AA0?$AA5?$AA?5?$AA0?$AA0?$AA?$AA@
CONST	SEGMENT
??_C@_1BC@JEJIEHAE@?$AA0?$AA4?$AA?5?$AA0?$AA5?$AA?5?$AA0?$AA0?$AA?$AA@ DB '0'
	DB	00H, '4', 00H, ' ', 00H, '0', 00H, '5', 00H, ' ', 00H, '0', 00H
	DB	'0', 00H, 00H, 00H				; `string'
CONST	ENDS
;	COMDAT ??_C@_1BC@HLHFGJI@?$AA0?$AA4?$AA?5?$AA0?$AA5?$AA?5?$AAF?$AAF?$AA?$AA@
CONST	SEGMENT
??_C@_1BC@HLHFGJI@?$AA0?$AA4?$AA?5?$AA0?$AA5?$AA?5?$AAF?$AAF?$AA?$AA@ DB '0'
	DB	00H, '4', 00H, ' ', 00H, '0', 00H, '5', 00H, ' ', 00H, 'F', 00H
	DB	'F', 00H, 00H, 00H				; `string'
CONST	ENDS
;	COMDAT ??_C@_1BC@HLFKCMDK@?$AA0?$AA4?$AA?5?$AA0?$AA4?$AA?5?$AA0?$AA0?$AA?$AA@
CONST	SEGMENT
??_C@_1BC@HLFKCMDK@?$AA0?$AA4?$AA?5?$AA0?$AA4?$AA?5?$AA0?$AA0?$AA?$AA@ DB '0'
	DB	00H, '4', 00H, ' ', 00H, '0', 00H, '4', 00H, ' ', 00H, '0', 00H
	DB	'0', 00H, 00H, 00H				; `string'
CONST	ENDS
;	COMDAT ??_C@_1BC@OIHFDNKG@?$AA0?$AA4?$AA?5?$AA0?$AA4?$AA?5?$AAF?$AAF?$AA?$AA@
CONST	SEGMENT
??_C@_1BC@OIHFDNKG@?$AA0?$AA4?$AA?5?$AA0?$AA4?$AA?5?$AAF?$AAF?$AA?$AA@ DB '0'
	DB	00H, '4', 00H, ' ', 00H, '0', 00H, '4', 00H, ' ', 00H, 'F', 00H
	DB	'F', 00H, 00H, 00H				; `string'
CONST	ENDS
;	COMDAT ??_C@_1M@OOIJBPGC@?$AA0?$AA4?$AA?5?$AA0?$AA3?$AA?$AA@
CONST	SEGMENT
??_C@_1M@OOIJBPGC@?$AA0?$AA4?$AA?5?$AA0?$AA3?$AA?$AA@ DB '0', 00H, '4', 00H
	DB	' ', 00H, '0', 00H, '3', 00H, 00H, 00H	; `string'
CONST	ENDS
;	COMDAT ??_C@_1BC@HGEEFMHN@?$AA0?$AA4?$AA?5?$AA0?$AA2?$AA?5?$AA0?$AA0?$AA?$AA@
CONST	SEGMENT
??_C@_1BC@HGEEFMHN@?$AA0?$AA4?$AA?5?$AA0?$AA2?$AA?5?$AA0?$AA0?$AA?$AA@ DB '0'
	DB	00H, '4', 00H, ' ', 00H, '0', 00H, '2', 00H, ' ', 00H, '0', 00H
	DB	'0', 00H, 00H, 00H				; `string'
CONST	ENDS
;	COMDAT ??_C@_1BC@OFGLENOB@?$AA0?$AA4?$AA?5?$AA0?$AA2?$AA?5?$AAF?$AAF?$AA?$AA@
CONST	SEGMENT
??_C@_1BC@OFGLENOB@?$AA0?$AA4?$AA?5?$AA0?$AA2?$AA?5?$AAF?$AAF?$AA?$AA@ DB '0'
	DB	00H, '4', 00H, ' ', 00H, '0', 00H, '2', 00H, ' ', 00H, 'F', 00H
	DB	'F', 00H, 00H, 00H				; `string'
CONST	ENDS
;	COMDAT ??_C@_1BC@JNHDOHHO@?$AA0?$AA4?$AA?5?$AA0?$AA1?$AA?5?$AA0?$AA0?$AA?$AA@
CONST	SEGMENT
??_C@_1BC@JNHDOHHO@?$AA0?$AA4?$AA?5?$AA0?$AA1?$AA?5?$AA0?$AA0?$AA?$AA@ DB '0'
	DB	00H, '4', 00H, ' ', 00H, '0', 00H, '1', 00H, ' ', 00H, '0', 00H
	DB	'0', 00H, 00H, 00H				; `string'
CONST	ENDS
;	COMDAT ??_C@_1BC@OFMPGOC@?$AA0?$AA4?$AA?5?$AA0?$AA1?$AA?5?$AAF?$AAF?$AA?$AA@
CONST	SEGMENT
??_C@_1BC@OFMPGOC@?$AA0?$AA4?$AA?5?$AA0?$AA1?$AA?5?$AAF?$AAF?$AA?$AA@ DB '0'
	DB	00H, '4', 00H, ' ', 00H, '0', 00H, '1', 00H, ' ', 00H, 'F', 00H
	DB	'F', 00H, 00H, 00H				; `string'
CONST	ENDS
;	COMDAT ??_C@_1BC@HCLBIMEA@?$AA0?$AA4?$AA?5?$AA0?$AA0?$AA?5?$AA0?$AA0?$AA?$AA@
CONST	SEGMENT
??_C@_1BC@HCLBIMEA@?$AA0?$AA4?$AA?5?$AA0?$AA0?$AA?5?$AA0?$AA0?$AA?$AA@ DB '0'
	DB	00H, '4', 00H, ' ', 00H, '0', 00H, '0', 00H, ' ', 00H, '0', 00H
	DB	'0', 00H, 00H, 00H				; `string'
CONST	ENDS
;	COMDAT ??_C@_1BC@OBJOJNNM@?$AA0?$AA4?$AA?5?$AA0?$AA0?$AA?5?$AAF?$AAF?$AA?$AA@
CONST	SEGMENT
??_C@_1BC@OBJOJNNM@?$AA0?$AA4?$AA?5?$AA0?$AA0?$AA?5?$AAF?$AAF?$AA?$AA@ DB '0'
	DB	00H, '4', 00H, ' ', 00H, '0', 00H, '0', 00H, ' ', 00H, 'F', 00H
	DB	'F', 00H, 00H, 00H				; `string'
CONST	ENDS
;	COMDAT ??_C@_1M@MFFAEBL@?$AA0?$AA3?$AA?5?$AA0?$AA3?$AA?$AA@
CONST	SEGMENT
??_C@_1M@MFFAEBL@?$AA0?$AA3?$AA?5?$AA0?$AA3?$AA?$AA@ DB '0', 00H, '3', 00H
	DB	' ', 00H, '0', 00H, '3', 00H, 00H, 00H	; `string'
CONST	ENDS
;	COMDAT ??_C@_1M@LEOJGDHO@?$AA0?$AA3?$AA?5?$AA0?$AA2?$AA?$AA@
CONST	SEGMENT
??_C@_1M@LEOJGDHO@?$AA0?$AA3?$AA?5?$AA0?$AA2?$AA?$AA@ DB '0', 00H, '3', 00H
	DB	' ', 00H, '0', 00H, '2', 00H, 00H, 00H	; `string'
CONST	ENDS
;	COMDAT ??_C@_1M@KGFMMMJA@?$AA0?$AA3?$AA?5?$AA0?$AA1?$AA?$AA@
CONST	SEGMENT
??_C@_1M@KGFMMMJA@?$AA0?$AA3?$AA?5?$AA0?$AA1?$AA?$AA@ DB '0', 00H, '3', 00H
	DB	' ', 00H, '0', 00H, '1', 00H, 00H, 00H	; `string'
CONST	ENDS
;	COMDAT ??_C@_1M@GCANNBFH@?$AA0?$AA2?$AA?5?$AAF?$AAF?$AA?$AA@
CONST	SEGMENT
??_C@_1M@GCANNBFH@?$AA0?$AA2?$AA?5?$AAF?$AAF?$AA?$AA@ DB '0', 00H, '2', 00H
	DB	' ', 00H, 'F', 00H, 'F', 00H, 00H, 00H	; `string'
CONST	ENDS
;	COMDAT ??_C@_1M@KHKJCLNH@?$AA0?$AA2?$AA?5?$AA1?$AA7?$AA?$AA@
CONST	SEGMENT
??_C@_1M@KHKJCLNH@?$AA0?$AA2?$AA?5?$AA1?$AA7?$AA?$AA@ DB '0', 00H, '2', 00H
	DB	' ', 00H, '1', 00H, '7', 00H, 00H, 00H	; `string'
CONST	ENDS
;	COMDAT ??_C@_1M@BPBFEMLC@?$AA0?$AA2?$AA?5?$AA1?$AA6?$AA?$AA@
CONST	SEGMENT
??_C@_1M@BPBFEMLC@?$AA0?$AA2?$AA?5?$AA1?$AA6?$AA?$AA@ DB '0', 00H, '2', 00H
	DB	' ', 00H, '1', 00H, '6', 00H, 00H, 00H	; `string'
CONST	ENDS
;	COMDAT ??_C@_1M@NKAODFM@?$AA0?$AA2?$AA?5?$AA1?$AA5?$AA?$AA@
CONST	SEGMENT
??_C@_1M@NKAODFM@?$AA0?$AA2?$AA?5?$AA1?$AA5?$AA?$AA@ DB '0', 00H, '2', 00H
	DB	' ', 00H, '1', 00H, '5', 00H, 00H, 00H	; `string'
CONST	ENDS
;	COMDAT ??_C@_1M@LFBMIEDJ@?$AA0?$AA2?$AA?5?$AA1?$AA4?$AA?$AA@
CONST	SEGMENT
??_C@_1M@LFBMIEDJ@?$AA0?$AA2?$AA?5?$AA1?$AA4?$AA?$AA@ DB '0', 00H, '2', 00H
	DB	' ', 00H, '1', 00H, '4', 00H, 00H, 00H	; `string'
CONST	ENDS
;	COMDAT ??_C@_1M@CIMLLMIA@?$AA0?$AA2?$AA?5?$AA1?$AA3?$AA?$AA@
CONST	SEGMENT
??_C@_1M@CIMLLMIA@?$AA0?$AA2?$AA?5?$AA1?$AA3?$AA?$AA@ DB '0', 00H, '2', 00H
	DB	' ', 00H, '1', 00H, '3', 00H, 00H, 00H	; `string'
CONST	ENDS
;	COMDAT ??_C@_1M@JAHHNLOF@?$AA0?$AA2?$AA?5?$AA1?$AA2?$AA?$AA@
CONST	SEGMENT
??_C@_1M@JAHHNLOF@?$AA0?$AA2?$AA?5?$AA1?$AA2?$AA?$AA@ DB '0', 00H, '2', 00H
	DB	' ', 00H, '1', 00H, '2', 00H, 00H, 00H	; `string'
CONST	ENDS
;	COMDAT ??_C@_1M@ICMCHEAL@?$AA0?$AA2?$AA?5?$AA1?$AA1?$AA?$AA@
CONST	SEGMENT
??_C@_1M@ICMCHEAL@?$AA0?$AA2?$AA?5?$AA1?$AA1?$AA?$AA@ DB '0', 00H, '2', 00H
	DB	' ', 00H, '1', 00H, '1', 00H, 00H, 00H	; `string'
CONST	ENDS
;	COMDAT ??_C@_1BC@FIFJLCLC@?$AA0?$AA2?$AA?5?$AA1?$AA7?$AA?5?$AA0?$AA0?$AA?$AA@
CONST	SEGMENT
??_C@_1BC@FIFJLCLC@?$AA0?$AA2?$AA?5?$AA1?$AA7?$AA?5?$AA0?$AA0?$AA?$AA@ DB '0'
	DB	00H, '2', 00H, ' ', 00H, '1', 00H, '7', 00H, ' ', 00H, '0', 00H
	DB	'0', 00H, 00H, 00H				; `string'
CONST	ENDS
;	COMDAT ??_C@_1BC@MLHGKDCO@?$AA0?$AA2?$AA?5?$AA1?$AA7?$AA?5?$AAF?$AAF?$AA?$AA@
CONST	SEGMENT
??_C@_1BC@MLHGKDCO@?$AA0?$AA2?$AA?5?$AA1?$AA7?$AA?5?$AAF?$AAF?$AA?$AA@ DB '0'
	DB	00H, '2', 00H, ' ', 00H, '1', 00H, '7', 00H, ' ', 00H, 'F', 00H
	DB	'F', 00H, 00H, 00H				; `string'
CONST	ENDS
;	COMDAT ??_C@_1BC@LHJLNJIM@?$AA0?$AA2?$AA?5?$AA1?$AA6?$AA?5?$AA0?$AA0?$AA?$AA@
CONST	SEGMENT
??_C@_1BC@LHJLNJIM@?$AA0?$AA2?$AA?5?$AA1?$AA6?$AA?5?$AA0?$AA0?$AA?$AA@ DB '0'
	DB	00H, '2', 00H, ' ', 00H, '1', 00H, '6', 00H, ' ', 00H, '0', 00H
	DB	'0', 00H, 00H, 00H				; `string'
CONST	ENDS
;	COMDAT ??_C@_1BC@CELEMIBA@?$AA0?$AA2?$AA?5?$AA1?$AA6?$AA?5?$AAF?$AAF?$AA?$AA@
CONST	SEGMENT
??_C@_1BC@CELEMIBA@?$AA0?$AA2?$AA?5?$AA1?$AA6?$AA?5?$AAF?$AAF?$AA?$AA@ DB '0'
	DB	00H, '2', 00H, ' ', 00H, '1', 00H, '6', 00H, ' ', 00H, 'F', 00H
	DB	'F', 00H, 00H, 00H				; `string'
CONST	ENDS
;	COMDAT ??_C@_1BC@FMKMGCIP@?$AA0?$AA2?$AA?5?$AA1?$AA5?$AA?5?$AA0?$AA0?$AA?$AA@
CONST	SEGMENT
??_C@_1BC@FMKMGCIP@?$AA0?$AA2?$AA?5?$AA1?$AA5?$AA?5?$AA0?$AA0?$AA?$AA@ DB '0'
	DB	00H, '2', 00H, ' ', 00H, '1', 00H, '5', 00H, ' ', 00H, '0', 00H
	DB	'0', 00H, 00H, 00H				; `string'
CONST	ENDS
;	COMDAT ??_C@_1BC@MPIDHDBD@?$AA0?$AA2?$AA?5?$AA1?$AA5?$AA?5?$AAF?$AAF?$AA?$AA@
CONST	SEGMENT
??_C@_1BC@MPIDHDBD@?$AA0?$AA2?$AA?5?$AA1?$AA5?$AA?5?$AAF?$AAF?$AA?$AA@ DB '0'
	DB	00H, '2', 00H, ' ', 00H, '1', 00H, '5', 00H, ' ', 00H, 'F', 00H
	DB	'F', 00H, 00H, 00H				; `string'
CONST	ENDS
;	COMDAT ??_C@_1BC@LDGOAJLB@?$AA0?$AA2?$AA?5?$AA1?$AA4?$AA?5?$AA0?$AA0?$AA?$AA@
CONST	SEGMENT
??_C@_1BC@LDGOAJLB@?$AA0?$AA2?$AA?5?$AA1?$AA4?$AA?5?$AA0?$AA0?$AA?$AA@ DB '0'
	DB	00H, '2', 00H, ' ', 00H, '1', 00H, '4', 00H, ' ', 00H, '0', 00H
	DB	'0', 00H, 00H, 00H				; `string'
CONST	ENDS
;	COMDAT ??_C@_1BC@CAEBBICN@?$AA0?$AA2?$AA?5?$AA1?$AA4?$AA?5?$AAF?$AAF?$AA?$AA@
CONST	SEGMENT
??_C@_1BC@CAEBBICN@?$AA0?$AA2?$AA?5?$AA1?$AA4?$AA?5?$AAF?$AAF?$AA?$AA@ DB '0'
	DB	00H, '2', 00H, ' ', 00H, '1', 00H, '4', 00H, ' ', 00H, 'F', 00H
	DB	'F', 00H, 00H, 00H				; `string'
CONST	ENDS
;	COMDAT ??_C@_1BC@FBLCBCMI@?$AA0?$AA2?$AA?5?$AA1?$AA3?$AA?5?$AA0?$AA0?$AA?$AA@
CONST	SEGMENT
??_C@_1BC@FBLCBCMI@?$AA0?$AA2?$AA?5?$AA1?$AA3?$AA?5?$AA0?$AA0?$AA?$AA@ DB '0'
	DB	00H, '2', 00H, ' ', 00H, '1', 00H, '3', 00H, ' ', 00H, '0', 00H
	DB	'0', 00H, 00H, 00H				; `string'
CONST	ENDS
;	COMDAT ??_C@_1BC@MCJNADFE@?$AA0?$AA2?$AA?5?$AA1?$AA3?$AA?5?$AAF?$AAF?$AA?$AA@
CONST	SEGMENT
??_C@_1BC@MCJNADFE@?$AA0?$AA2?$AA?5?$AA1?$AA3?$AA?5?$AAF?$AAF?$AA?$AA@ DB '0'
	DB	00H, '2', 00H, ' ', 00H, '1', 00H, '3', 00H, ' ', 00H, 'F', 00H
	DB	'F', 00H, 00H, 00H				; `string'
CONST	ENDS
;	COMDAT ??_C@_1BC@LOHAHJPG@?$AA0?$AA2?$AA?5?$AA1?$AA2?$AA?5?$AA0?$AA0?$AA?$AA@
CONST	SEGMENT
??_C@_1BC@LOHAHJPG@?$AA0?$AA2?$AA?5?$AA1?$AA2?$AA?5?$AA0?$AA0?$AA?$AA@ DB '0'
	DB	00H, '2', 00H, ' ', 00H, '1', 00H, '2', 00H, ' ', 00H, '0', 00H
	DB	'0', 00H, 00H, 00H				; `string'
CONST	ENDS
;	COMDAT ??_C@_1BC@CNFPGIGK@?$AA0?$AA2?$AA?5?$AA1?$AA2?$AA?5?$AAF?$AAF?$AA?$AA@
CONST	SEGMENT
??_C@_1BC@CNFPGIGK@?$AA0?$AA2?$AA?5?$AA1?$AA2?$AA?5?$AAF?$AAF?$AA?$AA@ DB '0'
	DB	00H, '2', 00H, ' ', 00H, '1', 00H, '2', 00H, ' ', 00H, 'F', 00H
	DB	'F', 00H, 00H, 00H				; `string'
CONST	ENDS
;	COMDAT ??_C@_1BC@FFEHMCPF@?$AA0?$AA2?$AA?5?$AA1?$AA1?$AA?5?$AA0?$AA0?$AA?$AA@
CONST	SEGMENT
??_C@_1BC@FFEHMCPF@?$AA0?$AA2?$AA?5?$AA1?$AA1?$AA?5?$AA0?$AA0?$AA?$AA@ DB '0'
	DB	00H, '2', 00H, ' ', 00H, '1', 00H, '1', 00H, ' ', 00H, '0', 00H
	DB	'0', 00H, 00H, 00H				; `string'
CONST	ENDS
;	COMDAT ??_C@_1BC@MGGINDGJ@?$AA0?$AA2?$AA?5?$AA1?$AA1?$AA?5?$AAF?$AAF?$AA?$AA@
CONST	SEGMENT
??_C@_1BC@MGGINDGJ@?$AA0?$AA2?$AA?5?$AA1?$AA1?$AA?5?$AAF?$AAF?$AA?$AA@ DB '0'
	DB	00H, '2', 00H, ' ', 00H, '1', 00H, '1', 00H, ' ', 00H, 'F', 00H
	DB	'F', 00H, 00H, 00H				; `string'
CONST	ENDS
;	COMDAT ??_C@_1M@ODJHGPCF@?$AA0?$AA2?$AA?5?$AA0?$AA3?$AA?$AA@
CONST	SEGMENT
??_C@_1M@ODJHGPCF@?$AA0?$AA2?$AA?5?$AA0?$AA3?$AA?$AA@ DB '0', 00H, '2', 00H
	DB	' ', 00H, '0', 00H, '3', 00H, 00H, 00H	; `string'
CONST	ENDS
;	COMDAT ??_C@_1M@FLCLAIEA@?$AA0?$AA2?$AA?5?$AA0?$AA2?$AA?$AA@
CONST	SEGMENT
??_C@_1M@FLCLAIEA@?$AA0?$AA2?$AA?5?$AA0?$AA2?$AA?$AA@ DB '0', 00H, '2', 00H
	DB	' ', 00H, '0', 00H, '2', 00H, 00H, 00H	; `string'
CONST	ENDS
;	COMDAT ??_C@_1M@EJJOKHKO@?$AA0?$AA2?$AA?5?$AA0?$AA1?$AA?$AA@
CONST	SEGMENT
??_C@_1M@EJJOKHKO@?$AA0?$AA2?$AA?5?$AA0?$AA1?$AA?$AA@ DB '0', 00H, '2', 00H
	DB	' ', 00H, '0', 00H, '1', 00H, 00H, 00H	; `string'
CONST	ENDS
;	COMDAT ??_C@_1BC@MKBHFOKH@?$AA0?$AA2?$AA?5?$AA0?$AA3?$AA?5?$AA0?$AA0?$AA?$AA@
CONST	SEGMENT
??_C@_1BC@MKBHFOKH@?$AA0?$AA2?$AA?5?$AA0?$AA3?$AA?5?$AA0?$AA0?$AA?$AA@ DB '0'
	DB	00H, '2', 00H, ' ', 00H, '0', 00H, '3', 00H, ' ', 00H, '0', 00H
	DB	'0', 00H, 00H, 00H				; `string'
CONST	ENDS
;	COMDAT ??_C@_1BC@FJDIEPDL@?$AA0?$AA2?$AA?5?$AA0?$AA3?$AA?5?$AAF?$AAF?$AA?$AA@
CONST	SEGMENT
??_C@_1BC@FJDIEPDL@?$AA0?$AA2?$AA?5?$AA0?$AA3?$AA?5?$AAF?$AAF?$AA?$AA@ DB '0'
	DB	00H, '2', 00H, ' ', 00H, '0', 00H, '3', 00H, ' ', 00H, 'F', 00H
	DB	'F', 00H, 00H, 00H				; `string'
CONST	ENDS
;	COMDAT ??_C@_1BC@CFNFDFJJ@?$AA0?$AA2?$AA?5?$AA0?$AA2?$AA?5?$AA0?$AA0?$AA?$AA@
CONST	SEGMENT
??_C@_1BC@CFNFDFJJ@?$AA0?$AA2?$AA?5?$AA0?$AA2?$AA?5?$AA0?$AA0?$AA?$AA@ DB '0'
	DB	00H, '2', 00H, ' ', 00H, '0', 00H, '2', 00H, ' ', 00H, '0', 00H
	DB	'0', 00H, 00H, 00H				; `string'
CONST	ENDS
;	COMDAT ??_C@_1BC@LGPKCEAF@?$AA0?$AA2?$AA?5?$AA0?$AA2?$AA?5?$AAF?$AAF?$AA?$AA@
CONST	SEGMENT
??_C@_1BC@LGPKCEAF@?$AA0?$AA2?$AA?5?$AA0?$AA2?$AA?5?$AAF?$AAF?$AA?$AA@ DB '0'
	DB	00H, '2', 00H, ' ', 00H, '0', 00H, '2', 00H, ' ', 00H, 'F', 00H
	DB	'F', 00H, 00H, 00H				; `string'
CONST	ENDS
;	COMDAT ??_C@_1BC@MOOCIOJK@?$AA0?$AA2?$AA?5?$AA0?$AA1?$AA?5?$AA0?$AA0?$AA?$AA@
CONST	SEGMENT
??_C@_1BC@MOOCIOJK@?$AA0?$AA2?$AA?5?$AA0?$AA1?$AA?5?$AA0?$AA0?$AA?$AA@ DB '0'
	DB	00H, '2', 00H, ' ', 00H, '0', 00H, '1', 00H, ' ', 00H, '0', 00H
	DB	'0', 00H, 00H, 00H				; `string'
CONST	ENDS
;	COMDAT ??_C@_1BC@FNMNJPAG@?$AA0?$AA2?$AA?5?$AA0?$AA1?$AA?5?$AAF?$AAF?$AA?$AA@
CONST	SEGMENT
??_C@_1BC@FNMNJPAG@?$AA0?$AA2?$AA?5?$AA0?$AA1?$AA?5?$AAF?$AAF?$AA?$AA@ DB '0'
	DB	00H, '2', 00H, ' ', 00H, '0', 00H, '1', 00H, ' ', 00H, 'F', 00H
	DB	'F', 00H, 00H, 00H				; `string'
CONST	ENDS
;	COMDAT ??_C@_1BI@PGCDAFOE@?$AA0?$AA2?$AA?5?$AA0?$AA0?$AA?5?$AA0?$AA0?$AA?5?$AA0?$AA0?$AA?$AA@
CONST	SEGMENT
??_C@_1BI@PGCDAFOE@?$AA0?$AA2?$AA?5?$AA0?$AA0?$AA?5?$AA0?$AA0?$AA?5?$AA0?$AA0?$AA?$AA@ DB '0'
	DB	00H, '2', 00H, ' ', 00H, '0', 00H, '0', 00H, ' ', 00H, '0', 00H
	DB	'0', 00H, ' ', 00H, '0', 00H, '0', 00H, 00H, 00H ; `string'
CONST	ENDS
;	COMDAT ??_C@_1BI@NMKJGAPN@?$AA0?$AA2?$AA?5?$AA0?$AA0?$AA?5?$AA3?$AA1?$AA?5?$AA1?$AAC?$AA?$AA@
CONST	SEGMENT
??_C@_1BI@NMKJGAPN@?$AA0?$AA2?$AA?5?$AA0?$AA0?$AA?5?$AA3?$AA1?$AA?5?$AA1?$AAC?$AA?$AA@ DB '0'
	DB	00H, '2', 00H, ' ', 00H, '0', 00H, '0', 00H, ' ', 00H, '3', 00H
	DB	'1', 00H, ' ', 00H, '1', 00H, 'C', 00H, 00H, 00H ; `string'
CONST	ENDS
;	COMDAT ??_C@_1BI@DNDANGBL@?$AA0?$AA2?$AA?5?$AA0?$AA0?$AA?5?$AA1?$AAC?$AA?5?$AA2?$AA0?$AA?$AA@
CONST	SEGMENT
??_C@_1BI@DNDANGBL@?$AA0?$AA2?$AA?5?$AA0?$AA0?$AA?5?$AA1?$AAC?$AA?5?$AA2?$AA0?$AA?$AA@ DB '0'
	DB	00H, '2', 00H, ' ', 00H, '0', 00H, '0', 00H, ' ', 00H, '1', 00H
	DB	'C', 00H, ' ', 00H, '2', 00H, '0', 00H, 00H, 00H ; `string'
CONST	ENDS
;	COMDAT ??_C@_1BI@HGKCEBDG@?$AA0?$AA2?$AA?5?$AA0?$AA0?$AA?5?$AA1?$AA2?$AA?5?$AAD?$AA4?$AA?$AA@
CONST	SEGMENT
??_C@_1BI@HGKCEBDG@?$AA0?$AA2?$AA?5?$AA0?$AA0?$AA?5?$AA1?$AA2?$AA?5?$AAD?$AA4?$AA?$AA@ DB '0'
	DB	00H, '2', 00H, ' ', 00H, '0', 00H, '0', 00H, ' ', 00H, '1', 00H
	DB	'2', 00H, ' ', 00H, 'D', 00H, '4', 00H, 00H, 00H ; `string'
CONST	ENDS
;	COMDAT ??_C@_1M@KCKJBMKN@?$AA0?$AA1?$AA?5?$AA0?$AA1?$AA?$AA@
CONST	SEGMENT
??_C@_1M@KCKJBMKN@?$AA0?$AA1?$AA?5?$AA0?$AA1?$AA?$AA@ DB '0', 00H, '1', 00H
	DB	' ', 00H, '0', 00H, '1', 00H, 00H, 00H	; `string'
CONST	ENDS
;	COMDAT ??_C@_1BC@OHCKDKGI@?$AA0?$AA1?$AA?5?$AA0?$AA1?$AA?5?$AA0?$AA0?$AA?$AA@
CONST	SEGMENT
??_C@_1BC@OHCKDKGI@?$AA0?$AA1?$AA?5?$AA0?$AA1?$AA?5?$AA0?$AA0?$AA?$AA@ DB '0'
	DB	00H, '1', 00H, ' ', 00H, '0', 00H, '1', 00H, ' ', 00H, '0', 00H
	DB	'0', 00H, 00H, 00H				; `string'
CONST	ENDS
;	COMDAT ??_C@_1BC@HEAFCLPE@?$AA0?$AA1?$AA?5?$AA0?$AA1?$AA?5?$AAF?$AAF?$AA?$AA@
CONST	SEGMENT
??_C@_1BC@HEAFCLPE@?$AA0?$AA1?$AA?5?$AA0?$AA1?$AA?5?$AAF?$AAF?$AA?$AA@ DB '0'
	DB	00H, '1', 00H, ' ', 00H, '0', 00H, '1', 00H, ' ', 00H, 'F', 00H
	DB	'F', 00H, 00H, 00H				; `string'
CONST	ENDS
;	COMDAT ??_C@_1M@BKBFHLMI@?$AA0?$AA1?$AA?5?$AA0?$AA0?$AA?$AA@
CONST	SEGMENT
??_C@_1M@BKBFHLMI@?$AA0?$AA1?$AA?5?$AA0?$AA0?$AA?$AA@ DB '0', 00H, '1', 00H
	DB	' ', 00H, '0', 00H, '0', 00H, 00H, 00H	; `string'
CONST	ENDS
;	COMDAT ??_C@_1M@GGPIABGK@?$AA0?$AA0?$AA?5?$AAF?$AAF?$AA?$AA@
CONST	SEGMENT
??_C@_1M@GGPIABGK@?$AA0?$AA0?$AA?5?$AAF?$AAF?$AA?$AA@ DB '0', 00H, '0', 00H
	DB	' ', 00H, 'F', 00H, 'F', 00H, 00H, 00H	; `string'
CONST	ENDS
;	COMDAT ??_C@_1M@PFNHBAPG@?$AA0?$AA0?$AA?5?$AA0?$AA0?$AA?$AA@
CONST	SEGMENT
??_C@_1M@PFNHBAPG@?$AA0?$AA0?$AA?5?$AA0?$AA0?$AA?$AA@ DB '0', 00H, '0', 00H
	DB	' ', 00H, '0', 00H, '0', 00H, 00H, 00H	; `string'
CONST	ENDS
;	COMDAT xdata$x
xdata$x	SEGMENT
__ehfuncinfo$??__EstrDeviceCmd@@YAXXZ DD 019930522H
	DD	0b2H
	DD	FLAT:__unwindtable$??__EstrDeviceCmd@@YAXXZ
	DD	2 DUP(00H)
	DD	2 DUP(00H)
	DD	00H
	DD	01H
__unwindtable$??__EstrDeviceCmd@@YAXXZ DD 0ffffffffH
	DD	FLAT:__unwindfunclet$??__EstrDeviceCmd@@YAXXZ$0
	DD	00H
	DD	FLAT:__unwindfunclet$??__EstrDeviceCmd@@YAXXZ$1
	DD	01H
	DD	FLAT:__unwindfunclet$??__EstrDeviceCmd@@YAXXZ$2
	DD	02H
	DD	FLAT:__unwindfunclet$??__EstrDeviceCmd@@YAXXZ$3
	DD	03H
	DD	FLAT:__unwindfunclet$??__EstrDeviceCmd@@YAXXZ$4
	DD	04H
	DD	FLAT:__unwindfunclet$??__EstrDeviceCmd@@YAXXZ$5
	DD	05H
	DD	FLAT:__unwindfunclet$??__EstrDeviceCmd@@YAXXZ$6
	DD	06H
	DD	FLAT:__unwindfunclet$??__EstrDeviceCmd@@YAXXZ$7
	DD	07H
	DD	FLAT:__unwindfunclet$??__EstrDeviceCmd@@YAXXZ$8
	DD	08H
	DD	FLAT:__unwindfunclet$??__EstrDeviceCmd@@YAXXZ$9
	DD	09H
	DD	FLAT:__unwindfunclet$??__EstrDeviceCmd@@YAXXZ$10
	DD	0aH
	DD	FLAT:__unwindfunclet$??__EstrDeviceCmd@@YAXXZ$11
	DD	0bH
	DD	FLAT:__unwindfunclet$??__EstrDeviceCmd@@YAXXZ$12
	DD	0cH
	DD	FLAT:__unwindfunclet$??__EstrDeviceCmd@@YAXXZ$13
	DD	0dH
	DD	FLAT:__unwindfunclet$??__EstrDeviceCmd@@YAXXZ$14
	DD	0eH
	DD	FLAT:__unwindfunclet$??__EstrDeviceCmd@@YAXXZ$15
	DD	0fH
	DD	FLAT:__unwindfunclet$??__EstrDeviceCmd@@YAXXZ$16
	DD	010H
	DD	FLAT:__unwindfunclet$??__EstrDeviceCmd@@YAXXZ$17
	DD	011H
	DD	FLAT:__unwindfunclet$??__EstrDeviceCmd@@YAXXZ$18
	DD	012H
	DD	FLAT:__unwindfunclet$??__EstrDeviceCmd@@YAXXZ$19
	DD	013H
	DD	FLAT:__unwindfunclet$??__EstrDeviceCmd@@YAXXZ$20
	DD	014H
	DD	FLAT:__unwindfunclet$??__EstrDeviceCmd@@YAXXZ$21
	DD	015H
	DD	FLAT:__unwindfunclet$??__EstrDeviceCmd@@YAXXZ$22
	DD	016H
	DD	FLAT:__unwindfunclet$??__EstrDeviceCmd@@YAXXZ$23
	DD	017H
	DD	FLAT:__unwindfunclet$??__EstrDeviceCmd@@YAXXZ$24
	DD	018H
	DD	FLAT:__unwindfunclet$??__EstrDeviceCmd@@YAXXZ$25
	DD	019H
	DD	FLAT:__unwindfunclet$??__EstrDeviceCmd@@YAXXZ$26
	DD	01aH
	DD	FLAT:__unwindfunclet$??__EstrDeviceCmd@@YAXXZ$27
	DD	01bH
	DD	FLAT:__unwindfunclet$??__EstrDeviceCmd@@YAXXZ$28
	DD	01cH
	DD	FLAT:__unwindfunclet$??__EstrDeviceCmd@@YAXXZ$29
	DD	01dH
	DD	FLAT:__unwindfunclet$??__EstrDeviceCmd@@YAXXZ$30
	DD	01eH
	DD	FLAT:__unwindfunclet$??__EstrDeviceCmd@@YAXXZ$31
	DD	01fH
	DD	FLAT:__unwindfunclet$??__EstrDeviceCmd@@YAXXZ$32
	DD	020H
	DD	FLAT:__unwindfunclet$??__EstrDeviceCmd@@YAXXZ$33
	DD	021H
	DD	FLAT:__unwindfunclet$??__EstrDeviceCmd@@YAXXZ$34
	DD	022H
	DD	FLAT:__unwindfunclet$??__EstrDeviceCmd@@YAXXZ$35
	DD	023H
	DD	FLAT:__unwindfunclet$??__EstrDeviceCmd@@YAXXZ$36
	DD	024H
	DD	FLAT:__unwindfunclet$??__EstrDeviceCmd@@YAXXZ$37
	DD	025H
	DD	FLAT:__unwindfunclet$??__EstrDeviceCmd@@YAXXZ$38
	DD	026H
	DD	FLAT:__unwindfunclet$??__EstrDeviceCmd@@YAXXZ$39
	DD	027H
	DD	FLAT:__unwindfunclet$??__EstrDeviceCmd@@YAXXZ$40
	DD	028H
	DD	FLAT:__unwindfunclet$??__EstrDeviceCmd@@YAXXZ$41
	DD	029H
	DD	FLAT:__unwindfunclet$??__EstrDeviceCmd@@YAXXZ$42
	DD	02aH
	DD	FLAT:__unwindfunclet$??__EstrDeviceCmd@@YAXXZ$43
	DD	02bH
	DD	FLAT:__unwindfunclet$??__EstrDeviceCmd@@YAXXZ$44
	DD	02cH
	DD	FLAT:__unwindfunclet$??__EstrDeviceCmd@@YAXXZ$45
	DD	02dH
	DD	FLAT:__unwindfunclet$??__EstrDeviceCmd@@YAXXZ$46
	DD	02eH
	DD	FLAT:__unwindfunclet$??__EstrDeviceCmd@@YAXXZ$47
	DD	02fH
	DD	FLAT:__unwindfunclet$??__EstrDeviceCmd@@YAXXZ$48
	DD	030H
	DD	FLAT:__unwindfunclet$??__EstrDeviceCmd@@YAXXZ$49
	DD	031H
	DD	FLAT:__unwindfunclet$??__EstrDeviceCmd@@YAXXZ$50
	DD	032H
	DD	FLAT:__unwindfunclet$??__EstrDeviceCmd@@YAXXZ$51
	DD	033H
	DD	FLAT:__unwindfunclet$??__EstrDeviceCmd@@YAXXZ$52
	DD	034H
	DD	FLAT:__unwindfunclet$??__EstrDeviceCmd@@YAXXZ$53
	DD	035H
	DD	FLAT:__unwindfunclet$??__EstrDeviceCmd@@YAXXZ$54
	DD	036H
	DD	FLAT:__unwindfunclet$??__EstrDeviceCmd@@YAXXZ$55
	DD	037H
	DD	FLAT:__unwindfunclet$??__EstrDeviceCmd@@YAXXZ$56
	DD	038H
	DD	FLAT:__unwindfunclet$??__EstrDeviceCmd@@YAXXZ$57
	DD	039H
	DD	FLAT:__unwindfunclet$??__EstrDeviceCmd@@YAXXZ$58
	DD	03aH
	DD	FLAT:__unwindfunclet$??__EstrDeviceCmd@@YAXXZ$59
	DD	03bH
	DD	FLAT:__unwindfunclet$??__EstrDeviceCmd@@YAXXZ$60
	DD	03cH
	DD	FLAT:__unwindfunclet$??__EstrDeviceCmd@@YAXXZ$61
	DD	03dH
	DD	FLAT:__unwindfunclet$??__EstrDeviceCmd@@YAXXZ$62
	DD	03eH
	DD	FLAT:__unwindfunclet$??__EstrDeviceCmd@@YAXXZ$63
	DD	03fH
	DD	FLAT:__unwindfunclet$??__EstrDeviceCmd@@YAXXZ$64
	DD	040H
	DD	FLAT:__unwindfunclet$??__EstrDeviceCmd@@YAXXZ$65
	DD	041H
	DD	FLAT:__unwindfunclet$??__EstrDeviceCmd@@YAXXZ$66
	DD	042H
	DD	FLAT:__unwindfunclet$??__EstrDeviceCmd@@YAXXZ$67
	DD	043H
	DD	FLAT:__unwindfunclet$??__EstrDeviceCmd@@YAXXZ$68
	DD	044H
	DD	FLAT:__unwindfunclet$??__EstrDeviceCmd@@YAXXZ$69
	DD	045H
	DD	FLAT:__unwindfunclet$??__EstrDeviceCmd@@YAXXZ$70
	DD	046H
	DD	FLAT:__unwindfunclet$??__EstrDeviceCmd@@YAXXZ$71
	DD	047H
	DD	FLAT:__unwindfunclet$??__EstrDeviceCmd@@YAXXZ$72
	DD	048H
	DD	FLAT:__unwindfunclet$??__EstrDeviceCmd@@YAXXZ$73
	DD	049H
	DD	FLAT:__unwindfunclet$??__EstrDeviceCmd@@YAXXZ$74
	DD	04aH
	DD	FLAT:__unwindfunclet$??__EstrDeviceCmd@@YAXXZ$75
	DD	04bH
	DD	FLAT:__unwindfunclet$??__EstrDeviceCmd@@YAXXZ$76
	DD	04cH
	DD	FLAT:__unwindfunclet$??__EstrDeviceCmd@@YAXXZ$77
	DD	04dH
	DD	FLAT:__unwindfunclet$??__EstrDeviceCmd@@YAXXZ$78
	DD	04eH
	DD	FLAT:__unwindfunclet$??__EstrDeviceCmd@@YAXXZ$79
	DD	04fH
	DD	FLAT:__unwindfunclet$??__EstrDeviceCmd@@YAXXZ$80
	DD	050H
	DD	FLAT:__unwindfunclet$??__EstrDeviceCmd@@YAXXZ$81
	DD	051H
	DD	FLAT:__unwindfunclet$??__EstrDeviceCmd@@YAXXZ$82
	DD	052H
	DD	FLAT:__unwindfunclet$??__EstrDeviceCmd@@YAXXZ$83
	DD	053H
	DD	FLAT:__unwindfunclet$??__EstrDeviceCmd@@YAXXZ$84
	DD	054H
	DD	FLAT:__unwindfunclet$??__EstrDeviceCmd@@YAXXZ$85
	DD	055H
	DD	FLAT:__unwindfunclet$??__EstrDeviceCmd@@YAXXZ$86
	DD	056H
	DD	FLAT:__unwindfunclet$??__EstrDeviceCmd@@YAXXZ$87
	DD	057H
	DD	FLAT:__unwindfunclet$??__EstrDeviceCmd@@YAXXZ$88
	DD	058H
	DD	FLAT:__unwindfunclet$??__EstrDeviceCmd@@YAXXZ$89
	DD	059H
	DD	FLAT:__unwindfunclet$??__EstrDeviceCmd@@YAXXZ$90
	DD	05aH
	DD	FLAT:__unwindfunclet$??__EstrDeviceCmd@@YAXXZ$91
	DD	05bH
	DD	FLAT:__unwindfunclet$??__EstrDeviceCmd@@YAXXZ$92
	DD	05cH
	DD	FLAT:__unwindfunclet$??__EstrDeviceCmd@@YAXXZ$93
	DD	05dH
	DD	FLAT:__unwindfunclet$??__EstrDeviceCmd@@YAXXZ$94
	DD	05eH
	DD	FLAT:__unwindfunclet$??__EstrDeviceCmd@@YAXXZ$95
	DD	05fH
	DD	FLAT:__unwindfunclet$??__EstrDeviceCmd@@YAXXZ$96
	DD	060H
	DD	FLAT:__unwindfunclet$??__EstrDeviceCmd@@YAXXZ$97
	DD	061H
	DD	FLAT:__unwindfunclet$??__EstrDeviceCmd@@YAXXZ$98
	DD	062H
	DD	FLAT:__unwindfunclet$??__EstrDeviceCmd@@YAXXZ$99
	DD	063H
	DD	FLAT:__unwindfunclet$??__EstrDeviceCmd@@YAXXZ$100
	DD	064H
	DD	FLAT:__unwindfunclet$??__EstrDeviceCmd@@YAXXZ$101
	DD	065H
	DD	FLAT:__unwindfunclet$??__EstrDeviceCmd@@YAXXZ$102
	DD	066H
	DD	FLAT:__unwindfunclet$??__EstrDeviceCmd@@YAXXZ$103
	DD	067H
	DD	FLAT:__unwindfunclet$??__EstrDeviceCmd@@YAXXZ$104
	DD	068H
	DD	FLAT:__unwindfunclet$??__EstrDeviceCmd@@YAXXZ$105
	DD	069H
	DD	FLAT:__unwindfunclet$??__EstrDeviceCmd@@YAXXZ$106
	DD	06aH
	DD	FLAT:__unwindfunclet$??__EstrDeviceCmd@@YAXXZ$107
	DD	06bH
	DD	FLAT:__unwindfunclet$??__EstrDeviceCmd@@YAXXZ$108
	DD	06cH
	DD	FLAT:__unwindfunclet$??__EstrDeviceCmd@@YAXXZ$109
	DD	06dH
	DD	FLAT:__unwindfunclet$??__EstrDeviceCmd@@YAXXZ$110
	DD	06eH
	DD	FLAT:__unwindfunclet$??__EstrDeviceCmd@@YAXXZ$111
	DD	06fH
	DD	FLAT:__unwindfunclet$??__EstrDeviceCmd@@YAXXZ$112
	DD	070H
	DD	FLAT:__unwindfunclet$??__EstrDeviceCmd@@YAXXZ$113
	DD	071H
	DD	FLAT:__unwindfunclet$??__EstrDeviceCmd@@YAXXZ$114
	DD	072H
	DD	FLAT:__unwindfunclet$??__EstrDeviceCmd@@YAXXZ$115
	DD	073H
	DD	FLAT:__unwindfunclet$??__EstrDeviceCmd@@YAXXZ$116
	DD	074H
	DD	FLAT:__unwindfunclet$??__EstrDeviceCmd@@YAXXZ$117
	DD	075H
	DD	FLAT:__unwindfunclet$??__EstrDeviceCmd@@YAXXZ$118
	DD	076H
	DD	FLAT:__unwindfunclet$??__EstrDeviceCmd@@YAXXZ$119
	DD	077H
	DD	FLAT:__unwindfunclet$??__EstrDeviceCmd@@YAXXZ$120
	DD	078H
	DD	FLAT:__unwindfunclet$??__EstrDeviceCmd@@YAXXZ$121
	DD	079H
	DD	FLAT:__unwindfunclet$??__EstrDeviceCmd@@YAXXZ$122
	DD	07aH
	DD	FLAT:__unwindfunclet$??__EstrDeviceCmd@@YAXXZ$123
	DD	07bH
	DD	FLAT:__unwindfunclet$??__EstrDeviceCmd@@YAXXZ$124
	DD	07cH
	DD	FLAT:__unwindfunclet$??__EstrDeviceCmd@@YAXXZ$125
	DD	07dH
	DD	FLAT:__unwindfunclet$??__EstrDeviceCmd@@YAXXZ$126
	DD	07eH
	DD	FLAT:__unwindfunclet$??__EstrDeviceCmd@@YAXXZ$127
	DD	07fH
	DD	FLAT:__unwindfunclet$??__EstrDeviceCmd@@YAXXZ$128
	DD	080H
	DD	FLAT:__unwindfunclet$??__EstrDeviceCmd@@YAXXZ$129
	DD	081H
	DD	FLAT:__unwindfunclet$??__EstrDeviceCmd@@YAXXZ$130
	DD	082H
	DD	FLAT:__unwindfunclet$??__EstrDeviceCmd@@YAXXZ$131
	DD	083H
	DD	FLAT:__unwindfunclet$??__EstrDeviceCmd@@YAXXZ$132
	DD	084H
	DD	FLAT:__unwindfunclet$??__EstrDeviceCmd@@YAXXZ$133
	DD	085H
	DD	FLAT:__unwindfunclet$??__EstrDeviceCmd@@YAXXZ$134
	DD	086H
	DD	FLAT:__unwindfunclet$??__EstrDeviceCmd@@YAXXZ$135
	DD	087H
	DD	FLAT:__unwindfunclet$??__EstrDeviceCmd@@YAXXZ$136
	DD	088H
	DD	FLAT:__unwindfunclet$??__EstrDeviceCmd@@YAXXZ$137
	DD	089H
	DD	FLAT:__unwindfunclet$??__EstrDeviceCmd@@YAXXZ$138
	DD	08aH
	DD	FLAT:__unwindfunclet$??__EstrDeviceCmd@@YAXXZ$139
	DD	08bH
	DD	FLAT:__unwindfunclet$??__EstrDeviceCmd@@YAXXZ$140
	DD	08cH
	DD	FLAT:__unwindfunclet$??__EstrDeviceCmd@@YAXXZ$141
	DD	08dH
	DD	FLAT:__unwindfunclet$??__EstrDeviceCmd@@YAXXZ$142
	DD	08eH
	DD	FLAT:__unwindfunclet$??__EstrDeviceCmd@@YAXXZ$143
	DD	08fH
	DD	FLAT:__unwindfunclet$??__EstrDeviceCmd@@YAXXZ$144
	DD	090H
	DD	FLAT:__unwindfunclet$??__EstrDeviceCmd@@YAXXZ$145
	DD	091H
	DD	FLAT:__unwindfunclet$??__EstrDeviceCmd@@YAXXZ$146
	DD	092H
	DD	FLAT:__unwindfunclet$??__EstrDeviceCmd@@YAXXZ$147
	DD	093H
	DD	FLAT:__unwindfunclet$??__EstrDeviceCmd@@YAXXZ$148
	DD	094H
	DD	FLAT:__unwindfunclet$??__EstrDeviceCmd@@YAXXZ$149
	DD	095H
	DD	FLAT:__unwindfunclet$??__EstrDeviceCmd@@YAXXZ$150
	DD	096H
	DD	FLAT:__unwindfunclet$??__EstrDeviceCmd@@YAXXZ$151
	DD	097H
	DD	FLAT:__unwindfunclet$??__EstrDeviceCmd@@YAXXZ$152
	DD	098H
	DD	FLAT:__unwindfunclet$??__EstrDeviceCmd@@YAXXZ$153
	DD	099H
	DD	FLAT:__unwindfunclet$??__EstrDeviceCmd@@YAXXZ$154
	DD	09aH
	DD	FLAT:__unwindfunclet$??__EstrDeviceCmd@@YAXXZ$155
	DD	09bH
	DD	FLAT:__unwindfunclet$??__EstrDeviceCmd@@YAXXZ$156
	DD	09cH
	DD	FLAT:__unwindfunclet$??__EstrDeviceCmd@@YAXXZ$157
	DD	09dH
	DD	FLAT:__unwindfunclet$??__EstrDeviceCmd@@YAXXZ$158
	DD	09eH
	DD	FLAT:__unwindfunclet$??__EstrDeviceCmd@@YAXXZ$159
	DD	09fH
	DD	FLAT:__unwindfunclet$??__EstrDeviceCmd@@YAXXZ$160
	DD	0a0H
	DD	FLAT:__unwindfunclet$??__EstrDeviceCmd@@YAXXZ$161
	DD	0a1H
	DD	FLAT:__unwindfunclet$??__EstrDeviceCmd@@YAXXZ$162
	DD	0a2H
	DD	FLAT:__unwindfunclet$??__EstrDeviceCmd@@YAXXZ$163
	DD	0a3H
	DD	FLAT:__unwindfunclet$??__EstrDeviceCmd@@YAXXZ$164
	DD	0a4H
	DD	FLAT:__unwindfunclet$??__EstrDeviceCmd@@YAXXZ$165
	DD	0a5H
	DD	FLAT:__unwindfunclet$??__EstrDeviceCmd@@YAXXZ$166
	DD	0a6H
	DD	FLAT:__unwindfunclet$??__EstrDeviceCmd@@YAXXZ$167
	DD	0a7H
	DD	FLAT:__unwindfunclet$??__EstrDeviceCmd@@YAXXZ$168
	DD	0a8H
	DD	FLAT:__unwindfunclet$??__EstrDeviceCmd@@YAXXZ$169
	DD	0a9H
	DD	FLAT:__unwindfunclet$??__EstrDeviceCmd@@YAXXZ$170
	DD	0aaH
	DD	FLAT:__unwindfunclet$??__EstrDeviceCmd@@YAXXZ$171
	DD	0abH
	DD	FLAT:__unwindfunclet$??__EstrDeviceCmd@@YAXXZ$172
	DD	0acH
	DD	FLAT:__unwindfunclet$??__EstrDeviceCmd@@YAXXZ$173
	DD	0adH
	DD	FLAT:__unwindfunclet$??__EstrDeviceCmd@@YAXXZ$174
	DD	0aeH
	DD	FLAT:__unwindfunclet$??__EstrDeviceCmd@@YAXXZ$175
	DD	0afH
	DD	FLAT:__unwindfunclet$??__EstrDeviceCmd@@YAXXZ$176
	DD	0b0H
	DD	FLAT:__unwindfunclet$??__EstrDeviceCmd@@YAXXZ$177
; Function compile flags: /Odtp /RTCsu /ZI
xdata$x	ENDS
;	COMDAT ??__EstrDeviceCmd@@YAXXZ
text$yc	SEGMENT
__$EHRec$ = -12						; size = 12
??__EstrDeviceCmd@@YAXXZ PROC				; `dynamic initializer for 'strDeviceCmd'', COMDAT

; 427  : {

  00000	55		 push	 ebp
  00001	8b ec		 mov	 ebp, esp
  00003	6a ff		 push	 -1
  00005	68 00 00 00 00	 push	 __ehhandler$??__EstrDeviceCmd@@YAXXZ
  0000a	64 a1 00 00 00
	00		 mov	 eax, DWORD PTR fs:0
  00010	50		 push	 eax
  00011	81 ec c0 00 00
	00		 sub	 esp, 192		; 000000c0H
  00017	53		 push	 ebx
  00018	56		 push	 esi
  00019	57		 push	 edi
  0001a	8d bd 34 ff ff
	ff		 lea	 edi, DWORD PTR [ebp-204]
  00020	b9 30 00 00 00	 mov	 ecx, 48			; 00000030H
  00025	b8 cc cc cc cc	 mov	 eax, -858993460		; ccccccccH
  0002a	f3 ab		 rep stosd
  0002c	a1 00 00 00 00	 mov	 eax, DWORD PTR ___security_cookie
  00031	33 c5		 xor	 eax, ebp
  00033	50		 push	 eax
  00034	8d 45 f4	 lea	 eax, DWORD PTR __$EHRec$[ebp]
  00037	64 a3 00 00 00
	00		 mov	 DWORD PTR fs:0, eax

; 428  : 	_T("00 00"),				//

  0003d	68 00 00 00 00	 push	 OFFSET ??_C@_1M@PFNHBAPG@?$AA0?$AA0?$AA?5?$AA0?$AA0?$AA?$AA@
  00042	b9 00 00 00 00	 mov	 ecx, OFFSET _strDeviceCmd
  00047	e8 00 00 00 00	 call	 ??0?$CStringT@_WV?$StrTraitMFC@_WV?$ChTraitsCRT@_W@ATL@@@@@ATL@@QAE@PB_W@Z ; ATL::CStringT<wchar_t,StrTraitMFC<wchar_t,ATL::ChTraitsCRT<wchar_t> > >::CStringT<wchar_t,StrTraitMFC<wchar_t,ATL::ChTraitsCRT<wchar_t> > >
  0004c	c7 45 fc 00 00
	00 00		 mov	 DWORD PTR __$EHRec$[ebp+8], 0

; 429  : 	_T("00 FF"),				//

  00053	68 00 00 00 00	 push	 OFFSET ??_C@_1M@GGPIABGK@?$AA0?$AA0?$AA?5?$AAF?$AAF?$AA?$AA@
  00058	b9 04 00 00 00	 mov	 ecx, OFFSET _strDeviceCmd+4
  0005d	e8 00 00 00 00	 call	 ??0?$CStringT@_WV?$StrTraitMFC@_WV?$ChTraitsCRT@_W@ATL@@@@@ATL@@QAE@PB_W@Z ; ATL::CStringT<wchar_t,StrTraitMFC<wchar_t,ATL::ChTraitsCRT<wchar_t> > >::CStringT<wchar_t,StrTraitMFC<wchar_t,ATL::ChTraitsCRT<wchar_t> > >
  00062	c6 45 fc 01	 mov	 BYTE PTR __$EHRec$[ebp+8], 1

; 430  : 
; 431  : 	_T("01 00"),				//  XX=20~45== 2V~4.5V

  00066	68 00 00 00 00	 push	 OFFSET ??_C@_1M@BKBFHLMI@?$AA0?$AA1?$AA?5?$AA0?$AA0?$AA?$AA@
  0006b	b9 08 00 00 00	 mov	 ecx, OFFSET _strDeviceCmd+8
  00070	e8 00 00 00 00	 call	 ??0?$CStringT@_WV?$StrTraitMFC@_WV?$ChTraitsCRT@_W@ATL@@@@@ATL@@QAE@PB_W@Z ; ATL::CStringT<wchar_t,StrTraitMFC<wchar_t,ATL::ChTraitsCRT<wchar_t> > >::CStringT<wchar_t,StrTraitMFC<wchar_t,ATL::ChTraitsCRT<wchar_t> > >
  00075	c6 45 fc 02	 mov	 BYTE PTR __$EHRec$[ebp+8], 2

; 432  : 	_T("01 01 FF"),				//5V

  00079	68 00 00 00 00	 push	 OFFSET ??_C@_1BC@HEAFCLPE@?$AA0?$AA1?$AA?5?$AA0?$AA1?$AA?5?$AAF?$AAF?$AA?$AA@
  0007e	b9 0c 00 00 00	 mov	 ecx, OFFSET _strDeviceCmd+12
  00083	e8 00 00 00 00	 call	 ??0?$CStringT@_WV?$StrTraitMFC@_WV?$ChTraitsCRT@_W@ATL@@@@@ATL@@QAE@PB_W@Z ; ATL::CStringT<wchar_t,StrTraitMFC<wchar_t,ATL::ChTraitsCRT<wchar_t> > >::CStringT<wchar_t,StrTraitMFC<wchar_t,ATL::ChTraitsCRT<wchar_t> > >
  00088	c6 45 fc 03	 mov	 BYTE PTR __$EHRec$[ebp+8], 3

; 433  : 	_T("01 01 00"),

  0008c	68 00 00 00 00	 push	 OFFSET ??_C@_1BC@OHCKDKGI@?$AA0?$AA1?$AA?5?$AA0?$AA1?$AA?5?$AA0?$AA0?$AA?$AA@
  00091	b9 10 00 00 00	 mov	 ecx, OFFSET _strDeviceCmd+16
  00096	e8 00 00 00 00	 call	 ??0?$CStringT@_WV?$StrTraitMFC@_WV?$ChTraitsCRT@_W@ATL@@@@@ATL@@QAE@PB_W@Z ; ATL::CStringT<wchar_t,StrTraitMFC<wchar_t,ATL::ChTraitsCRT<wchar_t> > >::CStringT<wchar_t,StrTraitMFC<wchar_t,ATL::ChTraitsCRT<wchar_t> > >
  0009b	c6 45 fc 04	 mov	 BYTE PTR __$EHRec$[ebp+8], 4

; 434  : 	_T("01 01"),				//

  0009f	68 00 00 00 00	 push	 OFFSET ??_C@_1M@KCKJBMKN@?$AA0?$AA1?$AA?5?$AA0?$AA1?$AA?$AA@
  000a4	b9 14 00 00 00	 mov	 ecx, OFFSET _strDeviceCmd+20
  000a9	e8 00 00 00 00	 call	 ??0?$CStringT@_WV?$StrTraitMFC@_WV?$ChTraitsCRT@_W@ATL@@@@@ATL@@QAE@PB_W@Z ; ATL::CStringT<wchar_t,StrTraitMFC<wchar_t,ATL::ChTraitsCRT<wchar_t> > >::CStringT<wchar_t,StrTraitMFC<wchar_t,ATL::ChTraitsCRT<wchar_t> > >
  000ae	c6 45 fc 05	 mov	 BYTE PTR __$EHRec$[ebp+8], 5

; 435  : 
; 436  : 	_T("02 00 12 D4"),			//1KHz

  000b2	68 00 00 00 00	 push	 OFFSET ??_C@_1BI@HGKCEBDG@?$AA0?$AA2?$AA?5?$AA0?$AA0?$AA?5?$AA1?$AA2?$AA?5?$AAD?$AA4?$AA?$AA@
  000b7	b9 18 00 00 00	 mov	 ecx, OFFSET _strDeviceCmd+24
  000bc	e8 00 00 00 00	 call	 ??0?$CStringT@_WV?$StrTraitMFC@_WV?$ChTraitsCRT@_W@ATL@@@@@ATL@@QAE@PB_W@Z ; ATL::CStringT<wchar_t,StrTraitMFC<wchar_t,ATL::ChTraitsCRT<wchar_t> > >::CStringT<wchar_t,StrTraitMFC<wchar_t,ATL::ChTraitsCRT<wchar_t> > >
  000c1	c6 45 fc 06	 mov	 BYTE PTR __$EHRec$[ebp+8], 6

; 437  : 	_T("02 00 1C 20"),			//5KHz

  000c5	68 00 00 00 00	 push	 OFFSET ??_C@_1BI@DNDANGBL@?$AA0?$AA2?$AA?5?$AA0?$AA0?$AA?5?$AA1?$AAC?$AA?5?$AA2?$AA0?$AA?$AA@
  000ca	b9 1c 00 00 00	 mov	 ecx, OFFSET _strDeviceCmd+28
  000cf	e8 00 00 00 00	 call	 ??0?$CStringT@_WV?$StrTraitMFC@_WV?$ChTraitsCRT@_W@ATL@@@@@ATL@@QAE@PB_W@Z ; ATL::CStringT<wchar_t,StrTraitMFC<wchar_t,ATL::ChTraitsCRT<wchar_t> > >::CStringT<wchar_t,StrTraitMFC<wchar_t,ATL::ChTraitsCRT<wchar_t> > >
  000d4	c6 45 fc 07	 mov	 BYTE PTR __$EHRec$[ebp+8], 7

; 438  : 	_T("02 00 31 1C"),			//10KHz

  000d8	68 00 00 00 00	 push	 OFFSET ??_C@_1BI@NMKJGAPN@?$AA0?$AA2?$AA?5?$AA0?$AA0?$AA?5?$AA3?$AA1?$AA?5?$AA1?$AAC?$AA?$AA@
  000dd	b9 20 00 00 00	 mov	 ecx, OFFSET _strDeviceCmd+32
  000e2	e8 00 00 00 00	 call	 ??0?$CStringT@_WV?$StrTraitMFC@_WV?$ChTraitsCRT@_W@ATL@@@@@ATL@@QAE@PB_W@Z ; ATL::CStringT<wchar_t,StrTraitMFC<wchar_t,ATL::ChTraitsCRT<wchar_t> > >::CStringT<wchar_t,StrTraitMFC<wchar_t,ATL::ChTraitsCRT<wchar_t> > >
  000e7	c6 45 fc 08	 mov	 BYTE PTR __$EHRec$[ebp+8], 8

; 439  : 	_T("02 00 00 00"),			//0KHz

  000eb	68 00 00 00 00	 push	 OFFSET ??_C@_1BI@PGCDAFOE@?$AA0?$AA2?$AA?5?$AA0?$AA0?$AA?5?$AA0?$AA0?$AA?5?$AA0?$AA0?$AA?$AA@
  000f0	b9 24 00 00 00	 mov	 ecx, OFFSET _strDeviceCmd+36
  000f5	e8 00 00 00 00	 call	 ??0?$CStringT@_WV?$StrTraitMFC@_WV?$ChTraitsCRT@_W@ATL@@@@@ATL@@QAE@PB_W@Z ; ATL::CStringT<wchar_t,StrTraitMFC<wchar_t,ATL::ChTraitsCRT<wchar_t> > >::CStringT<wchar_t,StrTraitMFC<wchar_t,ATL::ChTraitsCRT<wchar_t> > >
  000fa	c6 45 fc 09	 mov	 BYTE PTR __$EHRec$[ebp+8], 9

; 440  : 
; 441  : 	_T("02 01 FF"),				//Ear-MIC

  000fe	68 00 00 00 00	 push	 OFFSET ??_C@_1BC@FNMNJPAG@?$AA0?$AA2?$AA?5?$AA0?$AA1?$AA?5?$AAF?$AAF?$AA?$AA@
  00103	b9 28 00 00 00	 mov	 ecx, OFFSET _strDeviceCmd+40
  00108	e8 00 00 00 00	 call	 ??0?$CStringT@_WV?$StrTraitMFC@_WV?$ChTraitsCRT@_W@ATL@@@@@ATL@@QAE@PB_W@Z ; ATL::CStringT<wchar_t,StrTraitMFC<wchar_t,ATL::ChTraitsCRT<wchar_t> > >::CStringT<wchar_t,StrTraitMFC<wchar_t,ATL::ChTraitsCRT<wchar_t> > >
  0010d	c6 45 fc 0a	 mov	 BYTE PTR __$EHRec$[ebp+8], 10 ; 0000000aH

; 442  : 	_T("02 01 00"),

  00111	68 00 00 00 00	 push	 OFFSET ??_C@_1BC@MOOCIOJK@?$AA0?$AA2?$AA?5?$AA0?$AA1?$AA?5?$AA0?$AA0?$AA?$AA@
  00116	b9 2c 00 00 00	 mov	 ecx, OFFSET _strDeviceCmd+44
  0011b	e8 00 00 00 00	 call	 ??0?$CStringT@_WV?$StrTraitMFC@_WV?$ChTraitsCRT@_W@ATL@@@@@ATL@@QAE@PB_W@Z ; ATL::CStringT<wchar_t,StrTraitMFC<wchar_t,ATL::ChTraitsCRT<wchar_t> > >::CStringT<wchar_t,StrTraitMFC<wchar_t,ATL::ChTraitsCRT<wchar_t> > >
  00120	c6 45 fc 0b	 mov	 BYTE PTR __$EHRec$[ebp+8], 11 ; 0000000bH

; 443  : 	_T("02 02 FF"),				//MIC

  00124	68 00 00 00 00	 push	 OFFSET ??_C@_1BC@LGPKCEAF@?$AA0?$AA2?$AA?5?$AA0?$AA2?$AA?5?$AAF?$AAF?$AA?$AA@
  00129	b9 30 00 00 00	 mov	 ecx, OFFSET _strDeviceCmd+48
  0012e	e8 00 00 00 00	 call	 ??0?$CStringT@_WV?$StrTraitMFC@_WV?$ChTraitsCRT@_W@ATL@@@@@ATL@@QAE@PB_W@Z ; ATL::CStringT<wchar_t,StrTraitMFC<wchar_t,ATL::ChTraitsCRT<wchar_t> > >::CStringT<wchar_t,StrTraitMFC<wchar_t,ATL::ChTraitsCRT<wchar_t> > >
  00133	c6 45 fc 0c	 mov	 BYTE PTR __$EHRec$[ebp+8], 12 ; 0000000cH

; 444  : 	_T("02 02 00"),

  00137	68 00 00 00 00	 push	 OFFSET ??_C@_1BC@CFNFDFJJ@?$AA0?$AA2?$AA?5?$AA0?$AA2?$AA?5?$AA0?$AA0?$AA?$AA@
  0013c	b9 34 00 00 00	 mov	 ecx, OFFSET _strDeviceCmd+52
  00141	e8 00 00 00 00	 call	 ??0?$CStringT@_WV?$StrTraitMFC@_WV?$ChTraitsCRT@_W@ATL@@@@@ATL@@QAE@PB_W@Z ; ATL::CStringT<wchar_t,StrTraitMFC<wchar_t,ATL::ChTraitsCRT<wchar_t> > >::CStringT<wchar_t,StrTraitMFC<wchar_t,ATL::ChTraitsCRT<wchar_t> > >
  00146	c6 45 fc 0d	 mov	 BYTE PTR __$EHRec$[ebp+8], 13 ; 0000000dH

; 445  : 	_T("02 03 FF"),				//3

  0014a	68 00 00 00 00	 push	 OFFSET ??_C@_1BC@FJDIEPDL@?$AA0?$AA2?$AA?5?$AA0?$AA3?$AA?5?$AAF?$AAF?$AA?$AA@
  0014f	b9 38 00 00 00	 mov	 ecx, OFFSET _strDeviceCmd+56
  00154	e8 00 00 00 00	 call	 ??0?$CStringT@_WV?$StrTraitMFC@_WV?$ChTraitsCRT@_W@ATL@@@@@ATL@@QAE@PB_W@Z ; ATL::CStringT<wchar_t,StrTraitMFC<wchar_t,ATL::ChTraitsCRT<wchar_t> > >::CStringT<wchar_t,StrTraitMFC<wchar_t,ATL::ChTraitsCRT<wchar_t> > >
  00159	c6 45 fc 0e	 mov	 BYTE PTR __$EHRec$[ebp+8], 14 ; 0000000eH

; 446  : 	_T("02 03 00"),

  0015d	68 00 00 00 00	 push	 OFFSET ??_C@_1BC@MKBHFOKH@?$AA0?$AA2?$AA?5?$AA0?$AA3?$AA?5?$AA0?$AA0?$AA?$AA@
  00162	b9 3c 00 00 00	 mov	 ecx, OFFSET _strDeviceCmd+60
  00167	e8 00 00 00 00	 call	 ??0?$CStringT@_WV?$StrTraitMFC@_WV?$ChTraitsCRT@_W@ATL@@@@@ATL@@QAE@PB_W@Z ; ATL::CStringT<wchar_t,StrTraitMFC<wchar_t,ATL::ChTraitsCRT<wchar_t> > >::CStringT<wchar_t,StrTraitMFC<wchar_t,ATL::ChTraitsCRT<wchar_t> > >
  0016c	c6 45 fc 0f	 mov	 BYTE PTR __$EHRec$[ebp+8], 15 ; 0000000fH

; 447  : 	_T("02 01"),				//

  00170	68 00 00 00 00	 push	 OFFSET ??_C@_1M@EJJOKHKO@?$AA0?$AA2?$AA?5?$AA0?$AA1?$AA?$AA@
  00175	b9 40 00 00 00	 mov	 ecx, OFFSET _strDeviceCmd+64
  0017a	e8 00 00 00 00	 call	 ??0?$CStringT@_WV?$StrTraitMFC@_WV?$ChTraitsCRT@_W@ATL@@@@@ATL@@QAE@PB_W@Z ; ATL::CStringT<wchar_t,StrTraitMFC<wchar_t,ATL::ChTraitsCRT<wchar_t> > >::CStringT<wchar_t,StrTraitMFC<wchar_t,ATL::ChTraitsCRT<wchar_t> > >
  0017f	c6 45 fc 10	 mov	 BYTE PTR __$EHRec$[ebp+8], 16 ; 00000010H

; 448  : 	_T("02 02"),

  00183	68 00 00 00 00	 push	 OFFSET ??_C@_1M@FLCLAIEA@?$AA0?$AA2?$AA?5?$AA0?$AA2?$AA?$AA@
  00188	b9 44 00 00 00	 mov	 ecx, OFFSET _strDeviceCmd+68
  0018d	e8 00 00 00 00	 call	 ??0?$CStringT@_WV?$StrTraitMFC@_WV?$ChTraitsCRT@_W@ATL@@@@@ATL@@QAE@PB_W@Z ; ATL::CStringT<wchar_t,StrTraitMFC<wchar_t,ATL::ChTraitsCRT<wchar_t> > >::CStringT<wchar_t,StrTraitMFC<wchar_t,ATL::ChTraitsCRT<wchar_t> > >
  00192	c6 45 fc 11	 mov	 BYTE PTR __$EHRec$[ebp+8], 17 ; 00000011H

; 449  : 	_T("02 03"),

  00196	68 00 00 00 00	 push	 OFFSET ??_C@_1M@ODJHGPCF@?$AA0?$AA2?$AA?5?$AA0?$AA3?$AA?$AA@
  0019b	b9 48 00 00 00	 mov	 ecx, OFFSET _strDeviceCmd+72
  001a0	e8 00 00 00 00	 call	 ??0?$CStringT@_WV?$StrTraitMFC@_WV?$ChTraitsCRT@_W@ATL@@@@@ATL@@QAE@PB_W@Z ; ATL::CStringT<wchar_t,StrTraitMFC<wchar_t,ATL::ChTraitsCRT<wchar_t> > >::CStringT<wchar_t,StrTraitMFC<wchar_t,ATL::ChTraitsCRT<wchar_t> > >
  001a5	c6 45 fc 12	 mov	 BYTE PTR __$EHRec$[ebp+8], 18 ; 00000012H

; 450  : 
; 451  : 	_T("02 11 FF"),

  001a9	68 00 00 00 00	 push	 OFFSET ??_C@_1BC@MGGINDGJ@?$AA0?$AA2?$AA?5?$AA1?$AA1?$AA?5?$AAF?$AAF?$AA?$AA@
  001ae	b9 4c 00 00 00	 mov	 ecx, OFFSET _strDeviceCmd+76
  001b3	e8 00 00 00 00	 call	 ??0?$CStringT@_WV?$StrTraitMFC@_WV?$ChTraitsCRT@_W@ATL@@@@@ATL@@QAE@PB_W@Z ; ATL::CStringT<wchar_t,StrTraitMFC<wchar_t,ATL::ChTraitsCRT<wchar_t> > >::CStringT<wchar_t,StrTraitMFC<wchar_t,ATL::ChTraitsCRT<wchar_t> > >
  001b8	c6 45 fc 13	 mov	 BYTE PTR __$EHRec$[ebp+8], 19 ; 00000013H

; 452  : 	_T("02 11 00"),

  001bc	68 00 00 00 00	 push	 OFFSET ??_C@_1BC@FFEHMCPF@?$AA0?$AA2?$AA?5?$AA1?$AA1?$AA?5?$AA0?$AA0?$AA?$AA@
  001c1	b9 50 00 00 00	 mov	 ecx, OFFSET _strDeviceCmd+80
  001c6	e8 00 00 00 00	 call	 ??0?$CStringT@_WV?$StrTraitMFC@_WV?$ChTraitsCRT@_W@ATL@@@@@ATL@@QAE@PB_W@Z ; ATL::CStringT<wchar_t,StrTraitMFC<wchar_t,ATL::ChTraitsCRT<wchar_t> > >::CStringT<wchar_t,StrTraitMFC<wchar_t,ATL::ChTraitsCRT<wchar_t> > >
  001cb	c6 45 fc 14	 mov	 BYTE PTR __$EHRec$[ebp+8], 20 ; 00000014H

; 453  : 	_T("02 12 FF"),

  001cf	68 00 00 00 00	 push	 OFFSET ??_C@_1BC@CNFPGIGK@?$AA0?$AA2?$AA?5?$AA1?$AA2?$AA?5?$AAF?$AAF?$AA?$AA@
  001d4	b9 54 00 00 00	 mov	 ecx, OFFSET _strDeviceCmd+84
  001d9	e8 00 00 00 00	 call	 ??0?$CStringT@_WV?$StrTraitMFC@_WV?$ChTraitsCRT@_W@ATL@@@@@ATL@@QAE@PB_W@Z ; ATL::CStringT<wchar_t,StrTraitMFC<wchar_t,ATL::ChTraitsCRT<wchar_t> > >::CStringT<wchar_t,StrTraitMFC<wchar_t,ATL::ChTraitsCRT<wchar_t> > >
  001de	c6 45 fc 15	 mov	 BYTE PTR __$EHRec$[ebp+8], 21 ; 00000015H

; 454  : 	_T("02 12 00"),

  001e2	68 00 00 00 00	 push	 OFFSET ??_C@_1BC@LOHAHJPG@?$AA0?$AA2?$AA?5?$AA1?$AA2?$AA?5?$AA0?$AA0?$AA?$AA@
  001e7	b9 58 00 00 00	 mov	 ecx, OFFSET _strDeviceCmd+88
  001ec	e8 00 00 00 00	 call	 ??0?$CStringT@_WV?$StrTraitMFC@_WV?$ChTraitsCRT@_W@ATL@@@@@ATL@@QAE@PB_W@Z ; ATL::CStringT<wchar_t,StrTraitMFC<wchar_t,ATL::ChTraitsCRT<wchar_t> > >::CStringT<wchar_t,StrTraitMFC<wchar_t,ATL::ChTraitsCRT<wchar_t> > >
  001f1	c6 45 fc 16	 mov	 BYTE PTR __$EHRec$[ebp+8], 22 ; 00000016H

; 455  : 	_T("02 13 FF"),

  001f5	68 00 00 00 00	 push	 OFFSET ??_C@_1BC@MCJNADFE@?$AA0?$AA2?$AA?5?$AA1?$AA3?$AA?5?$AAF?$AAF?$AA?$AA@
  001fa	b9 5c 00 00 00	 mov	 ecx, OFFSET _strDeviceCmd+92
  001ff	e8 00 00 00 00	 call	 ??0?$CStringT@_WV?$StrTraitMFC@_WV?$ChTraitsCRT@_W@ATL@@@@@ATL@@QAE@PB_W@Z ; ATL::CStringT<wchar_t,StrTraitMFC<wchar_t,ATL::ChTraitsCRT<wchar_t> > >::CStringT<wchar_t,StrTraitMFC<wchar_t,ATL::ChTraitsCRT<wchar_t> > >
  00204	c6 45 fc 17	 mov	 BYTE PTR __$EHRec$[ebp+8], 23 ; 00000017H

; 456  : 	_T("02 13 00"),

  00208	68 00 00 00 00	 push	 OFFSET ??_C@_1BC@FBLCBCMI@?$AA0?$AA2?$AA?5?$AA1?$AA3?$AA?5?$AA0?$AA0?$AA?$AA@
  0020d	b9 60 00 00 00	 mov	 ecx, OFFSET _strDeviceCmd+96
  00212	e8 00 00 00 00	 call	 ??0?$CStringT@_WV?$StrTraitMFC@_WV?$ChTraitsCRT@_W@ATL@@@@@ATL@@QAE@PB_W@Z ; ATL::CStringT<wchar_t,StrTraitMFC<wchar_t,ATL::ChTraitsCRT<wchar_t> > >::CStringT<wchar_t,StrTraitMFC<wchar_t,ATL::ChTraitsCRT<wchar_t> > >
  00217	c6 45 fc 18	 mov	 BYTE PTR __$EHRec$[ebp+8], 24 ; 00000018H

; 457  : 	_T("02 14 FF"),

  0021b	68 00 00 00 00	 push	 OFFSET ??_C@_1BC@CAEBBICN@?$AA0?$AA2?$AA?5?$AA1?$AA4?$AA?5?$AAF?$AAF?$AA?$AA@
  00220	b9 64 00 00 00	 mov	 ecx, OFFSET _strDeviceCmd+100
  00225	e8 00 00 00 00	 call	 ??0?$CStringT@_WV?$StrTraitMFC@_WV?$ChTraitsCRT@_W@ATL@@@@@ATL@@QAE@PB_W@Z ; ATL::CStringT<wchar_t,StrTraitMFC<wchar_t,ATL::ChTraitsCRT<wchar_t> > >::CStringT<wchar_t,StrTraitMFC<wchar_t,ATL::ChTraitsCRT<wchar_t> > >
  0022a	c6 45 fc 19	 mov	 BYTE PTR __$EHRec$[ebp+8], 25 ; 00000019H

; 458  : 	_T("02 14 00"),

  0022e	68 00 00 00 00	 push	 OFFSET ??_C@_1BC@LDGOAJLB@?$AA0?$AA2?$AA?5?$AA1?$AA4?$AA?5?$AA0?$AA0?$AA?$AA@
  00233	b9 68 00 00 00	 mov	 ecx, OFFSET _strDeviceCmd+104
  00238	e8 00 00 00 00	 call	 ??0?$CStringT@_WV?$StrTraitMFC@_WV?$ChTraitsCRT@_W@ATL@@@@@ATL@@QAE@PB_W@Z ; ATL::CStringT<wchar_t,StrTraitMFC<wchar_t,ATL::ChTraitsCRT<wchar_t> > >::CStringT<wchar_t,StrTraitMFC<wchar_t,ATL::ChTraitsCRT<wchar_t> > >
  0023d	c6 45 fc 1a	 mov	 BYTE PTR __$EHRec$[ebp+8], 26 ; 0000001aH

; 459  : 	_T("02 15 FF"),

  00241	68 00 00 00 00	 push	 OFFSET ??_C@_1BC@MPIDHDBD@?$AA0?$AA2?$AA?5?$AA1?$AA5?$AA?5?$AAF?$AAF?$AA?$AA@
  00246	b9 6c 00 00 00	 mov	 ecx, OFFSET _strDeviceCmd+108
  0024b	e8 00 00 00 00	 call	 ??0?$CStringT@_WV?$StrTraitMFC@_WV?$ChTraitsCRT@_W@ATL@@@@@ATL@@QAE@PB_W@Z ; ATL::CStringT<wchar_t,StrTraitMFC<wchar_t,ATL::ChTraitsCRT<wchar_t> > >::CStringT<wchar_t,StrTraitMFC<wchar_t,ATL::ChTraitsCRT<wchar_t> > >
  00250	c6 45 fc 1b	 mov	 BYTE PTR __$EHRec$[ebp+8], 27 ; 0000001bH

; 460  : 	_T("02 15 00"),

  00254	68 00 00 00 00	 push	 OFFSET ??_C@_1BC@FMKMGCIP@?$AA0?$AA2?$AA?5?$AA1?$AA5?$AA?5?$AA0?$AA0?$AA?$AA@
  00259	b9 70 00 00 00	 mov	 ecx, OFFSET _strDeviceCmd+112
  0025e	e8 00 00 00 00	 call	 ??0?$CStringT@_WV?$StrTraitMFC@_WV?$ChTraitsCRT@_W@ATL@@@@@ATL@@QAE@PB_W@Z ; ATL::CStringT<wchar_t,StrTraitMFC<wchar_t,ATL::ChTraitsCRT<wchar_t> > >::CStringT<wchar_t,StrTraitMFC<wchar_t,ATL::ChTraitsCRT<wchar_t> > >
  00263	c6 45 fc 1c	 mov	 BYTE PTR __$EHRec$[ebp+8], 28 ; 0000001cH

; 461  : 	_T("02 16 FF"),

  00267	68 00 00 00 00	 push	 OFFSET ??_C@_1BC@CELEMIBA@?$AA0?$AA2?$AA?5?$AA1?$AA6?$AA?5?$AAF?$AAF?$AA?$AA@
  0026c	b9 74 00 00 00	 mov	 ecx, OFFSET _strDeviceCmd+116
  00271	e8 00 00 00 00	 call	 ??0?$CStringT@_WV?$StrTraitMFC@_WV?$ChTraitsCRT@_W@ATL@@@@@ATL@@QAE@PB_W@Z ; ATL::CStringT<wchar_t,StrTraitMFC<wchar_t,ATL::ChTraitsCRT<wchar_t> > >::CStringT<wchar_t,StrTraitMFC<wchar_t,ATL::ChTraitsCRT<wchar_t> > >
  00276	c6 45 fc 1d	 mov	 BYTE PTR __$EHRec$[ebp+8], 29 ; 0000001dH

; 462  : 	_T("02 16 00"),

  0027a	68 00 00 00 00	 push	 OFFSET ??_C@_1BC@LHJLNJIM@?$AA0?$AA2?$AA?5?$AA1?$AA6?$AA?5?$AA0?$AA0?$AA?$AA@
  0027f	b9 78 00 00 00	 mov	 ecx, OFFSET _strDeviceCmd+120
  00284	e8 00 00 00 00	 call	 ??0?$CStringT@_WV?$StrTraitMFC@_WV?$ChTraitsCRT@_W@ATL@@@@@ATL@@QAE@PB_W@Z ; ATL::CStringT<wchar_t,StrTraitMFC<wchar_t,ATL::ChTraitsCRT<wchar_t> > >::CStringT<wchar_t,StrTraitMFC<wchar_t,ATL::ChTraitsCRT<wchar_t> > >
  00289	c6 45 fc 1e	 mov	 BYTE PTR __$EHRec$[ebp+8], 30 ; 0000001eH

; 463  : 	_T("02 17 FF"),

  0028d	68 00 00 00 00	 push	 OFFSET ??_C@_1BC@MLHGKDCO@?$AA0?$AA2?$AA?5?$AA1?$AA7?$AA?5?$AAF?$AAF?$AA?$AA@
  00292	b9 7c 00 00 00	 mov	 ecx, OFFSET _strDeviceCmd+124
  00297	e8 00 00 00 00	 call	 ??0?$CStringT@_WV?$StrTraitMFC@_WV?$ChTraitsCRT@_W@ATL@@@@@ATL@@QAE@PB_W@Z ; ATL::CStringT<wchar_t,StrTraitMFC<wchar_t,ATL::ChTraitsCRT<wchar_t> > >::CStringT<wchar_t,StrTraitMFC<wchar_t,ATL::ChTraitsCRT<wchar_t> > >
  0029c	c6 45 fc 1f	 mov	 BYTE PTR __$EHRec$[ebp+8], 31 ; 0000001fH

; 464  : 	_T("02 17 00"),

  002a0	68 00 00 00 00	 push	 OFFSET ??_C@_1BC@FIFJLCLC@?$AA0?$AA2?$AA?5?$AA1?$AA7?$AA?5?$AA0?$AA0?$AA?$AA@
  002a5	b9 80 00 00 00	 mov	 ecx, OFFSET _strDeviceCmd+128
  002aa	e8 00 00 00 00	 call	 ??0?$CStringT@_WV?$StrTraitMFC@_WV?$ChTraitsCRT@_W@ATL@@@@@ATL@@QAE@PB_W@Z ; ATL::CStringT<wchar_t,StrTraitMFC<wchar_t,ATL::ChTraitsCRT<wchar_t> > >::CStringT<wchar_t,StrTraitMFC<wchar_t,ATL::ChTraitsCRT<wchar_t> > >
  002af	c6 45 fc 20	 mov	 BYTE PTR __$EHRec$[ebp+8], 32 ; 00000020H

; 465  : 	_T("02 11"),

  002b3	68 00 00 00 00	 push	 OFFSET ??_C@_1M@ICMCHEAL@?$AA0?$AA2?$AA?5?$AA1?$AA1?$AA?$AA@
  002b8	b9 84 00 00 00	 mov	 ecx, OFFSET _strDeviceCmd+132
  002bd	e8 00 00 00 00	 call	 ??0?$CStringT@_WV?$StrTraitMFC@_WV?$ChTraitsCRT@_W@ATL@@@@@ATL@@QAE@PB_W@Z ; ATL::CStringT<wchar_t,StrTraitMFC<wchar_t,ATL::ChTraitsCRT<wchar_t> > >::CStringT<wchar_t,StrTraitMFC<wchar_t,ATL::ChTraitsCRT<wchar_t> > >
  002c2	c6 45 fc 21	 mov	 BYTE PTR __$EHRec$[ebp+8], 33 ; 00000021H

; 466  : 	_T("02 12"),

  002c6	68 00 00 00 00	 push	 OFFSET ??_C@_1M@JAHHNLOF@?$AA0?$AA2?$AA?5?$AA1?$AA2?$AA?$AA@
  002cb	b9 88 00 00 00	 mov	 ecx, OFFSET _strDeviceCmd+136
  002d0	e8 00 00 00 00	 call	 ??0?$CStringT@_WV?$StrTraitMFC@_WV?$ChTraitsCRT@_W@ATL@@@@@ATL@@QAE@PB_W@Z ; ATL::CStringT<wchar_t,StrTraitMFC<wchar_t,ATL::ChTraitsCRT<wchar_t> > >::CStringT<wchar_t,StrTraitMFC<wchar_t,ATL::ChTraitsCRT<wchar_t> > >
  002d5	c6 45 fc 22	 mov	 BYTE PTR __$EHRec$[ebp+8], 34 ; 00000022H

; 467  : 	_T("02 13"),

  002d9	68 00 00 00 00	 push	 OFFSET ??_C@_1M@CIMLLMIA@?$AA0?$AA2?$AA?5?$AA1?$AA3?$AA?$AA@
  002de	b9 8c 00 00 00	 mov	 ecx, OFFSET _strDeviceCmd+140
  002e3	e8 00 00 00 00	 call	 ??0?$CStringT@_WV?$StrTraitMFC@_WV?$ChTraitsCRT@_W@ATL@@@@@ATL@@QAE@PB_W@Z ; ATL::CStringT<wchar_t,StrTraitMFC<wchar_t,ATL::ChTraitsCRT<wchar_t> > >::CStringT<wchar_t,StrTraitMFC<wchar_t,ATL::ChTraitsCRT<wchar_t> > >
  002e8	c6 45 fc 23	 mov	 BYTE PTR __$EHRec$[ebp+8], 35 ; 00000023H

; 468  : 	_T("02 14"),

  002ec	68 00 00 00 00	 push	 OFFSET ??_C@_1M@LFBMIEDJ@?$AA0?$AA2?$AA?5?$AA1?$AA4?$AA?$AA@
  002f1	b9 90 00 00 00	 mov	 ecx, OFFSET _strDeviceCmd+144
  002f6	e8 00 00 00 00	 call	 ??0?$CStringT@_WV?$StrTraitMFC@_WV?$ChTraitsCRT@_W@ATL@@@@@ATL@@QAE@PB_W@Z ; ATL::CStringT<wchar_t,StrTraitMFC<wchar_t,ATL::ChTraitsCRT<wchar_t> > >::CStringT<wchar_t,StrTraitMFC<wchar_t,ATL::ChTraitsCRT<wchar_t> > >
  002fb	c6 45 fc 24	 mov	 BYTE PTR __$EHRec$[ebp+8], 36 ; 00000024H

; 469  : 	_T("02 15"),

  002ff	68 00 00 00 00	 push	 OFFSET ??_C@_1M@NKAODFM@?$AA0?$AA2?$AA?5?$AA1?$AA5?$AA?$AA@
  00304	b9 94 00 00 00	 mov	 ecx, OFFSET _strDeviceCmd+148
  00309	e8 00 00 00 00	 call	 ??0?$CStringT@_WV?$StrTraitMFC@_WV?$ChTraitsCRT@_W@ATL@@@@@ATL@@QAE@PB_W@Z ; ATL::CStringT<wchar_t,StrTraitMFC<wchar_t,ATL::ChTraitsCRT<wchar_t> > >::CStringT<wchar_t,StrTraitMFC<wchar_t,ATL::ChTraitsCRT<wchar_t> > >
  0030e	c6 45 fc 25	 mov	 BYTE PTR __$EHRec$[ebp+8], 37 ; 00000025H

; 470  : 	_T("02 16"),

  00312	68 00 00 00 00	 push	 OFFSET ??_C@_1M@BPBFEMLC@?$AA0?$AA2?$AA?5?$AA1?$AA6?$AA?$AA@
  00317	b9 98 00 00 00	 mov	 ecx, OFFSET _strDeviceCmd+152
  0031c	e8 00 00 00 00	 call	 ??0?$CStringT@_WV?$StrTraitMFC@_WV?$ChTraitsCRT@_W@ATL@@@@@ATL@@QAE@PB_W@Z ; ATL::CStringT<wchar_t,StrTraitMFC<wchar_t,ATL::ChTraitsCRT<wchar_t> > >::CStringT<wchar_t,StrTraitMFC<wchar_t,ATL::ChTraitsCRT<wchar_t> > >
  00321	c6 45 fc 26	 mov	 BYTE PTR __$EHRec$[ebp+8], 38 ; 00000026H

; 471  : 	_T("02 17"),

  00325	68 00 00 00 00	 push	 OFFSET ??_C@_1M@KHKJCLNH@?$AA0?$AA2?$AA?5?$AA1?$AA7?$AA?$AA@
  0032a	b9 9c 00 00 00	 mov	 ecx, OFFSET _strDeviceCmd+156
  0032f	e8 00 00 00 00	 call	 ??0?$CStringT@_WV?$StrTraitMFC@_WV?$ChTraitsCRT@_W@ATL@@@@@ATL@@QAE@PB_W@Z ; ATL::CStringT<wchar_t,StrTraitMFC<wchar_t,ATL::ChTraitsCRT<wchar_t> > >::CStringT<wchar_t,StrTraitMFC<wchar_t,ATL::ChTraitsCRT<wchar_t> > >
  00334	c6 45 fc 27	 mov	 BYTE PTR __$EHRec$[ebp+8], 39 ; 00000027H

; 472  : 	_T("02 FF"),				//

  00338	68 00 00 00 00	 push	 OFFSET ??_C@_1M@GCANNBFH@?$AA0?$AA2?$AA?5?$AAF?$AAF?$AA?$AA@
  0033d	b9 a0 00 00 00	 mov	 ecx, OFFSET _strDeviceCmd+160
  00342	e8 00 00 00 00	 call	 ??0?$CStringT@_WV?$StrTraitMFC@_WV?$ChTraitsCRT@_W@ATL@@@@@ATL@@QAE@PB_W@Z ; ATL::CStringT<wchar_t,StrTraitMFC<wchar_t,ATL::ChTraitsCRT<wchar_t> > >::CStringT<wchar_t,StrTraitMFC<wchar_t,ATL::ChTraitsCRT<wchar_t> > >
  00347	c6 45 fc 28	 mov	 BYTE PTR __$EHRec$[ebp+8], 40 ; 00000028H

; 473  : 
; 474  : 	_T("03 01"),				//AD

  0034b	68 00 00 00 00	 push	 OFFSET ??_C@_1M@KGFMMMJA@?$AA0?$AA3?$AA?5?$AA0?$AA1?$AA?$AA@
  00350	b9 a4 00 00 00	 mov	 ecx, OFFSET _strDeviceCmd+164
  00355	e8 00 00 00 00	 call	 ??0?$CStringT@_WV?$StrTraitMFC@_WV?$ChTraitsCRT@_W@ATL@@@@@ATL@@QAE@PB_W@Z ; ATL::CStringT<wchar_t,StrTraitMFC<wchar_t,ATL::ChTraitsCRT<wchar_t> > >::CStringT<wchar_t,StrTraitMFC<wchar_t,ATL::ChTraitsCRT<wchar_t> > >
  0035a	c6 45 fc 29	 mov	 BYTE PTR __$EHRec$[ebp+8], 41 ; 00000029H

; 475  : 	_T("03 02"),				//

  0035e	68 00 00 00 00	 push	 OFFSET ??_C@_1M@LEOJGDHO@?$AA0?$AA3?$AA?5?$AA0?$AA2?$AA?$AA@
  00363	b9 a8 00 00 00	 mov	 ecx, OFFSET _strDeviceCmd+168
  00368	e8 00 00 00 00	 call	 ??0?$CStringT@_WV?$StrTraitMFC@_WV?$ChTraitsCRT@_W@ATL@@@@@ATL@@QAE@PB_W@Z ; ATL::CStringT<wchar_t,StrTraitMFC<wchar_t,ATL::ChTraitsCRT<wchar_t> > >::CStringT<wchar_t,StrTraitMFC<wchar_t,ATL::ChTraitsCRT<wchar_t> > >
  0036d	c6 45 fc 2a	 mov	 BYTE PTR __$EHRec$[ebp+8], 42 ; 0000002aH

; 476  : 	_T("03 03"),				//

  00371	68 00 00 00 00	 push	 OFFSET ??_C@_1M@MFFAEBL@?$AA0?$AA3?$AA?5?$AA0?$AA3?$AA?$AA@
  00376	b9 ac 00 00 00	 mov	 ecx, OFFSET _strDeviceCmd+172
  0037b	e8 00 00 00 00	 call	 ??0?$CStringT@_WV?$StrTraitMFC@_WV?$ChTraitsCRT@_W@ATL@@@@@ATL@@QAE@PB_W@Z ; ATL::CStringT<wchar_t,StrTraitMFC<wchar_t,ATL::ChTraitsCRT<wchar_t> > >::CStringT<wchar_t,StrTraitMFC<wchar_t,ATL::ChTraitsCRT<wchar_t> > >
  00380	c6 45 fc 2b	 mov	 BYTE PTR __$EHRec$[ebp+8], 43 ; 0000002bH

; 477  : 
; 478  : 	_T("04 00 FF"),

  00384	68 00 00 00 00	 push	 OFFSET ??_C@_1BC@OBJOJNNM@?$AA0?$AA4?$AA?5?$AA0?$AA0?$AA?5?$AAF?$AAF?$AA?$AA@
  00389	b9 b0 00 00 00	 mov	 ecx, OFFSET _strDeviceCmd+176
  0038e	e8 00 00 00 00	 call	 ??0?$CStringT@_WV?$StrTraitMFC@_WV?$ChTraitsCRT@_W@ATL@@@@@ATL@@QAE@PB_W@Z ; ATL::CStringT<wchar_t,StrTraitMFC<wchar_t,ATL::ChTraitsCRT<wchar_t> > >::CStringT<wchar_t,StrTraitMFC<wchar_t,ATL::ChTraitsCRT<wchar_t> > >
  00393	c6 45 fc 2c	 mov	 BYTE PTR __$EHRec$[ebp+8], 44 ; 0000002cH

; 479  : 	_T("04 00 00"),

  00397	68 00 00 00 00	 push	 OFFSET ??_C@_1BC@HCLBIMEA@?$AA0?$AA4?$AA?5?$AA0?$AA0?$AA?5?$AA0?$AA0?$AA?$AA@
  0039c	b9 b4 00 00 00	 mov	 ecx, OFFSET _strDeviceCmd+180
  003a1	e8 00 00 00 00	 call	 ??0?$CStringT@_WV?$StrTraitMFC@_WV?$ChTraitsCRT@_W@ATL@@@@@ATL@@QAE@PB_W@Z ; ATL::CStringT<wchar_t,StrTraitMFC<wchar_t,ATL::ChTraitsCRT<wchar_t> > >::CStringT<wchar_t,StrTraitMFC<wchar_t,ATL::ChTraitsCRT<wchar_t> > >
  003a6	c6 45 fc 2d	 mov	 BYTE PTR __$EHRec$[ebp+8], 45 ; 0000002dH

; 480  : 	_T("04 01 FF"),

  003aa	68 00 00 00 00	 push	 OFFSET ??_C@_1BC@OFMPGOC@?$AA0?$AA4?$AA?5?$AA0?$AA1?$AA?5?$AAF?$AAF?$AA?$AA@
  003af	b9 b8 00 00 00	 mov	 ecx, OFFSET _strDeviceCmd+184
  003b4	e8 00 00 00 00	 call	 ??0?$CStringT@_WV?$StrTraitMFC@_WV?$ChTraitsCRT@_W@ATL@@@@@ATL@@QAE@PB_W@Z ; ATL::CStringT<wchar_t,StrTraitMFC<wchar_t,ATL::ChTraitsCRT<wchar_t> > >::CStringT<wchar_t,StrTraitMFC<wchar_t,ATL::ChTraitsCRT<wchar_t> > >
  003b9	c6 45 fc 2e	 mov	 BYTE PTR __$EHRec$[ebp+8], 46 ; 0000002eH

; 481  : 	_T("04 01 00"),

  003bd	68 00 00 00 00	 push	 OFFSET ??_C@_1BC@JNHDOHHO@?$AA0?$AA4?$AA?5?$AA0?$AA1?$AA?5?$AA0?$AA0?$AA?$AA@
  003c2	b9 bc 00 00 00	 mov	 ecx, OFFSET _strDeviceCmd+188
  003c7	e8 00 00 00 00	 call	 ??0?$CStringT@_WV?$StrTraitMFC@_WV?$ChTraitsCRT@_W@ATL@@@@@ATL@@QAE@PB_W@Z ; ATL::CStringT<wchar_t,StrTraitMFC<wchar_t,ATL::ChTraitsCRT<wchar_t> > >::CStringT<wchar_t,StrTraitMFC<wchar_t,ATL::ChTraitsCRT<wchar_t> > >
  003cc	c6 45 fc 2f	 mov	 BYTE PTR __$EHRec$[ebp+8], 47 ; 0000002fH

; 482  : 	_T("04 02 FF"),

  003d0	68 00 00 00 00	 push	 OFFSET ??_C@_1BC@OFGLENOB@?$AA0?$AA4?$AA?5?$AA0?$AA2?$AA?5?$AAF?$AAF?$AA?$AA@
  003d5	b9 c0 00 00 00	 mov	 ecx, OFFSET _strDeviceCmd+192
  003da	e8 00 00 00 00	 call	 ??0?$CStringT@_WV?$StrTraitMFC@_WV?$ChTraitsCRT@_W@ATL@@@@@ATL@@QAE@PB_W@Z ; ATL::CStringT<wchar_t,StrTraitMFC<wchar_t,ATL::ChTraitsCRT<wchar_t> > >::CStringT<wchar_t,StrTraitMFC<wchar_t,ATL::ChTraitsCRT<wchar_t> > >
  003df	c6 45 fc 30	 mov	 BYTE PTR __$EHRec$[ebp+8], 48 ; 00000030H

; 483  : 	_T("04 02 00"),

  003e3	68 00 00 00 00	 push	 OFFSET ??_C@_1BC@HGEEFMHN@?$AA0?$AA4?$AA?5?$AA0?$AA2?$AA?5?$AA0?$AA0?$AA?$AA@
  003e8	b9 c4 00 00 00	 mov	 ecx, OFFSET _strDeviceCmd+196
  003ed	e8 00 00 00 00	 call	 ??0?$CStringT@_WV?$StrTraitMFC@_WV?$ChTraitsCRT@_W@ATL@@@@@ATL@@QAE@PB_W@Z ; ATL::CStringT<wchar_t,StrTraitMFC<wchar_t,ATL::ChTraitsCRT<wchar_t> > >::CStringT<wchar_t,StrTraitMFC<wchar_t,ATL::ChTraitsCRT<wchar_t> > >
  003f2	c6 45 fc 31	 mov	 BYTE PTR __$EHRec$[ebp+8], 49 ; 00000031H

; 484  : 	_T("04 03"),

  003f6	68 00 00 00 00	 push	 OFFSET ??_C@_1M@OOIJBPGC@?$AA0?$AA4?$AA?5?$AA0?$AA3?$AA?$AA@
  003fb	b9 c8 00 00 00	 mov	 ecx, OFFSET _strDeviceCmd+200
  00400	e8 00 00 00 00	 call	 ??0?$CStringT@_WV?$StrTraitMFC@_WV?$ChTraitsCRT@_W@ATL@@@@@ATL@@QAE@PB_W@Z ; ATL::CStringT<wchar_t,StrTraitMFC<wchar_t,ATL::ChTraitsCRT<wchar_t> > >::CStringT<wchar_t,StrTraitMFC<wchar_t,ATL::ChTraitsCRT<wchar_t> > >
  00405	c6 45 fc 32	 mov	 BYTE PTR __$EHRec$[ebp+8], 50 ; 00000032H

; 485  : 	_T("04 03"),

  00409	68 00 00 00 00	 push	 OFFSET ??_C@_1M@OOIJBPGC@?$AA0?$AA4?$AA?5?$AA0?$AA3?$AA?$AA@
  0040e	b9 cc 00 00 00	 mov	 ecx, OFFSET _strDeviceCmd+204
  00413	e8 00 00 00 00	 call	 ??0?$CStringT@_WV?$StrTraitMFC@_WV?$ChTraitsCRT@_W@ATL@@@@@ATL@@QAE@PB_W@Z ; ATL::CStringT<wchar_t,StrTraitMFC<wchar_t,ATL::ChTraitsCRT<wchar_t> > >::CStringT<wchar_t,StrTraitMFC<wchar_t,ATL::ChTraitsCRT<wchar_t> > >
  00418	c6 45 fc 33	 mov	 BYTE PTR __$EHRec$[ebp+8], 51 ; 00000033H

; 486  : 	_T("04 04 FF"),

  0041c	68 00 00 00 00	 push	 OFFSET ??_C@_1BC@OIHFDNKG@?$AA0?$AA4?$AA?5?$AA0?$AA4?$AA?5?$AAF?$AAF?$AA?$AA@
  00421	b9 d0 00 00 00	 mov	 ecx, OFFSET _strDeviceCmd+208
  00426	e8 00 00 00 00	 call	 ??0?$CStringT@_WV?$StrTraitMFC@_WV?$ChTraitsCRT@_W@ATL@@@@@ATL@@QAE@PB_W@Z ; ATL::CStringT<wchar_t,StrTraitMFC<wchar_t,ATL::ChTraitsCRT<wchar_t> > >::CStringT<wchar_t,StrTraitMFC<wchar_t,ATL::ChTraitsCRT<wchar_t> > >
  0042b	c6 45 fc 34	 mov	 BYTE PTR __$EHRec$[ebp+8], 52 ; 00000034H

; 487  : 	_T("04 04 00"),

  0042f	68 00 00 00 00	 push	 OFFSET ??_C@_1BC@HLFKCMDK@?$AA0?$AA4?$AA?5?$AA0?$AA4?$AA?5?$AA0?$AA0?$AA?$AA@
  00434	b9 d4 00 00 00	 mov	 ecx, OFFSET _strDeviceCmd+212
  00439	e8 00 00 00 00	 call	 ??0?$CStringT@_WV?$StrTraitMFC@_WV?$ChTraitsCRT@_W@ATL@@@@@ATL@@QAE@PB_W@Z ; ATL::CStringT<wchar_t,StrTraitMFC<wchar_t,ATL::ChTraitsCRT<wchar_t> > >::CStringT<wchar_t,StrTraitMFC<wchar_t,ATL::ChTraitsCRT<wchar_t> > >
  0043e	c6 45 fc 35	 mov	 BYTE PTR __$EHRec$[ebp+8], 53 ; 00000035H

; 488  : 	_T("04 05 FF"),

  00442	68 00 00 00 00	 push	 OFFSET ??_C@_1BC@HLHFGJI@?$AA0?$AA4?$AA?5?$AA0?$AA5?$AA?5?$AAF?$AAF?$AA?$AA@
  00447	b9 d8 00 00 00	 mov	 ecx, OFFSET _strDeviceCmd+216
  0044c	e8 00 00 00 00	 call	 ??0?$CStringT@_WV?$StrTraitMFC@_WV?$ChTraitsCRT@_W@ATL@@@@@ATL@@QAE@PB_W@Z ; ATL::CStringT<wchar_t,StrTraitMFC<wchar_t,ATL::ChTraitsCRT<wchar_t> > >::CStringT<wchar_t,StrTraitMFC<wchar_t,ATL::ChTraitsCRT<wchar_t> > >
  00451	c6 45 fc 36	 mov	 BYTE PTR __$EHRec$[ebp+8], 54 ; 00000036H

; 489  : 	_T("04 05 00"),

  00455	68 00 00 00 00	 push	 OFFSET ??_C@_1BC@JEJIEHAE@?$AA0?$AA4?$AA?5?$AA0?$AA5?$AA?5?$AA0?$AA0?$AA?$AA@
  0045a	b9 dc 00 00 00	 mov	 ecx, OFFSET _strDeviceCmd+220
  0045f	e8 00 00 00 00	 call	 ??0?$CStringT@_WV?$StrTraitMFC@_WV?$ChTraitsCRT@_W@ATL@@@@@ATL@@QAE@PB_W@Z ; ATL::CStringT<wchar_t,StrTraitMFC<wchar_t,ATL::ChTraitsCRT<wchar_t> > >::CStringT<wchar_t,StrTraitMFC<wchar_t,ATL::ChTraitsCRT<wchar_t> > >
  00464	c6 45 fc 37	 mov	 BYTE PTR __$EHRec$[ebp+8], 55 ; 00000037H

; 490  : 	_T("04 06 FF"),

  00468	68 00 00 00 00	 push	 OFFSET ??_C@_1BC@OMIAONJL@?$AA0?$AA4?$AA?5?$AA0?$AA6?$AA?5?$AAF?$AAF?$AA?$AA@
  0046d	b9 e0 00 00 00	 mov	 ecx, OFFSET _strDeviceCmd+224
  00472	e8 00 00 00 00	 call	 ??0?$CStringT@_WV?$StrTraitMFC@_WV?$ChTraitsCRT@_W@ATL@@@@@ATL@@QAE@PB_W@Z ; ATL::CStringT<wchar_t,StrTraitMFC<wchar_t,ATL::ChTraitsCRT<wchar_t> > >::CStringT<wchar_t,StrTraitMFC<wchar_t,ATL::ChTraitsCRT<wchar_t> > >
  00477	c6 45 fc 38	 mov	 BYTE PTR __$EHRec$[ebp+8], 56 ; 00000038H

; 491  : 	_T("04 06 00"),

  0047b	68 00 00 00 00	 push	 OFFSET ??_C@_1BC@HPKPPMAH@?$AA0?$AA4?$AA?5?$AA0?$AA6?$AA?5?$AA0?$AA0?$AA?$AA@
  00480	b9 e4 00 00 00	 mov	 ecx, OFFSET _strDeviceCmd+228
  00485	e8 00 00 00 00	 call	 ??0?$CStringT@_WV?$StrTraitMFC@_WV?$ChTraitsCRT@_W@ATL@@@@@ATL@@QAE@PB_W@Z ; ATL::CStringT<wchar_t,StrTraitMFC<wchar_t,ATL::ChTraitsCRT<wchar_t> > >::CStringT<wchar_t,StrTraitMFC<wchar_t,ATL::ChTraitsCRT<wchar_t> > >
  0048a	c6 45 fc 39	 mov	 BYTE PTR __$EHRec$[ebp+8], 57 ; 00000039H

; 492  : 	_T("04 07 FF"),				//4

  0048e	68 00 00 00 00	 push	 OFFSET ??_C@_1BC@DECIGKF@?$AA0?$AA4?$AA?5?$AA0?$AA7?$AA?5?$AAF?$AAF?$AA?$AA@
  00493	b9 e8 00 00 00	 mov	 ecx, OFFSET _strDeviceCmd+232
  00498	e8 00 00 00 00	 call	 ??0?$CStringT@_WV?$StrTraitMFC@_WV?$ChTraitsCRT@_W@ATL@@@@@ATL@@QAE@PB_W@Z ; ATL::CStringT<wchar_t,StrTraitMFC<wchar_t,ATL::ChTraitsCRT<wchar_t> > >::CStringT<wchar_t,StrTraitMFC<wchar_t,ATL::ChTraitsCRT<wchar_t> > >
  0049d	c6 45 fc 3a	 mov	 BYTE PTR __$EHRec$[ebp+8], 58 ; 0000003aH

; 493  : 	_T("04 07 00"),				//4

  004a1	68 00 00 00 00	 push	 OFFSET ??_C@_1BC@JAGNJHDJ@?$AA0?$AA4?$AA?5?$AA0?$AA7?$AA?5?$AA0?$AA0?$AA?$AA@
  004a6	b9 ec 00 00 00	 mov	 ecx, OFFSET _strDeviceCmd+236
  004ab	e8 00 00 00 00	 call	 ??0?$CStringT@_WV?$StrTraitMFC@_WV?$ChTraitsCRT@_W@ATL@@@@@ATL@@QAE@PB_W@Z ; ATL::CStringT<wchar_t,StrTraitMFC<wchar_t,ATL::ChTraitsCRT<wchar_t> > >::CStringT<wchar_t,StrTraitMFC<wchar_t,ATL::ChTraitsCRT<wchar_t> > >
  004b0	c6 45 fc 3b	 mov	 BYTE PTR __$EHRec$[ebp+8], 59 ; 0000003bH

; 494  : 	_T("04 08 FF"),				//5

  004b4	68 00 00 00 00	 push	 OFFSET ??_C@_1BC@PCEJNNCI@?$AA0?$AA4?$AA?5?$AA0?$AA8?$AA?5?$AAF?$AAF?$AA?$AA@
  004b9	b9 f0 00 00 00	 mov	 ecx, OFFSET _strDeviceCmd+240
  004be	e8 00 00 00 00	 call	 ??0?$CStringT@_WV?$StrTraitMFC@_WV?$ChTraitsCRT@_W@ATL@@@@@ATL@@QAE@PB_W@Z ; ATL::CStringT<wchar_t,StrTraitMFC<wchar_t,ATL::ChTraitsCRT<wchar_t> > >::CStringT<wchar_t,StrTraitMFC<wchar_t,ATL::ChTraitsCRT<wchar_t> > >
  004c3	c6 45 fc 3c	 mov	 BYTE PTR __$EHRec$[ebp+8], 60 ; 0000003cH

; 495  : 	_T("04 08 00"),				//5

  004c7	68 00 00 00 00	 push	 OFFSET ??_C@_1BC@GBGGMMLE@?$AA0?$AA4?$AA?5?$AA0?$AA8?$AA?5?$AA0?$AA0?$AA?$AA@
  004cc	b9 f4 00 00 00	 mov	 ecx, OFFSET _strDeviceCmd+244
  004d1	e8 00 00 00 00	 call	 ??0?$CStringT@_WV?$StrTraitMFC@_WV?$ChTraitsCRT@_W@ATL@@@@@ATL@@QAE@PB_W@Z ; ATL::CStringT<wchar_t,StrTraitMFC<wchar_t,ATL::ChTraitsCRT<wchar_t> > >::CStringT<wchar_t,StrTraitMFC<wchar_t,ATL::ChTraitsCRT<wchar_t> > >
  004d6	c6 45 fc 3d	 mov	 BYTE PTR __$EHRec$[ebp+8], 61 ; 0000003dH

; 496  : 	_T("04 09 FF"),

  004da	68 00 00 00 00	 push	 OFFSET ??_C@_1BC@BNILLGBG@?$AA0?$AA4?$AA?5?$AA0?$AA9?$AA?5?$AAF?$AAF?$AA?$AA@
  004df	b9 f8 00 00 00	 mov	 ecx, OFFSET _strDeviceCmd+248
  004e4	e8 00 00 00 00	 call	 ??0?$CStringT@_WV?$StrTraitMFC@_WV?$ChTraitsCRT@_W@ATL@@@@@ATL@@QAE@PB_W@Z ; ATL::CStringT<wchar_t,StrTraitMFC<wchar_t,ATL::ChTraitsCRT<wchar_t> > >::CStringT<wchar_t,StrTraitMFC<wchar_t,ATL::ChTraitsCRT<wchar_t> > >
  004e9	c6 45 fc 3e	 mov	 BYTE PTR __$EHRec$[ebp+8], 62 ; 0000003eH

; 497  : 	_T("04 09 00"),

  004ed	68 00 00 00 00	 push	 OFFSET ??_C@_1BC@IOKEKHIK@?$AA0?$AA4?$AA?5?$AA0?$AA9?$AA?5?$AA0?$AA0?$AA?$AA@
  004f2	b9 fc 00 00 00	 mov	 ecx, OFFSET _strDeviceCmd+252
  004f7	e8 00 00 00 00	 call	 ??0?$CStringT@_WV?$StrTraitMFC@_WV?$ChTraitsCRT@_W@ATL@@@@@ATL@@QAE@PB_W@Z ; ATL::CStringT<wchar_t,StrTraitMFC<wchar_t,ATL::ChTraitsCRT<wchar_t> > >::CStringT<wchar_t,StrTraitMFC<wchar_t,ATL::ChTraitsCRT<wchar_t> > >
  004fc	c6 45 fc 3f	 mov	 BYTE PTR __$EHRec$[ebp+8], 63 ; 0000003fH

; 498  : 	_T("04 0A"),

  00500	68 00 00 00 00	 push	 OFFSET ??_C@_1M@CPLPHHHF@?$AA0?$AA4?$AA?5?$AA0?$AAA?$AA?$AA@
  00505	b9 00 01 00 00	 mov	 ecx, OFFSET _strDeviceCmd+256
  0050a	e8 00 00 00 00	 call	 ??0?$CStringT@_WV?$StrTraitMFC@_WV?$ChTraitsCRT@_W@ATL@@@@@ATL@@QAE@PB_W@Z ; ATL::CStringT<wchar_t,StrTraitMFC<wchar_t,ATL::ChTraitsCRT<wchar_t> > >::CStringT<wchar_t,StrTraitMFC<wchar_t,ATL::ChTraitsCRT<wchar_t> > >
  0050f	c6 45 fc 40	 mov	 BYTE PTR __$EHRec$[ebp+8], 64 ; 00000040H

; 499  : 	_T("04 0A"),

  00513	68 00 00 00 00	 push	 OFFSET ??_C@_1M@CPLPHHHF@?$AA0?$AA4?$AA?5?$AA0?$AAA?$AA?$AA@
  00518	b9 04 01 00 00	 mov	 ecx, OFFSET _strDeviceCmd+260
  0051d	e8 00 00 00 00	 call	 ??0?$CStringT@_WV?$StrTraitMFC@_WV?$ChTraitsCRT@_W@ATL@@@@@ATL@@QAE@PB_W@Z ; ATL::CStringT<wchar_t,StrTraitMFC<wchar_t,ATL::ChTraitsCRT<wchar_t> > >::CStringT<wchar_t,StrTraitMFC<wchar_t,ATL::ChTraitsCRT<wchar_t> > >
  00522	c6 45 fc 41	 mov	 BYTE PTR __$EHRec$[ebp+8], 65 ; 00000041H

; 500  : 	_T("04 0B FF"),

  00526	68 00 00 00 00	 push	 OFFSET ??_C@_1BC@BDCCMIHJ@?$AA0?$AA4?$AA?5?$AA0?$AAB?$AA?5?$AAF?$AAF?$AA?$AA@
  0052b	b9 08 01 00 00	 mov	 ecx, OFFSET _strDeviceCmd+264
  00530	e8 00 00 00 00	 call	 ??0?$CStringT@_WV?$StrTraitMFC@_WV?$ChTraitsCRT@_W@ATL@@@@@ATL@@QAE@PB_W@Z ; ATL::CStringT<wchar_t,StrTraitMFC<wchar_t,ATL::ChTraitsCRT<wchar_t> > >::CStringT<wchar_t,StrTraitMFC<wchar_t,ATL::ChTraitsCRT<wchar_t> > >
  00535	c6 45 fc 42	 mov	 BYTE PTR __$EHRec$[ebp+8], 66 ; 00000042H

; 501  : 	_T("04 0B 00"),

  00539	68 00 00 00 00	 push	 OFFSET ??_C@_1BC@IAANNJOF@?$AA0?$AA4?$AA?5?$AA0?$AAB?$AA?5?$AA0?$AA0?$AA?$AA@
  0053e	b9 0c 01 00 00	 mov	 ecx, OFFSET _strDeviceCmd+268
  00543	e8 00 00 00 00	 call	 ??0?$CStringT@_WV?$StrTraitMFC@_WV?$ChTraitsCRT@_W@ATL@@@@@ATL@@QAE@PB_W@Z ; ATL::CStringT<wchar_t,StrTraitMFC<wchar_t,ATL::ChTraitsCRT<wchar_t> > >::CStringT<wchar_t,StrTraitMFC<wchar_t,ATL::ChTraitsCRT<wchar_t> > >
  00548	c6 45 fc 43	 mov	 BYTE PTR __$EHRec$[ebp+8], 67 ; 00000043H

; 502  : 	_T("04 0C FF"),

  0054c	68 00 00 00 00	 push	 OFFSET ??_C@_1BC@PMOAKDEH@?$AA0?$AA4?$AA?5?$AA0?$AAC?$AA?5?$AAF?$AAF?$AA?$AA@
  00551	b9 10 01 00 00	 mov	 ecx, OFFSET _strDeviceCmd+272
  00556	e8 00 00 00 00	 call	 ??0?$CStringT@_WV?$StrTraitMFC@_WV?$ChTraitsCRT@_W@ATL@@@@@ATL@@QAE@PB_W@Z ; ATL::CStringT<wchar_t,StrTraitMFC<wchar_t,ATL::ChTraitsCRT<wchar_t> > >::CStringT<wchar_t,StrTraitMFC<wchar_t,ATL::ChTraitsCRT<wchar_t> > >
  0055b	c6 45 fc 44	 mov	 BYTE PTR __$EHRec$[ebp+8], 68 ; 00000044H

; 503  : 	_T("04 0C 00"),

  0055f	68 00 00 00 00	 push	 OFFSET ??_C@_1BC@GPMPLCNL@?$AA0?$AA4?$AA?5?$AA0?$AAC?$AA?5?$AA0?$AA0?$AA?$AA@
  00564	b9 14 01 00 00	 mov	 ecx, OFFSET _strDeviceCmd+276
  00569	e8 00 00 00 00	 call	 ??0?$CStringT@_WV?$StrTraitMFC@_WV?$ChTraitsCRT@_W@ATL@@@@@ATL@@QAE@PB_W@Z ; ATL::CStringT<wchar_t,StrTraitMFC<wchar_t,ATL::ChTraitsCRT<wchar_t> > >::CStringT<wchar_t,StrTraitMFC<wchar_t,ATL::ChTraitsCRT<wchar_t> > >
  0056e	c6 45 fc 45	 mov	 BYTE PTR __$EHRec$[ebp+8], 69 ; 00000045H

; 504  : 	_T("04 0D FF"),

  00572	68 00 00 00 00	 push	 OFFSET ??_C@_1BC@BODMLIDO@?$AA0?$AA4?$AA?5?$AA0?$AAD?$AA?5?$AAF?$AAF?$AA?$AA@
  00577	b9 18 01 00 00	 mov	 ecx, OFFSET _strDeviceCmd+280
  0057c	e8 00 00 00 00	 call	 ??0?$CStringT@_WV?$StrTraitMFC@_WV?$ChTraitsCRT@_W@ATL@@@@@ATL@@QAE@PB_W@Z ; ATL::CStringT<wchar_t,StrTraitMFC<wchar_t,ATL::ChTraitsCRT<wchar_t> > >::CStringT<wchar_t,StrTraitMFC<wchar_t,ATL::ChTraitsCRT<wchar_t> > >
  00581	c6 45 fc 46	 mov	 BYTE PTR __$EHRec$[ebp+8], 70 ; 00000046H

; 505  : 	_T("04 0D 00"),

  00585	68 00 00 00 00	 push	 OFFSET ??_C@_1BC@INBDKJKC@?$AA0?$AA4?$AA?5?$AA0?$AAD?$AA?5?$AA0?$AA0?$AA?$AA@
  0058a	b9 1c 01 00 00	 mov	 ecx, OFFSET _strDeviceCmd+284
  0058f	e8 00 00 00 00	 call	 ??0?$CStringT@_WV?$StrTraitMFC@_WV?$ChTraitsCRT@_W@ATL@@@@@ATL@@QAE@PB_W@Z ; ATL::CStringT<wchar_t,StrTraitMFC<wchar_t,ATL::ChTraitsCRT<wchar_t> > >::CStringT<wchar_t,StrTraitMFC<wchar_t,ATL::ChTraitsCRT<wchar_t> > >
  00594	c6 45 fc 47	 mov	 BYTE PTR __$EHRec$[ebp+8], 71 ; 00000047H

; 506  : 
; 507  : 	_T("04 0E FF"),

  00598	68 00 00 00 00	 push	 OFFSET ??_C@_1BC@PBPONDAA@?$AA0?$AA4?$AA?5?$AA0?$AAE?$AA?5?$AAF?$AAF?$AA?$AA@
  0059d	b9 20 01 00 00	 mov	 ecx, OFFSET _strDeviceCmd+288
  005a2	e8 00 00 00 00	 call	 ??0?$CStringT@_WV?$StrTraitMFC@_WV?$ChTraitsCRT@_W@ATL@@@@@ATL@@QAE@PB_W@Z ; ATL::CStringT<wchar_t,StrTraitMFC<wchar_t,ATL::ChTraitsCRT<wchar_t> > >::CStringT<wchar_t,StrTraitMFC<wchar_t,ATL::ChTraitsCRT<wchar_t> > >
  005a7	c6 45 fc 48	 mov	 BYTE PTR __$EHRec$[ebp+8], 72 ; 00000048H

; 508  : 	_T("04 0E 00"),

  005ab	68 00 00 00 00	 push	 OFFSET ??_C@_1BC@GCNBMCJM@?$AA0?$AA4?$AA?5?$AA0?$AAE?$AA?5?$AA0?$AA0?$AA?$AA@
  005b0	b9 24 01 00 00	 mov	 ecx, OFFSET _strDeviceCmd+292
  005b5	e8 00 00 00 00	 call	 ??0?$CStringT@_WV?$StrTraitMFC@_WV?$ChTraitsCRT@_W@ATL@@@@@ATL@@QAE@PB_W@Z ; ATL::CStringT<wchar_t,StrTraitMFC<wchar_t,ATL::ChTraitsCRT<wchar_t> > >::CStringT<wchar_t,StrTraitMFC<wchar_t,ATL::ChTraitsCRT<wchar_t> > >
  005ba	c6 45 fc 49	 mov	 BYTE PTR __$EHRec$[ebp+8], 73 ; 00000049H

; 509  : 	_T("04 0F FF"),

  005be	68 00 00 00 00	 push	 OFFSET ??_C@_1BC@BKMJGIAD@?$AA0?$AA4?$AA?5?$AA0?$AAF?$AA?5?$AAF?$AAF?$AA?$AA@
  005c3	b9 28 01 00 00	 mov	 ecx, OFFSET _strDeviceCmd+296
  005c8	e8 00 00 00 00	 call	 ??0?$CStringT@_WV?$StrTraitMFC@_WV?$ChTraitsCRT@_W@ATL@@@@@ATL@@QAE@PB_W@Z ; ATL::CStringT<wchar_t,StrTraitMFC<wchar_t,ATL::ChTraitsCRT<wchar_t> > >::CStringT<wchar_t,StrTraitMFC<wchar_t,ATL::ChTraitsCRT<wchar_t> > >
  005cd	c6 45 fc 4a	 mov	 BYTE PTR __$EHRec$[ebp+8], 74 ; 0000004aH

; 510  : 	_T("04 0F 00"),

  005d1	68 00 00 00 00	 push	 OFFSET ??_C@_1BC@IJOGHJJP@?$AA0?$AA4?$AA?5?$AA0?$AAF?$AA?5?$AA0?$AA0?$AA?$AA@
  005d6	b9 2c 01 00 00	 mov	 ecx, OFFSET _strDeviceCmd+300
  005db	e8 00 00 00 00	 call	 ??0?$CStringT@_WV?$StrTraitMFC@_WV?$ChTraitsCRT@_W@ATL@@@@@ATL@@QAE@PB_W@Z ; ATL::CStringT<wchar_t,StrTraitMFC<wchar_t,ATL::ChTraitsCRT<wchar_t> > >::CStringT<wchar_t,StrTraitMFC<wchar_t,ATL::ChTraitsCRT<wchar_t> > >
  005e0	c6 45 fc 4b	 mov	 BYTE PTR __$EHRec$[ebp+8], 75 ; 0000004bH

; 511  : 
; 512  : 	_T("04 00"),

  005e4	68 00 00 00 00	 push	 OFFSET ??_C@_1M@PMDMLAIM@?$AA0?$AA4?$AA?5?$AA0?$AA0?$AA?$AA@
  005e9	b9 30 01 00 00	 mov	 ecx, OFFSET _strDeviceCmd+304
  005ee	e8 00 00 00 00	 call	 ??0?$CStringT@_WV?$StrTraitMFC@_WV?$ChTraitsCRT@_W@ATL@@@@@ATL@@QAE@PB_W@Z ; ATL::CStringT<wchar_t,StrTraitMFC<wchar_t,ATL::ChTraitsCRT<wchar_t> > >::CStringT<wchar_t,StrTraitMFC<wchar_t,ATL::ChTraitsCRT<wchar_t> > >
  005f3	c6 45 fc 4c	 mov	 BYTE PTR __$EHRec$[ebp+8], 76 ; 0000004cH

; 513  : 	_T("04 01"),

  005f7	68 00 00 00 00	 push	 OFFSET ??_C@_1M@EEIANHOJ@?$AA0?$AA4?$AA?5?$AA0?$AA1?$AA?$AA@
  005fc	b9 34 01 00 00	 mov	 ecx, OFFSET _strDeviceCmd+308
  00601	e8 00 00 00 00	 call	 ??0?$CStringT@_WV?$StrTraitMFC@_WV?$ChTraitsCRT@_W@ATL@@@@@ATL@@QAE@PB_W@Z ; ATL::CStringT<wchar_t,StrTraitMFC<wchar_t,ATL::ChTraitsCRT<wchar_t> > >::CStringT<wchar_t,StrTraitMFC<wchar_t,ATL::ChTraitsCRT<wchar_t> > >
  00606	c6 45 fc 4d	 mov	 BYTE PTR __$EHRec$[ebp+8], 77 ; 0000004dH

; 514  : 	_T("04 02"),

  0060a	68 00 00 00 00	 push	 OFFSET ??_C@_1M@FGDFHIAH@?$AA0?$AA4?$AA?5?$AA0?$AA2?$AA?$AA@
  0060f	b9 38 01 00 00	 mov	 ecx, OFFSET _strDeviceCmd+312
  00614	e8 00 00 00 00	 call	 ??0?$CStringT@_WV?$StrTraitMFC@_WV?$ChTraitsCRT@_W@ATL@@@@@ATL@@QAE@PB_W@Z ; ATL::CStringT<wchar_t,StrTraitMFC<wchar_t,ATL::ChTraitsCRT<wchar_t> > >::CStringT<wchar_t,StrTraitMFC<wchar_t,ATL::ChTraitsCRT<wchar_t> > >
  00619	c6 45 fc 4e	 mov	 BYTE PTR __$EHRec$[ebp+8], 78 ; 0000004eH

; 515  : 	_T("04 03"),

  0061d	68 00 00 00 00	 push	 OFFSET ??_C@_1M@OOIJBPGC@?$AA0?$AA4?$AA?5?$AA0?$AA3?$AA?$AA@
  00622	b9 3c 01 00 00	 mov	 ecx, OFFSET _strDeviceCmd+316
  00627	e8 00 00 00 00	 call	 ??0?$CStringT@_WV?$StrTraitMFC@_WV?$ChTraitsCRT@_W@ATL@@@@@ATL@@QAE@PB_W@Z ; ATL::CStringT<wchar_t,StrTraitMFC<wchar_t,ATL::ChTraitsCRT<wchar_t> > >::CStringT<wchar_t,StrTraitMFC<wchar_t,ATL::ChTraitsCRT<wchar_t> > >
  0062c	c6 45 fc 4f	 mov	 BYTE PTR __$EHRec$[ebp+8], 79 ; 0000004fH

; 516  : 	_T("04 04"),

  00630	68 00 00 00 00	 push	 OFFSET ??_C@_1M@HDFOCHNL@?$AA0?$AA4?$AA?5?$AA0?$AA4?$AA?$AA@
  00635	b9 40 01 00 00	 mov	 ecx, OFFSET _strDeviceCmd+320
  0063a	e8 00 00 00 00	 call	 ??0?$CStringT@_WV?$StrTraitMFC@_WV?$ChTraitsCRT@_W@ATL@@@@@ATL@@QAE@PB_W@Z ; ATL::CStringT<wchar_t,StrTraitMFC<wchar_t,ATL::ChTraitsCRT<wchar_t> > >::CStringT<wchar_t,StrTraitMFC<wchar_t,ATL::ChTraitsCRT<wchar_t> > >
  0063f	c6 45 fc 50	 mov	 BYTE PTR __$EHRec$[ebp+8], 80 ; 00000050H

; 517  : 	_T("04 05"),

  00643	68 00 00 00 00	 push	 OFFSET ??_C@_1M@MLOCEALO@?$AA0?$AA4?$AA?5?$AA0?$AA5?$AA?$AA@
  00648	b9 44 01 00 00	 mov	 ecx, OFFSET _strDeviceCmd+324
  0064d	e8 00 00 00 00	 call	 ??0?$CStringT@_WV?$StrTraitMFC@_WV?$ChTraitsCRT@_W@ATL@@@@@ATL@@QAE@PB_W@Z ; ATL::CStringT<wchar_t,StrTraitMFC<wchar_t,ATL::ChTraitsCRT<wchar_t> > >::CStringT<wchar_t,StrTraitMFC<wchar_t,ATL::ChTraitsCRT<wchar_t> > >
  00652	c6 45 fc 51	 mov	 BYTE PTR __$EHRec$[ebp+8], 81 ; 00000051H

; 518  : 	_T("04 06"),

  00656	68 00 00 00 00	 push	 OFFSET ??_C@_1M@NJFHOPFA@?$AA0?$AA4?$AA?5?$AA0?$AA6?$AA?$AA@
  0065b	b9 48 01 00 00	 mov	 ecx, OFFSET _strDeviceCmd+328
  00660	e8 00 00 00 00	 call	 ??0?$CStringT@_WV?$StrTraitMFC@_WV?$ChTraitsCRT@_W@ATL@@@@@ATL@@QAE@PB_W@Z ; ATL::CStringT<wchar_t,StrTraitMFC<wchar_t,ATL::ChTraitsCRT<wchar_t> > >::CStringT<wchar_t,StrTraitMFC<wchar_t,ATL::ChTraitsCRT<wchar_t> > >
  00665	c6 45 fc 52	 mov	 BYTE PTR __$EHRec$[ebp+8], 82 ; 00000052H

; 519  : 	_T("04 07"),

  00669	68 00 00 00 00	 push	 OFFSET ??_C@_1M@GBOLIIDF@?$AA0?$AA4?$AA?5?$AA0?$AA7?$AA?$AA@
  0066e	b9 4c 01 00 00	 mov	 ecx, OFFSET _strDeviceCmd+332
  00673	e8 00 00 00 00	 call	 ??0?$CStringT@_WV?$StrTraitMFC@_WV?$ChTraitsCRT@_W@ATL@@@@@ATL@@QAE@PB_W@Z ; ATL::CStringT<wchar_t,StrTraitMFC<wchar_t,ATL::ChTraitsCRT<wchar_t> > >::CStringT<wchar_t,StrTraitMFC<wchar_t,ATL::ChTraitsCRT<wchar_t> > >
  00678	c6 45 fc 53	 mov	 BYTE PTR __$EHRec$[ebp+8], 83 ; 00000053H

; 520  : 	_T("04 08"),

  0067c	68 00 00 00 00	 push	 OFFSET ??_C@_1M@DJIIJIGD@?$AA0?$AA4?$AA?5?$AA0?$AA8?$AA?$AA@
  00681	b9 50 01 00 00	 mov	 ecx, OFFSET _strDeviceCmd+336
  00686	e8 00 00 00 00	 call	 ??0?$CStringT@_WV?$StrTraitMFC@_WV?$ChTraitsCRT@_W@ATL@@@@@ATL@@QAE@PB_W@Z ; ATL::CStringT<wchar_t,StrTraitMFC<wchar_t,ATL::ChTraitsCRT<wchar_t> > >::CStringT<wchar_t,StrTraitMFC<wchar_t,ATL::ChTraitsCRT<wchar_t> > >
  0068b	c6 45 fc 54	 mov	 BYTE PTR __$EHRec$[ebp+8], 84 ; 00000054H

; 521  : 	_T("04 09"),

  0068f	68 00 00 00 00	 push	 OFFSET ??_C@_1M@IBDEPPAG@?$AA0?$AA4?$AA?5?$AA0?$AA9?$AA?$AA@
  00694	b9 54 01 00 00	 mov	 ecx, OFFSET _strDeviceCmd+340
  00699	e8 00 00 00 00	 call	 ??0?$CStringT@_WV?$StrTraitMFC@_WV?$ChTraitsCRT@_W@ATL@@@@@ATL@@QAE@PB_W@Z ; ATL::CStringT<wchar_t,StrTraitMFC<wchar_t,ATL::ChTraitsCRT<wchar_t> > >::CStringT<wchar_t,StrTraitMFC<wchar_t,ATL::ChTraitsCRT<wchar_t> > >
  0069e	c6 45 fc 55	 mov	 BYTE PTR __$EHRec$[ebp+8], 85 ; 00000055H

; 522  : 	_T("04 0A"),

  006a2	68 00 00 00 00	 push	 OFFSET ??_C@_1M@CPLPHHHF@?$AA0?$AA4?$AA?5?$AA0?$AAA?$AA?$AA@
  006a7	b9 58 01 00 00	 mov	 ecx, OFFSET _strDeviceCmd+344
  006ac	e8 00 00 00 00	 call	 ??0?$CStringT@_WV?$StrTraitMFC@_WV?$ChTraitsCRT@_W@ATL@@@@@ATL@@QAE@PB_W@Z ; ATL::CStringT<wchar_t,StrTraitMFC<wchar_t,ATL::ChTraitsCRT<wchar_t> > >::CStringT<wchar_t,StrTraitMFC<wchar_t,ATL::ChTraitsCRT<wchar_t> > >
  006b1	c6 45 fc 56	 mov	 BYTE PTR __$EHRec$[ebp+8], 86 ; 00000056H

; 523  : 	_T("04 0B"),

  006b5	68 00 00 00 00	 push	 OFFSET ??_C@_1M@DNAKNIJL@?$AA0?$AA4?$AA?5?$AA0?$AAB?$AA?$AA@
  006ba	b9 5c 01 00 00	 mov	 ecx, OFFSET _strDeviceCmd+348
  006bf	e8 00 00 00 00	 call	 ??0?$CStringT@_WV?$StrTraitMFC@_WV?$ChTraitsCRT@_W@ATL@@@@@ATL@@QAE@PB_W@Z ; ATL::CStringT<wchar_t,StrTraitMFC<wchar_t,ATL::ChTraitsCRT<wchar_t> > >::CStringT<wchar_t,StrTraitMFC<wchar_t,ATL::ChTraitsCRT<wchar_t> > >
  006c4	c6 45 fc 57	 mov	 BYTE PTR __$EHRec$[ebp+8], 87 ; 00000057H

; 524  : 	_T("04 0C"),

  006c8	68 00 00 00 00	 push	 OFFSET ??_C@_1M@IFLGLPPO@?$AA0?$AA4?$AA?5?$AA0?$AAC?$AA?$AA@
  006cd	b9 60 01 00 00	 mov	 ecx, OFFSET _strDeviceCmd+352
  006d2	e8 00 00 00 00	 call	 ??0?$CStringT@_WV?$StrTraitMFC@_WV?$ChTraitsCRT@_W@ATL@@@@@ATL@@QAE@PB_W@Z ; ATL::CStringT<wchar_t,StrTraitMFC<wchar_t,ATL::ChTraitsCRT<wchar_t> > >::CStringT<wchar_t,StrTraitMFC<wchar_t,ATL::ChTraitsCRT<wchar_t> > >
  006d7	c6 45 fc 58	 mov	 BYTE PTR __$EHRec$[ebp+8], 88 ; 00000058H

; 525  : 	_T("04 0D"),

  006db	68 00 00 00 00	 push	 OFFSET ??_C@_1M@BIGBIHEH@?$AA0?$AA4?$AA?5?$AA0?$AAD?$AA?$AA@
  006e0	b9 64 01 00 00	 mov	 ecx, OFFSET _strDeviceCmd+356
  006e5	e8 00 00 00 00	 call	 ??0?$CStringT@_WV?$StrTraitMFC@_WV?$ChTraitsCRT@_W@ATL@@@@@ATL@@QAE@PB_W@Z ; ATL::CStringT<wchar_t,StrTraitMFC<wchar_t,ATL::ChTraitsCRT<wchar_t> > >::CStringT<wchar_t,StrTraitMFC<wchar_t,ATL::ChTraitsCRT<wchar_t> > >
  006ea	c6 45 fc 59	 mov	 BYTE PTR __$EHRec$[ebp+8], 89 ; 00000059H

; 526  : 	_T("04 0E"),

  006ee	68 00 00 00 00	 push	 OFFSET ??_C@_1M@KANNOACC@?$AA0?$AA4?$AA?5?$AA0?$AAE?$AA?$AA@
  006f3	b9 68 01 00 00	 mov	 ecx, OFFSET _strDeviceCmd+360
  006f8	e8 00 00 00 00	 call	 ??0?$CStringT@_WV?$StrTraitMFC@_WV?$ChTraitsCRT@_W@ATL@@@@@ATL@@QAE@PB_W@Z ; ATL::CStringT<wchar_t,StrTraitMFC<wchar_t,ATL::ChTraitsCRT<wchar_t> > >::CStringT<wchar_t,StrTraitMFC<wchar_t,ATL::ChTraitsCRT<wchar_t> > >
  006fd	c6 45 fc 5a	 mov	 BYTE PTR __$EHRec$[ebp+8], 90 ; 0000005aH

; 527  : 	_T("04 0F"),

  00701	68 00 00 00 00	 push	 OFFSET ??_C@_1M@LCGIEPMM@?$AA0?$AA4?$AA?5?$AA0?$AAF?$AA?$AA@
  00706	b9 6c 01 00 00	 mov	 ecx, OFFSET _strDeviceCmd+364
  0070b	e8 00 00 00 00	 call	 ??0?$CStringT@_WV?$StrTraitMFC@_WV?$ChTraitsCRT@_W@ATL@@@@@ATL@@QAE@PB_W@Z ; ATL::CStringT<wchar_t,StrTraitMFC<wchar_t,ATL::ChTraitsCRT<wchar_t> > >::CStringT<wchar_t,StrTraitMFC<wchar_t,ATL::ChTraitsCRT<wchar_t> > >
  00710	c6 45 fc 5b	 mov	 BYTE PTR __$EHRec$[ebp+8], 91 ; 0000005bH

; 528  : 
; 529  : 	_T("05"),			//

  00714	68 00 00 00 00	 push	 OFFSET ??_C@_15INLCFBGC@?$AA0?$AA5?$AA?$AA@
  00719	b9 70 01 00 00	 mov	 ecx, OFFSET _strDeviceCmd+368
  0071e	e8 00 00 00 00	 call	 ??0?$CStringT@_WV?$StrTraitMFC@_WV?$ChTraitsCRT@_W@ATL@@@@@ATL@@QAE@PB_W@Z ; ATL::CStringT<wchar_t,StrTraitMFC<wchar_t,ATL::ChTraitsCRT<wchar_t> > >::CStringT<wchar_t,StrTraitMFC<wchar_t,ATL::ChTraitsCRT<wchar_t> > >
  00723	c6 45 fc 5c	 mov	 BYTE PTR __$EHRec$[ebp+8], 92 ; 0000005cH

; 530  : // 	_T("05 00 FF"),		//CALL
; 531  : // 	_T("05 00 00"),
; 532  : // 	_T("05 01 FF"),		//SPK1
; 533  : // 	_T("05 01 00"),
; 534  : // 	_T("05 01 FF"),		//SPK2
; 535  : // 	_T("05 01 00"),
; 536  : // 	_T("05 02 FF"),		//
; 537  : // 	_T("05 02 00"),
; 538  : // 	_T("05 03 FF"),		//
; 539  : // 	_T("05 03 00"),
; 540  : // 	_T("05 04 FF"),		//
; 541  : // 	_T("05 04 00"),
; 542  : // 	_T("05 05 FF"),		//
; 543  : // 	_T("05 05 00"),
; 544  : // 	_T("05 06 FF"),		//
; 545  : // 	_T("05 06 00"),
; 546  : // 	_T("05 07 FF"),		//4
; 547  : // 	_T("05 07 00"),		//4
; 548  : 	_T("0B 00"),		//CALL

  00727	68 00 00 00 00	 push	 OFFSET ??_C@_1M@HGLEFFD@?$AA0?$AAB?$AA?5?$AA0?$AA0?$AA?$AA@
  0072c	b9 74 01 00 00	 mov	 ecx, OFFSET _strDeviceCmd+372
  00731	e8 00 00 00 00	 call	 ??0?$CStringT@_WV?$StrTraitMFC@_WV?$ChTraitsCRT@_W@ATL@@@@@ATL@@QAE@PB_W@Z ; ATL::CStringT<wchar_t,StrTraitMFC<wchar_t,ATL::ChTraitsCRT<wchar_t> > >::CStringT<wchar_t,StrTraitMFC<wchar_t,ATL::ChTraitsCRT<wchar_t> > >
  00736	c6 45 fc 5d	 mov	 BYTE PTR __$EHRec$[ebp+8], 93 ; 0000005dH

; 549  : 	_T("0B 00"),

  0073a	68 00 00 00 00	 push	 OFFSET ??_C@_1M@HGLEFFD@?$AA0?$AAB?$AA?5?$AA0?$AA0?$AA?$AA@
  0073f	b9 78 01 00 00	 mov	 ecx, OFFSET _strDeviceCmd+376
  00744	e8 00 00 00 00	 call	 ??0?$CStringT@_WV?$StrTraitMFC@_WV?$ChTraitsCRT@_W@ATL@@@@@ATL@@QAE@PB_W@Z ; ATL::CStringT<wchar_t,StrTraitMFC<wchar_t,ATL::ChTraitsCRT<wchar_t> > >::CStringT<wchar_t,StrTraitMFC<wchar_t,ATL::ChTraitsCRT<wchar_t> > >
  00749	c6 45 fc 5e	 mov	 BYTE PTR __$EHRec$[ebp+8], 94 ; 0000005eH

; 550  : 	_T("0B 01"),		//SPK1

  0074d	68 00 00 00 00	 push	 OFFSET ??_C@_1M@LPNHCCDG@?$AA0?$AAB?$AA?5?$AA0?$AA1?$AA?$AA@
  00752	b9 7c 01 00 00	 mov	 ecx, OFFSET _strDeviceCmd+380
  00757	e8 00 00 00 00	 call	 ??0?$CStringT@_WV?$StrTraitMFC@_WV?$ChTraitsCRT@_W@ATL@@@@@ATL@@QAE@PB_W@Z ; ATL::CStringT<wchar_t,StrTraitMFC<wchar_t,ATL::ChTraitsCRT<wchar_t> > >::CStringT<wchar_t,StrTraitMFC<wchar_t,ATL::ChTraitsCRT<wchar_t> > >
  0075c	c6 45 fc 5f	 mov	 BYTE PTR __$EHRec$[ebp+8], 95 ; 0000005fH

; 551  : 	_T("0B 01"),

  00760	68 00 00 00 00	 push	 OFFSET ??_C@_1M@LPNHCCDG@?$AA0?$AAB?$AA?5?$AA0?$AA1?$AA?$AA@
  00765	b9 80 01 00 00	 mov	 ecx, OFFSET _strDeviceCmd+384
  0076a	e8 00 00 00 00	 call	 ??0?$CStringT@_WV?$StrTraitMFC@_WV?$ChTraitsCRT@_W@ATL@@@@@ATL@@QAE@PB_W@Z ; ATL::CStringT<wchar_t,StrTraitMFC<wchar_t,ATL::ChTraitsCRT<wchar_t> > >::CStringT<wchar_t,StrTraitMFC<wchar_t,ATL::ChTraitsCRT<wchar_t> > >
  0076f	c6 45 fc 60	 mov	 BYTE PTR __$EHRec$[ebp+8], 96 ; 00000060H

; 552  : 	_T("0B 02"),		//SPK2

  00773	68 00 00 00 00	 push	 OFFSET ??_C@_1M@KNGCINNI@?$AA0?$AAB?$AA?5?$AA0?$AA2?$AA?$AA@
  00778	b9 84 01 00 00	 mov	 ecx, OFFSET _strDeviceCmd+388
  0077d	e8 00 00 00 00	 call	 ??0?$CStringT@_WV?$StrTraitMFC@_WV?$ChTraitsCRT@_W@ATL@@@@@ATL@@QAE@PB_W@Z ; ATL::CStringT<wchar_t,StrTraitMFC<wchar_t,ATL::ChTraitsCRT<wchar_t> > >::CStringT<wchar_t,StrTraitMFC<wchar_t,ATL::ChTraitsCRT<wchar_t> > >
  00782	c6 45 fc 61	 mov	 BYTE PTR __$EHRec$[ebp+8], 97 ; 00000061H

; 553  : 	_T("0B 02"),

  00786	68 00 00 00 00	 push	 OFFSET ??_C@_1M@KNGCINNI@?$AA0?$AAB?$AA?5?$AA0?$AA2?$AA?$AA@
  0078b	b9 88 01 00 00	 mov	 ecx, OFFSET _strDeviceCmd+392
  00790	e8 00 00 00 00	 call	 ??0?$CStringT@_WV?$StrTraitMFC@_WV?$ChTraitsCRT@_W@ATL@@@@@ATL@@QAE@PB_W@Z ; ATL::CStringT<wchar_t,StrTraitMFC<wchar_t,ATL::ChTraitsCRT<wchar_t> > >::CStringT<wchar_t,StrTraitMFC<wchar_t,ATL::ChTraitsCRT<wchar_t> > >
  00795	c6 45 fc 62	 mov	 BYTE PTR __$EHRec$[ebp+8], 98 ; 00000062H

; 554  : 	_T("0B 03"),		//

  00799	68 00 00 00 00	 push	 OFFSET ??_C@_1M@BFNOOKLN@?$AA0?$AAB?$AA?5?$AA0?$AA3?$AA?$AA@
  0079e	b9 8c 01 00 00	 mov	 ecx, OFFSET _strDeviceCmd+396
  007a3	e8 00 00 00 00	 call	 ??0?$CStringT@_WV?$StrTraitMFC@_WV?$ChTraitsCRT@_W@ATL@@@@@ATL@@QAE@PB_W@Z ; ATL::CStringT<wchar_t,StrTraitMFC<wchar_t,ATL::ChTraitsCRT<wchar_t> > >::CStringT<wchar_t,StrTraitMFC<wchar_t,ATL::ChTraitsCRT<wchar_t> > >
  007a8	c6 45 fc 63	 mov	 BYTE PTR __$EHRec$[ebp+8], 99 ; 00000063H

; 555  : 	_T("0B 03"),

  007ac	68 00 00 00 00	 push	 OFFSET ??_C@_1M@BFNOOKLN@?$AA0?$AAB?$AA?5?$AA0?$AA3?$AA?$AA@
  007b1	b9 90 01 00 00	 mov	 ecx, OFFSET _strDeviceCmd+400
  007b6	e8 00 00 00 00	 call	 ??0?$CStringT@_WV?$StrTraitMFC@_WV?$ChTraitsCRT@_W@ATL@@@@@ATL@@QAE@PB_W@Z ; ATL::CStringT<wchar_t,StrTraitMFC<wchar_t,ATL::ChTraitsCRT<wchar_t> > >::CStringT<wchar_t,StrTraitMFC<wchar_t,ATL::ChTraitsCRT<wchar_t> > >
  007bb	c6 45 fc 64	 mov	 BYTE PTR __$EHRec$[ebp+8], 100 ; 00000064H

; 556  : 	_T("0B 04"),		//

  007bf	68 00 00 00 00	 push	 OFFSET ??_C@_1M@IIAJNCAE@?$AA0?$AAB?$AA?5?$AA0?$AA4?$AA?$AA@
  007c4	b9 94 01 00 00	 mov	 ecx, OFFSET _strDeviceCmd+404
  007c9	e8 00 00 00 00	 call	 ??0?$CStringT@_WV?$StrTraitMFC@_WV?$ChTraitsCRT@_W@ATL@@@@@ATL@@QAE@PB_W@Z ; ATL::CStringT<wchar_t,StrTraitMFC<wchar_t,ATL::ChTraitsCRT<wchar_t> > >::CStringT<wchar_t,StrTraitMFC<wchar_t,ATL::ChTraitsCRT<wchar_t> > >
  007ce	c6 45 fc 65	 mov	 BYTE PTR __$EHRec$[ebp+8], 101 ; 00000065H

; 557  : 	_T("0B 04"),

  007d2	68 00 00 00 00	 push	 OFFSET ??_C@_1M@IIAJNCAE@?$AA0?$AAB?$AA?5?$AA0?$AA4?$AA?$AA@
  007d7	b9 98 01 00 00	 mov	 ecx, OFFSET _strDeviceCmd+408
  007dc	e8 00 00 00 00	 call	 ??0?$CStringT@_WV?$StrTraitMFC@_WV?$ChTraitsCRT@_W@ATL@@@@@ATL@@QAE@PB_W@Z ; ATL::CStringT<wchar_t,StrTraitMFC<wchar_t,ATL::ChTraitsCRT<wchar_t> > >::CStringT<wchar_t,StrTraitMFC<wchar_t,ATL::ChTraitsCRT<wchar_t> > >
  007e1	c6 45 fc 66	 mov	 BYTE PTR __$EHRec$[ebp+8], 102 ; 00000066H

; 558  : 	_T("0B 05"),		//

  007e5	68 00 00 00 00	 push	 OFFSET ??_C@_1M@DALFLFGB@?$AA0?$AAB?$AA?5?$AA0?$AA5?$AA?$AA@
  007ea	b9 9c 01 00 00	 mov	 ecx, OFFSET _strDeviceCmd+412
  007ef	e8 00 00 00 00	 call	 ??0?$CStringT@_WV?$StrTraitMFC@_WV?$ChTraitsCRT@_W@ATL@@@@@ATL@@QAE@PB_W@Z ; ATL::CStringT<wchar_t,StrTraitMFC<wchar_t,ATL::ChTraitsCRT<wchar_t> > >::CStringT<wchar_t,StrTraitMFC<wchar_t,ATL::ChTraitsCRT<wchar_t> > >
  007f4	c6 45 fc 67	 mov	 BYTE PTR __$EHRec$[ebp+8], 103 ; 00000067H

; 559  : 	_T("0B 05"),

  007f8	68 00 00 00 00	 push	 OFFSET ??_C@_1M@DALFLFGB@?$AA0?$AAB?$AA?5?$AA0?$AA5?$AA?$AA@
  007fd	b9 a0 01 00 00	 mov	 ecx, OFFSET _strDeviceCmd+416
  00802	e8 00 00 00 00	 call	 ??0?$CStringT@_WV?$StrTraitMFC@_WV?$ChTraitsCRT@_W@ATL@@@@@ATL@@QAE@PB_W@Z ; ATL::CStringT<wchar_t,StrTraitMFC<wchar_t,ATL::ChTraitsCRT<wchar_t> > >::CStringT<wchar_t,StrTraitMFC<wchar_t,ATL::ChTraitsCRT<wchar_t> > >
  00807	c6 45 fc 68	 mov	 BYTE PTR __$EHRec$[ebp+8], 104 ; 00000068H

; 560  : 	_T("0B 07"),		//

  0080b	68 00 00 00 00	 push	 OFFSET ??_C@_1M@JKLMHNOK@?$AA0?$AAB?$AA?5?$AA0?$AA7?$AA?$AA@
  00810	b9 a4 01 00 00	 mov	 ecx, OFFSET _strDeviceCmd+420
  00815	e8 00 00 00 00	 call	 ??0?$CStringT@_WV?$StrTraitMFC@_WV?$ChTraitsCRT@_W@ATL@@@@@ATL@@QAE@PB_W@Z ; ATL::CStringT<wchar_t,StrTraitMFC<wchar_t,ATL::ChTraitsCRT<wchar_t> > >::CStringT<wchar_t,StrTraitMFC<wchar_t,ATL::ChTraitsCRT<wchar_t> > >
  0081a	c6 45 fc 69	 mov	 BYTE PTR __$EHRec$[ebp+8], 105 ; 00000069H

; 561  : 	_T("0B 07"),

  0081e	68 00 00 00 00	 push	 OFFSET ??_C@_1M@JKLMHNOK@?$AA0?$AAB?$AA?5?$AA0?$AA7?$AA?$AA@
  00823	b9 a8 01 00 00	 mov	 ecx, OFFSET _strDeviceCmd+424
  00828	e8 00 00 00 00	 call	 ??0?$CStringT@_WV?$StrTraitMFC@_WV?$ChTraitsCRT@_W@ATL@@@@@ATL@@QAE@PB_W@Z ; ATL::CStringT<wchar_t,StrTraitMFC<wchar_t,ATL::ChTraitsCRT<wchar_t> > >::CStringT<wchar_t,StrTraitMFC<wchar_t,ATL::ChTraitsCRT<wchar_t> > >
  0082d	c6 45 fc 6a	 mov	 BYTE PTR __$EHRec$[ebp+8], 106 ; 0000006aH

; 562  : 	_T("0B 06"),		//

  00831	68 00 00 00 00	 push	 OFFSET ??_C@_1M@CCAABKIP@?$AA0?$AAB?$AA?5?$AA0?$AA6?$AA?$AA@
  00836	b9 ac 01 00 00	 mov	 ecx, OFFSET _strDeviceCmd+428
  0083b	e8 00 00 00 00	 call	 ??0?$CStringT@_WV?$StrTraitMFC@_WV?$ChTraitsCRT@_W@ATL@@@@@ATL@@QAE@PB_W@Z ; ATL::CStringT<wchar_t,StrTraitMFC<wchar_t,ATL::ChTraitsCRT<wchar_t> > >::CStringT<wchar_t,StrTraitMFC<wchar_t,ATL::ChTraitsCRT<wchar_t> > >
  00840	c6 45 fc 6b	 mov	 BYTE PTR __$EHRec$[ebp+8], 107 ; 0000006bH

; 563  : 	_T("0B 06"),

  00844	68 00 00 00 00	 push	 OFFSET ??_C@_1M@CCAABKIP@?$AA0?$AAB?$AA?5?$AA0?$AA6?$AA?$AA@
  00849	b9 b0 01 00 00	 mov	 ecx, OFFSET _strDeviceCmd+432
  0084e	e8 00 00 00 00	 call	 ??0?$CStringT@_WV?$StrTraitMFC@_WV?$ChTraitsCRT@_W@ATL@@@@@ATL@@QAE@PB_W@Z ; ATL::CStringT<wchar_t,StrTraitMFC<wchar_t,ATL::ChTraitsCRT<wchar_t> > >::CStringT<wchar_t,StrTraitMFC<wchar_t,ATL::ChTraitsCRT<wchar_t> > >
  00853	c6 45 fc 6c	 mov	 BYTE PTR __$EHRec$[ebp+8], 108 ; 0000006cH

; 564  : 
; 565  : 	_T("05 07 FF"),		//4

  00857	68 00 00 00 00	 push	 OFFSET ??_C@_1BC@KNCKBHDE@?$AA0?$AA5?$AA?5?$AA0?$AA7?$AA?5?$AAF?$AAF?$AA?$AA@
  0085c	b9 b4 01 00 00	 mov	 ecx, OFFSET _strDeviceCmd+436
  00861	e8 00 00 00 00	 call	 ??0?$CStringT@_WV?$StrTraitMFC@_WV?$ChTraitsCRT@_W@ATL@@@@@ATL@@QAE@PB_W@Z ; ATL::CStringT<wchar_t,StrTraitMFC<wchar_t,ATL::ChTraitsCRT<wchar_t> > >::CStringT<wchar_t,StrTraitMFC<wchar_t,ATL::ChTraitsCRT<wchar_t> > >
  00866	c6 45 fc 6d	 mov	 BYTE PTR __$EHRec$[ebp+8], 109 ; 0000006dH

; 566  : 	_T("05 07 00"),		//4

  0086a	68 00 00 00 00	 push	 OFFSET ??_C@_1BC@DOAFAGKI@?$AA0?$AA5?$AA?5?$AA0?$AA7?$AA?5?$AA0?$AA0?$AA?$AA@
  0086f	b9 b8 01 00 00	 mov	 ecx, OFFSET _strDeviceCmd+440
  00874	e8 00 00 00 00	 call	 ??0?$CStringT@_WV?$StrTraitMFC@_WV?$ChTraitsCRT@_W@ATL@@@@@ATL@@QAE@PB_W@Z ; ATL::CStringT<wchar_t,StrTraitMFC<wchar_t,ATL::ChTraitsCRT<wchar_t> > >::CStringT<wchar_t,StrTraitMFC<wchar_t,ATL::ChTraitsCRT<wchar_t> > >
  00879	c6 45 fc 6e	 mov	 BYTE PTR __$EHRec$[ebp+8], 110 ; 0000006eH

; 567  : 	_T("05 08 FF"),		//5

  0087d	68 00 00 00 00	 push	 OFFSET ??_C@_1BC@FMCBEMLJ@?$AA0?$AA5?$AA?5?$AA0?$AA8?$AA?5?$AAF?$AAF?$AA?$AA@
  00882	b9 bc 01 00 00	 mov	 ecx, OFFSET _strDeviceCmd+444
  00887	e8 00 00 00 00	 call	 ??0?$CStringT@_WV?$StrTraitMFC@_WV?$ChTraitsCRT@_W@ATL@@@@@ATL@@QAE@PB_W@Z ; ATL::CStringT<wchar_t,StrTraitMFC<wchar_t,ATL::ChTraitsCRT<wchar_t> > >::CStringT<wchar_t,StrTraitMFC<wchar_t,ATL::ChTraitsCRT<wchar_t> > >
  0088c	c6 45 fc 6f	 mov	 BYTE PTR __$EHRec$[ebp+8], 111 ; 0000006fH

; 568  : 	_T("05 08 00"),		//5

  00890	68 00 00 00 00	 push	 OFFSET ??_C@_1BC@MPAOFNCF@?$AA0?$AA5?$AA?5?$AA0?$AA8?$AA?5?$AA0?$AA0?$AA?$AA@
  00895	b9 c0 01 00 00	 mov	 ecx, OFFSET _strDeviceCmd+448
  0089a	e8 00 00 00 00	 call	 ??0?$CStringT@_WV?$StrTraitMFC@_WV?$ChTraitsCRT@_W@ATL@@@@@ATL@@QAE@PB_W@Z ; ATL::CStringT<wchar_t,StrTraitMFC<wchar_t,ATL::ChTraitsCRT<wchar_t> > >::CStringT<wchar_t,StrTraitMFC<wchar_t,ATL::ChTraitsCRT<wchar_t> > >
  0089f	c6 45 fc 70	 mov	 BYTE PTR __$EHRec$[ebp+8], 112 ; 00000070H

; 569  : 	_T("05 0C FF"),		//1

  008a3	68 00 00 00 00	 push	 OFFSET ??_C@_1BC@FCIIDCNG@?$AA0?$AA5?$AA?5?$AA0?$AAC?$AA?5?$AAF?$AAF?$AA?$AA@
  008a8	b9 c4 01 00 00	 mov	 ecx, OFFSET _strDeviceCmd+452
  008ad	e8 00 00 00 00	 call	 ??0?$CStringT@_WV?$StrTraitMFC@_WV?$ChTraitsCRT@_W@ATL@@@@@ATL@@QAE@PB_W@Z ; ATL::CStringT<wchar_t,StrTraitMFC<wchar_t,ATL::ChTraitsCRT<wchar_t> > >::CStringT<wchar_t,StrTraitMFC<wchar_t,ATL::ChTraitsCRT<wchar_t> > >
  008b2	c6 45 fc 71	 mov	 BYTE PTR __$EHRec$[ebp+8], 113 ; 00000071H

; 570  : 	_T("05 0C 00"),

  008b6	68 00 00 00 00	 push	 OFFSET ??_C@_1BC@MBKHCDEK@?$AA0?$AA5?$AA?5?$AA0?$AAC?$AA?5?$AA0?$AA0?$AA?$AA@
  008bb	b9 c8 01 00 00	 mov	 ecx, OFFSET _strDeviceCmd+456
  008c0	e8 00 00 00 00	 call	 ??0?$CStringT@_WV?$StrTraitMFC@_WV?$ChTraitsCRT@_W@ATL@@@@@ATL@@QAE@PB_W@Z ; ATL::CStringT<wchar_t,StrTraitMFC<wchar_t,ATL::ChTraitsCRT<wchar_t> > >::CStringT<wchar_t,StrTraitMFC<wchar_t,ATL::ChTraitsCRT<wchar_t> > >
  008c5	c6 45 fc 72	 mov	 BYTE PTR __$EHRec$[ebp+8], 114 ; 00000072H

; 571  : 	_T("05 0D FF"),		//2

  008c9	68 00 00 00 00	 push	 OFFSET ??_C@_1BC@LAFECJKP@?$AA0?$AA5?$AA?5?$AA0?$AAD?$AA?5?$AAF?$AAF?$AA?$AA@
  008ce	b9 cc 01 00 00	 mov	 ecx, OFFSET _strDeviceCmd+460
  008d3	e8 00 00 00 00	 call	 ??0?$CStringT@_WV?$StrTraitMFC@_WV?$ChTraitsCRT@_W@ATL@@@@@ATL@@QAE@PB_W@Z ; ATL::CStringT<wchar_t,StrTraitMFC<wchar_t,ATL::ChTraitsCRT<wchar_t> > >::CStringT<wchar_t,StrTraitMFC<wchar_t,ATL::ChTraitsCRT<wchar_t> > >
  008d8	c6 45 fc 73	 mov	 BYTE PTR __$EHRec$[ebp+8], 115 ; 00000073H

; 572  : 	_T("05 0D 00"),

  008dc	68 00 00 00 00	 push	 OFFSET ??_C@_1BC@CDHLDIDD@?$AA0?$AA5?$AA?5?$AA0?$AAD?$AA?5?$AA0?$AA0?$AA?$AA@
  008e1	b9 d0 01 00 00	 mov	 ecx, OFFSET _strDeviceCmd+464
  008e6	e8 00 00 00 00	 call	 ??0?$CStringT@_WV?$StrTraitMFC@_WV?$ChTraitsCRT@_W@ATL@@@@@ATL@@QAE@PB_W@Z ; ATL::CStringT<wchar_t,StrTraitMFC<wchar_t,ATL::ChTraitsCRT<wchar_t> > >::CStringT<wchar_t,StrTraitMFC<wchar_t,ATL::ChTraitsCRT<wchar_t> > >
  008eb	c6 45 fc 74	 mov	 BYTE PTR __$EHRec$[ebp+8], 116 ; 00000074H

; 573  : 	_T("05 0E FF"),		//3

  008ef	68 00 00 00 00	 push	 OFFSET ??_C@_1BC@FPJGECJB@?$AA0?$AA5?$AA?5?$AA0?$AAE?$AA?5?$AAF?$AAF?$AA?$AA@
  008f4	b9 d4 01 00 00	 mov	 ecx, OFFSET _strDeviceCmd+468
  008f9	e8 00 00 00 00	 call	 ??0?$CStringT@_WV?$StrTraitMFC@_WV?$ChTraitsCRT@_W@ATL@@@@@ATL@@QAE@PB_W@Z ; ATL::CStringT<wchar_t,StrTraitMFC<wchar_t,ATL::ChTraitsCRT<wchar_t> > >::CStringT<wchar_t,StrTraitMFC<wchar_t,ATL::ChTraitsCRT<wchar_t> > >
  008fe	c6 45 fc 75	 mov	 BYTE PTR __$EHRec$[ebp+8], 117 ; 00000075H

; 574  : 	_T("05 0E 00"),

  00902	68 00 00 00 00	 push	 OFFSET ??_C@_1BC@MMLJFDAN@?$AA0?$AA5?$AA?5?$AA0?$AAE?$AA?5?$AA0?$AA0?$AA?$AA@
  00907	b9 d8 01 00 00	 mov	 ecx, OFFSET _strDeviceCmd+472
  0090c	e8 00 00 00 00	 call	 ??0?$CStringT@_WV?$StrTraitMFC@_WV?$ChTraitsCRT@_W@ATL@@@@@ATL@@QAE@PB_W@Z ; ATL::CStringT<wchar_t,StrTraitMFC<wchar_t,ATL::ChTraitsCRT<wchar_t> > >::CStringT<wchar_t,StrTraitMFC<wchar_t,ATL::ChTraitsCRT<wchar_t> > >
  00911	c6 45 fc 76	 mov	 BYTE PTR __$EHRec$[ebp+8], 118 ; 00000076H

; 575  : 	_T("05 00"),		//

  00915	68 00 00 00 00	 push	 OFFSET ??_C@_1M@BDPONLLC@?$AA0?$AA5?$AA?5?$AA0?$AA0?$AA?$AA@
  0091a	b9 dc 01 00 00	 mov	 ecx, OFFSET _strDeviceCmd+476
  0091f	e8 00 00 00 00	 call	 ??0?$CStringT@_WV?$StrTraitMFC@_WV?$ChTraitsCRT@_W@ATL@@@@@ATL@@QAE@PB_W@Z ; ATL::CStringT<wchar_t,StrTraitMFC<wchar_t,ATL::ChTraitsCRT<wchar_t> > >::CStringT<wchar_t,StrTraitMFC<wchar_t,ATL::ChTraitsCRT<wchar_t> > >
  00924	c6 45 fc 77	 mov	 BYTE PTR __$EHRec$[ebp+8], 119 ; 00000077H

; 576  : 	_T("05 01"),

  00928	68 00 00 00 00	 push	 OFFSET ??_C@_1M@KLECLMNH@?$AA0?$AA5?$AA?5?$AA0?$AA1?$AA?$AA@
  0092d	b9 e0 01 00 00	 mov	 ecx, OFFSET _strDeviceCmd+480
  00932	e8 00 00 00 00	 call	 ??0?$CStringT@_WV?$StrTraitMFC@_WV?$ChTraitsCRT@_W@ATL@@@@@ATL@@QAE@PB_W@Z ; ATL::CStringT<wchar_t,StrTraitMFC<wchar_t,ATL::ChTraitsCRT<wchar_t> > >::CStringT<wchar_t,StrTraitMFC<wchar_t,ATL::ChTraitsCRT<wchar_t> > >
  00937	c6 45 fc 78	 mov	 BYTE PTR __$EHRec$[ebp+8], 120 ; 00000078H

; 577  : 	_T("05 02"),

  0093b	68 00 00 00 00	 push	 OFFSET ??_C@_1M@LJPHBDDJ@?$AA0?$AA5?$AA?5?$AA0?$AA2?$AA?$AA@
  00940	b9 e4 01 00 00	 mov	 ecx, OFFSET _strDeviceCmd+484
  00945	e8 00 00 00 00	 call	 ??0?$CStringT@_WV?$StrTraitMFC@_WV?$ChTraitsCRT@_W@ATL@@@@@ATL@@QAE@PB_W@Z ; ATL::CStringT<wchar_t,StrTraitMFC<wchar_t,ATL::ChTraitsCRT<wchar_t> > >::CStringT<wchar_t,StrTraitMFC<wchar_t,ATL::ChTraitsCRT<wchar_t> > >
  0094a	c6 45 fc 79	 mov	 BYTE PTR __$EHRec$[ebp+8], 121 ; 00000079H

; 578  : 	_T("05 03"),

  0094e	68 00 00 00 00	 push	 OFFSET ??_C@_1M@BELHEFM@?$AA0?$AA5?$AA?5?$AA0?$AA3?$AA?$AA@
  00953	b9 e8 01 00 00	 mov	 ecx, OFFSET _strDeviceCmd+488
  00958	e8 00 00 00 00	 call	 ??0?$CStringT@_WV?$StrTraitMFC@_WV?$ChTraitsCRT@_W@ATL@@@@@ATL@@QAE@PB_W@Z ; ATL::CStringT<wchar_t,StrTraitMFC<wchar_t,ATL::ChTraitsCRT<wchar_t> > >::CStringT<wchar_t,StrTraitMFC<wchar_t,ATL::ChTraitsCRT<wchar_t> > >
  0095d	c6 45 fc 7a	 mov	 BYTE PTR __$EHRec$[ebp+8], 122 ; 0000007aH

; 579  : 
; 580  : 	_T("06 00 00"),

  00961	68 00 00 00 00	 push	 OFFSET ??_C@_1BC@PFBBKJCD@?$AA0?$AA6?$AA?5?$AA0?$AA0?$AA?5?$AA0?$AA0?$AA?$AA@
  00966	b9 ec 01 00 00	 mov	 ecx, OFFSET _strDeviceCmd+492
  0096b	e8 00 00 00 00	 call	 ??0?$CStringT@_WV?$StrTraitMFC@_WV?$ChTraitsCRT@_W@ATL@@@@@ATL@@QAE@PB_W@Z ; ATL::CStringT<wchar_t,StrTraitMFC<wchar_t,ATL::ChTraitsCRT<wchar_t> > >::CStringT<wchar_t,StrTraitMFC<wchar_t,ATL::ChTraitsCRT<wchar_t> > >
  00970	c6 45 fc 7b	 mov	 BYTE PTR __$EHRec$[ebp+8], 123 ; 0000007bH

; 581  : 	_T("06 00 FF"),

  00974	68 00 00 00 00	 push	 OFFSET ??_C@_1BC@GGDOLILP@?$AA0?$AA6?$AA?5?$AA0?$AA0?$AA?5?$AAF?$AAF?$AA?$AA@
  00979	b9 f0 01 00 00	 mov	 ecx, OFFSET _strDeviceCmd+496
  0097e	e8 00 00 00 00	 call	 ??0?$CStringT@_WV?$StrTraitMFC@_WV?$ChTraitsCRT@_W@ATL@@@@@ATL@@QAE@PB_W@Z ; ATL::CStringT<wchar_t,StrTraitMFC<wchar_t,ATL::ChTraitsCRT<wchar_t> > >::CStringT<wchar_t,StrTraitMFC<wchar_t,ATL::ChTraitsCRT<wchar_t> > >
  00983	c6 45 fc 7c	 mov	 BYTE PTR __$EHRec$[ebp+8], 124 ; 0000007cH

; 582  : 	_T("06 01 00"),

  00987	68 00 00 00 00	 push	 OFFSET ??_C@_1BC@BKNDMCBN@?$AA0?$AA6?$AA?5?$AA0?$AA1?$AA?5?$AA0?$AA0?$AA?$AA@
  0098c	b9 f4 01 00 00	 mov	 ecx, OFFSET _strDeviceCmd+500
  00991	e8 00 00 00 00	 call	 ??0?$CStringT@_WV?$StrTraitMFC@_WV?$ChTraitsCRT@_W@ATL@@@@@ATL@@QAE@PB_W@Z ; ATL::CStringT<wchar_t,StrTraitMFC<wchar_t,ATL::ChTraitsCRT<wchar_t> > >::CStringT<wchar_t,StrTraitMFC<wchar_t,ATL::ChTraitsCRT<wchar_t> > >
  00996	c6 45 fc 7d	 mov	 BYTE PTR __$EHRec$[ebp+8], 125 ; 0000007dH

; 583  : 	_T("06 01 FF"),

  0099a	68 00 00 00 00	 push	 OFFSET ??_C@_1BC@IJPMNDIB@?$AA0?$AA6?$AA?5?$AA0?$AA1?$AA?5?$AAF?$AAF?$AA?$AA@
  0099f	b9 f8 01 00 00	 mov	 ecx, OFFSET _strDeviceCmd+504
  009a4	e8 00 00 00 00	 call	 ??0?$CStringT@_WV?$StrTraitMFC@_WV?$ChTraitsCRT@_W@ATL@@@@@ATL@@QAE@PB_W@Z ; ATL::CStringT<wchar_t,StrTraitMFC<wchar_t,ATL::ChTraitsCRT<wchar_t> > >::CStringT<wchar_t,StrTraitMFC<wchar_t,ATL::ChTraitsCRT<wchar_t> > >
  009a9	c6 45 fc 7e	 mov	 BYTE PTR __$EHRec$[ebp+8], 126 ; 0000007eH

; 584  : 	_T("06 02 00"),

  009ad	68 00 00 00 00	 push	 OFFSET ??_C@_1BC@PBOEHJBO@?$AA0?$AA6?$AA?5?$AA0?$AA2?$AA?5?$AA0?$AA0?$AA?$AA@
  009b2	b9 fc 01 00 00	 mov	 ecx, OFFSET _strDeviceCmd+508
  009b7	e8 00 00 00 00	 call	 ??0?$CStringT@_WV?$StrTraitMFC@_WV?$ChTraitsCRT@_W@ATL@@@@@ATL@@QAE@PB_W@Z ; ATL::CStringT<wchar_t,StrTraitMFC<wchar_t,ATL::ChTraitsCRT<wchar_t> > >::CStringT<wchar_t,StrTraitMFC<wchar_t,ATL::ChTraitsCRT<wchar_t> > >
  009bc	c6 45 fc 7f	 mov	 BYTE PTR __$EHRec$[ebp+8], 127 ; 0000007fH

; 585  : 	_T("06 02 FF"),

  009c0	68 00 00 00 00	 push	 OFFSET ??_C@_1BC@GCMLGIIC@?$AA0?$AA6?$AA?5?$AA0?$AA2?$AA?5?$AAF?$AAF?$AA?$AA@
  009c5	b9 00 02 00 00	 mov	 ecx, OFFSET _strDeviceCmd+512
  009ca	e8 00 00 00 00	 call	 ??0?$CStringT@_WV?$StrTraitMFC@_WV?$ChTraitsCRT@_W@ATL@@@@@ATL@@QAE@PB_W@Z ; ATL::CStringT<wchar_t,StrTraitMFC<wchar_t,ATL::ChTraitsCRT<wchar_t> > >::CStringT<wchar_t,StrTraitMFC<wchar_t,ATL::ChTraitsCRT<wchar_t> > >
  009cf	c6 45 fc 80	 mov	 BYTE PTR __$EHRec$[ebp+8], 128 ; 00000080H

; 586  : 	_T("06 03 00"),

  009d3	68 00 00 00 00	 push	 OFFSET ??_C@_1BC@BOCGBCCA@?$AA0?$AA6?$AA?5?$AA0?$AA3?$AA?5?$AA0?$AA0?$AA?$AA@
  009d8	b9 04 02 00 00	 mov	 ecx, OFFSET _strDeviceCmd+516
  009dd	e8 00 00 00 00	 call	 ??0?$CStringT@_WV?$StrTraitMFC@_WV?$ChTraitsCRT@_W@ATL@@@@@ATL@@QAE@PB_W@Z ; ATL::CStringT<wchar_t,StrTraitMFC<wchar_t,ATL::ChTraitsCRT<wchar_t> > >::CStringT<wchar_t,StrTraitMFC<wchar_t,ATL::ChTraitsCRT<wchar_t> > >
  009e2	c6 45 fc 81	 mov	 BYTE PTR __$EHRec$[ebp+8], 129 ; 00000081H

; 587  : 	_T("06 03 FF"),

  009e6	68 00 00 00 00	 push	 OFFSET ??_C@_1BC@INAJADLM@?$AA0?$AA6?$AA?5?$AA0?$AA3?$AA?5?$AAF?$AAF?$AA?$AA@
  009eb	b9 08 02 00 00	 mov	 ecx, OFFSET _strDeviceCmd+520
  009f0	e8 00 00 00 00	 call	 ??0?$CStringT@_WV?$StrTraitMFC@_WV?$ChTraitsCRT@_W@ATL@@@@@ATL@@QAE@PB_W@Z ; ATL::CStringT<wchar_t,StrTraitMFC<wchar_t,ATL::ChTraitsCRT<wchar_t> > >::CStringT<wchar_t,StrTraitMFC<wchar_t,ATL::ChTraitsCRT<wchar_t> > >
  009f5	c6 45 fc 82	 mov	 BYTE PTR __$EHRec$[ebp+8], 130 ; 00000082H

; 588  : 
; 589  : 	_T("07 00 0A"),

  009f9	68 00 00 00 00	 push	 OFFSET ??_C@_1BC@IIPKPPEL@?$AA0?$AA7?$AA?5?$AA0?$AA0?$AA?5?$AA0?$AAA?$AA?$AA@
  009fe	b9 0c 02 00 00	 mov	 ecx, OFFSET _strDeviceCmd+524
  00a03	e8 00 00 00 00	 call	 ??0?$CStringT@_WV?$StrTraitMFC@_WV?$ChTraitsCRT@_W@ATL@@@@@ATL@@QAE@PB_W@Z ; ATL::CStringT<wchar_t,StrTraitMFC<wchar_t,ATL::ChTraitsCRT<wchar_t> > >::CStringT<wchar_t,StrTraitMFC<wchar_t,ATL::ChTraitsCRT<wchar_t> > >
  00a08	c6 45 fc 83	 mov	 BYTE PTR __$EHRec$[ebp+8], 131 ; 00000083H

; 590  : 	_T("07 00 00"),

  00a0c	68 00 00 00 00	 push	 OFFSET ??_C@_1BC@FLHJDILC@?$AA0?$AA7?$AA?5?$AA0?$AA0?$AA?5?$AA0?$AA0?$AA?$AA@
  00a11	b9 10 02 00 00	 mov	 ecx, OFFSET _strDeviceCmd+528
  00a16	e8 00 00 00 00	 call	 ??0?$CStringT@_WV?$StrTraitMFC@_WV?$ChTraitsCRT@_W@ATL@@@@@ATL@@QAE@PB_W@Z ; ATL::CStringT<wchar_t,StrTraitMFC<wchar_t,ATL::ChTraitsCRT<wchar_t> > >::CStringT<wchar_t,StrTraitMFC<wchar_t,ATL::ChTraitsCRT<wchar_t> > >
  00a1b	c6 45 fc 84	 mov	 BYTE PTR __$EHRec$[ebp+8], 132 ; 00000084H

; 591  : 
; 592  : 	_T("0C 00 FF"),

  00a1f	68 00 00 00 00	 push	 OFFSET ??_C@_1BC@MDABNGLA@?$AA0?$AAC?$AA?5?$AA0?$AA0?$AA?5?$AAF?$AAF?$AA?$AA@
  00a24	b9 14 02 00 00	 mov	 ecx, OFFSET _strDeviceCmd+532
  00a29	e8 00 00 00 00	 call	 ??0?$CStringT@_WV?$StrTraitMFC@_WV?$ChTraitsCRT@_W@ATL@@@@@ATL@@QAE@PB_W@Z ; ATL::CStringT<wchar_t,StrTraitMFC<wchar_t,ATL::ChTraitsCRT<wchar_t> > >::CStringT<wchar_t,StrTraitMFC<wchar_t,ATL::ChTraitsCRT<wchar_t> > >
  00a2e	c6 45 fc 85	 mov	 BYTE PTR __$EHRec$[ebp+8], 133 ; 00000085H

; 593  : 	_T("0C 00 00"),

  00a32	68 00 00 00 00	 push	 OFFSET ??_C@_1BC@FACOMHCM@?$AA0?$AAC?$AA?5?$AA0?$AA0?$AA?5?$AA0?$AA0?$AA?$AA@
  00a37	b9 18 02 00 00	 mov	 ecx, OFFSET _strDeviceCmd+536
  00a3c	e8 00 00 00 00	 call	 ??0?$CStringT@_WV?$StrTraitMFC@_WV?$ChTraitsCRT@_W@ATL@@@@@ATL@@QAE@PB_W@Z ; ATL::CStringT<wchar_t,StrTraitMFC<wchar_t,ATL::ChTraitsCRT<wchar_t> > >::CStringT<wchar_t,StrTraitMFC<wchar_t,ATL::ChTraitsCRT<wchar_t> > >
  00a41	c6 45 fc 86	 mov	 BYTE PTR __$EHRec$[ebp+8], 134 ; 00000086H

; 594  : 	_T("0C 01 FF"),

  00a45	68 00 00 00 00	 push	 OFFSET ??_C@_1BC@CMMDLNIO@?$AA0?$AAC?$AA?5?$AA0?$AA1?$AA?5?$AAF?$AAF?$AA?$AA@
  00a4a	b9 1c 02 00 00	 mov	 ecx, OFFSET _strDeviceCmd+540
  00a4f	e8 00 00 00 00	 call	 ??0?$CStringT@_WV?$StrTraitMFC@_WV?$ChTraitsCRT@_W@ATL@@@@@ATL@@QAE@PB_W@Z ; ATL::CStringT<wchar_t,StrTraitMFC<wchar_t,ATL::ChTraitsCRT<wchar_t> > >::CStringT<wchar_t,StrTraitMFC<wchar_t,ATL::ChTraitsCRT<wchar_t> > >
  00a54	c6 45 fc 87	 mov	 BYTE PTR __$EHRec$[ebp+8], 135 ; 00000087H

; 595  : 	_T("0C 01 00"),

  00a58	68 00 00 00 00	 push	 OFFSET ??_C@_1BC@LPOMKMBC@?$AA0?$AAC?$AA?5?$AA0?$AA1?$AA?5?$AA0?$AA0?$AA?$AA@
  00a5d	b9 20 02 00 00	 mov	 ecx, OFFSET _strDeviceCmd+544
  00a62	e8 00 00 00 00	 call	 ??0?$CStringT@_WV?$StrTraitMFC@_WV?$ChTraitsCRT@_W@ATL@@@@@ATL@@QAE@PB_W@Z ; ATL::CStringT<wchar_t,StrTraitMFC<wchar_t,ATL::ChTraitsCRT<wchar_t> > >::CStringT<wchar_t,StrTraitMFC<wchar_t,ATL::ChTraitsCRT<wchar_t> > >
  00a67	c6 45 fc 88	 mov	 BYTE PTR __$EHRec$[ebp+8], 136 ; 00000088H

; 596  : 
; 597  : 	_T("0D 00"),

  00a6b	68 00 00 00 00	 push	 OFFSET ??_C@_1M@KHFDFBE@?$AA0?$AAD?$AA?5?$AA0?$AA0?$AA?$AA@
  00a70	b9 24 02 00 00	 mov	 ecx, OFFSET _strDeviceCmd+548
  00a75	e8 00 00 00 00	 call	 ??0?$CStringT@_WV?$StrTraitMFC@_WV?$ChTraitsCRT@_W@ATL@@@@@ATL@@QAE@PB_W@Z ; ATL::CStringT<wchar_t,StrTraitMFC<wchar_t,ATL::ChTraitsCRT<wchar_t> > >::CStringT<wchar_t,StrTraitMFC<wchar_t,ATL::ChTraitsCRT<wchar_t> > >
  00a7a	c6 45 fc 89	 mov	 BYTE PTR __$EHRec$[ebp+8], 137 ; 00000089H

; 598  : 	_T("0D 01"),

  00a7e	68 00 00 00 00	 push	 OFFSET ??_C@_1M@LCMJFCHB@?$AA0?$AAD?$AA?5?$AA0?$AA1?$AA?$AA@
  00a83	b9 28 02 00 00	 mov	 ecx, OFFSET _strDeviceCmd+552
  00a88	e8 00 00 00 00	 call	 ??0?$CStringT@_WV?$StrTraitMFC@_WV?$ChTraitsCRT@_W@ATL@@@@@ATL@@QAE@PB_W@Z ; ATL::CStringT<wchar_t,StrTraitMFC<wchar_t,ATL::ChTraitsCRT<wchar_t> > >::CStringT<wchar_t,StrTraitMFC<wchar_t,ATL::ChTraitsCRT<wchar_t> > >
  00a8d	c6 45 fc 8a	 mov	 BYTE PTR __$EHRec$[ebp+8], 138 ; 0000008aH

; 599  : 	_T("0D 02"),

  00a91	68 00 00 00 00	 push	 OFFSET ??_C@_1M@KAHMPNJP@?$AA0?$AAD?$AA?5?$AA0?$AA2?$AA?$AA@
  00a96	b9 2c 02 00 00	 mov	 ecx, OFFSET _strDeviceCmd+556
  00a9b	e8 00 00 00 00	 call	 ??0?$CStringT@_WV?$StrTraitMFC@_WV?$ChTraitsCRT@_W@ATL@@@@@ATL@@QAE@PB_W@Z ; ATL::CStringT<wchar_t,StrTraitMFC<wchar_t,ATL::ChTraitsCRT<wchar_t> > >::CStringT<wchar_t,StrTraitMFC<wchar_t,ATL::ChTraitsCRT<wchar_t> > >
  00aa0	c6 45 fc 8b	 mov	 BYTE PTR __$EHRec$[ebp+8], 139 ; 0000008bH

; 600  : 	_T("0D 03"),

  00aa4	68 00 00 00 00	 push	 OFFSET ??_C@_1M@BIMAJKPK@?$AA0?$AAD?$AA?5?$AA0?$AA3?$AA?$AA@
  00aa9	b9 30 02 00 00	 mov	 ecx, OFFSET _strDeviceCmd+560
  00aae	e8 00 00 00 00	 call	 ??0?$CStringT@_WV?$StrTraitMFC@_WV?$ChTraitsCRT@_W@ATL@@@@@ATL@@QAE@PB_W@Z ; ATL::CStringT<wchar_t,StrTraitMFC<wchar_t,ATL::ChTraitsCRT<wchar_t> > >::CStringT<wchar_t,StrTraitMFC<wchar_t,ATL::ChTraitsCRT<wchar_t> > >
  00ab3	c6 45 fc 8c	 mov	 BYTE PTR __$EHRec$[ebp+8], 140 ; 0000008cH

; 601  : 
; 602  : 	_T("0E 00"),	//

  00ab7	68 00 00 00 00	 push	 OFFSET ??_C@_1M@OFLHFOCK@?$AA0?$AAE?$AA?5?$AA0?$AA0?$AA?$AA@
  00abc	b9 34 02 00 00	 mov	 ecx, OFFSET _strDeviceCmd+564
  00ac1	e8 00 00 00 00	 call	 ??0?$CStringT@_WV?$StrTraitMFC@_WV?$ChTraitsCRT@_W@ATL@@@@@ATL@@QAE@PB_W@Z ; ATL::CStringT<wchar_t,StrTraitMFC<wchar_t,ATL::ChTraitsCRT<wchar_t> > >::CStringT<wchar_t,StrTraitMFC<wchar_t,ATL::ChTraitsCRT<wchar_t> > >
  00ac6	c6 45 fc 8d	 mov	 BYTE PTR __$EHRec$[ebp+8], 141 ; 0000008dH

; 603  : 
; 604  : 	_T("5A FF"),	//

  00aca	68 00 00 00 00	 push	 OFFSET ??_C@_1M@OHNAJINM@?$AA5?$AAA?$AA?5?$AAF?$AAF?$AA?$AA@
  00acf	b9 38 02 00 00	 mov	 ecx, OFFSET _strDeviceCmd+568
  00ad4	e8 00 00 00 00	 call	 ??0?$CStringT@_WV?$StrTraitMFC@_WV?$ChTraitsCRT@_W@ATL@@@@@ATL@@QAE@PB_W@Z ; ATL::CStringT<wchar_t,StrTraitMFC<wchar_t,ATL::ChTraitsCRT<wchar_t> > >::CStringT<wchar_t,StrTraitMFC<wchar_t,ATL::ChTraitsCRT<wchar_t> > >
  00ad9	c6 45 fc 8e	 mov	 BYTE PTR __$EHRec$[ebp+8], 142 ; 0000008eH

; 605  : 
; 606  : /////20140612/////////////////////////////////////////////////////////////////////////////////////////////////////////////////
; 607  : 
; 608  : 	_T("04 09 FF"),

  00add	68 00 00 00 00	 push	 OFFSET ??_C@_1BC@BNILLGBG@?$AA0?$AA4?$AA?5?$AA0?$AA9?$AA?5?$AAF?$AAF?$AA?$AA@
  00ae2	b9 3c 02 00 00	 mov	 ecx, OFFSET _strDeviceCmd+572
  00ae7	e8 00 00 00 00	 call	 ??0?$CStringT@_WV?$StrTraitMFC@_WV?$ChTraitsCRT@_W@ATL@@@@@ATL@@QAE@PB_W@Z ; ATL::CStringT<wchar_t,StrTraitMFC<wchar_t,ATL::ChTraitsCRT<wchar_t> > >::CStringT<wchar_t,StrTraitMFC<wchar_t,ATL::ChTraitsCRT<wchar_t> > >
  00aec	c6 45 fc 8f	 mov	 BYTE PTR __$EHRec$[ebp+8], 143 ; 0000008fH

; 609  : 	_T("04 09 00"),

  00af0	68 00 00 00 00	 push	 OFFSET ??_C@_1BC@IOKEKHIK@?$AA0?$AA4?$AA?5?$AA0?$AA9?$AA?5?$AA0?$AA0?$AA?$AA@
  00af5	b9 40 02 00 00	 mov	 ecx, OFFSET _strDeviceCmd+576
  00afa	e8 00 00 00 00	 call	 ??0?$CStringT@_WV?$StrTraitMFC@_WV?$ChTraitsCRT@_W@ATL@@@@@ATL@@QAE@PB_W@Z ; ATL::CStringT<wchar_t,StrTraitMFC<wchar_t,ATL::ChTraitsCRT<wchar_t> > >::CStringT<wchar_t,StrTraitMFC<wchar_t,ATL::ChTraitsCRT<wchar_t> > >
  00aff	c6 45 fc 90	 mov	 BYTE PTR __$EHRec$[ebp+8], 144 ; 00000090H

; 610  : 
; 611  : 	_T("08 00 FF"),

  00b03	68 00 00 00 00	 push	 OFFSET ??_C@_1BC@EGLMEOBE@?$AA0?$AA8?$AA?5?$AA0?$AA0?$AA?5?$AAF?$AAF?$AA?$AA@
  00b08	b9 44 02 00 00	 mov	 ecx, OFFSET _strDeviceCmd+580
  00b0d	e8 00 00 00 00	 call	 ??0?$CStringT@_WV?$StrTraitMFC@_WV?$ChTraitsCRT@_W@ATL@@@@@ATL@@QAE@PB_W@Z ; ATL::CStringT<wchar_t,StrTraitMFC<wchar_t,ATL::ChTraitsCRT<wchar_t> > >::CStringT<wchar_t,StrTraitMFC<wchar_t,ATL::ChTraitsCRT<wchar_t> > >
  00b12	c6 45 fc 91	 mov	 BYTE PTR __$EHRec$[ebp+8], 145 ; 00000091H

; 612  : 	_T("08 00 00"),

  00b16	68 00 00 00 00	 push	 OFFSET ??_C@_1BC@NFJDFPII@?$AA0?$AA8?$AA?5?$AA0?$AA0?$AA?5?$AA0?$AA0?$AA?$AA@
  00b1b	b9 48 02 00 00	 mov	 ecx, OFFSET _strDeviceCmd+584
  00b20	e8 00 00 00 00	 call	 ??0?$CStringT@_WV?$StrTraitMFC@_WV?$ChTraitsCRT@_W@ATL@@@@@ATL@@QAE@PB_W@Z ; ATL::CStringT<wchar_t,StrTraitMFC<wchar_t,ATL::ChTraitsCRT<wchar_t> > >::CStringT<wchar_t,StrTraitMFC<wchar_t,ATL::ChTraitsCRT<wchar_t> > >
  00b25	c6 45 fc 92	 mov	 BYTE PTR __$EHRec$[ebp+8], 146 ; 00000092H

; 613  : 	_T("08 01 FF"),

  00b29	68 00 00 00 00	 push	 OFFSET ??_C@_1BC@KJHOCFCK@?$AA0?$AA8?$AA?5?$AA0?$AA1?$AA?5?$AAF?$AAF?$AA?$AA@
  00b2e	b9 4c 02 00 00	 mov	 ecx, OFFSET _strDeviceCmd+588
  00b33	e8 00 00 00 00	 call	 ??0?$CStringT@_WV?$StrTraitMFC@_WV?$ChTraitsCRT@_W@ATL@@@@@ATL@@QAE@PB_W@Z ; ATL::CStringT<wchar_t,StrTraitMFC<wchar_t,ATL::ChTraitsCRT<wchar_t> > >::CStringT<wchar_t,StrTraitMFC<wchar_t,ATL::ChTraitsCRT<wchar_t> > >
  00b38	c6 45 fc 93	 mov	 BYTE PTR __$EHRec$[ebp+8], 147 ; 00000093H

; 614  : 
; 615  : 	_T("08 01 00"),

  00b3c	68 00 00 00 00	 push	 OFFSET ??_C@_1BC@DKFBDELG@?$AA0?$AA8?$AA?5?$AA0?$AA1?$AA?5?$AA0?$AA0?$AA?$AA@
  00b41	b9 50 02 00 00	 mov	 ecx, OFFSET _strDeviceCmd+592
  00b46	e8 00 00 00 00	 call	 ??0?$CStringT@_WV?$StrTraitMFC@_WV?$ChTraitsCRT@_W@ATL@@@@@ATL@@QAE@PB_W@Z ; ATL::CStringT<wchar_t,StrTraitMFC<wchar_t,ATL::ChTraitsCRT<wchar_t> > >::CStringT<wchar_t,StrTraitMFC<wchar_t,ATL::ChTraitsCRT<wchar_t> > >
  00b4b	c6 45 fc 94	 mov	 BYTE PTR __$EHRec$[ebp+8], 148 ; 00000094H

; 616  : 	_T("08 02 FF"),

  00b4f	68 00 00 00 00	 push	 OFFSET ??_C@_1BC@ECEJJOCJ@?$AA0?$AA8?$AA?5?$AA0?$AA2?$AA?5?$AAF?$AAF?$AA?$AA@
  00b54	b9 54 02 00 00	 mov	 ecx, OFFSET _strDeviceCmd+596
  00b59	e8 00 00 00 00	 call	 ??0?$CStringT@_WV?$StrTraitMFC@_WV?$ChTraitsCRT@_W@ATL@@@@@ATL@@QAE@PB_W@Z ; ATL::CStringT<wchar_t,StrTraitMFC<wchar_t,ATL::ChTraitsCRT<wchar_t> > >::CStringT<wchar_t,StrTraitMFC<wchar_t,ATL::ChTraitsCRT<wchar_t> > >
  00b5e	c6 45 fc 95	 mov	 BYTE PTR __$EHRec$[ebp+8], 149 ; 00000095H

; 617  : 	_T("08 02 00"),

  00b62	68 00 00 00 00	 push	 OFFSET ??_C@_1BC@NBGGIPLF@?$AA0?$AA8?$AA?5?$AA0?$AA2?$AA?5?$AA0?$AA0?$AA?$AA@
  00b67	b9 58 02 00 00	 mov	 ecx, OFFSET _strDeviceCmd+600
  00b6c	e8 00 00 00 00	 call	 ??0?$CStringT@_WV?$StrTraitMFC@_WV?$ChTraitsCRT@_W@ATL@@@@@ATL@@QAE@PB_W@Z ; ATL::CStringT<wchar_t,StrTraitMFC<wchar_t,ATL::ChTraitsCRT<wchar_t> > >::CStringT<wchar_t,StrTraitMFC<wchar_t,ATL::ChTraitsCRT<wchar_t> > >
  00b71	c6 45 fc 96	 mov	 BYTE PTR __$EHRec$[ebp+8], 150 ; 00000096H

; 618  : 
; 619  : 	_T("08 03 FF"),

  00b75	68 00 00 00 00	 push	 OFFSET ??_C@_1BC@KNILPFBH@?$AA0?$AA8?$AA?5?$AA0?$AA3?$AA?5?$AAF?$AAF?$AA?$AA@
  00b7a	b9 5c 02 00 00	 mov	 ecx, OFFSET _strDeviceCmd+604
  00b7f	e8 00 00 00 00	 call	 ??0?$CStringT@_WV?$StrTraitMFC@_WV?$ChTraitsCRT@_W@ATL@@@@@ATL@@QAE@PB_W@Z ; ATL::CStringT<wchar_t,StrTraitMFC<wchar_t,ATL::ChTraitsCRT<wchar_t> > >::CStringT<wchar_t,StrTraitMFC<wchar_t,ATL::ChTraitsCRT<wchar_t> > >
  00b84	c6 45 fc 97	 mov	 BYTE PTR __$EHRec$[ebp+8], 151 ; 00000097H

; 620  : 	_T("08 03 00"),

  00b88	68 00 00 00 00	 push	 OFFSET ??_C@_1BC@DOKEOEIL@?$AA0?$AA8?$AA?5?$AA0?$AA3?$AA?5?$AA0?$AA0?$AA?$AA@
  00b8d	b9 60 02 00 00	 mov	 ecx, OFFSET _strDeviceCmd+608
  00b92	e8 00 00 00 00	 call	 ??0?$CStringT@_WV?$StrTraitMFC@_WV?$ChTraitsCRT@_W@ATL@@@@@ATL@@QAE@PB_W@Z ; ATL::CStringT<wchar_t,StrTraitMFC<wchar_t,ATL::ChTraitsCRT<wchar_t> > >::CStringT<wchar_t,StrTraitMFC<wchar_t,ATL::ChTraitsCRT<wchar_t> > >
  00b97	c6 45 fc 98	 mov	 BYTE PTR __$EHRec$[ebp+8], 152 ; 00000098H

; 621  : 	_T("08 04 FF"),

  00b9b	68 00 00 00 00	 push	 OFFSET ??_C@_1BC@EPFHOOGO@?$AA0?$AA8?$AA?5?$AA0?$AA4?$AA?5?$AAF?$AAF?$AA?$AA@
  00ba0	b9 64 02 00 00	 mov	 ecx, OFFSET _strDeviceCmd+612
  00ba5	e8 00 00 00 00	 call	 ??0?$CStringT@_WV?$StrTraitMFC@_WV?$ChTraitsCRT@_W@ATL@@@@@ATL@@QAE@PB_W@Z ; ATL::CStringT<wchar_t,StrTraitMFC<wchar_t,ATL::ChTraitsCRT<wchar_t> > >::CStringT<wchar_t,StrTraitMFC<wchar_t,ATL::ChTraitsCRT<wchar_t> > >
  00baa	c6 45 fc 99	 mov	 BYTE PTR __$EHRec$[ebp+8], 153 ; 00000099H

; 622  : 	_T("08 04 00"),

  00bae	68 00 00 00 00	 push	 OFFSET ??_C@_1BC@NMHIPPPC@?$AA0?$AA8?$AA?5?$AA0?$AA4?$AA?5?$AA0?$AA0?$AA?$AA@
  00bb3	b9 68 02 00 00	 mov	 ecx, OFFSET _strDeviceCmd+616
  00bb8	e8 00 00 00 00	 call	 ??0?$CStringT@_WV?$StrTraitMFC@_WV?$ChTraitsCRT@_W@ATL@@@@@ATL@@QAE@PB_W@Z ; ATL::CStringT<wchar_t,StrTraitMFC<wchar_t,ATL::ChTraitsCRT<wchar_t> > >::CStringT<wchar_t,StrTraitMFC<wchar_t,ATL::ChTraitsCRT<wchar_t> > >
  00bbd	c6 45 fc 9a	 mov	 BYTE PTR __$EHRec$[ebp+8], 154 ; 0000009aH

; 623  : 	_T("08 05 FF"),

  00bc1	68 00 00 00 00	 push	 OFFSET ??_C@_1BC@KAJFIFFA@?$AA0?$AA8?$AA?5?$AA0?$AA5?$AA?5?$AAF?$AAF?$AA?$AA@
  00bc6	b9 6c 02 00 00	 mov	 ecx, OFFSET _strDeviceCmd+620
  00bcb	e8 00 00 00 00	 call	 ??0?$CStringT@_WV?$StrTraitMFC@_WV?$ChTraitsCRT@_W@ATL@@@@@ATL@@QAE@PB_W@Z ; ATL::CStringT<wchar_t,StrTraitMFC<wchar_t,ATL::ChTraitsCRT<wchar_t> > >::CStringT<wchar_t,StrTraitMFC<wchar_t,ATL::ChTraitsCRT<wchar_t> > >
  00bd0	c6 45 fc 9b	 mov	 BYTE PTR __$EHRec$[ebp+8], 155 ; 0000009bH

; 624  : 	_T("08 05 00"),

  00bd4	68 00 00 00 00	 push	 OFFSET ??_C@_1BC@DDLKJEMM@?$AA0?$AA8?$AA?5?$AA0?$AA5?$AA?5?$AA0?$AA0?$AA?$AA@
  00bd9	b9 70 02 00 00	 mov	 ecx, OFFSET _strDeviceCmd+624
  00bde	e8 00 00 00 00	 call	 ??0?$CStringT@_WV?$StrTraitMFC@_WV?$ChTraitsCRT@_W@ATL@@@@@ATL@@QAE@PB_W@Z ; ATL::CStringT<wchar_t,StrTraitMFC<wchar_t,ATL::ChTraitsCRT<wchar_t> > >::CStringT<wchar_t,StrTraitMFC<wchar_t,ATL::ChTraitsCRT<wchar_t> > >
  00be3	c6 45 fc 9c	 mov	 BYTE PTR __$EHRec$[ebp+8], 156 ; 0000009cH

; 625  : 
; 626  : 	_T("09 00 FF"),

  00be7	68 00 00 00 00	 push	 OFFSET ??_C@_1BC@OINENPIF@?$AA0?$AA9?$AA?5?$AA0?$AA0?$AA?5?$AAF?$AAF?$AA?$AA@
  00bec	b9 74 02 00 00	 mov	 ecx, OFFSET _strDeviceCmd+628
  00bf1	e8 00 00 00 00	 call	 ??0?$CStringT@_WV?$StrTraitMFC@_WV?$ChTraitsCRT@_W@ATL@@@@@ATL@@QAE@PB_W@Z ; ATL::CStringT<wchar_t,StrTraitMFC<wchar_t,ATL::ChTraitsCRT<wchar_t> > >::CStringT<wchar_t,StrTraitMFC<wchar_t,ATL::ChTraitsCRT<wchar_t> > >
  00bf6	c6 45 fc 9d	 mov	 BYTE PTR __$EHRec$[ebp+8], 157 ; 0000009dH

; 627  : 	_T("09 00 00"),

  00bfa	68 00 00 00 00	 push	 OFFSET ??_C@_1BC@HLPLMOBJ@?$AA0?$AA9?$AA?5?$AA0?$AA0?$AA?5?$AA0?$AA0?$AA?$AA@
  00bff	b9 78 02 00 00	 mov	 ecx, OFFSET _strDeviceCmd+632
  00c04	e8 00 00 00 00	 call	 ??0?$CStringT@_WV?$StrTraitMFC@_WV?$ChTraitsCRT@_W@ATL@@@@@ATL@@QAE@PB_W@Z ; ATL::CStringT<wchar_t,StrTraitMFC<wchar_t,ATL::ChTraitsCRT<wchar_t> > >::CStringT<wchar_t,StrTraitMFC<wchar_t,ATL::ChTraitsCRT<wchar_t> > >
  00c09	c6 45 fc 9e	 mov	 BYTE PTR __$EHRec$[ebp+8], 158 ; 0000009eH

; 628  : 	_T("09 01 FF"),

  00c0d	68 00 00 00 00	 push	 OFFSET ??_C@_1BC@HBGLELL@?$AA0?$AA9?$AA?5?$AA0?$AA1?$AA?5?$AAF?$AAF?$AA?$AA@
  00c12	b9 7c 02 00 00	 mov	 ecx, OFFSET _strDeviceCmd+636
  00c17	e8 00 00 00 00	 call	 ??0?$CStringT@_WV?$StrTraitMFC@_WV?$ChTraitsCRT@_W@ATL@@@@@ATL@@QAE@PB_W@Z ; ATL::CStringT<wchar_t,StrTraitMFC<wchar_t,ATL::ChTraitsCRT<wchar_t> > >::CStringT<wchar_t,StrTraitMFC<wchar_t,ATL::ChTraitsCRT<wchar_t> > >
  00c1c	c6 45 fc 9f	 mov	 BYTE PTR __$EHRec$[ebp+8], 159 ; 0000009fH

; 629  : 	_T("09 01 00"),

  00c20	68 00 00 00 00	 push	 OFFSET ??_C@_1BC@JEDJKFCH@?$AA0?$AA9?$AA?5?$AA0?$AA1?$AA?5?$AA0?$AA0?$AA?$AA@
  00c25	b9 80 02 00 00	 mov	 ecx, OFFSET _strDeviceCmd+640
  00c2a	e8 00 00 00 00	 call	 ??0?$CStringT@_WV?$StrTraitMFC@_WV?$ChTraitsCRT@_W@ATL@@@@@ATL@@QAE@PB_W@Z ; ATL::CStringT<wchar_t,StrTraitMFC<wchar_t,ATL::ChTraitsCRT<wchar_t> > >::CStringT<wchar_t,StrTraitMFC<wchar_t,ATL::ChTraitsCRT<wchar_t> > >
  00c2f	c6 45 fc a0	 mov	 BYTE PTR __$EHRec$[ebp+8], 160 ; 000000a0H

; 630  : 	_T("09 02 FF"),

  00c33	68 00 00 00 00	 push	 OFFSET ??_C@_1BC@OMCBAPLI@?$AA0?$AA9?$AA?5?$AA0?$AA2?$AA?5?$AAF?$AAF?$AA?$AA@
  00c38	b9 84 02 00 00	 mov	 ecx, OFFSET _strDeviceCmd+644
  00c3d	e8 00 00 00 00	 call	 ??0?$CStringT@_WV?$StrTraitMFC@_WV?$ChTraitsCRT@_W@ATL@@@@@ATL@@QAE@PB_W@Z ; ATL::CStringT<wchar_t,StrTraitMFC<wchar_t,ATL::ChTraitsCRT<wchar_t> > >::CStringT<wchar_t,StrTraitMFC<wchar_t,ATL::ChTraitsCRT<wchar_t> > >
  00c42	c6 45 fc a1	 mov	 BYTE PTR __$EHRec$[ebp+8], 161 ; 000000a1H

; 631  : 	_T("09 02 00"),

  00c46	68 00 00 00 00	 push	 OFFSET ??_C@_1BC@HPAOBOCE@?$AA0?$AA9?$AA?5?$AA0?$AA2?$AA?5?$AA0?$AA0?$AA?$AA@
  00c4b	b9 88 02 00 00	 mov	 ecx, OFFSET _strDeviceCmd+648
  00c50	e8 00 00 00 00	 call	 ??0?$CStringT@_WV?$StrTraitMFC@_WV?$ChTraitsCRT@_W@ATL@@@@@ATL@@QAE@PB_W@Z ; ATL::CStringT<wchar_t,StrTraitMFC<wchar_t,ATL::ChTraitsCRT<wchar_t> > >::CStringT<wchar_t,StrTraitMFC<wchar_t,ATL::ChTraitsCRT<wchar_t> > >
  00c55	c6 45 fc a2	 mov	 BYTE PTR __$EHRec$[ebp+8], 162 ; 000000a2H

; 632  : 
; 633  : 	_T("09 03 FF"),

  00c59	68 00 00 00 00	 push	 OFFSET ??_C@_1BC@DODGEIG@?$AA0?$AA9?$AA?5?$AA0?$AA3?$AA?5?$AAF?$AAF?$AA?$AA@
  00c5e	b9 8c 02 00 00	 mov	 ecx, OFFSET _strDeviceCmd+652
  00c63	e8 00 00 00 00	 call	 ??0?$CStringT@_WV?$StrTraitMFC@_WV?$ChTraitsCRT@_W@ATL@@@@@ATL@@QAE@PB_W@Z ; ATL::CStringT<wchar_t,StrTraitMFC<wchar_t,ATL::ChTraitsCRT<wchar_t> > >::CStringT<wchar_t,StrTraitMFC<wchar_t,ATL::ChTraitsCRT<wchar_t> > >
  00c68	c6 45 fc a3	 mov	 BYTE PTR __$EHRec$[ebp+8], 163 ; 000000a3H

; 634  : 	_T("09 03 00"),

  00c6c	68 00 00 00 00	 push	 OFFSET ??_C@_1BC@JAMMHFBK@?$AA0?$AA9?$AA?5?$AA0?$AA3?$AA?5?$AA0?$AA0?$AA?$AA@
  00c71	b9 90 02 00 00	 mov	 ecx, OFFSET _strDeviceCmd+656
  00c76	e8 00 00 00 00	 call	 ??0?$CStringT@_WV?$StrTraitMFC@_WV?$ChTraitsCRT@_W@ATL@@@@@ATL@@QAE@PB_W@Z ; ATL::CStringT<wchar_t,StrTraitMFC<wchar_t,ATL::ChTraitsCRT<wchar_t> > >::CStringT<wchar_t,StrTraitMFC<wchar_t,ATL::ChTraitsCRT<wchar_t> > >
  00c7b	c6 45 fc a4	 mov	 BYTE PTR __$EHRec$[ebp+8], 164 ; 000000a4H

; 635  : 	_T("09 04 FF"),

  00c7f	68 00 00 00 00	 push	 OFFSET ??_C@_1BC@OBDPHPPP@?$AA0?$AA9?$AA?5?$AA0?$AA4?$AA?5?$AAF?$AAF?$AA?$AA@
  00c84	b9 94 02 00 00	 mov	 ecx, OFFSET _strDeviceCmd+660
  00c89	e8 00 00 00 00	 call	 ??0?$CStringT@_WV?$StrTraitMFC@_WV?$ChTraitsCRT@_W@ATL@@@@@ATL@@QAE@PB_W@Z ; ATL::CStringT<wchar_t,StrTraitMFC<wchar_t,ATL::ChTraitsCRT<wchar_t> > >::CStringT<wchar_t,StrTraitMFC<wchar_t,ATL::ChTraitsCRT<wchar_t> > >
  00c8e	c6 45 fc a5	 mov	 BYTE PTR __$EHRec$[ebp+8], 165 ; 000000a5H

; 636  : 	_T("09 04 00"),

  00c92	68 00 00 00 00	 push	 OFFSET ??_C@_1BC@HCBAGOGD@?$AA0?$AA9?$AA?5?$AA0?$AA4?$AA?5?$AA0?$AA0?$AA?$AA@
  00c97	b9 98 02 00 00	 mov	 ecx, OFFSET _strDeviceCmd+664
  00c9c	e8 00 00 00 00	 call	 ??0?$CStringT@_WV?$StrTraitMFC@_WV?$ChTraitsCRT@_W@ATL@@@@@ATL@@QAE@PB_W@Z ; ATL::CStringT<wchar_t,StrTraitMFC<wchar_t,ATL::ChTraitsCRT<wchar_t> > >::CStringT<wchar_t,StrTraitMFC<wchar_t,ATL::ChTraitsCRT<wchar_t> > >
  00ca1	c6 45 fc a6	 mov	 BYTE PTR __$EHRec$[ebp+8], 166 ; 000000a6H

; 637  : 	_T("09 05 FF"),

  00ca5	68 00 00 00 00	 push	 OFFSET ??_C@_1BC@OPNBEMB@?$AA0?$AA9?$AA?5?$AA0?$AA5?$AA?5?$AAF?$AAF?$AA?$AA@
  00caa	b9 9c 02 00 00	 mov	 ecx, OFFSET _strDeviceCmd+668
  00caf	e8 00 00 00 00	 call	 ??0?$CStringT@_WV?$StrTraitMFC@_WV?$ChTraitsCRT@_W@ATL@@@@@ATL@@QAE@PB_W@Z ; ATL::CStringT<wchar_t,StrTraitMFC<wchar_t,ATL::ChTraitsCRT<wchar_t> > >::CStringT<wchar_t,StrTraitMFC<wchar_t,ATL::ChTraitsCRT<wchar_t> > >
  00cb4	c6 45 fc a7	 mov	 BYTE PTR __$EHRec$[ebp+8], 167 ; 000000a7H

; 638  : 	_T("09 05 00"),

  00cb8	68 00 00 00 00	 push	 OFFSET ??_C@_1BC@JNNCAFFN@?$AA0?$AA9?$AA?5?$AA0?$AA5?$AA?5?$AA0?$AA0?$AA?$AA@
  00cbd	b9 a0 02 00 00	 mov	 ecx, OFFSET _strDeviceCmd+672
  00cc2	e8 00 00 00 00	 call	 ??0?$CStringT@_WV?$StrTraitMFC@_WV?$ChTraitsCRT@_W@ATL@@@@@ATL@@QAE@PB_W@Z ; ATL::CStringT<wchar_t,StrTraitMFC<wchar_t,ATL::ChTraitsCRT<wchar_t> > >::CStringT<wchar_t,StrTraitMFC<wchar_t,ATL::ChTraitsCRT<wchar_t> > >
  00cc7	c6 45 fc a8	 mov	 BYTE PTR __$EHRec$[ebp+8], 168 ; 000000a8H

; 639  : 	_T("09 06 FF"),

  00ccb	68 00 00 00 00	 push	 OFFSET ??_C@_1BC@OFMKKPMC@?$AA0?$AA9?$AA?5?$AA0?$AA6?$AA?5?$AAF?$AAF?$AA?$AA@
  00cd0	b9 a4 02 00 00	 mov	 ecx, OFFSET _strDeviceCmd+676
  00cd5	e8 00 00 00 00	 call	 ??0?$CStringT@_WV?$StrTraitMFC@_WV?$ChTraitsCRT@_W@ATL@@@@@ATL@@QAE@PB_W@Z ; ATL::CStringT<wchar_t,StrTraitMFC<wchar_t,ATL::ChTraitsCRT<wchar_t> > >::CStringT<wchar_t,StrTraitMFC<wchar_t,ATL::ChTraitsCRT<wchar_t> > >
  00cda	c6 45 fc a9	 mov	 BYTE PTR __$EHRec$[ebp+8], 169 ; 000000a9H

; 640  : 	_T("09 06 00"),

  00cde	68 00 00 00 00	 push	 OFFSET ??_C@_1BC@HGOFLOFO@?$AA0?$AA9?$AA?5?$AA0?$AA6?$AA?5?$AA0?$AA0?$AA?$AA@
  00ce3	b9 a8 02 00 00	 mov	 ecx, OFFSET _strDeviceCmd+680
  00ce8	e8 00 00 00 00	 call	 ??0?$CStringT@_WV?$StrTraitMFC@_WV?$ChTraitsCRT@_W@ATL@@@@@ATL@@QAE@PB_W@Z ; ATL::CStringT<wchar_t,StrTraitMFC<wchar_t,ATL::ChTraitsCRT<wchar_t> > >::CStringT<wchar_t,StrTraitMFC<wchar_t,ATL::ChTraitsCRT<wchar_t> > >
  00ced	c6 45 fc aa	 mov	 BYTE PTR __$EHRec$[ebp+8], 170 ; 000000aaH

; 641  : 
; 642  : 	_T("07 00 FF"),

  00cf1	68 00 00 00 00	 push	 OFFSET ??_C@_1BC@MIFGCJCO@?$AA0?$AA7?$AA?5?$AA0?$AA0?$AA?5?$AAF?$AAF?$AA?$AA@
  00cf6	b9 ac 02 00 00	 mov	 ecx, OFFSET _strDeviceCmd+684
  00cfb	e8 00 00 00 00	 call	 ??0?$CStringT@_WV?$StrTraitMFC@_WV?$ChTraitsCRT@_W@ATL@@@@@ATL@@QAE@PB_W@Z ; ATL::CStringT<wchar_t,StrTraitMFC<wchar_t,ATL::ChTraitsCRT<wchar_t> > >::CStringT<wchar_t,StrTraitMFC<wchar_t,ATL::ChTraitsCRT<wchar_t> > >
  00d00	c6 45 fc ab	 mov	 BYTE PTR __$EHRec$[ebp+8], 171 ; 000000abH

; 643  : 	_T("07 01 FF"),

  00d04	68 00 00 00 00	 push	 OFFSET ??_C@_1BC@CHJEECBA@?$AA0?$AA7?$AA?5?$AA0?$AA1?$AA?5?$AAF?$AAF?$AA?$AA@
  00d09	b9 b0 02 00 00	 mov	 ecx, OFFSET _strDeviceCmd+688
  00d0e	e8 00 00 00 00	 call	 ??0?$CStringT@_WV?$StrTraitMFC@_WV?$ChTraitsCRT@_W@ATL@@@@@ATL@@QAE@PB_W@Z ; ATL::CStringT<wchar_t,StrTraitMFC<wchar_t,ATL::ChTraitsCRT<wchar_t> > >::CStringT<wchar_t,StrTraitMFC<wchar_t,ATL::ChTraitsCRT<wchar_t> > >
  00d13	c6 45 fc ac	 mov	 BYTE PTR __$EHRec$[ebp+8], 172 ; 000000acH

; 644  : 	_T("07 04 FF"),

  00d17	68 00 00 00 00	 push	 OFFSET ??_C@_1BC@MBLNIJFE@?$AA0?$AA7?$AA?5?$AA0?$AA4?$AA?5?$AAF?$AAF?$AA?$AA@
  00d1c	b9 b4 02 00 00	 mov	 ecx, OFFSET _strDeviceCmd+692
  00d21	e8 00 00 00 00	 call	 ??0?$CStringT@_WV?$StrTraitMFC@_WV?$ChTraitsCRT@_W@ATL@@@@@ATL@@QAE@PB_W@Z ; ATL::CStringT<wchar_t,StrTraitMFC<wchar_t,ATL::ChTraitsCRT<wchar_t> > >::CStringT<wchar_t,StrTraitMFC<wchar_t,ATL::ChTraitsCRT<wchar_t> > >
  00d26	c6 45 fc ad	 mov	 BYTE PTR __$EHRec$[ebp+8], 173 ; 000000adH

; 645  : 	_T("07 05 FF"),

  00d2a	68 00 00 00 00	 push	 OFFSET ??_C@_1BC@COHPOCGK@?$AA0?$AA7?$AA?5?$AA0?$AA5?$AA?5?$AAF?$AAF?$AA?$AA@
  00d2f	b9 b8 02 00 00	 mov	 ecx, OFFSET _strDeviceCmd+696
  00d34	e8 00 00 00 00	 call	 ??0?$CStringT@_WV?$StrTraitMFC@_WV?$ChTraitsCRT@_W@ATL@@@@@ATL@@QAE@PB_W@Z ; ATL::CStringT<wchar_t,StrTraitMFC<wchar_t,ATL::ChTraitsCRT<wchar_t> > >::CStringT<wchar_t,StrTraitMFC<wchar_t,ATL::ChTraitsCRT<wchar_t> > >
  00d39	c6 45 fc ae	 mov	 BYTE PTR __$EHRec$[ebp+8], 174 ; 000000aeH

; 646  : 
; 647  : 	_T("04 0A"),

  00d3d	68 00 00 00 00	 push	 OFFSET ??_C@_1M@CPLPHHHF@?$AA0?$AA4?$AA?5?$AA0?$AAA?$AA?$AA@
  00d42	b9 bc 02 00 00	 mov	 ecx, OFFSET _strDeviceCmd+700
  00d47	e8 00 00 00 00	 call	 ??0?$CStringT@_WV?$StrTraitMFC@_WV?$ChTraitsCRT@_W@ATL@@@@@ATL@@QAE@PB_W@Z ; ATL::CStringT<wchar_t,StrTraitMFC<wchar_t,ATL::ChTraitsCRT<wchar_t> > >::CStringT<wchar_t,StrTraitMFC<wchar_t,ATL::ChTraitsCRT<wchar_t> > >
  00d4c	c6 45 fc af	 mov	 BYTE PTR __$EHRec$[ebp+8], 175 ; 000000afH

; 648  : 	_T("04 03"),

  00d50	68 00 00 00 00	 push	 OFFSET ??_C@_1M@OOIJBPGC@?$AA0?$AA4?$AA?5?$AA0?$AA3?$AA?$AA@
  00d55	b9 c0 02 00 00	 mov	 ecx, OFFSET _strDeviceCmd+704
  00d5a	e8 00 00 00 00	 call	 ??0?$CStringT@_WV?$StrTraitMFC@_WV?$ChTraitsCRT@_W@ATL@@@@@ATL@@QAE@PB_W@Z ; ATL::CStringT<wchar_t,StrTraitMFC<wchar_t,ATL::ChTraitsCRT<wchar_t> > >::CStringT<wchar_t,StrTraitMFC<wchar_t,ATL::ChTraitsCRT<wchar_t> > >
  00d5f	c6 45 fc b0	 mov	 BYTE PTR __$EHRec$[ebp+8], 176 ; 000000b0H

; 649  : 	_T("07 02"),

  00d63	68 00 00 00 00	 push	 OFFSET ??_C@_1M@LNACMDAE@?$AA0?$AA7?$AA?5?$AA0?$AA2?$AA?$AA@
  00d68	b9 c4 02 00 00	 mov	 ecx, OFFSET _strDeviceCmd+708
  00d6d	e8 00 00 00 00	 call	 ??0?$CStringT@_WV?$StrTraitMFC@_WV?$ChTraitsCRT@_W@ATL@@@@@ATL@@QAE@PB_W@Z ; ATL::CStringT<wchar_t,StrTraitMFC<wchar_t,ATL::ChTraitsCRT<wchar_t> > >::CStringT<wchar_t,StrTraitMFC<wchar_t,ATL::ChTraitsCRT<wchar_t> > >
  00d72	c6 45 fc b1	 mov	 BYTE PTR __$EHRec$[ebp+8], 177 ; 000000b1H

; 650  : 	_T("07 03")
; 651  : };

  00d76	68 00 00 00 00	 push	 OFFSET ??_C@_1M@FLOKEGB@?$AA0?$AA7?$AA?5?$AA0?$AA3?$AA?$AA@
  00d7b	b9 c8 02 00 00	 mov	 ecx, OFFSET _strDeviceCmd+712
  00d80	e8 00 00 00 00	 call	 ??0?$CStringT@_WV?$StrTraitMFC@_WV?$ChTraitsCRT@_W@ATL@@@@@ATL@@QAE@PB_W@Z ; ATL::CStringT<wchar_t,StrTraitMFC<wchar_t,ATL::ChTraitsCRT<wchar_t> > >::CStringT<wchar_t,StrTraitMFC<wchar_t,ATL::ChTraitsCRT<wchar_t> > >
  00d85	c7 45 fc ff ff
	ff ff		 mov	 DWORD PTR __$EHRec$[ebp+8], -1
  00d8c	68 00 00 00 00	 push	 OFFSET ??__FstrDeviceCmd@@YAXXZ ; `dynamic atexit destructor for 'strDeviceCmd''
  00d91	e8 00 00 00 00	 call	 _atexit
  00d96	83 c4 04	 add	 esp, 4
  00d99	8b 4d f4	 mov	 ecx, DWORD PTR __$EHRec$[ebp]
  00d9c	64 89 0d 00 00
	00 00		 mov	 DWORD PTR fs:0, ecx
  00da3	59		 pop	 ecx
  00da4	5f		 pop	 edi
  00da5	5e		 pop	 esi
  00da6	5b		 pop	 ebx
  00da7	81 c4 cc 00 00
	00		 add	 esp, 204		; 000000ccH
  00dad	3b ec		 cmp	 ebp, esp
  00daf	e8 00 00 00 00	 call	 __RTC_CheckEsp
  00db4	8b e5		 mov	 esp, ebp
  00db6	5d		 pop	 ebp
  00db7	c3		 ret	 0
text$yc	ENDS
;	COMDAT text$x
text$x	SEGMENT
__unwindfunclet$??__EstrDeviceCmd@@YAXXZ$0:
  00000	b9 00 00 00 00	 mov	 ecx, OFFSET _strDeviceCmd
  00005	e9 00 00 00 00	 jmp	 ??1?$CStringT@_WV?$StrTraitMFC@_WV?$ChTraitsCRT@_W@ATL@@@@@ATL@@QAE@XZ ; ATL::CStringT<wchar_t,StrTraitMFC<wchar_t,ATL::ChTraitsCRT<wchar_t> > >::~CStringT<wchar_t,StrTraitMFC<wchar_t,ATL::ChTraitsCRT<wchar_t> > >
__unwindfunclet$??__EstrDeviceCmd@@YAXXZ$1:
  0000a	b9 04 00 00 00	 mov	 ecx, OFFSET _strDeviceCmd+4
  0000f	e9 00 00 00 00	 jmp	 ??1?$CStringT@_WV?$StrTraitMFC@_WV?$ChTraitsCRT@_W@ATL@@@@@ATL@@QAE@XZ ; ATL::CStringT<wchar_t,StrTraitMFC<wchar_t,ATL::ChTraitsCRT<wchar_t> > >::~CStringT<wchar_t,StrTraitMFC<wchar_t,ATL::ChTraitsCRT<wchar_t> > >
__unwindfunclet$??__EstrDeviceCmd@@YAXXZ$2:
  00014	b9 08 00 00 00	 mov	 ecx, OFFSET _strDeviceCmd+8
  00019	e9 00 00 00 00	 jmp	 ??1?$CStringT@_WV?$StrTraitMFC@_WV?$ChTraitsCRT@_W@ATL@@@@@ATL@@QAE@XZ ; ATL::CStringT<wchar_t,StrTraitMFC<wchar_t,ATL::ChTraitsCRT<wchar_t> > >::~CStringT<wchar_t,StrTraitMFC<wchar_t,ATL::ChTraitsCRT<wchar_t> > >
__unwindfunclet$??__EstrDeviceCmd@@YAXXZ$3:
  0001e	b9 0c 00 00 00	 mov	 ecx, OFFSET _strDeviceCmd+12
  00023	e9 00 00 00 00	 jmp	 ??1?$CStringT@_WV?$StrTraitMFC@_WV?$ChTraitsCRT@_W@ATL@@@@@ATL@@QAE@XZ ; ATL::CStringT<wchar_t,StrTraitMFC<wchar_t,ATL::ChTraitsCRT<wchar_t> > >::~CStringT<wchar_t,StrTraitMFC<wchar_t,ATL::ChTraitsCRT<wchar_t> > >
__unwindfunclet$??__EstrDeviceCmd@@YAXXZ$4:
  00028	b9 10 00 00 00	 mov	 ecx, OFFSET _strDeviceCmd+16
  0002d	e9 00 00 00 00	 jmp	 ??1?$CStringT@_WV?$StrTraitMFC@_WV?$ChTraitsCRT@_W@ATL@@@@@ATL@@QAE@XZ ; ATL::CStringT<wchar_t,StrTraitMFC<wchar_t,ATL::ChTraitsCRT<wchar_t> > >::~CStringT<wchar_t,StrTraitMFC<wchar_t,ATL::ChTraitsCRT<wchar_t> > >
__unwindfunclet$??__EstrDeviceCmd@@YAXXZ$5:
  00032	b9 14 00 00 00	 mov	 ecx, OFFSET _strDeviceCmd+20
  00037	e9 00 00 00 00	 jmp	 ??1?$CStringT@_WV?$StrTraitMFC@_WV?$ChTraitsCRT@_W@ATL@@@@@ATL@@QAE@XZ ; ATL::CStringT<wchar_t,StrTraitMFC<wchar_t,ATL::ChTraitsCRT<wchar_t> > >::~CStringT<wchar_t,StrTraitMFC<wchar_t,ATL::ChTraitsCRT<wchar_t> > >
__unwindfunclet$??__EstrDeviceCmd@@YAXXZ$6:
  0003c	b9 18 00 00 00	 mov	 ecx, OFFSET _strDeviceCmd+24
  00041	e9 00 00 00 00	 jmp	 ??1?$CStringT@_WV?$StrTraitMFC@_WV?$ChTraitsCRT@_W@ATL@@@@@ATL@@QAE@XZ ; ATL::CStringT<wchar_t,StrTraitMFC<wchar_t,ATL::ChTraitsCRT<wchar_t> > >::~CStringT<wchar_t,StrTraitMFC<wchar_t,ATL::ChTraitsCRT<wchar_t> > >
__unwindfunclet$??__EstrDeviceCmd@@YAXXZ$7:
  00046	b9 1c 00 00 00	 mov	 ecx, OFFSET _strDeviceCmd+28
  0004b	e9 00 00 00 00	 jmp	 ??1?$CStringT@_WV?$StrTraitMFC@_WV?$ChTraitsCRT@_W@ATL@@@@@ATL@@QAE@XZ ; ATL::CStringT<wchar_t,StrTraitMFC<wchar_t,ATL::ChTraitsCRT<wchar_t> > >::~CStringT<wchar_t,StrTraitMFC<wchar_t,ATL::ChTraitsCRT<wchar_t> > >
__unwindfunclet$??__EstrDeviceCmd@@YAXXZ$8:
  00050	b9 20 00 00 00	 mov	 ecx, OFFSET _strDeviceCmd+32
  00055	e9 00 00 00 00	 jmp	 ??1?$CStringT@_WV?$StrTraitMFC@_WV?$ChTraitsCRT@_W@ATL@@@@@ATL@@QAE@XZ ; ATL::CStringT<wchar_t,StrTraitMFC<wchar_t,ATL::ChTraitsCRT<wchar_t> > >::~CStringT<wchar_t,StrTraitMFC<wchar_t,ATL::ChTraitsCRT<wchar_t> > >
__unwindfunclet$??__EstrDeviceCmd@@YAXXZ$9:
  0005a	b9 24 00 00 00	 mov	 ecx, OFFSET _strDeviceCmd+36
  0005f	e9 00 00 00 00	 jmp	 ??1?$CStringT@_WV?$StrTraitMFC@_WV?$ChTraitsCRT@_W@ATL@@@@@ATL@@QAE@XZ ; ATL::CStringT<wchar_t,StrTraitMFC<wchar_t,ATL::ChTraitsCRT<wchar_t> > >::~CStringT<wchar_t,StrTraitMFC<wchar_t,ATL::ChTraitsCRT<wchar_t> > >
__unwindfunclet$??__EstrDeviceCmd@@YAXXZ$10:
  00064	b9 28 00 00 00	 mov	 ecx, OFFSET _strDeviceCmd+40
  00069	e9 00 00 00 00	 jmp	 ??1?$CStringT@_WV?$StrTraitMFC@_WV?$ChTraitsCRT@_W@ATL@@@@@ATL@@QAE@XZ ; ATL::CStringT<wchar_t,StrTraitMFC<wchar_t,ATL::ChTraitsCRT<wchar_t> > >::~CStringT<wchar_t,StrTraitMFC<wchar_t,ATL::ChTraitsCRT<wchar_t> > >
__unwindfunclet$??__EstrDeviceCmd@@YAXXZ$11:
  0006e	b9 2c 00 00 00	 mov	 ecx, OFFSET _strDeviceCmd+44
  00073	e9 00 00 00 00	 jmp	 ??1?$CStringT@_WV?$StrTraitMFC@_WV?$ChTraitsCRT@_W@ATL@@@@@ATL@@QAE@XZ ; ATL::CStringT<wchar_t,StrTraitMFC<wchar_t,ATL::ChTraitsCRT<wchar_t> > >::~CStringT<wchar_t,StrTraitMFC<wchar_t,ATL::ChTraitsCRT<wchar_t> > >
__unwindfunclet$??__EstrDeviceCmd@@YAXXZ$12:
  00078	b9 30 00 00 00	 mov	 ecx, OFFSET _strDeviceCmd+48
  0007d	e9 00 00 00 00	 jmp	 ??1?$CStringT@_WV?$StrTraitMFC@_WV?$ChTraitsCRT@_W@ATL@@@@@ATL@@QAE@XZ ; ATL::CStringT<wchar_t,StrTraitMFC<wchar_t,ATL::ChTraitsCRT<wchar_t> > >::~CStringT<wchar_t,StrTraitMFC<wchar_t,ATL::ChTraitsCRT<wchar_t> > >
__unwindfunclet$??__EstrDeviceCmd@@YAXXZ$13:
  00082	b9 34 00 00 00	 mov	 ecx, OFFSET _strDeviceCmd+52
  00087	e9 00 00 00 00	 jmp	 ??1?$CStringT@_WV?$StrTraitMFC@_WV?$ChTraitsCRT@_W@ATL@@@@@ATL@@QAE@XZ ; ATL::CStringT<wchar_t,StrTraitMFC<wchar_t,ATL::ChTraitsCRT<wchar_t> > >::~CStringT<wchar_t,StrTraitMFC<wchar_t,ATL::ChTraitsCRT<wchar_t> > >
__unwindfunclet$??__EstrDeviceCmd@@YAXXZ$14:
  0008c	b9 38 00 00 00	 mov	 ecx, OFFSET _strDeviceCmd+56
  00091	e9 00 00 00 00	 jmp	 ??1?$CStringT@_WV?$StrTraitMFC@_WV?$ChTraitsCRT@_W@ATL@@@@@ATL@@QAE@XZ ; ATL::CStringT<wchar_t,StrTraitMFC<wchar_t,ATL::ChTraitsCRT<wchar_t> > >::~CStringT<wchar_t,StrTraitMFC<wchar_t,ATL::ChTraitsCRT<wchar_t> > >
__unwindfunclet$??__EstrDeviceCmd@@YAXXZ$15:
  00096	b9 3c 00 00 00	 mov	 ecx, OFFSET _strDeviceCmd+60
  0009b	e9 00 00 00 00	 jmp	 ??1?$CStringT@_WV?$StrTraitMFC@_WV?$ChTraitsCRT@_W@ATL@@@@@ATL@@QAE@XZ ; ATL::CStringT<wchar_t,StrTraitMFC<wchar_t,ATL::ChTraitsCRT<wchar_t> > >::~CStringT<wchar_t,StrTraitMFC<wchar_t,ATL::ChTraitsCRT<wchar_t> > >
__unwindfunclet$??__EstrDeviceCmd@@YAXXZ$16:
  000a0	b9 40 00 00 00	 mov	 ecx, OFFSET _strDeviceCmd+64
  000a5	e9 00 00 00 00	 jmp	 ??1?$CStringT@_WV?$StrTraitMFC@_WV?$ChTraitsCRT@_W@ATL@@@@@ATL@@QAE@XZ ; ATL::CStringT<wchar_t,StrTraitMFC<wchar_t,ATL::ChTraitsCRT<wchar_t> > >::~CStringT<wchar_t,StrTraitMFC<wchar_t,ATL::ChTraitsCRT<wchar_t> > >
__unwindfunclet$??__EstrDeviceCmd@@YAXXZ$17:
  000aa	b9 44 00 00 00	 mov	 ecx, OFFSET _strDeviceCmd+68
  000af	e9 00 00 00 00	 jmp	 ??1?$CStringT@_WV?$StrTraitMFC@_WV?$ChTraitsCRT@_W@ATL@@@@@ATL@@QAE@XZ ; ATL::CStringT<wchar_t,StrTraitMFC<wchar_t,ATL::ChTraitsCRT<wchar_t> > >::~CStringT<wchar_t,StrTraitMFC<wchar_t,ATL::ChTraitsCRT<wchar_t> > >
__unwindfunclet$??__EstrDeviceCmd@@YAXXZ$18:
  000b4	b9 48 00 00 00	 mov	 ecx, OFFSET _strDeviceCmd+72
  000b9	e9 00 00 00 00	 jmp	 ??1?$CStringT@_WV?$StrTraitMFC@_WV?$ChTraitsCRT@_W@ATL@@@@@ATL@@QAE@XZ ; ATL::CStringT<wchar_t,StrTraitMFC<wchar_t,ATL::ChTraitsCRT<wchar_t> > >::~CStringT<wchar_t,StrTraitMFC<wchar_t,ATL::ChTraitsCRT<wchar_t> > >
__unwindfunclet$??__EstrDeviceCmd@@YAXXZ$19:
  000be	b9 4c 00 00 00	 mov	 ecx, OFFSET _strDeviceCmd+76
  000c3	e9 00 00 00 00	 jmp	 ??1?$CStringT@_WV?$StrTraitMFC@_WV?$ChTraitsCRT@_W@ATL@@@@@ATL@@QAE@XZ ; ATL::CStringT<wchar_t,StrTraitMFC<wchar_t,ATL::ChTraitsCRT<wchar_t> > >::~CStringT<wchar_t,StrTraitMFC<wchar_t,ATL::ChTraitsCRT<wchar_t> > >
__unwindfunclet$??__EstrDeviceCmd@@YAXXZ$20:
  000c8	b9 50 00 00 00	 mov	 ecx, OFFSET _strDeviceCmd+80
  000cd	e9 00 00 00 00	 jmp	 ??1?$CStringT@_WV?$StrTraitMFC@_WV?$ChTraitsCRT@_W@ATL@@@@@ATL@@QAE@XZ ; ATL::CStringT<wchar_t,StrTraitMFC<wchar_t,ATL::ChTraitsCRT<wchar_t> > >::~CStringT<wchar_t,StrTraitMFC<wchar_t,ATL::ChTraitsCRT<wchar_t> > >
__unwindfunclet$??__EstrDeviceCmd@@YAXXZ$21:
  000d2	b9 54 00 00 00	 mov	 ecx, OFFSET _strDeviceCmd+84
  000d7	e9 00 00 00 00	 jmp	 ??1?$CStringT@_WV?$StrTraitMFC@_WV?$ChTraitsCRT@_W@ATL@@@@@ATL@@QAE@XZ ; ATL::CStringT<wchar_t,StrTraitMFC<wchar_t,ATL::ChTraitsCRT<wchar_t> > >::~CStringT<wchar_t,StrTraitMFC<wchar_t,ATL::ChTraitsCRT<wchar_t> > >
__unwindfunclet$??__EstrDeviceCmd@@YAXXZ$22:
  000dc	b9 58 00 00 00	 mov	 ecx, OFFSET _strDeviceCmd+88
  000e1	e9 00 00 00 00	 jmp	 ??1?$CStringT@_WV?$StrTraitMFC@_WV?$ChTraitsCRT@_W@ATL@@@@@ATL@@QAE@XZ ; ATL::CStringT<wchar_t,StrTraitMFC<wchar_t,ATL::ChTraitsCRT<wchar_t> > >::~CStringT<wchar_t,StrTraitMFC<wchar_t,ATL::ChTraitsCRT<wchar_t> > >
__unwindfunclet$??__EstrDeviceCmd@@YAXXZ$23:
  000e6	b9 5c 00 00 00	 mov	 ecx, OFFSET _strDeviceCmd+92
  000eb	e9 00 00 00 00	 jmp	 ??1?$CStringT@_WV?$StrTraitMFC@_WV?$ChTraitsCRT@_W@ATL@@@@@ATL@@QAE@XZ ; ATL::CStringT<wchar_t,StrTraitMFC<wchar_t,ATL::ChTraitsCRT<wchar_t> > >::~CStringT<wchar_t,StrTraitMFC<wchar_t,ATL::ChTraitsCRT<wchar_t> > >
__unwindfunclet$??__EstrDeviceCmd@@YAXXZ$24:
  000f0	b9 60 00 00 00	 mov	 ecx, OFFSET _strDeviceCmd+96
  000f5	e9 00 00 00 00	 jmp	 ??1?$CStringT@_WV?$StrTraitMFC@_WV?$ChTraitsCRT@_W@ATL@@@@@ATL@@QAE@XZ ; ATL::CStringT<wchar_t,StrTraitMFC<wchar_t,ATL::ChTraitsCRT<wchar_t> > >::~CStringT<wchar_t,StrTraitMFC<wchar_t,ATL::ChTraitsCRT<wchar_t> > >
__unwindfunclet$??__EstrDeviceCmd@@YAXXZ$25:
  000fa	b9 64 00 00 00	 mov	 ecx, OFFSET _strDeviceCmd+100
  000ff	e9 00 00 00 00	 jmp	 ??1?$CStringT@_WV?$StrTraitMFC@_WV?$ChTraitsCRT@_W@ATL@@@@@ATL@@QAE@XZ ; ATL::CStringT<wchar_t,StrTraitMFC<wchar_t,ATL::ChTraitsCRT<wchar_t> > >::~CStringT<wchar_t,StrTraitMFC<wchar_t,ATL::ChTraitsCRT<wchar_t> > >
__unwindfunclet$??__EstrDeviceCmd@@YAXXZ$26:
  00104	b9 68 00 00 00	 mov	 ecx, OFFSET _strDeviceCmd+104
  00109	e9 00 00 00 00	 jmp	 ??1?$CStringT@_WV?$StrTraitMFC@_WV?$ChTraitsCRT@_W@ATL@@@@@ATL@@QAE@XZ ; ATL::CStringT<wchar_t,StrTraitMFC<wchar_t,ATL::ChTraitsCRT<wchar_t> > >::~CStringT<wchar_t,StrTraitMFC<wchar_t,ATL::ChTraitsCRT<wchar_t> > >
__unwindfunclet$??__EstrDeviceCmd@@YAXXZ$27:
  0010e	b9 6c 00 00 00	 mov	 ecx, OFFSET _strDeviceCmd+108
  00113	e9 00 00 00 00	 jmp	 ??1?$CStringT@_WV?$StrTraitMFC@_WV?$ChTraitsCRT@_W@ATL@@@@@ATL@@QAE@XZ ; ATL::CStringT<wchar_t,StrTraitMFC<wchar_t,ATL::ChTraitsCRT<wchar_t> > >::~CStringT<wchar_t,StrTraitMFC<wchar_t,ATL::ChTraitsCRT<wchar_t> > >
__unwindfunclet$??__EstrDeviceCmd@@YAXXZ$28:
  00118	b9 70 00 00 00	 mov	 ecx, OFFSET _strDeviceCmd+112
  0011d	e9 00 00 00 00	 jmp	 ??1?$CStringT@_WV?$StrTraitMFC@_WV?$ChTraitsCRT@_W@ATL@@@@@ATL@@QAE@XZ ; ATL::CStringT<wchar_t,StrTraitMFC<wchar_t,ATL::ChTraitsCRT<wchar_t> > >::~CStringT<wchar_t,StrTraitMFC<wchar_t,ATL::ChTraitsCRT<wchar_t> > >
__unwindfunclet$??__EstrDeviceCmd@@YAXXZ$29:
  00122	b9 74 00 00 00	 mov	 ecx, OFFSET _strDeviceCmd+116
  00127	e9 00 00 00 00	 jmp	 ??1?$CStringT@_WV?$StrTraitMFC@_WV?$ChTraitsCRT@_W@ATL@@@@@ATL@@QAE@XZ ; ATL::CStringT<wchar_t,StrTraitMFC<wchar_t,ATL::ChTraitsCRT<wchar_t> > >::~CStringT<wchar_t,StrTraitMFC<wchar_t,ATL::ChTraitsCRT<wchar_t> > >
__unwindfunclet$??__EstrDeviceCmd@@YAXXZ$30:
  0012c	b9 78 00 00 00	 mov	 ecx, OFFSET _strDeviceCmd+120
  00131	e9 00 00 00 00	 jmp	 ??1?$CStringT@_WV?$StrTraitMFC@_WV?$ChTraitsCRT@_W@ATL@@@@@ATL@@QAE@XZ ; ATL::CStringT<wchar_t,StrTraitMFC<wchar_t,ATL::ChTraitsCRT<wchar_t> > >::~CStringT<wchar_t,StrTraitMFC<wchar_t,ATL::ChTraitsCRT<wchar_t> > >
__unwindfunclet$??__EstrDeviceCmd@@YAXXZ$31:
  00136	b9 7c 00 00 00	 mov	 ecx, OFFSET _strDeviceCmd+124
  0013b	e9 00 00 00 00	 jmp	 ??1?$CStringT@_WV?$StrTraitMFC@_WV?$ChTraitsCRT@_W@ATL@@@@@ATL@@QAE@XZ ; ATL::CStringT<wchar_t,StrTraitMFC<wchar_t,ATL::ChTraitsCRT<wchar_t> > >::~CStringT<wchar_t,StrTraitMFC<wchar_t,ATL::ChTraitsCRT<wchar_t> > >
__unwindfunclet$??__EstrDeviceCmd@@YAXXZ$32:
  00140	b9 80 00 00 00	 mov	 ecx, OFFSET _strDeviceCmd+128
  00145	e9 00 00 00 00	 jmp	 ??1?$CStringT@_WV?$StrTraitMFC@_WV?$ChTraitsCRT@_W@ATL@@@@@ATL@@QAE@XZ ; ATL::CStringT<wchar_t,StrTraitMFC<wchar_t,ATL::ChTraitsCRT<wchar_t> > >::~CStringT<wchar_t,StrTraitMFC<wchar_t,ATL::ChTraitsCRT<wchar_t> > >
__unwindfunclet$??__EstrDeviceCmd@@YAXXZ$33:
  0014a	b9 84 00 00 00	 mov	 ecx, OFFSET _strDeviceCmd+132
  0014f	e9 00 00 00 00	 jmp	 ??1?$CStringT@_WV?$StrTraitMFC@_WV?$ChTraitsCRT@_W@ATL@@@@@ATL@@QAE@XZ ; ATL::CStringT<wchar_t,StrTraitMFC<wchar_t,ATL::ChTraitsCRT<wchar_t> > >::~CStringT<wchar_t,StrTraitMFC<wchar_t,ATL::ChTraitsCRT<wchar_t> > >
__unwindfunclet$??__EstrDeviceCmd@@YAXXZ$34:
  00154	b9 88 00 00 00	 mov	 ecx, OFFSET _strDeviceCmd+136
  00159	e9 00 00 00 00	 jmp	 ??1?$CStringT@_WV?$StrTraitMFC@_WV?$ChTraitsCRT@_W@ATL@@@@@ATL@@QAE@XZ ; ATL::CStringT<wchar_t,StrTraitMFC<wchar_t,ATL::ChTraitsCRT<wchar_t> > >::~CStringT<wchar_t,StrTraitMFC<wchar_t,ATL::ChTraitsCRT<wchar_t> > >
__unwindfunclet$??__EstrDeviceCmd@@YAXXZ$35:
  0015e	b9 8c 00 00 00	 mov	 ecx, OFFSET _strDeviceCmd+140
  00163	e9 00 00 00 00	 jmp	 ??1?$CStringT@_WV?$StrTraitMFC@_WV?$ChTraitsCRT@_W@ATL@@@@@ATL@@QAE@XZ ; ATL::CStringT<wchar_t,StrTraitMFC<wchar_t,ATL::ChTraitsCRT<wchar_t> > >::~CStringT<wchar_t,StrTraitMFC<wchar_t,ATL::ChTraitsCRT<wchar_t> > >
__unwindfunclet$??__EstrDeviceCmd@@YAXXZ$36:
  00168	b9 90 00 00 00	 mov	 ecx, OFFSET _strDeviceCmd+144
  0016d	e9 00 00 00 00	 jmp	 ??1?$CStringT@_WV?$StrTraitMFC@_WV?$ChTraitsCRT@_W@ATL@@@@@ATL@@QAE@XZ ; ATL::CStringT<wchar_t,StrTraitMFC<wchar_t,ATL::ChTraitsCRT<wchar_t> > >::~CStringT<wchar_t,StrTraitMFC<wchar_t,ATL::ChTraitsCRT<wchar_t> > >
__unwindfunclet$??__EstrDeviceCmd@@YAXXZ$37:
  00172	b9 94 00 00 00	 mov	 ecx, OFFSET _strDeviceCmd+148
  00177	e9 00 00 00 00	 jmp	 ??1?$CStringT@_WV?$StrTraitMFC@_WV?$ChTraitsCRT@_W@ATL@@@@@ATL@@QAE@XZ ; ATL::CStringT<wchar_t,StrTraitMFC<wchar_t,ATL::ChTraitsCRT<wchar_t> > >::~CStringT<wchar_t,StrTraitMFC<wchar_t,ATL::ChTraitsCRT<wchar_t> > >
__unwindfunclet$??__EstrDeviceCmd@@YAXXZ$38:
  0017c	b9 98 00 00 00	 mov	 ecx, OFFSET _strDeviceCmd+152
  00181	e9 00 00 00 00	 jmp	 ??1?$CStringT@_WV?$StrTraitMFC@_WV?$ChTraitsCRT@_W@ATL@@@@@ATL@@QAE@XZ ; ATL::CStringT<wchar_t,StrTraitMFC<wchar_t,ATL::ChTraitsCRT<wchar_t> > >::~CStringT<wchar_t,StrTraitMFC<wchar_t,ATL::ChTraitsCRT<wchar_t> > >
__unwindfunclet$??__EstrDeviceCmd@@YAXXZ$39:
  00186	b9 9c 00 00 00	 mov	 ecx, OFFSET _strDeviceCmd+156
  0018b	e9 00 00 00 00	 jmp	 ??1?$CStringT@_WV?$StrTraitMFC@_WV?$ChTraitsCRT@_W@ATL@@@@@ATL@@QAE@XZ ; ATL::CStringT<wchar_t,StrTraitMFC<wchar_t,ATL::ChTraitsCRT<wchar_t> > >::~CStringT<wchar_t,StrTraitMFC<wchar_t,ATL::ChTraitsCRT<wchar_t> > >
__unwindfunclet$??__EstrDeviceCmd@@YAXXZ$40:
  00190	b9 a0 00 00 00	 mov	 ecx, OFFSET _strDeviceCmd+160
  00195	e9 00 00 00 00	 jmp	 ??1?$CStringT@_WV?$StrTraitMFC@_WV?$ChTraitsCRT@_W@ATL@@@@@ATL@@QAE@XZ ; ATL::CStringT<wchar_t,StrTraitMFC<wchar_t,ATL::ChTraitsCRT<wchar_t> > >::~CStringT<wchar_t,StrTraitMFC<wchar_t,ATL::ChTraitsCRT<wchar_t> > >
__unwindfunclet$??__EstrDeviceCmd@@YAXXZ$41:
  0019a	b9 a4 00 00 00	 mov	 ecx, OFFSET _strDeviceCmd+164
  0019f	e9 00 00 00 00	 jmp	 ??1?$CStringT@_WV?$StrTraitMFC@_WV?$ChTraitsCRT@_W@ATL@@@@@ATL@@QAE@XZ ; ATL::CStringT<wchar_t,StrTraitMFC<wchar_t,ATL::ChTraitsCRT<wchar_t> > >::~CStringT<wchar_t,StrTraitMFC<wchar_t,ATL::ChTraitsCRT<wchar_t> > >
__unwindfunclet$??__EstrDeviceCmd@@YAXXZ$42:
  001a4	b9 a8 00 00 00	 mov	 ecx, OFFSET _strDeviceCmd+168
  001a9	e9 00 00 00 00	 jmp	 ??1?$CStringT@_WV?$StrTraitMFC@_WV?$ChTraitsCRT@_W@ATL@@@@@ATL@@QAE@XZ ; ATL::CStringT<wchar_t,StrTraitMFC<wchar_t,ATL::ChTraitsCRT<wchar_t> > >::~CStringT<wchar_t,StrTraitMFC<wchar_t,ATL::ChTraitsCRT<wchar_t> > >
__unwindfunclet$??__EstrDeviceCmd@@YAXXZ$43:
  001ae	b9 ac 00 00 00	 mov	 ecx, OFFSET _strDeviceCmd+172
  001b3	e9 00 00 00 00	 jmp	 ??1?$CStringT@_WV?$StrTraitMFC@_WV?$ChTraitsCRT@_W@ATL@@@@@ATL@@QAE@XZ ; ATL::CStringT<wchar_t,StrTraitMFC<wchar_t,ATL::ChTraitsCRT<wchar_t> > >::~CStringT<wchar_t,StrTraitMFC<wchar_t,ATL::ChTraitsCRT<wchar_t> > >
__unwindfunclet$??__EstrDeviceCmd@@YAXXZ$44:
  001b8	b9 b0 00 00 00	 mov	 ecx, OFFSET _strDeviceCmd+176
  001bd	e9 00 00 00 00	 jmp	 ??1?$CStringT@_WV?$StrTraitMFC@_WV?$ChTraitsCRT@_W@ATL@@@@@ATL@@QAE@XZ ; ATL::CStringT<wchar_t,StrTraitMFC<wchar_t,ATL::ChTraitsCRT<wchar_t> > >::~CStringT<wchar_t,StrTraitMFC<wchar_t,ATL::ChTraitsCRT<wchar_t> > >
__unwindfunclet$??__EstrDeviceCmd@@YAXXZ$45:
  001c2	b9 b4 00 00 00	 mov	 ecx, OFFSET _strDeviceCmd+180
  001c7	e9 00 00 00 00	 jmp	 ??1?$CStringT@_WV?$StrTraitMFC@_WV?$ChTraitsCRT@_W@ATL@@@@@ATL@@QAE@XZ ; ATL::CStringT<wchar_t,StrTraitMFC<wchar_t,ATL::ChTraitsCRT<wchar_t> > >::~CStringT<wchar_t,StrTraitMFC<wchar_t,ATL::ChTraitsCRT<wchar_t> > >
__unwindfunclet$??__EstrDeviceCmd@@YAXXZ$46:
  001cc	b9 b8 00 00 00	 mov	 ecx, OFFSET _strDeviceCmd+184
  001d1	e9 00 00 00 00	 jmp	 ??1?$CStringT@_WV?$StrTraitMFC@_WV?$ChTraitsCRT@_W@ATL@@@@@ATL@@QAE@XZ ; ATL::CStringT<wchar_t,StrTraitMFC<wchar_t,ATL::ChTraitsCRT<wchar_t> > >::~CStringT<wchar_t,StrTraitMFC<wchar_t,ATL::ChTraitsCRT<wchar_t> > >
__unwindfunclet$??__EstrDeviceCmd@@YAXXZ$47:
  001d6	b9 bc 00 00 00	 mov	 ecx, OFFSET _strDeviceCmd+188
  001db	e9 00 00 00 00	 jmp	 ??1?$CStringT@_WV?$StrTraitMFC@_WV?$ChTraitsCRT@_W@ATL@@@@@ATL@@QAE@XZ ; ATL::CStringT<wchar_t,StrTraitMFC<wchar_t,ATL::ChTraitsCRT<wchar_t> > >::~CStringT<wchar_t,StrTraitMFC<wchar_t,ATL::ChTraitsCRT<wchar_t> > >
__unwindfunclet$??__EstrDeviceCmd@@YAXXZ$48:
  001e0	b9 c0 00 00 00	 mov	 ecx, OFFSET _strDeviceCmd+192
  001e5	e9 00 00 00 00	 jmp	 ??1?$CStringT@_WV?$StrTraitMFC@_WV?$ChTraitsCRT@_W@ATL@@@@@ATL@@QAE@XZ ; ATL::CStringT<wchar_t,StrTraitMFC<wchar_t,ATL::ChTraitsCRT<wchar_t> > >::~CStringT<wchar_t,StrTraitMFC<wchar_t,ATL::ChTraitsCRT<wchar_t> > >
__unwindfunclet$??__EstrDeviceCmd@@YAXXZ$49:
  001ea	b9 c4 00 00 00	 mov	 ecx, OFFSET _strDeviceCmd+196
  001ef	e9 00 00 00 00	 jmp	 ??1?$CStringT@_WV?$StrTraitMFC@_WV?$ChTraitsCRT@_W@ATL@@@@@ATL@@QAE@XZ ; ATL::CStringT<wchar_t,StrTraitMFC<wchar_t,ATL::ChTraitsCRT<wchar_t> > >::~CStringT<wchar_t,StrTraitMFC<wchar_t,ATL::ChTraitsCRT<wchar_t> > >
__unwindfunclet$??__EstrDeviceCmd@@YAXXZ$50:
  001f4	b9 c8 00 00 00	 mov	 ecx, OFFSET _strDeviceCmd+200
  001f9	e9 00 00 00 00	 jmp	 ??1?$CStringT@_WV?$StrTraitMFC@_WV?$ChTraitsCRT@_W@ATL@@@@@ATL@@QAE@XZ ; ATL::CStringT<wchar_t,StrTraitMFC<wchar_t,ATL::ChTraitsCRT<wchar_t> > >::~CStringT<wchar_t,StrTraitMFC<wchar_t,ATL::ChTraitsCRT<wchar_t> > >
__unwindfunclet$??__EstrDeviceCmd@@YAXXZ$51:
  001fe	b9 cc 00 00 00	 mov	 ecx, OFFSET _strDeviceCmd+204
  00203	e9 00 00 00 00	 jmp	 ??1?$CStringT@_WV?$StrTraitMFC@_WV?$ChTraitsCRT@_W@ATL@@@@@ATL@@QAE@XZ ; ATL::CStringT<wchar_t,StrTraitMFC<wchar_t,ATL::ChTraitsCRT<wchar_t> > >::~CStringT<wchar_t,StrTraitMFC<wchar_t,ATL::ChTraitsCRT<wchar_t> > >
__unwindfunclet$??__EstrDeviceCmd@@YAXXZ$52:
  00208	b9 d0 00 00 00	 mov	 ecx, OFFSET _strDeviceCmd+208
  0020d	e9 00 00 00 00	 jmp	 ??1?$CStringT@_WV?$StrTraitMFC@_WV?$ChTraitsCRT@_W@ATL@@@@@ATL@@QAE@XZ ; ATL::CStringT<wchar_t,StrTraitMFC<wchar_t,ATL::ChTraitsCRT<wchar_t> > >::~CStringT<wchar_t,StrTraitMFC<wchar_t,ATL::ChTraitsCRT<wchar_t> > >
__unwindfunclet$??__EstrDeviceCmd@@YAXXZ$53:
  00212	b9 d4 00 00 00	 mov	 ecx, OFFSET _strDeviceCmd+212
  00217	e9 00 00 00 00	 jmp	 ??1?$CStringT@_WV?$StrTraitMFC@_WV?$ChTraitsCRT@_W@ATL@@@@@ATL@@QAE@XZ ; ATL::CStringT<wchar_t,StrTraitMFC<wchar_t,ATL::ChTraitsCRT<wchar_t> > >::~CStringT<wchar_t,StrTraitMFC<wchar_t,ATL::ChTraitsCRT<wchar_t> > >
__unwindfunclet$??__EstrDeviceCmd@@YAXXZ$54:
  0021c	b9 d8 00 00 00	 mov	 ecx, OFFSET _strDeviceCmd+216
  00221	e9 00 00 00 00	 jmp	 ??1?$CStringT@_WV?$StrTraitMFC@_WV?$ChTraitsCRT@_W@ATL@@@@@ATL@@QAE@XZ ; ATL::CStringT<wchar_t,StrTraitMFC<wchar_t,ATL::ChTraitsCRT<wchar_t> > >::~CStringT<wchar_t,StrTraitMFC<wchar_t,ATL::ChTraitsCRT<wchar_t> > >
__unwindfunclet$??__EstrDeviceCmd@@YAXXZ$55:
  00226	b9 dc 00 00 00	 mov	 ecx, OFFSET _strDeviceCmd+220
  0022b	e9 00 00 00 00	 jmp	 ??1?$CStringT@_WV?$StrTraitMFC@_WV?$ChTraitsCRT@_W@ATL@@@@@ATL@@QAE@XZ ; ATL::CStringT<wchar_t,StrTraitMFC<wchar_t,ATL::ChTraitsCRT<wchar_t> > >::~CStringT<wchar_t,StrTraitMFC<wchar_t,ATL::ChTraitsCRT<wchar_t> > >
__unwindfunclet$??__EstrDeviceCmd@@YAXXZ$56:
  00230	b9 e0 00 00 00	 mov	 ecx, OFFSET _strDeviceCmd+224
  00235	e9 00 00 00 00	 jmp	 ??1?$CStringT@_WV?$StrTraitMFC@_WV?$ChTraitsCRT@_W@ATL@@@@@ATL@@QAE@XZ ; ATL::CStringT<wchar_t,StrTraitMFC<wchar_t,ATL::ChTraitsCRT<wchar_t> > >::~CStringT<wchar_t,StrTraitMFC<wchar_t,ATL::ChTraitsCRT<wchar_t> > >
__unwindfunclet$??__EstrDeviceCmd@@YAXXZ$57:
  0023a	b9 e4 00 00 00	 mov	 ecx, OFFSET _strDeviceCmd+228
  0023f	e9 00 00 00 00	 jmp	 ??1?$CStringT@_WV?$StrTraitMFC@_WV?$ChTraitsCRT@_W@ATL@@@@@ATL@@QAE@XZ ; ATL::CStringT<wchar_t,StrTraitMFC<wchar_t,ATL::ChTraitsCRT<wchar_t> > >::~CStringT<wchar_t,StrTraitMFC<wchar_t,ATL::ChTraitsCRT<wchar_t> > >
__unwindfunclet$??__EstrDeviceCmd@@YAXXZ$58:
  00244	b9 e8 00 00 00	 mov	 ecx, OFFSET _strDeviceCmd+232
  00249	e9 00 00 00 00	 jmp	 ??1?$CStringT@_WV?$StrTraitMFC@_WV?$ChTraitsCRT@_W@ATL@@@@@ATL@@QAE@XZ ; ATL::CStringT<wchar_t,StrTraitMFC<wchar_t,ATL::ChTraitsCRT<wchar_t> > >::~CStringT<wchar_t,StrTraitMFC<wchar_t,ATL::ChTraitsCRT<wchar_t> > >
__unwindfunclet$??__EstrDeviceCmd@@YAXXZ$59:
  0024e	b9 ec 00 00 00	 mov	 ecx, OFFSET _strDeviceCmd+236
  00253	e9 00 00 00 00	 jmp	 ??1?$CStringT@_WV?$StrTraitMFC@_WV?$ChTraitsCRT@_W@ATL@@@@@ATL@@QAE@XZ ; ATL::CStringT<wchar_t,StrTraitMFC<wchar_t,ATL::ChTraitsCRT<wchar_t> > >::~CStringT<wchar_t,StrTraitMFC<wchar_t,ATL::ChTraitsCRT<wchar_t> > >
__unwindfunclet$??__EstrDeviceCmd@@YAXXZ$60:
  00258	b9 f0 00 00 00	 mov	 ecx, OFFSET _strDeviceCmd+240
  0025d	e9 00 00 00 00	 jmp	 ??1?$CStringT@_WV?$StrTraitMFC@_WV?$ChTraitsCRT@_W@ATL@@@@@ATL@@QAE@XZ ; ATL::CStringT<wchar_t,StrTraitMFC<wchar_t,ATL::ChTraitsCRT<wchar_t> > >::~CStringT<wchar_t,StrTraitMFC<wchar_t,ATL::ChTraitsCRT<wchar_t> > >
__unwindfunclet$??__EstrDeviceCmd@@YAXXZ$61:
  00262	b9 f4 00 00 00	 mov	 ecx, OFFSET _strDeviceCmd+244
  00267	e9 00 00 00 00	 jmp	 ??1?$CStringT@_WV?$StrTraitMFC@_WV?$ChTraitsCRT@_W@ATL@@@@@ATL@@QAE@XZ ; ATL::CStringT<wchar_t,StrTraitMFC<wchar_t,ATL::ChTraitsCRT<wchar_t> > >::~CStringT<wchar_t,StrTraitMFC<wchar_t,ATL::ChTraitsCRT<wchar_t> > >
__unwindfunclet$??__EstrDeviceCmd@@YAXXZ$62:
  0026c	b9 f8 00 00 00	 mov	 ecx, OFFSET _strDeviceCmd+248
  00271	e9 00 00 00 00	 jmp	 ??1?$CStringT@_WV?$StrTraitMFC@_WV?$ChTraitsCRT@_W@ATL@@@@@ATL@@QAE@XZ ; ATL::CStringT<wchar_t,StrTraitMFC<wchar_t,ATL::ChTraitsCRT<wchar_t> > >::~CStringT<wchar_t,StrTraitMFC<wchar_t,ATL::ChTraitsCRT<wchar_t> > >
__unwindfunclet$??__EstrDeviceCmd@@YAXXZ$63:
  00276	b9 fc 00 00 00	 mov	 ecx, OFFSET _strDeviceCmd+252
  0027b	e9 00 00 00 00	 jmp	 ??1?$CStringT@_WV?$StrTraitMFC@_WV?$ChTraitsCRT@_W@ATL@@@@@ATL@@QAE@XZ ; ATL::CStringT<wchar_t,StrTraitMFC<wchar_t,ATL::ChTraitsCRT<wchar_t> > >::~CStringT<wchar_t,StrTraitMFC<wchar_t,ATL::ChTraitsCRT<wchar_t> > >
__unwindfunclet$??__EstrDeviceCmd@@YAXXZ$64:
  00280	b9 00 01 00 00	 mov	 ecx, OFFSET _strDeviceCmd+256
  00285	e9 00 00 00 00	 jmp	 ??1?$CStringT@_WV?$StrTraitMFC@_WV?$ChTraitsCRT@_W@ATL@@@@@ATL@@QAE@XZ ; ATL::CStringT<wchar_t,StrTraitMFC<wchar_t,ATL::ChTraitsCRT<wchar_t> > >::~CStringT<wchar_t,StrTraitMFC<wchar_t,ATL::ChTraitsCRT<wchar_t> > >
__unwindfunclet$??__EstrDeviceCmd@@YAXXZ$65:
  0028a	b9 04 01 00 00	 mov	 ecx, OFFSET _strDeviceCmd+260
  0028f	e9 00 00 00 00	 jmp	 ??1?$CStringT@_WV?$StrTraitMFC@_WV?$ChTraitsCRT@_W@ATL@@@@@ATL@@QAE@XZ ; ATL::CStringT<wchar_t,StrTraitMFC<wchar_t,ATL::ChTraitsCRT<wchar_t> > >::~CStringT<wchar_t,StrTraitMFC<wchar_t,ATL::ChTraitsCRT<wchar_t> > >
__unwindfunclet$??__EstrDeviceCmd@@YAXXZ$66:
  00294	b9 08 01 00 00	 mov	 ecx, OFFSET _strDeviceCmd+264
  00299	e9 00 00 00 00	 jmp	 ??1?$CStringT@_WV?$StrTraitMFC@_WV?$ChTraitsCRT@_W@ATL@@@@@ATL@@QAE@XZ ; ATL::CStringT<wchar_t,StrTraitMFC<wchar_t,ATL::ChTraitsCRT<wchar_t> > >::~CStringT<wchar_t,StrTraitMFC<wchar_t,ATL::ChTraitsCRT<wchar_t> > >
__unwindfunclet$??__EstrDeviceCmd@@YAXXZ$67:
  0029e	b9 0c 01 00 00	 mov	 ecx, OFFSET _strDeviceCmd+268
  002a3	e9 00 00 00 00	 jmp	 ??1?$CStringT@_WV?$StrTraitMFC@_WV?$ChTraitsCRT@_W@ATL@@@@@ATL@@QAE@XZ ; ATL::CStringT<wchar_t,StrTraitMFC<wchar_t,ATL::ChTraitsCRT<wchar_t> > >::~CStringT<wchar_t,StrTraitMFC<wchar_t,ATL::ChTraitsCRT<wchar_t> > >
__unwindfunclet$??__EstrDeviceCmd@@YAXXZ$68:
  002a8	b9 10 01 00 00	 mov	 ecx, OFFSET _strDeviceCmd+272
  002ad	e9 00 00 00 00	 jmp	 ??1?$CStringT@_WV?$StrTraitMFC@_WV?$ChTraitsCRT@_W@ATL@@@@@ATL@@QAE@XZ ; ATL::CStringT<wchar_t,StrTraitMFC<wchar_t,ATL::ChTraitsCRT<wchar_t> > >::~CStringT<wchar_t,StrTraitMFC<wchar_t,ATL::ChTraitsCRT<wchar_t> > >
__unwindfunclet$??__EstrDeviceCmd@@YAXXZ$69:
  002b2	b9 14 01 00 00	 mov	 ecx, OFFSET _strDeviceCmd+276
  002b7	e9 00 00 00 00	 jmp	 ??1?$CStringT@_WV?$StrTraitMFC@_WV?$ChTraitsCRT@_W@ATL@@@@@ATL@@QAE@XZ ; ATL::CStringT<wchar_t,StrTraitMFC<wchar_t,ATL::ChTraitsCRT<wchar_t> > >::~CStringT<wchar_t,StrTraitMFC<wchar_t,ATL::ChTraitsCRT<wchar_t> > >
__unwindfunclet$??__EstrDeviceCmd@@YAXXZ$70:
  002bc	b9 18 01 00 00	 mov	 ecx, OFFSET _strDeviceCmd+280
  002c1	e9 00 00 00 00	 jmp	 ??1?$CStringT@_WV?$StrTraitMFC@_WV?$ChTraitsCRT@_W@ATL@@@@@ATL@@QAE@XZ ; ATL::CStringT<wchar_t,StrTraitMFC<wchar_t,ATL::ChTraitsCRT<wchar_t> > >::~CStringT<wchar_t,StrTraitMFC<wchar_t,ATL::ChTraitsCRT<wchar_t> > >
__unwindfunclet$??__EstrDeviceCmd@@YAXXZ$71:
  002c6	b9 1c 01 00 00	 mov	 ecx, OFFSET _strDeviceCmd+284
  002cb	e9 00 00 00 00	 jmp	 ??1?$CStringT@_WV?$StrTraitMFC@_WV?$ChTraitsCRT@_W@ATL@@@@@ATL@@QAE@XZ ; ATL::CStringT<wchar_t,StrTraitMFC<wchar_t,ATL::ChTraitsCRT<wchar_t> > >::~CStringT<wchar_t,StrTraitMFC<wchar_t,ATL::ChTraitsCRT<wchar_t> > >
__unwindfunclet$??__EstrDeviceCmd@@YAXXZ$72:
  002d0	b9 20 01 00 00	 mov	 ecx, OFFSET _strDeviceCmd+288
  002d5	e9 00 00 00 00	 jmp	 ??1?$CStringT@_WV?$StrTraitMFC@_WV?$ChTraitsCRT@_W@ATL@@@@@ATL@@QAE@XZ ; ATL::CStringT<wchar_t,StrTraitMFC<wchar_t,ATL::ChTraitsCRT<wchar_t> > >::~CStringT<wchar_t,StrTraitMFC<wchar_t,ATL::ChTraitsCRT<wchar_t> > >
__unwindfunclet$??__EstrDeviceCmd@@YAXXZ$73:
  002da	b9 24 01 00 00	 mov	 ecx, OFFSET _strDeviceCmd+292
  002df	e9 00 00 00 00	 jmp	 ??1?$CStringT@_WV?$StrTraitMFC@_WV?$ChTraitsCRT@_W@ATL@@@@@ATL@@QAE@XZ ; ATL::CStringT<wchar_t,StrTraitMFC<wchar_t,ATL::ChTraitsCRT<wchar_t> > >::~CStringT<wchar_t,StrTraitMFC<wchar_t,ATL::ChTraitsCRT<wchar_t> > >
__unwindfunclet$??__EstrDeviceCmd@@YAXXZ$74:
  002e4	b9 28 01 00 00	 mov	 ecx, OFFSET _strDeviceCmd+296
  002e9	e9 00 00 00 00	 jmp	 ??1?$CStringT@_WV?$StrTraitMFC@_WV?$ChTraitsCRT@_W@ATL@@@@@ATL@@QAE@XZ ; ATL::CStringT<wchar_t,StrTraitMFC<wchar_t,ATL::ChTraitsCRT<wchar_t> > >::~CStringT<wchar_t,StrTraitMFC<wchar_t,ATL::ChTraitsCRT<wchar_t> > >
__unwindfunclet$??__EstrDeviceCmd@@YAXXZ$75:
  002ee	b9 2c 01 00 00	 mov	 ecx, OFFSET _strDeviceCmd+300
  002f3	e9 00 00 00 00	 jmp	 ??1?$CStringT@_WV?$StrTraitMFC@_WV?$ChTraitsCRT@_W@ATL@@@@@ATL@@QAE@XZ ; ATL::CStringT<wchar_t,StrTraitMFC<wchar_t,ATL::ChTraitsCRT<wchar_t> > >::~CStringT<wchar_t,StrTraitMFC<wchar_t,ATL::ChTraitsCRT<wchar_t> > >
__unwindfunclet$??__EstrDeviceCmd@@YAXXZ$76:
  002f8	b9 30 01 00 00	 mov	 ecx, OFFSET _strDeviceCmd+304
  002fd	e9 00 00 00 00	 jmp	 ??1?$CStringT@_WV?$StrTraitMFC@_WV?$ChTraitsCRT@_W@ATL@@@@@ATL@@QAE@XZ ; ATL::CStringT<wchar_t,StrTraitMFC<wchar_t,ATL::ChTraitsCRT<wchar_t> > >::~CStringT<wchar_t,StrTraitMFC<wchar_t,ATL::ChTraitsCRT<wchar_t> > >
__unwindfunclet$??__EstrDeviceCmd@@YAXXZ$77:
  00302	b9 34 01 00 00	 mov	 ecx, OFFSET _strDeviceCmd+308
  00307	e9 00 00 00 00	 jmp	 ??1?$CStringT@_WV?$StrTraitMFC@_WV?$ChTraitsCRT@_W@ATL@@@@@ATL@@QAE@XZ ; ATL::CStringT<wchar_t,StrTraitMFC<wchar_t,ATL::ChTraitsCRT<wchar_t> > >::~CStringT<wchar_t,StrTraitMFC<wchar_t,ATL::ChTraitsCRT<wchar_t> > >
__unwindfunclet$??__EstrDeviceCmd@@YAXXZ$78:
  0030c	b9 38 01 00 00	 mov	 ecx, OFFSET _strDeviceCmd+312
  00311	e9 00 00 00 00	 jmp	 ??1?$CStringT@_WV?$StrTraitMFC@_WV?$ChTraitsCRT@_W@ATL@@@@@ATL@@QAE@XZ ; ATL::CStringT<wchar_t,StrTraitMFC<wchar_t,ATL::ChTraitsCRT<wchar_t> > >::~CStringT<wchar_t,StrTraitMFC<wchar_t,ATL::ChTraitsCRT<wchar_t> > >
__unwindfunclet$??__EstrDeviceCmd@@YAXXZ$79:
  00316	b9 3c 01 00 00	 mov	 ecx, OFFSET _strDeviceCmd+316
  0031b	e9 00 00 00 00	 jmp	 ??1?$CStringT@_WV?$StrTraitMFC@_WV?$ChTraitsCRT@_W@ATL@@@@@ATL@@QAE@XZ ; ATL::CStringT<wchar_t,StrTraitMFC<wchar_t,ATL::ChTraitsCRT<wchar_t> > >::~CStringT<wchar_t,StrTraitMFC<wchar_t,ATL::ChTraitsCRT<wchar_t> > >
__unwindfunclet$??__EstrDeviceCmd@@YAXXZ$80:
  00320	b9 40 01 00 00	 mov	 ecx, OFFSET _strDeviceCmd+320
  00325	e9 00 00 00 00	 jmp	 ??1?$CStringT@_WV?$StrTraitMFC@_WV?$ChTraitsCRT@_W@ATL@@@@@ATL@@QAE@XZ ; ATL::CStringT<wchar_t,StrTraitMFC<wchar_t,ATL::ChTraitsCRT<wchar_t> > >::~CStringT<wchar_t,StrTraitMFC<wchar_t,ATL::ChTraitsCRT<wchar_t> > >
__unwindfunclet$??__EstrDeviceCmd@@YAXXZ$81:
  0032a	b9 44 01 00 00	 mov	 ecx, OFFSET _strDeviceCmd+324
  0032f	e9 00 00 00 00	 jmp	 ??1?$CStringT@_WV?$StrTraitMFC@_WV?$ChTraitsCRT@_W@ATL@@@@@ATL@@QAE@XZ ; ATL::CStringT<wchar_t,StrTraitMFC<wchar_t,ATL::ChTraitsCRT<wchar_t> > >::~CStringT<wchar_t,StrTraitMFC<wchar_t,ATL::ChTraitsCRT<wchar_t> > >
__unwindfunclet$??__EstrDeviceCmd@@YAXXZ$82:
  00334	b9 48 01 00 00	 mov	 ecx, OFFSET _strDeviceCmd+328
  00339	e9 00 00 00 00	 jmp	 ??1?$CStringT@_WV?$StrTraitMFC@_WV?$ChTraitsCRT@_W@ATL@@@@@ATL@@QAE@XZ ; ATL::CStringT<wchar_t,StrTraitMFC<wchar_t,ATL::ChTraitsCRT<wchar_t> > >::~CStringT<wchar_t,StrTraitMFC<wchar_t,ATL::ChTraitsCRT<wchar_t> > >
__unwindfunclet$??__EstrDeviceCmd@@YAXXZ$83:
  0033e	b9 4c 01 00 00	 mov	 ecx, OFFSET _strDeviceCmd+332
  00343	e9 00 00 00 00	 jmp	 ??1?$CStringT@_WV?$StrTraitMFC@_WV?$ChTraitsCRT@_W@ATL@@@@@ATL@@QAE@XZ ; ATL::CStringT<wchar_t,StrTraitMFC<wchar_t,ATL::ChTraitsCRT<wchar_t> > >::~CStringT<wchar_t,StrTraitMFC<wchar_t,ATL::ChTraitsCRT<wchar_t> > >
__unwindfunclet$??__EstrDeviceCmd@@YAXXZ$84:
  00348	b9 50 01 00 00	 mov	 ecx, OFFSET _strDeviceCmd+336
  0034d	e9 00 00 00 00	 jmp	 ??1?$CStringT@_WV?$StrTraitMFC@_WV?$ChTraitsCRT@_W@ATL@@@@@ATL@@QAE@XZ ; ATL::CStringT<wchar_t,StrTraitMFC<wchar_t,ATL::ChTraitsCRT<wchar_t> > >::~CStringT<wchar_t,StrTraitMFC<wchar_t,ATL::ChTraitsCRT<wchar_t> > >
__unwindfunclet$??__EstrDeviceCmd@@YAXXZ$85:
  00352	b9 54 01 00 00	 mov	 ecx, OFFSET _strDeviceCmd+340
  00357	e9 00 00 00 00	 jmp	 ??1?$CStringT@_WV?$StrTraitMFC@_WV?$ChTraitsCRT@_W@ATL@@@@@ATL@@QAE@XZ ; ATL::CStringT<wchar_t,StrTraitMFC<wchar_t,ATL::ChTraitsCRT<wchar_t> > >::~CStringT<wchar_t,StrTraitMFC<wchar_t,ATL::ChTraitsCRT<wchar_t> > >
__unwindfunclet$??__EstrDeviceCmd@@YAXXZ$86:
  0035c	b9 58 01 00 00	 mov	 ecx, OFFSET _strDeviceCmd+344
  00361	e9 00 00 00 00	 jmp	 ??1?$CStringT@_WV?$StrTraitMFC@_WV?$ChTraitsCRT@_W@ATL@@@@@ATL@@QAE@XZ ; ATL::CStringT<wchar_t,StrTraitMFC<wchar_t,ATL::ChTraitsCRT<wchar_t> > >::~CStringT<wchar_t,StrTraitMFC<wchar_t,ATL::ChTraitsCRT<wchar_t> > >
__unwindfunclet$??__EstrDeviceCmd@@YAXXZ$87:
  00366	b9 5c 01 00 00	 mov	 ecx, OFFSET _strDeviceCmd+348
  0036b	e9 00 00 00 00	 jmp	 ??1?$CStringT@_WV?$StrTraitMFC@_WV?$ChTraitsCRT@_W@ATL@@@@@ATL@@QAE@XZ ; ATL::CStringT<wchar_t,StrTraitMFC<wchar_t,ATL::ChTraitsCRT<wchar_t> > >::~CStringT<wchar_t,StrTraitMFC<wchar_t,ATL::ChTraitsCRT<wchar_t> > >
__unwindfunclet$??__EstrDeviceCmd@@YAXXZ$88:
  00370	b9 60 01 00 00	 mov	 ecx, OFFSET _strDeviceCmd+352
  00375	e9 00 00 00 00	 jmp	 ??1?$CStringT@_WV?$StrTraitMFC@_WV?$ChTraitsCRT@_W@ATL@@@@@ATL@@QAE@XZ ; ATL::CStringT<wchar_t,StrTraitMFC<wchar_t,ATL::ChTraitsCRT<wchar_t> > >::~CStringT<wchar_t,StrTraitMFC<wchar_t,ATL::ChTraitsCRT<wchar_t> > >
__unwindfunclet$??__EstrDeviceCmd@@YAXXZ$89:
  0037a	b9 64 01 00 00	 mov	 ecx, OFFSET _strDeviceCmd+356
  0037f	e9 00 00 00 00	 jmp	 ??1?$CStringT@_WV?$StrTraitMFC@_WV?$ChTraitsCRT@_W@ATL@@@@@ATL@@QAE@XZ ; ATL::CStringT<wchar_t,StrTraitMFC<wchar_t,ATL::ChTraitsCRT<wchar_t> > >::~CStringT<wchar_t,StrTraitMFC<wchar_t,ATL::ChTraitsCRT<wchar_t> > >
__unwindfunclet$??__EstrDeviceCmd@@YAXXZ$90:
  00384	b9 68 01 00 00	 mov	 ecx, OFFSET _strDeviceCmd+360
  00389	e9 00 00 00 00	 jmp	 ??1?$CStringT@_WV?$StrTraitMFC@_WV?$ChTraitsCRT@_W@ATL@@@@@ATL@@QAE@XZ ; ATL::CStringT<wchar_t,StrTraitMFC<wchar_t,ATL::ChTraitsCRT<wchar_t> > >::~CStringT<wchar_t,StrTraitMFC<wchar_t,ATL::ChTraitsCRT<wchar_t> > >
__unwindfunclet$??__EstrDeviceCmd@@YAXXZ$91:
  0038e	b9 6c 01 00 00	 mov	 ecx, OFFSET _strDeviceCmd+364
  00393	e9 00 00 00 00	 jmp	 ??1?$CStringT@_WV?$StrTraitMFC@_WV?$ChTraitsCRT@_W@ATL@@@@@ATL@@QAE@XZ ; ATL::CStringT<wchar_t,StrTraitMFC<wchar_t,ATL::ChTraitsCRT<wchar_t> > >::~CStringT<wchar_t,StrTraitMFC<wchar_t,ATL::ChTraitsCRT<wchar_t> > >
__unwindfunclet$??__EstrDeviceCmd@@YAXXZ$92:
  00398	b9 70 01 00 00	 mov	 ecx, OFFSET _strDeviceCmd+368
  0039d	e9 00 00 00 00	 jmp	 ??1?$CStringT@_WV?$StrTraitMFC@_WV?$ChTraitsCRT@_W@ATL@@@@@ATL@@QAE@XZ ; ATL::CStringT<wchar_t,StrTraitMFC<wchar_t,ATL::ChTraitsCRT<wchar_t> > >::~CStringT<wchar_t,StrTraitMFC<wchar_t,ATL::ChTraitsCRT<wchar_t> > >
__unwindfunclet$??__EstrDeviceCmd@@YAXXZ$93:
  003a2	b9 74 01 00 00	 mov	 ecx, OFFSET _strDeviceCmd+372
  003a7	e9 00 00 00 00	 jmp	 ??1?$CStringT@_WV?$StrTraitMFC@_WV?$ChTraitsCRT@_W@ATL@@@@@ATL@@QAE@XZ ; ATL::CStringT<wchar_t,StrTraitMFC<wchar_t,ATL::ChTraitsCRT<wchar_t> > >::~CStringT<wchar_t,StrTraitMFC<wchar_t,ATL::ChTraitsCRT<wchar_t> > >
__unwindfunclet$??__EstrDeviceCmd@@YAXXZ$94:
  003ac	b9 78 01 00 00	 mov	 ecx, OFFSET _strDeviceCmd+376
  003b1	e9 00 00 00 00	 jmp	 ??1?$CStringT@_WV?$StrTraitMFC@_WV?$ChTraitsCRT@_W@ATL@@@@@ATL@@QAE@XZ ; ATL::CStringT<wchar_t,StrTraitMFC<wchar_t,ATL::ChTraitsCRT<wchar_t> > >::~CStringT<wchar_t,StrTraitMFC<wchar_t,ATL::ChTraitsCRT<wchar_t> > >
__unwindfunclet$??__EstrDeviceCmd@@YAXXZ$95:
  003b6	b9 7c 01 00 00	 mov	 ecx, OFFSET _strDeviceCmd+380
  003bb	e9 00 00 00 00	 jmp	 ??1?$CStringT@_WV?$StrTraitMFC@_WV?$ChTraitsCRT@_W@ATL@@@@@ATL@@QAE@XZ ; ATL::CStringT<wchar_t,StrTraitMFC<wchar_t,ATL::ChTraitsCRT<wchar_t> > >::~CStringT<wchar_t,StrTraitMFC<wchar_t,ATL::ChTraitsCRT<wchar_t> > >
__unwindfunclet$??__EstrDeviceCmd@@YAXXZ$96:
  003c0	b9 80 01 00 00	 mov	 ecx, OFFSET _strDeviceCmd+384
  003c5	e9 00 00 00 00	 jmp	 ??1?$CStringT@_WV?$StrTraitMFC@_WV?$ChTraitsCRT@_W@ATL@@@@@ATL@@QAE@XZ ; ATL::CStringT<wchar_t,StrTraitMFC<wchar_t,ATL::ChTraitsCRT<wchar_t> > >::~CStringT<wchar_t,StrTraitMFC<wchar_t,ATL::ChTraitsCRT<wchar_t> > >
__unwindfunclet$??__EstrDeviceCmd@@YAXXZ$97:
  003ca	b9 84 01 00 00	 mov	 ecx, OFFSET _strDeviceCmd+388
  003cf	e9 00 00 00 00	 jmp	 ??1?$CStringT@_WV?$StrTraitMFC@_WV?$ChTraitsCRT@_W@ATL@@@@@ATL@@QAE@XZ ; ATL::CStringT<wchar_t,StrTraitMFC<wchar_t,ATL::ChTraitsCRT<wchar_t> > >::~CStringT<wchar_t,StrTraitMFC<wchar_t,ATL::ChTraitsCRT<wchar_t> > >
__unwindfunclet$??__EstrDeviceCmd@@YAXXZ$98:
  003d4	b9 88 01 00 00	 mov	 ecx, OFFSET _strDeviceCmd+392
  003d9	e9 00 00 00 00	 jmp	 ??1?$CStringT@_WV?$StrTraitMFC@_WV?$ChTraitsCRT@_W@ATL@@@@@ATL@@QAE@XZ ; ATL::CStringT<wchar_t,StrTraitMFC<wchar_t,ATL::ChTraitsCRT<wchar_t> > >::~CStringT<wchar_t,StrTraitMFC<wchar_t,ATL::ChTraitsCRT<wchar_t> > >
__unwindfunclet$??__EstrDeviceCmd@@YAXXZ$99:
  003de	b9 8c 01 00 00	 mov	 ecx, OFFSET _strDeviceCmd+396
  003e3	e9 00 00 00 00	 jmp	 ??1?$CStringT@_WV?$StrTraitMFC@_WV?$ChTraitsCRT@_W@ATL@@@@@ATL@@QAE@XZ ; ATL::CStringT<wchar_t,StrTraitMFC<wchar_t,ATL::ChTraitsCRT<wchar_t> > >::~CStringT<wchar_t,StrTraitMFC<wchar_t,ATL::ChTraitsCRT<wchar_t> > >
__unwindfunclet$??__EstrDeviceCmd@@YAXXZ$100:
  003e8	b9 90 01 00 00	 mov	 ecx, OFFSET _strDeviceCmd+400
  003ed	e9 00 00 00 00	 jmp	 ??1?$CStringT@_WV?$StrTraitMFC@_WV?$ChTraitsCRT@_W@ATL@@@@@ATL@@QAE@XZ ; ATL::CStringT<wchar_t,StrTraitMFC<wchar_t,ATL::ChTraitsCRT<wchar_t> > >::~CStringT<wchar_t,StrTraitMFC<wchar_t,ATL::ChTraitsCRT<wchar_t> > >
__unwindfunclet$??__EstrDeviceCmd@@YAXXZ$101:
  003f2	b9 94 01 00 00	 mov	 ecx, OFFSET _strDeviceCmd+404
  003f7	e9 00 00 00 00	 jmp	 ??1?$CStringT@_WV?$StrTraitMFC@_WV?$ChTraitsCRT@_W@ATL@@@@@ATL@@QAE@XZ ; ATL::CStringT<wchar_t,StrTraitMFC<wchar_t,ATL::ChTraitsCRT<wchar_t> > >::~CStringT<wchar_t,StrTraitMFC<wchar_t,ATL::ChTraitsCRT<wchar_t> > >
__unwindfunclet$??__EstrDeviceCmd@@YAXXZ$102:
  003fc	b9 98 01 00 00	 mov	 ecx, OFFSET _strDeviceCmd+408
  00401	e9 00 00 00 00	 jmp	 ??1?$CStringT@_WV?$StrTraitMFC@_WV?$ChTraitsCRT@_W@ATL@@@@@ATL@@QAE@XZ ; ATL::CStringT<wchar_t,StrTraitMFC<wchar_t,ATL::ChTraitsCRT<wchar_t> > >::~CStringT<wchar_t,StrTraitMFC<wchar_t,ATL::ChTraitsCRT<wchar_t> > >
__unwindfunclet$??__EstrDeviceCmd@@YAXXZ$103:
  00406	b9 9c 01 00 00	 mov	 ecx, OFFSET _strDeviceCmd+412
  0040b	e9 00 00 00 00	 jmp	 ??1?$CStringT@_WV?$StrTraitMFC@_WV?$ChTraitsCRT@_W@ATL@@@@@ATL@@QAE@XZ ; ATL::CStringT<wchar_t,StrTraitMFC<wchar_t,ATL::ChTraitsCRT<wchar_t> > >::~CStringT<wchar_t,StrTraitMFC<wchar_t,ATL::ChTraitsCRT<wchar_t> > >
__unwindfunclet$??__EstrDeviceCmd@@YAXXZ$104:
  00410	b9 a0 01 00 00	 mov	 ecx, OFFSET _strDeviceCmd+416
  00415	e9 00 00 00 00	 jmp	 ??1?$CStringT@_WV?$StrTraitMFC@_WV?$ChTraitsCRT@_W@ATL@@@@@ATL@@QAE@XZ ; ATL::CStringT<wchar_t,StrTraitMFC<wchar_t,ATL::ChTraitsCRT<wchar_t> > >::~CStringT<wchar_t,StrTraitMFC<wchar_t,ATL::ChTraitsCRT<wchar_t> > >
__unwindfunclet$??__EstrDeviceCmd@@YAXXZ$105:
  0041a	b9 a4 01 00 00	 mov	 ecx, OFFSET _strDeviceCmd+420
  0041f	e9 00 00 00 00	 jmp	 ??1?$CStringT@_WV?$StrTraitMFC@_WV?$ChTraitsCRT@_W@ATL@@@@@ATL@@QAE@XZ ; ATL::CStringT<wchar_t,StrTraitMFC<wchar_t,ATL::ChTraitsCRT<wchar_t> > >::~CStringT<wchar_t,StrTraitMFC<wchar_t,ATL::ChTraitsCRT<wchar_t> > >
__unwindfunclet$??__EstrDeviceCmd@@YAXXZ$106:
  00424	b9 a8 01 00 00	 mov	 ecx, OFFSET _strDeviceCmd+424
  00429	e9 00 00 00 00	 jmp	 ??1?$CStringT@_WV?$StrTraitMFC@_WV?$ChTraitsCRT@_W@ATL@@@@@ATL@@QAE@XZ ; ATL::CStringT<wchar_t,StrTraitMFC<wchar_t,ATL::ChTraitsCRT<wchar_t> > >::~CStringT<wchar_t,StrTraitMFC<wchar_t,ATL::ChTraitsCRT<wchar_t> > >
__unwindfunclet$??__EstrDeviceCmd@@YAXXZ$107:
  0042e	b9 ac 01 00 00	 mov	 ecx, OFFSET _strDeviceCmd+428
  00433	e9 00 00 00 00	 jmp	 ??1?$CStringT@_WV?$StrTraitMFC@_WV?$ChTraitsCRT@_W@ATL@@@@@ATL@@QAE@XZ ; ATL::CStringT<wchar_t,StrTraitMFC<wchar_t,ATL::ChTraitsCRT<wchar_t> > >::~CStringT<wchar_t,StrTraitMFC<wchar_t,ATL::ChTraitsCRT<wchar_t> > >
__unwindfunclet$??__EstrDeviceCmd@@YAXXZ$108:
  00438	b9 b0 01 00 00	 mov	 ecx, OFFSET _strDeviceCmd+432
  0043d	e9 00 00 00 00	 jmp	 ??1?$CStringT@_WV?$StrTraitMFC@_WV?$ChTraitsCRT@_W@ATL@@@@@ATL@@QAE@XZ ; ATL::CStringT<wchar_t,StrTraitMFC<wchar_t,ATL::ChTraitsCRT<wchar_t> > >::~CStringT<wchar_t,StrTraitMFC<wchar_t,ATL::ChTraitsCRT<wchar_t> > >
__unwindfunclet$??__EstrDeviceCmd@@YAXXZ$109:
  00442	b9 b4 01 00 00	 mov	 ecx, OFFSET _strDeviceCmd+436
  00447	e9 00 00 00 00	 jmp	 ??1?$CStringT@_WV?$StrTraitMFC@_WV?$ChTraitsCRT@_W@ATL@@@@@ATL@@QAE@XZ ; ATL::CStringT<wchar_t,StrTraitMFC<wchar_t,ATL::ChTraitsCRT<wchar_t> > >::~CStringT<wchar_t,StrTraitMFC<wchar_t,ATL::ChTraitsCRT<wchar_t> > >
__unwindfunclet$??__EstrDeviceCmd@@YAXXZ$110:
  0044c	b9 b8 01 00 00	 mov	 ecx, OFFSET _strDeviceCmd+440
  00451	e9 00 00 00 00	 jmp	 ??1?$CStringT@_WV?$StrTraitMFC@_WV?$ChTraitsCRT@_W@ATL@@@@@ATL@@QAE@XZ ; ATL::CStringT<wchar_t,StrTraitMFC<wchar_t,ATL::ChTraitsCRT<wchar_t> > >::~CStringT<wchar_t,StrTraitMFC<wchar_t,ATL::ChTraitsCRT<wchar_t> > >
__unwindfunclet$??__EstrDeviceCmd@@YAXXZ$111:
  00456	b9 bc 01 00 00	 mov	 ecx, OFFSET _strDeviceCmd+444
  0045b	e9 00 00 00 00	 jmp	 ??1?$CStringT@_WV?$StrTraitMFC@_WV?$ChTraitsCRT@_W@ATL@@@@@ATL@@QAE@XZ ; ATL::CStringT<wchar_t,StrTraitMFC<wchar_t,ATL::ChTraitsCRT<wchar_t> > >::~CStringT<wchar_t,StrTraitMFC<wchar_t,ATL::ChTraitsCRT<wchar_t> > >
__unwindfunclet$??__EstrDeviceCmd@@YAXXZ$112:
  00460	b9 c0 01 00 00	 mov	 ecx, OFFSET _strDeviceCmd+448
  00465	e9 00 00 00 00	 jmp	 ??1?$CStringT@_WV?$StrTraitMFC@_WV?$ChTraitsCRT@_W@ATL@@@@@ATL@@QAE@XZ ; ATL::CStringT<wchar_t,StrTraitMFC<wchar_t,ATL::ChTraitsCRT<wchar_t> > >::~CStringT<wchar_t,StrTraitMFC<wchar_t,ATL::ChTraitsCRT<wchar_t> > >
__unwindfunclet$??__EstrDeviceCmd@@YAXXZ$113:
  0046a	b9 c4 01 00 00	 mov	 ecx, OFFSET _strDeviceCmd+452
  0046f	e9 00 00 00 00	 jmp	 ??1?$CStringT@_WV?$StrTraitMFC@_WV?$ChTraitsCRT@_W@ATL@@@@@ATL@@QAE@XZ ; ATL::CStringT<wchar_t,StrTraitMFC<wchar_t,ATL::ChTraitsCRT<wchar_t> > >::~CStringT<wchar_t,StrTraitMFC<wchar_t,ATL::ChTraitsCRT<wchar_t> > >
__unwindfunclet$??__EstrDeviceCmd@@YAXXZ$114:
  00474	b9 c8 01 00 00	 mov	 ecx, OFFSET _strDeviceCmd+456
  00479	e9 00 00 00 00	 jmp	 ??1?$CStringT@_WV?$StrTraitMFC@_WV?$ChTraitsCRT@_W@ATL@@@@@ATL@@QAE@XZ ; ATL::CStringT<wchar_t,StrTraitMFC<wchar_t,ATL::ChTraitsCRT<wchar_t> > >::~CStringT<wchar_t,StrTraitMFC<wchar_t,ATL::ChTraitsCRT<wchar_t> > >
__unwindfunclet$??__EstrDeviceCmd@@YAXXZ$115:
  0047e	b9 cc 01 00 00	 mov	 ecx, OFFSET _strDeviceCmd+460
  00483	e9 00 00 00 00	 jmp	 ??1?$CStringT@_WV?$StrTraitMFC@_WV?$ChTraitsCRT@_W@ATL@@@@@ATL@@QAE@XZ ; ATL::CStringT<wchar_t,StrTraitMFC<wchar_t,ATL::ChTraitsCRT<wchar_t> > >::~CStringT<wchar_t,StrTraitMFC<wchar_t,ATL::ChTraitsCRT<wchar_t> > >
__unwindfunclet$??__EstrDeviceCmd@@YAXXZ$116:
  00488	b9 d0 01 00 00	 mov	 ecx, OFFSET _strDeviceCmd+464
  0048d	e9 00 00 00 00	 jmp	 ??1?$CStringT@_WV?$StrTraitMFC@_WV?$ChTraitsCRT@_W@ATL@@@@@ATL@@QAE@XZ ; ATL::CStringT<wchar_t,StrTraitMFC<wchar_t,ATL::ChTraitsCRT<wchar_t> > >::~CStringT<wchar_t,StrTraitMFC<wchar_t,ATL::ChTraitsCRT<wchar_t> > >
__unwindfunclet$??__EstrDeviceCmd@@YAXXZ$117:
  00492	b9 d4 01 00 00	 mov	 ecx, OFFSET _strDeviceCmd+468
  00497	e9 00 00 00 00	 jmp	 ??1?$CStringT@_WV?$StrTraitMFC@_WV?$ChTraitsCRT@_W@ATL@@@@@ATL@@QAE@XZ ; ATL::CStringT<wchar_t,StrTraitMFC<wchar_t,ATL::ChTraitsCRT<wchar_t> > >::~CStringT<wchar_t,StrTraitMFC<wchar_t,ATL::ChTraitsCRT<wchar_t> > >
__unwindfunclet$??__EstrDeviceCmd@@YAXXZ$118:
  0049c	b9 d8 01 00 00	 mov	 ecx, OFFSET _strDeviceCmd+472
  004a1	e9 00 00 00 00	 jmp	 ??1?$CStringT@_WV?$StrTraitMFC@_WV?$ChTraitsCRT@_W@ATL@@@@@ATL@@QAE@XZ ; ATL::CStringT<wchar_t,StrTraitMFC<wchar_t,ATL::ChTraitsCRT<wchar_t> > >::~CStringT<wchar_t,StrTraitMFC<wchar_t,ATL::ChTraitsCRT<wchar_t> > >
__unwindfunclet$??__EstrDeviceCmd@@YAXXZ$119:
  004a6	b9 dc 01 00 00	 mov	 ecx, OFFSET _strDeviceCmd+476
  004ab	e9 00 00 00 00	 jmp	 ??1?$CStringT@_WV?$StrTraitMFC@_WV?$ChTraitsCRT@_W@ATL@@@@@ATL@@QAE@XZ ; ATL::CStringT<wchar_t,StrTraitMFC<wchar_t,ATL::ChTraitsCRT<wchar_t> > >::~CStringT<wchar_t,StrTraitMFC<wchar_t,ATL::ChTraitsCRT<wchar_t> > >
__unwindfunclet$??__EstrDeviceCmd@@YAXXZ$120:
  004b0	b9 e0 01 00 00	 mov	 ecx, OFFSET _strDeviceCmd+480
  004b5	e9 00 00 00 00	 jmp	 ??1?$CStringT@_WV?$StrTraitMFC@_WV?$ChTraitsCRT@_W@ATL@@@@@ATL@@QAE@XZ ; ATL::CStringT<wchar_t,StrTraitMFC<wchar_t,ATL::ChTraitsCRT<wchar_t> > >::~CStringT<wchar_t,StrTraitMFC<wchar_t,ATL::ChTraitsCRT<wchar_t> > >
__unwindfunclet$??__EstrDeviceCmd@@YAXXZ$121:
  004ba	b9 e4 01 00 00	 mov	 ecx, OFFSET _strDeviceCmd+484
  004bf	e9 00 00 00 00	 jmp	 ??1?$CStringT@_WV?$StrTraitMFC@_WV?$ChTraitsCRT@_W@ATL@@@@@ATL@@QAE@XZ ; ATL::CStringT<wchar_t,StrTraitMFC<wchar_t,ATL::ChTraitsCRT<wchar_t> > >::~CStringT<wchar_t,StrTraitMFC<wchar_t,ATL::ChTraitsCRT<wchar_t> > >
__unwindfunclet$??__EstrDeviceCmd@@YAXXZ$122:
  004c4	b9 e8 01 00 00	 mov	 ecx, OFFSET _strDeviceCmd+488
  004c9	e9 00 00 00 00	 jmp	 ??1?$CStringT@_WV?$StrTraitMFC@_WV?$ChTraitsCRT@_W@ATL@@@@@ATL@@QAE@XZ ; ATL::CStringT<wchar_t,StrTraitMFC<wchar_t,ATL::ChTraitsCRT<wchar_t> > >::~CStringT<wchar_t,StrTraitMFC<wchar_t,ATL::ChTraitsCRT<wchar_t> > >
__unwindfunclet$??__EstrDeviceCmd@@YAXXZ$123:
  004ce	b9 ec 01 00 00	 mov	 ecx, OFFSET _strDeviceCmd+492
  004d3	e9 00 00 00 00	 jmp	 ??1?$CStringT@_WV?$StrTraitMFC@_WV?$ChTraitsCRT@_W@ATL@@@@@ATL@@QAE@XZ ; ATL::CStringT<wchar_t,StrTraitMFC<wchar_t,ATL::ChTraitsCRT<wchar_t> > >::~CStringT<wchar_t,StrTraitMFC<wchar_t,ATL::ChTraitsCRT<wchar_t> > >
__unwindfunclet$??__EstrDeviceCmd@@YAXXZ$124:
  004d8	b9 f0 01 00 00	 mov	 ecx, OFFSET _strDeviceCmd+496
  004dd	e9 00 00 00 00	 jmp	 ??1?$CStringT@_WV?$StrTraitMFC@_WV?$ChTraitsCRT@_W@ATL@@@@@ATL@@QAE@XZ ; ATL::CStringT<wchar_t,StrTraitMFC<wchar_t,ATL::ChTraitsCRT<wchar_t> > >::~CStringT<wchar_t,StrTraitMFC<wchar_t,ATL::ChTraitsCRT<wchar_t> > >
__unwindfunclet$??__EstrDeviceCmd@@YAXXZ$125:
  004e2	b9 f4 01 00 00	 mov	 ecx, OFFSET _strDeviceCmd+500
  004e7	e9 00 00 00 00	 jmp	 ??1?$CStringT@_WV?$StrTraitMFC@_WV?$ChTraitsCRT@_W@ATL@@@@@ATL@@QAE@XZ ; ATL::CStringT<wchar_t,StrTraitMFC<wchar_t,ATL::ChTraitsCRT<wchar_t> > >::~CStringT<wchar_t,StrTraitMFC<wchar_t,ATL::ChTraitsCRT<wchar_t> > >
__unwindfunclet$??__EstrDeviceCmd@@YAXXZ$126:
  004ec	b9 f8 01 00 00	 mov	 ecx, OFFSET _strDeviceCmd+504
  004f1	e9 00 00 00 00	 jmp	 ??1?$CStringT@_WV?$StrTraitMFC@_WV?$ChTraitsCRT@_W@ATL@@@@@ATL@@QAE@XZ ; ATL::CStringT<wchar_t,StrTraitMFC<wchar_t,ATL::ChTraitsCRT<wchar_t> > >::~CStringT<wchar_t,StrTraitMFC<wchar_t,ATL::ChTraitsCRT<wchar_t> > >
__unwindfunclet$??__EstrDeviceCmd@@YAXXZ$127:
  004f6	b9 fc 01 00 00	 mov	 ecx, OFFSET _strDeviceCmd+508
  004fb	e9 00 00 00 00	 jmp	 ??1?$CStringT@_WV?$StrTraitMFC@_WV?$ChTraitsCRT@_W@ATL@@@@@ATL@@QAE@XZ ; ATL::CStringT<wchar_t,StrTraitMFC<wchar_t,ATL::ChTraitsCRT<wchar_t> > >::~CStringT<wchar_t,StrTraitMFC<wchar_t,ATL::ChTraitsCRT<wchar_t> > >
__unwindfunclet$??__EstrDeviceCmd@@YAXXZ$128:
  00500	b9 00 02 00 00	 mov	 ecx, OFFSET _strDeviceCmd+512
  00505	e9 00 00 00 00	 jmp	 ??1?$CStringT@_WV?$StrTraitMFC@_WV?$ChTraitsCRT@_W@ATL@@@@@ATL@@QAE@XZ ; ATL::CStringT<wchar_t,StrTraitMFC<wchar_t,ATL::ChTraitsCRT<wchar_t> > >::~CStringT<wchar_t,StrTraitMFC<wchar_t,ATL::ChTraitsCRT<wchar_t> > >
__unwindfunclet$??__EstrDeviceCmd@@YAXXZ$129:
  0050a	b9 04 02 00 00	 mov	 ecx, OFFSET _strDeviceCmd+516
  0050f	e9 00 00 00 00	 jmp	 ??1?$CStringT@_WV?$StrTraitMFC@_WV?$ChTraitsCRT@_W@ATL@@@@@ATL@@QAE@XZ ; ATL::CStringT<wchar_t,StrTraitMFC<wchar_t,ATL::ChTraitsCRT<wchar_t> > >::~CStringT<wchar_t,StrTraitMFC<wchar_t,ATL::ChTraitsCRT<wchar_t> > >
__unwindfunclet$??__EstrDeviceCmd@@YAXXZ$130:
  00514	b9 08 02 00 00	 mov	 ecx, OFFSET _strDeviceCmd+520
  00519	e9 00 00 00 00	 jmp	 ??1?$CStringT@_WV?$StrTraitMFC@_WV?$ChTraitsCRT@_W@ATL@@@@@ATL@@QAE@XZ ; ATL::CStringT<wchar_t,StrTraitMFC<wchar_t,ATL::ChTraitsCRT<wchar_t> > >::~CStringT<wchar_t,StrTraitMFC<wchar_t,ATL::ChTraitsCRT<wchar_t> > >
__unwindfunclet$??__EstrDeviceCmd@@YAXXZ$131:
  0051e	b9 0c 02 00 00	 mov	 ecx, OFFSET _strDeviceCmd+524
  00523	e9 00 00 00 00	 jmp	 ??1?$CStringT@_WV?$StrTraitMFC@_WV?$ChTraitsCRT@_W@ATL@@@@@ATL@@QAE@XZ ; ATL::CStringT<wchar_t,StrTraitMFC<wchar_t,ATL::ChTraitsCRT<wchar_t> > >::~CStringT<wchar_t,StrTraitMFC<wchar_t,ATL::ChTraitsCRT<wchar_t> > >
__unwindfunclet$??__EstrDeviceCmd@@YAXXZ$132:
  00528	b9 10 02 00 00	 mov	 ecx, OFFSET _strDeviceCmd+528
  0052d	e9 00 00 00 00	 jmp	 ??1?$CStringT@_WV?$StrTraitMFC@_WV?$ChTraitsCRT@_W@ATL@@@@@ATL@@QAE@XZ ; ATL::CStringT<wchar_t,StrTraitMFC<wchar_t,ATL::ChTraitsCRT<wchar_t> > >::~CStringT<wchar_t,StrTraitMFC<wchar_t,ATL::ChTraitsCRT<wchar_t> > >
__unwindfunclet$??__EstrDeviceCmd@@YAXXZ$133:
  00532	b9 14 02 00 00	 mov	 ecx, OFFSET _strDeviceCmd+532
  00537	e9 00 00 00 00	 jmp	 ??1?$CStringT@_WV?$StrTraitMFC@_WV?$ChTraitsCRT@_W@ATL@@@@@ATL@@QAE@XZ ; ATL::CStringT<wchar_t,StrTraitMFC<wchar_t,ATL::ChTraitsCRT<wchar_t> > >::~CStringT<wchar_t,StrTraitMFC<wchar_t,ATL::ChTraitsCRT<wchar_t> > >
__unwindfunclet$??__EstrDeviceCmd@@YAXXZ$134:
  0053c	b9 18 02 00 00	 mov	 ecx, OFFSET _strDeviceCmd+536
  00541	e9 00 00 00 00	 jmp	 ??1?$CStringT@_WV?$StrTraitMFC@_WV?$ChTraitsCRT@_W@ATL@@@@@ATL@@QAE@XZ ; ATL::CStringT<wchar_t,StrTraitMFC<wchar_t,ATL::ChTraitsCRT<wchar_t> > >::~CStringT<wchar_t,StrTraitMFC<wchar_t,ATL::ChTraitsCRT<wchar_t> > >
__unwindfunclet$??__EstrDeviceCmd@@YAXXZ$135:
  00546	b9 1c 02 00 00	 mov	 ecx, OFFSET _strDeviceCmd+540
  0054b	e9 00 00 00 00	 jmp	 ??1?$CStringT@_WV?$StrTraitMFC@_WV?$ChTraitsCRT@_W@ATL@@@@@ATL@@QAE@XZ ; ATL::CStringT<wchar_t,StrTraitMFC<wchar_t,ATL::ChTraitsCRT<wchar_t> > >::~CStringT<wchar_t,StrTraitMFC<wchar_t,ATL::ChTraitsCRT<wchar_t> > >
__unwindfunclet$??__EstrDeviceCmd@@YAXXZ$136:
  00550	b9 20 02 00 00	 mov	 ecx, OFFSET _strDeviceCmd+544
  00555	e9 00 00 00 00	 jmp	 ??1?$CStringT@_WV?$StrTraitMFC@_WV?$ChTraitsCRT@_W@ATL@@@@@ATL@@QAE@XZ ; ATL::CStringT<wchar_t,StrTraitMFC<wchar_t,ATL::ChTraitsCRT<wchar_t> > >::~CStringT<wchar_t,StrTraitMFC<wchar_t,ATL::ChTraitsCRT<wchar_t> > >
__unwindfunclet$??__EstrDeviceCmd@@YAXXZ$137:
  0055a	b9 24 02 00 00	 mov	 ecx, OFFSET _strDeviceCmd+548
  0055f	e9 00 00 00 00	 jmp	 ??1?$CStringT@_WV?$StrTraitMFC@_WV?$ChTraitsCRT@_W@ATL@@@@@ATL@@QAE@XZ ; ATL::CStringT<wchar_t,StrTraitMFC<wchar_t,ATL::ChTraitsCRT<wchar_t> > >::~CStringT<wchar_t,StrTraitMFC<wchar_t,ATL::ChTraitsCRT<wchar_t> > >
__unwindfunclet$??__EstrDeviceCmd@@YAXXZ$138:
  00564	b9 28 02 00 00	 mov	 ecx, OFFSET _strDeviceCmd+552
  00569	e9 00 00 00 00	 jmp	 ??1?$CStringT@_WV?$StrTraitMFC@_WV?$ChTraitsCRT@_W@ATL@@@@@ATL@@QAE@XZ ; ATL::CStringT<wchar_t,StrTraitMFC<wchar_t,ATL::ChTraitsCRT<wchar_t> > >::~CStringT<wchar_t,StrTraitMFC<wchar_t,ATL::ChTraitsCRT<wchar_t> > >
__unwindfunclet$??__EstrDeviceCmd@@YAXXZ$139:
  0056e	b9 2c 02 00 00	 mov	 ecx, OFFSET _strDeviceCmd+556
  00573	e9 00 00 00 00	 jmp	 ??1?$CStringT@_WV?$StrTraitMFC@_WV?$ChTraitsCRT@_W@ATL@@@@@ATL@@QAE@XZ ; ATL::CStringT<wchar_t,StrTraitMFC<wchar_t,ATL::ChTraitsCRT<wchar_t> > >::~CStringT<wchar_t,StrTraitMFC<wchar_t,ATL::ChTraitsCRT<wchar_t> > >
__unwindfunclet$??__EstrDeviceCmd@@YAXXZ$140:
  00578	b9 30 02 00 00	 mov	 ecx, OFFSET _strDeviceCmd+560
  0057d	e9 00 00 00 00	 jmp	 ??1?$CStringT@_WV?$StrTraitMFC@_WV?$ChTraitsCRT@_W@ATL@@@@@ATL@@QAE@XZ ; ATL::CStringT<wchar_t,StrTraitMFC<wchar_t,ATL::ChTraitsCRT<wchar_t> > >::~CStringT<wchar_t,StrTraitMFC<wchar_t,ATL::ChTraitsCRT<wchar_t> > >
__unwindfunclet$??__EstrDeviceCmd@@YAXXZ$141:
  00582	b9 34 02 00 00	 mov	 ecx, OFFSET _strDeviceCmd+564
  00587	e9 00 00 00 00	 jmp	 ??1?$CStringT@_WV?$StrTraitMFC@_WV?$ChTraitsCRT@_W@ATL@@@@@ATL@@QAE@XZ ; ATL::CStringT<wchar_t,StrTraitMFC<wchar_t,ATL::ChTraitsCRT<wchar_t> > >::~CStringT<wchar_t,StrTraitMFC<wchar_t,ATL::ChTraitsCRT<wchar_t> > >
__unwindfunclet$??__EstrDeviceCmd@@YAXXZ$142:
  0058c	b9 38 02 00 00	 mov	 ecx, OFFSET _strDeviceCmd+568
  00591	e9 00 00 00 00	 jmp	 ??1?$CStringT@_WV?$StrTraitMFC@_WV?$ChTraitsCRT@_W@ATL@@@@@ATL@@QAE@XZ ; ATL::CStringT<wchar_t,StrTraitMFC<wchar_t,ATL::ChTraitsCRT<wchar_t> > >::~CStringT<wchar_t,StrTraitMFC<wchar_t,ATL::ChTraitsCRT<wchar_t> > >
__unwindfunclet$??__EstrDeviceCmd@@YAXXZ$143:
  00596	b9 3c 02 00 00	 mov	 ecx, OFFSET _strDeviceCmd+572
  0059b	e9 00 00 00 00	 jmp	 ??1?$CStringT@_WV?$StrTraitMFC@_WV?$ChTraitsCRT@_W@ATL@@@@@ATL@@QAE@XZ ; ATL::CStringT<wchar_t,StrTraitMFC<wchar_t,ATL::ChTraitsCRT<wchar_t> > >::~CStringT<wchar_t,StrTraitMFC<wchar_t,ATL::ChTraitsCRT<wchar_t> > >
__unwindfunclet$??__EstrDeviceCmd@@YAXXZ$144:
  005a0	b9 40 02 00 00	 mov	 ecx, OFFSET _strDeviceCmd+576
  005a5	e9 00 00 00 00	 jmp	 ??1?$CStringT@_WV?$StrTraitMFC@_WV?$ChTraitsCRT@_W@ATL@@@@@ATL@@QAE@XZ ; ATL::CStringT<wchar_t,StrTraitMFC<wchar_t,ATL::ChTraitsCRT<wchar_t> > >::~CStringT<wchar_t,StrTraitMFC<wchar_t,ATL::ChTraitsCRT<wchar_t> > >
__unwindfunclet$??__EstrDeviceCmd@@YAXXZ$145:
  005aa	b9 44 02 00 00	 mov	 ecx, OFFSET _strDeviceCmd+580
  005af	e9 00 00 00 00	 jmp	 ??1?$CStringT@_WV?$StrTraitMFC@_WV?$ChTraitsCRT@_W@ATL@@@@@ATL@@QAE@XZ ; ATL::CStringT<wchar_t,StrTraitMFC<wchar_t,ATL::ChTraitsCRT<wchar_t> > >::~CStringT<wchar_t,StrTraitMFC<wchar_t,ATL::ChTraitsCRT<wchar_t> > >
__unwindfunclet$??__EstrDeviceCmd@@YAXXZ$146:
  005b4	b9 48 02 00 00	 mov	 ecx, OFFSET _strDeviceCmd+584
  005b9	e9 00 00 00 00	 jmp	 ??1?$CStringT@_WV?$StrTraitMFC@_WV?$ChTraitsCRT@_W@ATL@@@@@ATL@@QAE@XZ ; ATL::CStringT<wchar_t,StrTraitMFC<wchar_t,ATL::ChTraitsCRT<wchar_t> > >::~CStringT<wchar_t,StrTraitMFC<wchar_t,ATL::ChTraitsCRT<wchar_t> > >
__unwindfunclet$??__EstrDeviceCmd@@YAXXZ$147:
  005be	b9 4c 02 00 00	 mov	 ecx, OFFSET _strDeviceCmd+588
  005c3	e9 00 00 00 00	 jmp	 ??1?$CStringT@_WV?$StrTraitMFC@_WV?$ChTraitsCRT@_W@ATL@@@@@ATL@@QAE@XZ ; ATL::CStringT<wchar_t,StrTraitMFC<wchar_t,ATL::ChTraitsCRT<wchar_t> > >::~CStringT<wchar_t,StrTraitMFC<wchar_t,ATL::ChTraitsCRT<wchar_t> > >
__unwindfunclet$??__EstrDeviceCmd@@YAXXZ$148:
  005c8	b9 50 02 00 00	 mov	 ecx, OFFSET _strDeviceCmd+592
  005cd	e9 00 00 00 00	 jmp	 ??1?$CStringT@_WV?$StrTraitMFC@_WV?$ChTraitsCRT@_W@ATL@@@@@ATL@@QAE@XZ ; ATL::CStringT<wchar_t,StrTraitMFC<wchar_t,ATL::ChTraitsCRT<wchar_t> > >::~CStringT<wchar_t,StrTraitMFC<wchar_t,ATL::ChTraitsCRT<wchar_t> > >
__unwindfunclet$??__EstrDeviceCmd@@YAXXZ$149:
  005d2	b9 54 02 00 00	 mov	 ecx, OFFSET _strDeviceCmd+596
  005d7	e9 00 00 00 00	 jmp	 ??1?$CStringT@_WV?$StrTraitMFC@_WV?$ChTraitsCRT@_W@ATL@@@@@ATL@@QAE@XZ ; ATL::CStringT<wchar_t,StrTraitMFC<wchar_t,ATL::ChTraitsCRT<wchar_t> > >::~CStringT<wchar_t,StrTraitMFC<wchar_t,ATL::ChTraitsCRT<wchar_t> > >
__unwindfunclet$??__EstrDeviceCmd@@YAXXZ$150:
  005dc	b9 58 02 00 00	 mov	 ecx, OFFSET _strDeviceCmd+600
  005e1	e9 00 00 00 00	 jmp	 ??1?$CStringT@_WV?$StrTraitMFC@_WV?$ChTraitsCRT@_W@ATL@@@@@ATL@@QAE@XZ ; ATL::CStringT<wchar_t,StrTraitMFC<wchar_t,ATL::ChTraitsCRT<wchar_t> > >::~CStringT<wchar_t,StrTraitMFC<wchar_t,ATL::ChTraitsCRT<wchar_t> > >
__unwindfunclet$??__EstrDeviceCmd@@YAXXZ$151:
  005e6	b9 5c 02 00 00	 mov	 ecx, OFFSET _strDeviceCmd+604
  005eb	e9 00 00 00 00	 jmp	 ??1?$CStringT@_WV?$StrTraitMFC@_WV?$ChTraitsCRT@_W@ATL@@@@@ATL@@QAE@XZ ; ATL::CStringT<wchar_t,StrTraitMFC<wchar_t,ATL::ChTraitsCRT<wchar_t> > >::~CStringT<wchar_t,StrTraitMFC<wchar_t,ATL::ChTraitsCRT<wchar_t> > >
__unwindfunclet$??__EstrDeviceCmd@@YAXXZ$152:
  005f0	b9 60 02 00 00	 mov	 ecx, OFFSET _strDeviceCmd+608
  005f5	e9 00 00 00 00	 jmp	 ??1?$CStringT@_WV?$StrTraitMFC@_WV?$ChTraitsCRT@_W@ATL@@@@@ATL@@QAE@XZ ; ATL::CStringT<wchar_t,StrTraitMFC<wchar_t,ATL::ChTraitsCRT<wchar_t> > >::~CStringT<wchar_t,StrTraitMFC<wchar_t,ATL::ChTraitsCRT<wchar_t> > >
__unwindfunclet$??__EstrDeviceCmd@@YAXXZ$153:
  005fa	b9 64 02 00 00	 mov	 ecx, OFFSET _strDeviceCmd+612
  005ff	e9 00 00 00 00	 jmp	 ??1?$CStringT@_WV?$StrTraitMFC@_WV?$ChTraitsCRT@_W@ATL@@@@@ATL@@QAE@XZ ; ATL::CStringT<wchar_t,StrTraitMFC<wchar_t,ATL::ChTraitsCRT<wchar_t> > >::~CStringT<wchar_t,StrTraitMFC<wchar_t,ATL::ChTraitsCRT<wchar_t> > >
__unwindfunclet$??__EstrDeviceCmd@@YAXXZ$154:
  00604	b9 68 02 00 00	 mov	 ecx, OFFSET _strDeviceCmd+616
  00609	e9 00 00 00 00	 jmp	 ??1?$CStringT@_WV?$StrTraitMFC@_WV?$ChTraitsCRT@_W@ATL@@@@@ATL@@QAE@XZ ; ATL::CStringT<wchar_t,StrTraitMFC<wchar_t,ATL::ChTraitsCRT<wchar_t> > >::~CStringT<wchar_t,StrTraitMFC<wchar_t,ATL::ChTraitsCRT<wchar_t> > >
__unwindfunclet$??__EstrDeviceCmd@@YAXXZ$155:
  0060e	b9 6c 02 00 00	 mov	 ecx, OFFSET _strDeviceCmd+620
  00613	e9 00 00 00 00	 jmp	 ??1?$CStringT@_WV?$StrTraitMFC@_WV?$ChTraitsCRT@_W@ATL@@@@@ATL@@QAE@XZ ; ATL::CStringT<wchar_t,StrTraitMFC<wchar_t,ATL::ChTraitsCRT<wchar_t> > >::~CStringT<wchar_t,StrTraitMFC<wchar_t,ATL::ChTraitsCRT<wchar_t> > >
__unwindfunclet$??__EstrDeviceCmd@@YAXXZ$156:
  00618	b9 70 02 00 00	 mov	 ecx, OFFSET _strDeviceCmd+624
  0061d	e9 00 00 00 00	 jmp	 ??1?$CStringT@_WV?$StrTraitMFC@_WV?$ChTraitsCRT@_W@ATL@@@@@ATL@@QAE@XZ ; ATL::CStringT<wchar_t,StrTraitMFC<wchar_t,ATL::ChTraitsCRT<wchar_t> > >::~CStringT<wchar_t,StrTraitMFC<wchar_t,ATL::ChTraitsCRT<wchar_t> > >
__unwindfunclet$??__EstrDeviceCmd@@YAXXZ$157:
  00622	b9 74 02 00 00	 mov	 ecx, OFFSET _strDeviceCmd+628
  00627	e9 00 00 00 00	 jmp	 ??1?$CStringT@_WV?$StrTraitMFC@_WV?$ChTraitsCRT@_W@ATL@@@@@ATL@@QAE@XZ ; ATL::CStringT<wchar_t,StrTraitMFC<wchar_t,ATL::ChTraitsCRT<wchar_t> > >::~CStringT<wchar_t,StrTraitMFC<wchar_t,ATL::ChTraitsCRT<wchar_t> > >
__unwindfunclet$??__EstrDeviceCmd@@YAXXZ$158:
  0062c	b9 78 02 00 00	 mov	 ecx, OFFSET _strDeviceCmd+632
  00631	e9 00 00 00 00	 jmp	 ??1?$CStringT@_WV?$StrTraitMFC@_WV?$ChTraitsCRT@_W@ATL@@@@@ATL@@QAE@XZ ; ATL::CStringT<wchar_t,StrTraitMFC<wchar_t,ATL::ChTraitsCRT<wchar_t> > >::~CStringT<wchar_t,StrTraitMFC<wchar_t,ATL::ChTraitsCRT<wchar_t> > >
__unwindfunclet$??__EstrDeviceCmd@@YAXXZ$159:
  00636	b9 7c 02 00 00	 mov	 ecx, OFFSET _strDeviceCmd+636
  0063b	e9 00 00 00 00	 jmp	 ??1?$CStringT@_WV?$StrTraitMFC@_WV?$ChTraitsCRT@_W@ATL@@@@@ATL@@QAE@XZ ; ATL::CStringT<wchar_t,StrTraitMFC<wchar_t,ATL::ChTraitsCRT<wchar_t> > >::~CStringT<wchar_t,StrTraitMFC<wchar_t,ATL::ChTraitsCRT<wchar_t> > >
__unwindfunclet$??__EstrDeviceCmd@@YAXXZ$160:
  00640	b9 80 02 00 00	 mov	 ecx, OFFSET _strDeviceCmd+640
  00645	e9 00 00 00 00	 jmp	 ??1?$CStringT@_WV?$StrTraitMFC@_WV?$ChTraitsCRT@_W@ATL@@@@@ATL@@QAE@XZ ; ATL::CStringT<wchar_t,StrTraitMFC<wchar_t,ATL::ChTraitsCRT<wchar_t> > >::~CStringT<wchar_t,StrTraitMFC<wchar_t,ATL::ChTraitsCRT<wchar_t> > >
__unwindfunclet$??__EstrDeviceCmd@@YAXXZ$161:
  0064a	b9 84 02 00 00	 mov	 ecx, OFFSET _strDeviceCmd+644
  0064f	e9 00 00 00 00	 jmp	 ??1?$CStringT@_WV?$StrTraitMFC@_WV?$ChTraitsCRT@_W@ATL@@@@@ATL@@QAE@XZ ; ATL::CStringT<wchar_t,StrTraitMFC<wchar_t,ATL::ChTraitsCRT<wchar_t> > >::~CStringT<wchar_t,StrTraitMFC<wchar_t,ATL::ChTraitsCRT<wchar_t> > >
__unwindfunclet$??__EstrDeviceCmd@@YAXXZ$162:
  00654	b9 88 02 00 00	 mov	 ecx, OFFSET _strDeviceCmd+648
  00659	e9 00 00 00 00	 jmp	 ??1?$CStringT@_WV?$StrTraitMFC@_WV?$ChTraitsCRT@_W@ATL@@@@@ATL@@QAE@XZ ; ATL::CStringT<wchar_t,StrTraitMFC<wchar_t,ATL::ChTraitsCRT<wchar_t> > >::~CStringT<wchar_t,StrTraitMFC<wchar_t,ATL::ChTraitsCRT<wchar_t> > >
__unwindfunclet$??__EstrDeviceCmd@@YAXXZ$163:
  0065e	b9 8c 02 00 00	 mov	 ecx, OFFSET _strDeviceCmd+652
  00663	e9 00 00 00 00	 jmp	 ??1?$CStringT@_WV?$StrTraitMFC@_WV?$ChTraitsCRT@_W@ATL@@@@@ATL@@QAE@XZ ; ATL::CStringT<wchar_t,StrTraitMFC<wchar_t,ATL::ChTraitsCRT<wchar_t> > >::~CStringT<wchar_t,StrTraitMFC<wchar_t,ATL::ChTraitsCRT<wchar_t> > >
__unwindfunclet$??__EstrDeviceCmd@@YAXXZ$164:
  00668	b9 90 02 00 00	 mov	 ecx, OFFSET _strDeviceCmd+656
  0066d	e9 00 00 00 00	 jmp	 ??1?$CStringT@_WV?$StrTraitMFC@_WV?$ChTraitsCRT@_W@ATL@@@@@ATL@@QAE@XZ ; ATL::CStringT<wchar_t,StrTraitMFC<wchar_t,ATL::ChTraitsCRT<wchar_t> > >::~CStringT<wchar_t,StrTraitMFC<wchar_t,ATL::ChTraitsCRT<wchar_t> > >
__unwindfunclet$??__EstrDeviceCmd@@YAXXZ$165:
  00672	b9 94 02 00 00	 mov	 ecx, OFFSET _strDeviceCmd+660
  00677	e9 00 00 00 00	 jmp	 ??1?$CStringT@_WV?$StrTraitMFC@_WV?$ChTraitsCRT@_W@ATL@@@@@ATL@@QAE@XZ ; ATL::CStringT<wchar_t,StrTraitMFC<wchar_t,ATL::ChTraitsCRT<wchar_t> > >::~CStringT<wchar_t,StrTraitMFC<wchar_t,ATL::ChTraitsCRT<wchar_t> > >
__unwindfunclet$??__EstrDeviceCmd@@YAXXZ$166:
  0067c	b9 98 02 00 00	 mov	 ecx, OFFSET _strDeviceCmd+664
  00681	e9 00 00 00 00	 jmp	 ??1?$CStringT@_WV?$StrTraitMFC@_WV?$ChTraitsCRT@_W@ATL@@@@@ATL@@QAE@XZ ; ATL::CStringT<wchar_t,StrTraitMFC<wchar_t,ATL::ChTraitsCRT<wchar_t> > >::~CStringT<wchar_t,StrTraitMFC<wchar_t,ATL::ChTraitsCRT<wchar_t> > >
__unwindfunclet$??__EstrDeviceCmd@@YAXXZ$167:
  00686	b9 9c 02 00 00	 mov	 ecx, OFFSET _strDeviceCmd+668
  0068b	e9 00 00 00 00	 jmp	 ??1?$CStringT@_WV?$StrTraitMFC@_WV?$ChTraitsCRT@_W@ATL@@@@@ATL@@QAE@XZ ; ATL::CStringT<wchar_t,StrTraitMFC<wchar_t,ATL::ChTraitsCRT<wchar_t> > >::~CStringT<wchar_t,StrTraitMFC<wchar_t,ATL::ChTraitsCRT<wchar_t> > >
__unwindfunclet$??__EstrDeviceCmd@@YAXXZ$168:
  00690	b9 a0 02 00 00	 mov	 ecx, OFFSET _strDeviceCmd+672
  00695	e9 00 00 00 00	 jmp	 ??1?$CStringT@_WV?$StrTraitMFC@_WV?$ChTraitsCRT@_W@ATL@@@@@ATL@@QAE@XZ ; ATL::CStringT<wchar_t,StrTraitMFC<wchar_t,ATL::ChTraitsCRT<wchar_t> > >::~CStringT<wchar_t,StrTraitMFC<wchar_t,ATL::ChTraitsCRT<wchar_t> > >
__unwindfunclet$??__EstrDeviceCmd@@YAXXZ$169:
  0069a	b9 a4 02 00 00	 mov	 ecx, OFFSET _strDeviceCmd+676
  0069f	e9 00 00 00 00	 jmp	 ??1?$CStringT@_WV?$StrTraitMFC@_WV?$ChTraitsCRT@_W@ATL@@@@@ATL@@QAE@XZ ; ATL::CStringT<wchar_t,StrTraitMFC<wchar_t,ATL::ChTraitsCRT<wchar_t> > >::~CStringT<wchar_t,StrTraitMFC<wchar_t,ATL::ChTraitsCRT<wchar_t> > >
__unwindfunclet$??__EstrDeviceCmd@@YAXXZ$170:
  006a4	b9 a8 02 00 00	 mov	 ecx, OFFSET _strDeviceCmd+680
  006a9	e9 00 00 00 00	 jmp	 ??1?$CStringT@_WV?$StrTraitMFC@_WV?$ChTraitsCRT@_W@ATL@@@@@ATL@@QAE@XZ ; ATL::CStringT<wchar_t,StrTraitMFC<wchar_t,ATL::ChTraitsCRT<wchar_t> > >::~CStringT<wchar_t,StrTraitMFC<wchar_t,ATL::ChTraitsCRT<wchar_t> > >
__unwindfunclet$??__EstrDeviceCmd@@YAXXZ$171:
  006ae	b9 ac 02 00 00	 mov	 ecx, OFFSET _strDeviceCmd+684
  006b3	e9 00 00 00 00	 jmp	 ??1?$CStringT@_WV?$StrTraitMFC@_WV?$ChTraitsCRT@_W@ATL@@@@@ATL@@QAE@XZ ; ATL::CStringT<wchar_t,StrTraitMFC<wchar_t,ATL::ChTraitsCRT<wchar_t> > >::~CStringT<wchar_t,StrTraitMFC<wchar_t,ATL::ChTraitsCRT<wchar_t> > >
__unwindfunclet$??__EstrDeviceCmd@@YAXXZ$172:
  006b8	b9 b0 02 00 00	 mov	 ecx, OFFSET _strDeviceCmd+688
  006bd	e9 00 00 00 00	 jmp	 ??1?$CStringT@_WV?$StrTraitMFC@_WV?$ChTraitsCRT@_W@ATL@@@@@ATL@@QAE@XZ ; ATL::CStringT<wchar_t,StrTraitMFC<wchar_t,ATL::ChTraitsCRT<wchar_t> > >::~CStringT<wchar_t,StrTraitMFC<wchar_t,ATL::ChTraitsCRT<wchar_t> > >
__unwindfunclet$??__EstrDeviceCmd@@YAXXZ$173:
  006c2	b9 b4 02 00 00	 mov	 ecx, OFFSET _strDeviceCmd+692
  006c7	e9 00 00 00 00	 jmp	 ??1?$CStringT@_WV?$StrTraitMFC@_WV?$ChTraitsCRT@_W@ATL@@@@@ATL@@QAE@XZ ; ATL::CStringT<wchar_t,StrTraitMFC<wchar_t,ATL::ChTraitsCRT<wchar_t> > >::~CStringT<wchar_t,StrTraitMFC<wchar_t,ATL::ChTraitsCRT<wchar_t> > >
__unwindfunclet$??__EstrDeviceCmd@@YAXXZ$174:
  006cc	b9 b8 02 00 00	 mov	 ecx, OFFSET _strDeviceCmd+696
  006d1	e9 00 00 00 00	 jmp	 ??1?$CStringT@_WV?$StrTraitMFC@_WV?$ChTraitsCRT@_W@ATL@@@@@ATL@@QAE@XZ ; ATL::CStringT<wchar_t,StrTraitMFC<wchar_t,ATL::ChTraitsCRT<wchar_t> > >::~CStringT<wchar_t,StrTraitMFC<wchar_t,ATL::ChTraitsCRT<wchar_t> > >
__unwindfunclet$??__EstrDeviceCmd@@YAXXZ$175:
  006d6	b9 bc 02 00 00	 mov	 ecx, OFFSET _strDeviceCmd+700
  006db	e9 00 00 00 00	 jmp	 ??1?$CStringT@_WV?$StrTraitMFC@_WV?$ChTraitsCRT@_W@ATL@@@@@ATL@@QAE@XZ ; ATL::CStringT<wchar_t,StrTraitMFC<wchar_t,ATL::ChTraitsCRT<wchar_t> > >::~CStringT<wchar_t,StrTraitMFC<wchar_t,ATL::ChTraitsCRT<wchar_t> > >
__unwindfunclet$??__EstrDeviceCmd@@YAXXZ$176:
  006e0	b9 c0 02 00 00	 mov	 ecx, OFFSET _strDeviceCmd+704
  006e5	e9 00 00 00 00	 jmp	 ??1?$CStringT@_WV?$StrTraitMFC@_WV?$ChTraitsCRT@_W@ATL@@@@@ATL@@QAE@XZ ; ATL::CStringT<wchar_t,StrTraitMFC<wchar_t,ATL::ChTraitsCRT<wchar_t> > >::~CStringT<wchar_t,StrTraitMFC<wchar_t,ATL::ChTraitsCRT<wchar_t> > >
__unwindfunclet$??__EstrDeviceCmd@@YAXXZ$177:
  006ea	b9 c4 02 00 00	 mov	 ecx, OFFSET _strDeviceCmd+708
  006ef	e9 00 00 00 00	 jmp	 ??1?$CStringT@_WV?$StrTraitMFC@_WV?$ChTraitsCRT@_W@ATL@@@@@ATL@@QAE@XZ ; ATL::CStringT<wchar_t,StrTraitMFC<wchar_t,ATL::ChTraitsCRT<wchar_t> > >::~CStringT<wchar_t,StrTraitMFC<wchar_t,ATL::ChTraitsCRT<wchar_t> > >
__ehhandler$??__EstrDeviceCmd@@YAXXZ:
  006f4	8b 54 24 08	 mov	 edx, DWORD PTR [esp+8]
  006f8	8d 42 0c	 lea	 eax, DWORD PTR [edx+12]
  006fb	8b 8a 30 ff ff
	ff		 mov	 ecx, DWORD PTR [edx-208]
  00701	33 c8		 xor	 ecx, eax
  00703	e8 00 00 00 00	 call	 @__security_check_cookie@4
  00708	b8 00 00 00 00	 mov	 eax, OFFSET __ehfuncinfo$??__EstrDeviceCmd@@YAXXZ
  0070d	e9 00 00 00 00	 jmp	 ___CxxFrameHandler3
text$x	ENDS
??__EstrDeviceCmd@@YAXXZ ENDP				; `dynamic initializer for 'strDeviceCmd''
; Function compile flags: /Odtp /RTCsu /ZI
; File e:\cz\vs\dvicectrldlg_new_signal_1\dvicectrldlg.cpp
;	COMDAT ??__EtheApp@@YAXXZ
text$yc	SEGMENT
??__EtheApp@@YAXXZ PROC					; `dynamic initializer for 'theApp'', COMDAT

  00000	55		 push	 ebp
  00001	8b ec		 mov	 ebp, esp
  00003	81 ec c0 00 00
	00		 sub	 esp, 192		; 000000c0H
  00009	53		 push	 ebx
  0000a	56		 push	 esi
  0000b	57		 push	 edi
  0000c	8d bd 40 ff ff
	ff		 lea	 edi, DWORD PTR [ebp-192]
  00012	b9 30 00 00 00	 mov	 ecx, 48			; 00000030H
  00017	b8 cc cc cc cc	 mov	 eax, -858993460		; ccccccccH
  0001c	f3 ab		 rep stosd
  0001e	b9 00 00 00 00	 mov	 ecx, OFFSET ?theApp@@3VCDviceCtrlDlgApp@@A ; theApp
  00023	e8 00 00 00 00	 call	 ??0CDviceCtrlDlgApp@@QAE@XZ ; CDviceCtrlDlgApp::CDviceCtrlDlgApp
  00028	68 00 00 00 00	 push	 OFFSET ??__FtheApp@@YAXXZ ; `dynamic atexit destructor for 'theApp''
  0002d	e8 00 00 00 00	 call	 _atexit
  00032	83 c4 04	 add	 esp, 4
  00035	5f		 pop	 edi
  00036	5e		 pop	 esi
  00037	5b		 pop	 ebx
  00038	81 c4 c0 00 00
	00		 add	 esp, 192		; 000000c0H
  0003e	3b ec		 cmp	 ebp, esp
  00040	e8 00 00 00 00	 call	 __RTC_CheckEsp
  00045	8b e5		 mov	 esp, ebp
  00047	5d		 pop	 ebp
  00048	c3		 ret	 0
??__EtheApp@@YAXXZ ENDP					; `dynamic initializer for 'theApp''
text$yc	ENDS
EXTRN	??_M@YGXPAXIHP6EX0@Z@Z:PROC			; `eh vector destructor iterator'
; Function compile flags: /Odtp /RTCsu /ZI
;	COMDAT ??__FstrDeviceDescription@@YAXXZ
text$yd	SEGMENT
??__FstrDeviceDescription@@YAXXZ PROC			; `dynamic atexit destructor for 'strDeviceDescription'', COMDAT
  00000	55		 push	 ebp
  00001	8b ec		 mov	 ebp, esp
  00003	81 ec c0 00 00
	00		 sub	 esp, 192		; 000000c0H
  00009	53		 push	 ebx
  0000a	56		 push	 esi
  0000b	57		 push	 edi
  0000c	8d bd 40 ff ff
	ff		 lea	 edi, DWORD PTR [ebp-192]
  00012	b9 30 00 00 00	 mov	 ecx, 48			; 00000030H
  00017	b8 cc cc cc cc	 mov	 eax, -858993460		; ccccccccH
  0001c	f3 ab		 rep stosd
  0001e	68 00 00 00 00	 push	 OFFSET ??1?$CStringT@_WV?$StrTraitMFC@_WV?$ChTraitsCRT@_W@ATL@@@@@ATL@@QAE@XZ ; ATL::CStringT<wchar_t,StrTraitMFC<wchar_t,ATL::ChTraitsCRT<wchar_t> > >::~CStringT<wchar_t,StrTraitMFC<wchar_t,ATL::ChTraitsCRT<wchar_t> > >
  00023	68 b3 00 00 00	 push	 179			; 000000b3H
  00028	6a 04		 push	 4
  0002a	68 00 00 00 00	 push	 OFFSET _strDeviceDescription
  0002f	e8 00 00 00 00	 call	 ??_M@YGXPAXIHP6EX0@Z@Z
  00034	5f		 pop	 edi
  00035	5e		 pop	 esi
  00036	5b		 pop	 ebx
  00037	81 c4 c0 00 00
	00		 add	 esp, 192		; 000000c0H
  0003d	3b ec		 cmp	 ebp, esp
  0003f	e8 00 00 00 00	 call	 __RTC_CheckEsp
  00044	8b e5		 mov	 esp, ebp
  00046	5d		 pop	 ebp
  00047	c3		 ret	 0
??__FstrDeviceDescription@@YAXXZ ENDP			; `dynamic atexit destructor for 'strDeviceDescription''
; Function compile flags: /Odtp /RTCsu /ZI
text$yd	ENDS
;	COMDAT ??__FstrDeviceCmd@@YAXXZ
text$yd	SEGMENT
??__FstrDeviceCmd@@YAXXZ PROC				; `dynamic atexit destructor for 'strDeviceCmd'', COMDAT
  00000	55		 push	 ebp
  00001	8b ec		 mov	 ebp, esp
  00003	81 ec c0 00 00
	00		 sub	 esp, 192		; 000000c0H
  00009	53		 push	 ebx
  0000a	56		 push	 esi
  0000b	57		 push	 edi
  0000c	8d bd 40 ff ff
	ff		 lea	 edi, DWORD PTR [ebp-192]
  00012	b9 30 00 00 00	 mov	 ecx, 48			; 00000030H
  00017	b8 cc cc cc cc	 mov	 eax, -858993460		; ccccccccH
  0001c	f3 ab		 rep stosd
  0001e	68 00 00 00 00	 push	 OFFSET ??1?$CStringT@_WV?$StrTraitMFC@_WV?$ChTraitsCRT@_W@ATL@@@@@ATL@@QAE@XZ ; ATL::CStringT<wchar_t,StrTraitMFC<wchar_t,ATL::ChTraitsCRT<wchar_t> > >::~CStringT<wchar_t,StrTraitMFC<wchar_t,ATL::ChTraitsCRT<wchar_t> > >
  00023	68 b3 00 00 00	 push	 179			; 000000b3H
  00028	6a 04		 push	 4
  0002a	68 00 00 00 00	 push	 OFFSET _strDeviceCmd
  0002f	e8 00 00 00 00	 call	 ??_M@YGXPAXIHP6EX0@Z@Z
  00034	5f		 pop	 edi
  00035	5e		 pop	 esi
  00036	5b		 pop	 ebx
  00037	81 c4 c0 00 00
	00		 add	 esp, 192		; 000000c0H
  0003d	3b ec		 cmp	 ebp, esp
  0003f	e8 00 00 00 00	 call	 __RTC_CheckEsp
  00044	8b e5		 mov	 esp, ebp
  00046	5d		 pop	 ebp
  00047	c3		 ret	 0
??__FstrDeviceCmd@@YAXXZ ENDP				; `dynamic atexit destructor for 'strDeviceCmd''
; Function compile flags: /Odtp /RTCsu /ZI
text$yd	ENDS
;	COMDAT ??__FtheApp@@YAXXZ
text$yd	SEGMENT
??__FtheApp@@YAXXZ PROC					; `dynamic atexit destructor for 'theApp'', COMDAT
  00000	55		 push	 ebp
  00001	8b ec		 mov	 ebp, esp
  00003	81 ec c0 00 00
	00		 sub	 esp, 192		; 000000c0H
  00009	53		 push	 ebx
  0000a	56		 push	 esi
  0000b	57		 push	 edi
  0000c	8d bd 40 ff ff
	ff		 lea	 edi, DWORD PTR [ebp-192]
  00012	b9 30 00 00 00	 mov	 ecx, 48			; 00000030H
  00017	b8 cc cc cc cc	 mov	 eax, -858993460		; ccccccccH
  0001c	f3 ab		 rep stosd
  0001e	b9 00 00 00 00	 mov	 ecx, OFFSET ?theApp@@3VCDviceCtrlDlgApp@@A ; theApp
  00023	e8 00 00 00 00	 call	 ??1CDviceCtrlDlgApp@@UAE@XZ
  00028	5f		 pop	 edi
  00029	5e		 pop	 esi
  0002a	5b		 pop	 ebx
  0002b	81 c4 c0 00 00
	00		 add	 esp, 192		; 000000c0H
  00031	3b ec		 cmp	 ebp, esp
  00033	e8 00 00 00 00	 call	 __RTC_CheckEsp
  00038	8b e5		 mov	 esp, ebp
  0003a	5d		 pop	 ebp
  0003b	c3		 ret	 0
??__FtheApp@@YAXXZ ENDP					; `dynamic atexit destructor for 'theApp''
text$yd	ENDS
PUBLIC	?theApp@@3VCDviceCtrlDlgApp@@A			; theApp
_BSS	SEGMENT
?theApp@@3VCDviceCtrlDlgApp@@A DB 0fcH DUP (?)		; theApp
_strDeviceCmd DD 0b3H DUP (?)
_strDeviceDescription DD 0b3H DUP (?)
_BSS	ENDS
CRT$XCU	SEGMENT
_strDeviceDescription$initializer$ DD FLAT:??__EstrDeviceDescription@@YAXXZ
_strDeviceCmd$initializer$ DD FLAT:??__EstrDeviceCmd@@YAXXZ
_theApp$initializer$ DD FLAT:??__EtheApp@@YAXXZ
CRT$XCU	ENDS
END
