; Listing generated by Microsoft (R) Optimizing Compiler Version 16.00.30319.01 

	TITLE	E:\cz\VS\DviceCtrlDlg_new_signal_1\DviceCtrlDlgDlg.cpp
	.686P
	.XMM
	include listing.inc
	.model	flat

INCLUDELIB LIBCMTD
INCLUDELIB OLDNAMES

PUBLIC	?OnBnClickedCamerakey@CDviceCtrlDlgDlg@@QAEXXZ	; CDviceCtrlDlgDlg::OnBnClickedCamerakey
PUBLIC	?OnBnClickedRadio4@CDviceCtrlDlgDlg@@QAEXXZ	; CDviceCtrlDlgDlg::OnBnClickedRadio4
PUBLIC	?OnBnClickedRadio3@CDviceCtrlDlgDlg@@QAEXXZ	; CDviceCtrlDlgDlg::OnBnClickedRadio3
PUBLIC	?OnBnClickedRadio2@CDviceCtrlDlgDlg@@QAEXXZ	; CDviceCtrlDlgDlg::OnBnClickedRadio2
PUBLIC	?OnBnClickedButton8@CDviceCtrlDlgDlg@@QAEXXZ	; CDviceCtrlDlgDlg::OnBnClickedButton8
PUBLIC	?OnBnClickedButton7@CDviceCtrlDlgDlg@@QAEXXZ	; CDviceCtrlDlgDlg::OnBnClickedButton7
PUBLIC	?OnBnClickedButton6@CDviceCtrlDlgDlg@@QAEXXZ	; CDviceCtrlDlgDlg::OnBnClickedButton6
PUBLIC	?OnBnClickedButton5@CDviceCtrlDlgDlg@@QAEXXZ	; CDviceCtrlDlgDlg::OnBnClickedButton5
PUBLIC	?OnBnClickedRadio1@CDviceCtrlDlgDlg@@QAEXXZ	; CDviceCtrlDlgDlg::OnBnClickedRadio1
PUBLIC	?OnBnClickedCalloff@CDviceCtrlDlgDlg@@QAEXXZ	; CDviceCtrlDlgDlg::OnBnClickedCalloff
PUBLIC	?OnBnClickedFiashlightStart@CDviceCtrlDlgDlg@@QAEXXZ ; CDviceCtrlDlgDlg::OnBnClickedFiashlightStart
PUBLIC	?OnBnClickedBacklightStart@CDviceCtrlDlgDlg@@QAEXXZ ; CDviceCtrlDlgDlg::OnBnClickedBacklightStart
PUBLIC	?OnBnClickedGravity@CDviceCtrlDlgDlg@@QAEXXZ	; CDviceCtrlDlgDlg::OnBnClickedGravity
PUBLIC	?OnBnClickedInputSpk2@CDviceCtrlDlgDlg@@QAEXXZ	; CDviceCtrlDlgDlg::OnBnClickedInputSpk2
PUBLIC	?OnBnClickedResetport@CDviceCtrlDlgDlg@@QAEXXZ	; CDviceCtrlDlgDlg::OnBnClickedResetport
PUBLIC	?OnBnClickedCamerapower@CDviceCtrlDlgDlg@@QAEXXZ ; CDviceCtrlDlgDlg::OnBnClickedCamerapower
PUBLIC	?OnBnClickedHall@CDviceCtrlDlgDlg@@QAEXXZ	; CDviceCtrlDlgDlg::OnBnClickedHall
PUBLIC	?OnBnClickedOlddevctrl@CDviceCtrlDlgDlg@@QAEXXZ	; CDviceCtrlDlgDlg::OnBnClickedOlddevctrl
PUBLIC	?OnBnClickedWhitelightsource@CDviceCtrlDlgDlg@@QAEXXZ ; CDviceCtrlDlgDlg::OnBnClickedWhitelightsource
PUBLIC	?OnBnClickedColorlightsource@CDviceCtrlDlgDlg@@QAEXXZ ; CDviceCtrlDlgDlg::OnBnClickedColorlightsource
PUBLIC	?OnBnClickedRand@CDviceCtrlDlgDlg@@QAEXXZ	; CDviceCtrlDlgDlg::OnBnClickedRand
PUBLIC	?OnBnClickedCir@CDviceCtrlDlgDlg@@QAEXXZ	; CDviceCtrlDlgDlg::OnBnClickedCir
PUBLIC	?OnBnClickedUsbPower@CDviceCtrlDlgDlg@@QAEXXZ	; CDviceCtrlDlgDlg::OnBnClickedUsbPower
PUBLIC	?OnBnClickedFixture@CDviceCtrlDlgDlg@@QAEXXZ	; CDviceCtrlDlgDlg::OnBnClickedFixture
PUBLIC	?OnBnClickedLedRead@CDviceCtrlDlgDlg@@QAEXXZ	; CDviceCtrlDlgDlg::OnBnClickedLedRead
PUBLIC	?OnBnClickedLedOpen@CDviceCtrlDlgDlg@@QAEXXZ	; CDviceCtrlDlgDlg::OnBnClickedLedOpen
PUBLIC	?OnBnClickedScreenRead@CDviceCtrlDlgDlg@@QAEXXZ	; CDviceCtrlDlgDlg::OnBnClickedScreenRead
PUBLIC	?OnBnClickedScreenOpen@CDviceCtrlDlgDlg@@QAEXXZ	; CDviceCtrlDlgDlg::OnBnClickedScreenOpen
PUBLIC	?OnBnClickedRedLed@CDviceCtrlDlgDlg@@QAEXXZ	; CDviceCtrlDlgDlg::OnBnClickedRedLed
PUBLIC	?OnBnClickedGreenLed@CDviceCtrlDlgDlg@@QAEXXZ	; CDviceCtrlDlgDlg::OnBnClickedGreenLed
PUBLIC	?OnBnClickedBlueLed@CDviceCtrlDlgDlg@@QAEXXZ	; CDviceCtrlDlgDlg::OnBnClickedBlueLed
PUBLIC	?OnBnClickedRedScreen@CDviceCtrlDlgDlg@@QAEXXZ	; CDviceCtrlDlgDlg::OnBnClickedRedScreen
PUBLIC	?OnBnClickedGreenScreen@CDviceCtrlDlgDlg@@QAEXXZ ; CDviceCtrlDlgDlg::OnBnClickedGreenScreen
PUBLIC	?OnBnClickedBlueScreen@CDviceCtrlDlgDlg@@QAEXXZ	; CDviceCtrlDlgDlg::OnBnClickedBlueScreen
PUBLIC	?OnBnClickedOtgReset@CDviceCtrlDlgDlg@@QAEXXZ	; CDviceCtrlDlgDlg::OnBnClickedOtgReset
PUBLIC	?OnBnClickedOtgCheck@CDviceCtrlDlgDlg@@QAEXXZ	; CDviceCtrlDlgDlg::OnBnClickedOtgCheck
PUBLIC	?OnBnClickedAdValueCheck@CDviceCtrlDlgDlg@@QAEXXZ ; CDviceCtrlDlgDlg::OnBnClickedAdValueCheck
PUBLIC	?OnBnClickedOtgLevelCheck@CDviceCtrlDlgDlg@@QAEXXZ ; CDviceCtrlDlgDlg::OnBnClickedOtgLevelCheck
PUBLIC	?OnBnClickedKeyUpMode@CDviceCtrlDlgDlg@@QAEXXZ	; CDviceCtrlDlgDlg::OnBnClickedKeyUpMode
PUBLIC	?OnBnClickedTouch5@CDviceCtrlDlgDlg@@QAEXXZ	; CDviceCtrlDlgDlg::OnBnClickedTouch5
PUBLIC	?OnBnClickedTouch4@CDviceCtrlDlgDlg@@QAEXXZ	; CDviceCtrlDlgDlg::OnBnClickedTouch4
PUBLIC	?OnBnClickedTouch3@CDviceCtrlDlgDlg@@QAEXXZ	; CDviceCtrlDlgDlg::OnBnClickedTouch3
PUBLIC	?OnBnClickedTouch2@CDviceCtrlDlgDlg@@QAEXXZ	; CDviceCtrlDlgDlg::OnBnClickedTouch2
PUBLIC	?OnBnClickedTouch1@CDviceCtrlDlgDlg@@QAEXXZ	; CDviceCtrlDlgDlg::OnBnClickedTouch1
PUBLIC	?OnBnClickedVirtualKey3@CDviceCtrlDlgDlg@@QAEXXZ ; CDviceCtrlDlgDlg::OnBnClickedVirtualKey3
PUBLIC	?OnBnClickedVirtualKey2@CDviceCtrlDlgDlg@@QAEXXZ ; CDviceCtrlDlgDlg::OnBnClickedVirtualKey2
PUBLIC	?OnBnClickedVirtualKey1@CDviceCtrlDlgDlg@@QAEXXZ ; CDviceCtrlDlgDlg::OnBnClickedVirtualKey1
PUBLIC	?OnBnClickedVolumeDecrease@CDviceCtrlDlgDlg@@QAEXXZ ; CDviceCtrlDlgDlg::OnBnClickedVolumeDecrease
PUBLIC	?OnBnClickedVolumeIncrease@CDviceCtrlDlgDlg@@QAEXXZ ; CDviceCtrlDlgDlg::OnBnClickedVolumeIncrease
PUBLIC	?OnBnClickedPower@CDviceCtrlDlgDlg@@QAEXXZ	; CDviceCtrlDlgDlg::OnBnClickedPower
PUBLIC	?OnTimer@CDviceCtrlDlgDlg@@QAEXI@Z		; CDviceCtrlDlgDlg::OnTimer
PUBLIC	?OnNMReleasedcaptureAdjustVoltage@CDviceCtrlDlgDlg@@QAEXPAUtagNMHDR@@PAJ@Z ; CDviceCtrlDlgDlg::OnNMReleasedcaptureAdjustVoltage
PUBLIC	?OnBnClickedRotateStop@CDviceCtrlDlgDlg@@QAEXXZ	; CDviceCtrlDlgDlg::OnBnClickedRotateStop
PUBLIC	?OnBnClickedMagneticRotateMagnetic@CDviceCtrlDlgDlg@@QAEXXZ ; CDviceCtrlDlgDlg::OnBnClickedMagneticRotateMagnetic
PUBLIC	?OnBnClickedGSensor@CDviceCtrlDlgDlg@@QAEXXZ	; CDviceCtrlDlgDlg::OnBnClickedGSensor
PUBLIC	?OnNMCustomdrawAdjustVoltage@CDviceCtrlDlgDlg@@QAEXPAUtagNMHDR@@PAJ@Z ; CDviceCtrlDlgDlg::OnNMCustomdrawAdjustVoltage
PUBLIC	?OnBnClicked5vPower@CDviceCtrlDlgDlg@@QAEXXZ	; CDviceCtrlDlgDlg::OnBnClicked5vPower
PUBLIC	?OnBnClickedEpCtrl@CDviceCtrlDlgDlg@@QAEXXZ	; CDviceCtrlDlgDlg::OnBnClickedEpCtrl
PUBLIC	?OnBnClickedClampCtrl@CDviceCtrlDlgDlg@@QAEXXZ	; CDviceCtrlDlgDlg::OnBnClickedClampCtrl
PUBLIC	?OnBnClickedBoxClose@CDviceCtrlDlgDlg@@QAEXXZ	; CDviceCtrlDlgDlg::OnBnClickedBoxClose
PUBLIC	?OnBnClickedBoxOpen@CDviceCtrlDlgDlg@@QAEXXZ	; CDviceCtrlDlgDlg::OnBnClickedBoxOpen
PUBLIC	?OnBnClickedReset@CDviceCtrlDlgDlg@@QAEXXZ	; CDviceCtrlDlgDlg::OnBnClickedReset
PUBLIC	?OnBnClickedLed2@CDviceCtrlDlgDlg@@QAEXXZ	; CDviceCtrlDlgDlg::OnBnClickedLed2
PUBLIC	?OnBnClickedLed1@CDviceCtrlDlgDlg@@QAEXXZ	; CDviceCtrlDlgDlg::OnBnClickedLed1
PUBLIC	?OnBnClickedLightSource2@CDviceCtrlDlgDlg@@QAEXXZ ; CDviceCtrlDlgDlg::OnBnClickedLightSource2
PUBLIC	?OnBnClickedLightSource1@CDviceCtrlDlgDlg@@QAEXXZ ; CDviceCtrlDlgDlg::OnBnClickedLightSource1
PUBLIC	?OnBnClickedLevelCheck2@CDviceCtrlDlgDlg@@QAEXXZ ; CDviceCtrlDlgDlg::OnBnClickedLevelCheck2
PUBLIC	?OnBnClickedLevelCheck1@CDviceCtrlDlgDlg@@QAEXXZ ; CDviceCtrlDlgDlg::OnBnClickedLevelCheck1
PUBLIC	?OnBnClickedDeviceReadyCheck@CDviceCtrlDlgDlg@@QAEXXZ ; CDviceCtrlDlgDlg::OnBnClickedDeviceReadyCheck
PUBLIC	?OnBnClickedProductReadyCheck@CDviceCtrlDlgDlg@@QAEXXZ ; CDviceCtrlDlgDlg::OnBnClickedProductReadyCheck
PUBLIC	?OnBnClickedFiashlightDetect@CDviceCtrlDlgDlg@@QAEXXZ ; CDviceCtrlDlgDlg::OnBnClickedFiashlightDetect
PUBLIC	?OnBnClickedBacklightDetect@CDviceCtrlDlgDlg@@QAEXXZ ; CDviceCtrlDlgDlg::OnBnClickedBacklightDetect
PUBLIC	?OnBnClickedOutputClose@CDviceCtrlDlgDlg@@QAEXXZ ; CDviceCtrlDlgDlg::OnBnClickedOutputClose
PUBLIC	?OnBnClickedOutputEarMic@CDviceCtrlDlgDlg@@QAEXXZ ; CDviceCtrlDlgDlg::OnBnClickedOutputEarMic
PUBLIC	?OnBnClickedOutputMic@CDviceCtrlDlgDlg@@QAEXXZ	; CDviceCtrlDlgDlg::OnBnClickedOutputMic
PUBLIC	?OnBnClickedInputClose@CDviceCtrlDlgDlg@@QAEXXZ	; CDviceCtrlDlgDlg::OnBnClickedInputClose
PUBLIC	?OnBnClickedInputVib@CDviceCtrlDlgDlg@@QAEXXZ	; CDviceCtrlDlgDlg::OnBnClickedInputVib
PUBLIC	?OnBnClickedInputEarR@CDviceCtrlDlgDlg@@QAEXXZ	; CDviceCtrlDlgDlg::OnBnClickedInputEarR
PUBLIC	?OnBnClickedInputRec@CDviceCtrlDlgDlg@@QAEXXZ	; CDviceCtrlDlgDlg::OnBnClickedInputRec
PUBLIC	?OnBnClickedInputSpk@CDviceCtrlDlgDlg@@QAEXXZ	; CDviceCtrlDlgDlg::OnBnClickedInputSpk
PUBLIC	?OnBnClickedInputEarL@CDviceCtrlDlgDlg@@QAEXXZ	; CDviceCtrlDlgDlg::OnBnClickedInputEarL
PUBLIC	?OnBnClickedCancel@CDviceCtrlDlgDlg@@QAEXXZ	; CDviceCtrlDlgDlg::OnBnClickedCancel
PUBLIC	?OnBnClickedOk@CDviceCtrlDlgDlg@@QAEXXZ		; CDviceCtrlDlgDlg::OnBnClickedOk
PUBLIC	?OnQueryDragIcon@CDviceCtrlDlgDlg@@IAEPAUHICON__@@XZ ; CDviceCtrlDlgDlg::OnQueryDragIcon
PUBLIC	?OnPaint@CDviceCtrlDlgDlg@@IAEXXZ		; CDviceCtrlDlgDlg::OnPaint
PUBLIC	?OnSysCommand@CDviceCtrlDlgDlg@@IAEXIJ@Z	; CDviceCtrlDlgDlg::OnSysCommand
PUBLIC	?has_denorm@_Num_base@std@@2W4float_denorm_style@2@B ; std::_Num_base::has_denorm
PUBLIC	?has_denorm_loss@_Num_base@std@@2_NB		; std::_Num_base::has_denorm_loss
PUBLIC	?has_infinity@_Num_base@std@@2_NB		; std::_Num_base::has_infinity
PUBLIC	?has_quiet_NaN@_Num_base@std@@2_NB		; std::_Num_base::has_quiet_NaN
PUBLIC	?has_signaling_NaN@_Num_base@std@@2_NB		; std::_Num_base::has_signaling_NaN
PUBLIC	?is_bounded@_Num_base@std@@2_NB			; std::_Num_base::is_bounded
PUBLIC	?is_exact@_Num_base@std@@2_NB			; std::_Num_base::is_exact
PUBLIC	?is_iec559@_Num_base@std@@2_NB			; std::_Num_base::is_iec559
PUBLIC	?is_integer@_Num_base@std@@2_NB			; std::_Num_base::is_integer
PUBLIC	?is_modulo@_Num_base@std@@2_NB			; std::_Num_base::is_modulo
PUBLIC	?is_signed@_Num_base@std@@2_NB			; std::_Num_base::is_signed
PUBLIC	?is_specialized@_Num_base@std@@2_NB		; std::_Num_base::is_specialized
PUBLIC	?tinyness_before@_Num_base@std@@2_NB		; std::_Num_base::tinyness_before
PUBLIC	?traps@_Num_base@std@@2_NB			; std::_Num_base::traps
PUBLIC	?round_style@_Num_base@std@@2W4float_round_style@2@B ; std::_Num_base::round_style
PUBLIC	?digits@_Num_base@std@@2HB			; std::_Num_base::digits
PUBLIC	?digits10@_Num_base@std@@2HB			; std::_Num_base::digits10
PUBLIC	?max_digits10@_Num_base@std@@2HB		; std::_Num_base::max_digits10
PUBLIC	?max_exponent@_Num_base@std@@2HB		; std::_Num_base::max_exponent
PUBLIC	?max_exponent10@_Num_base@std@@2HB		; std::_Num_base::max_exponent10
PUBLIC	?min_exponent@_Num_base@std@@2HB		; std::_Num_base::min_exponent
PUBLIC	?min_exponent10@_Num_base@std@@2HB		; std::_Num_base::min_exponent10
PUBLIC	?radix@_Num_base@std@@2HB			; std::_Num_base::radix
PUBLIC	?is_bounded@_Num_int_base@std@@2_NB		; std::_Num_int_base::is_bounded
PUBLIC	?is_exact@_Num_int_base@std@@2_NB		; std::_Num_int_base::is_exact
PUBLIC	?is_integer@_Num_int_base@std@@2_NB		; std::_Num_int_base::is_integer
PUBLIC	?is_modulo@_Num_int_base@std@@2_NB		; std::_Num_int_base::is_modulo
PUBLIC	?is_specialized@_Num_int_base@std@@2_NB		; std::_Num_int_base::is_specialized
PUBLIC	?radix@_Num_int_base@std@@2HB			; std::_Num_int_base::radix
PUBLIC	?has_denorm@_Num_float_base@std@@2W4float_denorm_style@2@B ; std::_Num_float_base::has_denorm
PUBLIC	?has_denorm_loss@_Num_float_base@std@@2_NB	; std::_Num_float_base::has_denorm_loss
PUBLIC	?has_infinity@_Num_float_base@std@@2_NB		; std::_Num_float_base::has_infinity
PUBLIC	?has_quiet_NaN@_Num_float_base@std@@2_NB	; std::_Num_float_base::has_quiet_NaN
PUBLIC	?has_signaling_NaN@_Num_float_base@std@@2_NB	; std::_Num_float_base::has_signaling_NaN
PUBLIC	?is_bounded@_Num_float_base@std@@2_NB		; std::_Num_float_base::is_bounded
PUBLIC	?is_exact@_Num_float_base@std@@2_NB		; std::_Num_float_base::is_exact
PUBLIC	?is_iec559@_Num_float_base@std@@2_NB		; std::_Num_float_base::is_iec559
PUBLIC	?is_integer@_Num_float_base@std@@2_NB		; std::_Num_float_base::is_integer
PUBLIC	?is_modulo@_Num_float_base@std@@2_NB		; std::_Num_float_base::is_modulo
PUBLIC	?is_signed@_Num_float_base@std@@2_NB		; std::_Num_float_base::is_signed
PUBLIC	?is_specialized@_Num_float_base@std@@2_NB	; std::_Num_float_base::is_specialized
PUBLIC	?tinyness_before@_Num_float_base@std@@2_NB	; std::_Num_float_base::tinyness_before
PUBLIC	?traps@_Num_float_base@std@@2_NB		; std::_Num_float_base::traps
PUBLIC	?round_style@_Num_float_base@std@@2W4float_round_style@2@B ; std::_Num_float_base::round_style
PUBLIC	?radix@_Num_float_base@std@@2HB			; std::_Num_float_base::radix
PUBLIC	?is_signed@?$numeric_limits@D@std@@2_NB		; std::numeric_limits<char>::is_signed
PUBLIC	?digits@?$numeric_limits@D@std@@2HB		; std::numeric_limits<char>::digits
PUBLIC	?digits10@?$numeric_limits@D@std@@2HB		; std::numeric_limits<char>::digits10
PUBLIC	?max_digits10@?$numeric_limits@D@std@@2HB	; std::numeric_limits<char>::max_digits10
PUBLIC	?is_signed@?$numeric_limits@_W@std@@2_NB	; std::numeric_limits<wchar_t>::is_signed
PUBLIC	?digits@?$numeric_limits@_W@std@@2HB		; std::numeric_limits<wchar_t>::digits
PUBLIC	?digits10@?$numeric_limits@_W@std@@2HB		; std::numeric_limits<wchar_t>::digits10
PUBLIC	?max_digits10@?$numeric_limits@_W@std@@2HB	; std::numeric_limits<wchar_t>::max_digits10
PUBLIC	?is_modulo@?$numeric_limits@_N@std@@2_NB	; std::numeric_limits<bool>::is_modulo
PUBLIC	?is_signed@?$numeric_limits@_N@std@@2_NB	; std::numeric_limits<bool>::is_signed
PUBLIC	?digits@?$numeric_limits@_N@std@@2HB		; std::numeric_limits<bool>::digits
PUBLIC	?digits10@?$numeric_limits@_N@std@@2HB		; std::numeric_limits<bool>::digits10
PUBLIC	?max_digits10@?$numeric_limits@_N@std@@2HB	; std::numeric_limits<bool>::max_digits10
PUBLIC	?is_signed@?$numeric_limits@C@std@@2_NB		; std::numeric_limits<signed char>::is_signed
PUBLIC	?digits@?$numeric_limits@C@std@@2HB		; std::numeric_limits<signed char>::digits
PUBLIC	?digits10@?$numeric_limits@C@std@@2HB		; std::numeric_limits<signed char>::digits10
PUBLIC	?max_digits10@?$numeric_limits@C@std@@2HB	; std::numeric_limits<signed char>::max_digits10
PUBLIC	?is_signed@?$numeric_limits@E@std@@2_NB		; std::numeric_limits<unsigned char>::is_signed
PUBLIC	?digits@?$numeric_limits@E@std@@2HB		; std::numeric_limits<unsigned char>::digits
PUBLIC	?digits10@?$numeric_limits@E@std@@2HB		; std::numeric_limits<unsigned char>::digits10
PUBLIC	?max_digits10@?$numeric_limits@E@std@@2HB	; std::numeric_limits<unsigned char>::max_digits10
PUBLIC	?is_signed@?$numeric_limits@F@std@@2_NB		; std::numeric_limits<short>::is_signed
PUBLIC	?digits@?$numeric_limits@F@std@@2HB		; std::numeric_limits<short>::digits
PUBLIC	?digits10@?$numeric_limits@F@std@@2HB		; std::numeric_limits<short>::digits10
PUBLIC	?max_digits10@?$numeric_limits@F@std@@2HB	; std::numeric_limits<short>::max_digits10
PUBLIC	?is_signed@?$numeric_limits@G@std@@2_NB		; std::numeric_limits<unsigned short>::is_signed
PUBLIC	?digits@?$numeric_limits@G@std@@2HB		; std::numeric_limits<unsigned short>::digits
PUBLIC	?digits10@?$numeric_limits@G@std@@2HB		; std::numeric_limits<unsigned short>::digits10
PUBLIC	?max_digits10@?$numeric_limits@G@std@@2HB	; std::numeric_limits<unsigned short>::max_digits10
PUBLIC	?is_signed@?$numeric_limits@H@std@@2_NB		; std::numeric_limits<int>::is_signed
PUBLIC	?digits@?$numeric_limits@H@std@@2HB		; std::numeric_limits<int>::digits
PUBLIC	?digits10@?$numeric_limits@H@std@@2HB		; std::numeric_limits<int>::digits10
PUBLIC	?max_digits10@?$numeric_limits@H@std@@2HB	; std::numeric_limits<int>::max_digits10
PUBLIC	?is_signed@?$numeric_limits@I@std@@2_NB		; std::numeric_limits<unsigned int>::is_signed
PUBLIC	?digits@?$numeric_limits@I@std@@2HB		; std::numeric_limits<unsigned int>::digits
PUBLIC	?digits10@?$numeric_limits@I@std@@2HB		; std::numeric_limits<unsigned int>::digits10
PUBLIC	?max_digits10@?$numeric_limits@I@std@@2HB	; std::numeric_limits<unsigned int>::max_digits10
PUBLIC	?is_signed@?$numeric_limits@J@std@@2_NB		; std::numeric_limits<long>::is_signed
PUBLIC	?digits@?$numeric_limits@J@std@@2HB		; std::numeric_limits<long>::digits
PUBLIC	?digits10@?$numeric_limits@J@std@@2HB		; std::numeric_limits<long>::digits10
PUBLIC	?max_digits10@?$numeric_limits@J@std@@2HB	; std::numeric_limits<long>::max_digits10
PUBLIC	?is_signed@?$numeric_limits@K@std@@2_NB		; std::numeric_limits<unsigned long>::is_signed
PUBLIC	?digits@?$numeric_limits@K@std@@2HB		; std::numeric_limits<unsigned long>::digits
PUBLIC	?digits10@?$numeric_limits@K@std@@2HB		; std::numeric_limits<unsigned long>::digits10
PUBLIC	?max_digits10@?$numeric_limits@K@std@@2HB	; std::numeric_limits<unsigned long>::max_digits10
PUBLIC	?is_signed@?$numeric_limits@_J@std@@2_NB	; std::numeric_limits<__int64>::is_signed
PUBLIC	?digits@?$numeric_limits@_J@std@@2HB		; std::numeric_limits<__int64>::digits
PUBLIC	?digits10@?$numeric_limits@_J@std@@2HB		; std::numeric_limits<__int64>::digits10
PUBLIC	?max_digits10@?$numeric_limits@_J@std@@2HB	; std::numeric_limits<__int64>::max_digits10
PUBLIC	?is_signed@?$numeric_limits@_K@std@@2_NB	; std::numeric_limits<unsigned __int64>::is_signed
PUBLIC	?digits@?$numeric_limits@_K@std@@2HB		; std::numeric_limits<unsigned __int64>::digits
PUBLIC	?digits10@?$numeric_limits@_K@std@@2HB		; std::numeric_limits<unsigned __int64>::digits10
PUBLIC	?max_digits10@?$numeric_limits@_K@std@@2HB	; std::numeric_limits<unsigned __int64>::max_digits10
PUBLIC	?digits@?$numeric_limits@M@std@@2HB		; std::numeric_limits<float>::digits
PUBLIC	?digits10@?$numeric_limits@M@std@@2HB		; std::numeric_limits<float>::digits10
PUBLIC	?max_digits10@?$numeric_limits@M@std@@2HB	; std::numeric_limits<float>::max_digits10
PUBLIC	?max_exponent@?$numeric_limits@M@std@@2HB	; std::numeric_limits<float>::max_exponent
PUBLIC	?max_exponent10@?$numeric_limits@M@std@@2HB	; std::numeric_limits<float>::max_exponent10
PUBLIC	?min_exponent@?$numeric_limits@M@std@@2HB	; std::numeric_limits<float>::min_exponent
PUBLIC	?min_exponent10@?$numeric_limits@M@std@@2HB	; std::numeric_limits<float>::min_exponent10
PUBLIC	?digits@?$numeric_limits@N@std@@2HB		; std::numeric_limits<double>::digits
PUBLIC	?digits10@?$numeric_limits@N@std@@2HB		; std::numeric_limits<double>::digits10
PUBLIC	?max_digits10@?$numeric_limits@N@std@@2HB	; std::numeric_limits<double>::max_digits10
PUBLIC	?max_exponent@?$numeric_limits@N@std@@2HB	; std::numeric_limits<double>::max_exponent
PUBLIC	?max_exponent10@?$numeric_limits@N@std@@2HB	; std::numeric_limits<double>::max_exponent10
PUBLIC	?min_exponent@?$numeric_limits@N@std@@2HB	; std::numeric_limits<double>::min_exponent
PUBLIC	?min_exponent10@?$numeric_limits@N@std@@2HB	; std::numeric_limits<double>::min_exponent10
PUBLIC	?digits@?$numeric_limits@O@std@@2HB		; std::numeric_limits<long double>::digits
PUBLIC	?digits10@?$numeric_limits@O@std@@2HB		; std::numeric_limits<long double>::digits10
PUBLIC	?max_digits10@?$numeric_limits@O@std@@2HB	; std::numeric_limits<long double>::max_digits10
PUBLIC	?max_exponent@?$numeric_limits@O@std@@2HB	; std::numeric_limits<long double>::max_exponent
PUBLIC	?max_exponent10@?$numeric_limits@O@std@@2HB	; std::numeric_limits<long double>::max_exponent10
PUBLIC	?min_exponent@?$numeric_limits@O@std@@2HB	; std::numeric_limits<long double>::min_exponent
PUBLIC	?min_exponent10@?$numeric_limits@O@std@@2HB	; std::numeric_limits<long double>::min_exponent10
PUBLIC	?value@?$integral_constant@_N$0A@@tr1@std@@2_NB	; std::tr1::integral_constant<bool,0>::value
PUBLIC	?value@?$integral_constant@_N$00@tr1@std@@2_NB	; std::tr1::integral_constant<bool,1>::value
PUBLIC	?value@?$integral_constant@I$0A@@tr1@std@@2IB	; std::tr1::integral_constant<unsigned int,0>::value
PUBLIC	?_Rank@?$_Arithmetic_traits@_N@std@@2HB		; std::_Arithmetic_traits<bool>::_Rank
PUBLIC	?_Rank@?$_Arithmetic_traits@D@std@@2HB		; std::_Arithmetic_traits<char>::_Rank
PUBLIC	?_Rank@?$_Arithmetic_traits@C@std@@2HB		; std::_Arithmetic_traits<signed char>::_Rank
PUBLIC	?_Rank@?$_Arithmetic_traits@E@std@@2HB		; std::_Arithmetic_traits<unsigned char>::_Rank
PUBLIC	?_Rank@?$_Arithmetic_traits@F@std@@2HB		; std::_Arithmetic_traits<short>::_Rank
PUBLIC	?_Rank@?$_Arithmetic_traits@G@std@@2HB		; std::_Arithmetic_traits<unsigned short>::_Rank
PUBLIC	?_Rank@?$_Arithmetic_traits@H@std@@2HB		; std::_Arithmetic_traits<int>::_Rank
PUBLIC	?_Rank@?$_Arithmetic_traits@I@std@@2HB		; std::_Arithmetic_traits<unsigned int>::_Rank
PUBLIC	?_Rank@?$_Arithmetic_traits@J@std@@2HB		; std::_Arithmetic_traits<long>::_Rank
PUBLIC	?_Rank@?$_Arithmetic_traits@K@std@@2HB		; std::_Arithmetic_traits<unsigned long>::_Rank
PUBLIC	?_Rank@?$_Arithmetic_traits@_J@std@@2HB		; std::_Arithmetic_traits<__int64>::_Rank
PUBLIC	?_Rank@?$_Arithmetic_traits@_K@std@@2HB		; std::_Arithmetic_traits<unsigned __int64>::_Rank
PUBLIC	?_Rank@?$_Arithmetic_traits@M@std@@2HB		; std::_Arithmetic_traits<float>::_Rank
PUBLIC	?_Rank@?$_Arithmetic_traits@N@std@@2HB		; std::_Arithmetic_traits<double>::_Rank
PUBLIC	?_Rank@?$_Arithmetic_traits@O@std@@2HB		; std::_Arithmetic_traits<long double>::_Rank
PUBLIC	?hReceiveEvent@@3PAXA				; hReceiveEvent
EXTRN	?OnActivate@CWnd@@IAEXIPAV1@H@Z:PROC		; CWnd::OnActivate
EXTRN	?GetThisMessageMap@CDialog@@KGPBUAFX_MSGMAP@@XZ:PROC ; CDialog::GetThisMessageMap
_BSS	SEGMENT
?hReceiveEvent@@3PAXA DD 01H DUP (?)			; hReceiveEvent
_BSS	ENDS
_DATA	SEGMENT
_g_guidInterfaceUSB DD 04d36e978H
	DW	0e325H
	DW	011ceH
	DB	0bfH
	DB	0c1H
	DB	08H
	DB	00H
	DB	02bH
	DB	0e1H
	DB	03H
	DB	018H
_DATA	ENDS
CONST	SEGMENT
_g_cTagVCom DB	'U', 00H, 'S', 00H, 'B', 00H, ' ', 00H, 'S', 00H, 'e', 00H
	DB	'r', 00H, 'i', 00H, 'a', 00H, 'l', 00H, ' ', 00H, 'P', 00H, 'o'
	DB	00H, 'r', 00H, 't', 00H, 00H, 00H
?_messageEntries@?1??GetThisMessageMap@CAboutDlg@@KGPBUAFX_MSGMAP@@XZ@4QBUAFX_MSGMAP_ENTRY@@B DD 00H ; `CAboutDlg::GetThisMessageMap'::`2'::_messageEntries
	DD	00H
	DD	00H
	DD	00H
	DD	00H
	DD	00H
?messageMap@?1??GetThisMessageMap@CAboutDlg@@KGPBUAFX_MSGMAP@@XZ@4U3@B DD FLAT:?GetThisMessageMap@CDialog@@KGPBUAFX_MSGMAP@@XZ ; `CAboutDlg::GetThisMessageMap'::`2'::messageMap
	DD	FLAT:?_messageEntries@?1??GetThisMessageMap@CAboutDlg@@KGPBUAFX_MSGMAP@@XZ@4QBUAFX_MSGMAP_ENTRY@@B
?_messageEntries@?1??GetThisMessageMap@CDviceCtrlDlgDlg@@KGPBUAFX_MSGMAP@@XZ@4QBUAFX_MSGMAP_ENTRY@@B DD 0112H ; `CDviceCtrlDlgDlg::GetThisMessageMap'::`2'::_messageEntries
	DD	00H
	DD	00H
	DD	00H
	DD	01eH
	DD	FLAT:?OnSysCommand@CDviceCtrlDlgDlg@@IAEXIJ@Z
	DD	0fH
	DD	00H
	DD	00H
	DD	00H
	DD	013H
	DD	FLAT:?OnPaint@CDviceCtrlDlgDlg@@IAEXXZ
	DD	037H
	DD	00H
	DD	00H
	DD	00H
	DD	028H
	DD	FLAT:?OnQueryDragIcon@CDviceCtrlDlgDlg@@IAEPAUHICON__@@XZ
	DD	0111H
	DD	00H
	DD	01H
	DD	01H
	DD	039H
	DD	FLAT:?OnBnClickedOk@CDviceCtrlDlgDlg@@QAEXXZ
	DD	0111H
	DD	00H
	DD	02H
	DD	02H
	DD	039H
	DD	FLAT:?OnBnClickedCancel@CDviceCtrlDlgDlg@@QAEXXZ
	DD	0111H
	DD	00H
	DD	03feH
	DD	03feH
	DD	039H
	DD	FLAT:?OnBnClickedInputEarL@CDviceCtrlDlgDlg@@QAEXXZ
	DD	0111H
	DD	00H
	DD	03faH
	DD	03faH
	DD	039H
	DD	FLAT:?OnBnClickedInputSpk@CDviceCtrlDlgDlg@@QAEXXZ
	DD	0111H
	DD	00H
	DD	03fdH
	DD	03fdH
	DD	039H
	DD	FLAT:?OnBnClickedInputRec@CDviceCtrlDlgDlg@@QAEXXZ
	DD	0111H
	DD	00H
	DD	03ffH
	DD	03ffH
	DD	039H
	DD	FLAT:?OnBnClickedInputEarR@CDviceCtrlDlgDlg@@QAEXXZ
	DD	0111H
	DD	00H
	DD	0400H
	DD	0400H
	DD	039H
	DD	FLAT:?OnBnClickedInputVib@CDviceCtrlDlgDlg@@QAEXXZ
	DD	0111H
	DD	00H
	DD	0410H
	DD	0410H
	DD	039H
	DD	FLAT:?OnBnClickedInputClose@CDviceCtrlDlgDlg@@QAEXXZ
	DD	0111H
	DD	00H
	DD	0401H
	DD	0401H
	DD	039H
	DD	FLAT:?OnBnClickedOutputMic@CDviceCtrlDlgDlg@@QAEXXZ
	DD	0111H
	DD	00H
	DD	0402H
	DD	0402H
	DD	039H
	DD	FLAT:?OnBnClickedOutputEarMic@CDviceCtrlDlgDlg@@QAEXXZ
	DD	0111H
	DD	00H
	DD	0411H
	DD	0411H
	DD	039H
	DD	FLAT:?OnBnClickedOutputClose@CDviceCtrlDlgDlg@@QAEXXZ
	DD	0111H
	DD	00H
	DD	03f3H
	DD	03f3H
	DD	039H
	DD	FLAT:?OnBnClickedBacklightDetect@CDviceCtrlDlgDlg@@QAEXXZ
	DD	0111H
	DD	00H
	DD	03f1H
	DD	03f1H
	DD	039H
	DD	FLAT:?OnBnClickedFiashlightDetect@CDviceCtrlDlgDlg@@QAEXXZ
	DD	0111H
	DD	00H
	DD	03f8H
	DD	03f8H
	DD	039H
	DD	FLAT:?OnBnClickedProductReadyCheck@CDviceCtrlDlgDlg@@QAEXXZ
	DD	0111H
	DD	00H
	DD	03f7H
	DD	03f7H
	DD	039H
	DD	FLAT:?OnBnClickedDeviceReadyCheck@CDviceCtrlDlgDlg@@QAEXXZ
	DD	0111H
	DD	00H
	DD	03f5H
	DD	03f5H
	DD	039H
	DD	FLAT:?OnBnClickedLevelCheck1@CDviceCtrlDlgDlg@@QAEXXZ
	DD	0111H
	DD	00H
	DD	03f6H
	DD	03f6H
	DD	039H
	DD	FLAT:?OnBnClickedLevelCheck2@CDviceCtrlDlgDlg@@QAEXXZ
	DD	0111H
	DD	00H
	DD	03fbH
	DD	03fbH
	DD	039H
	DD	FLAT:?OnBnClickedLightSource1@CDviceCtrlDlgDlg@@QAEXXZ
	DD	0111H
	DD	00H
	DD	0407H
	DD	0407H
	DD	039H
	DD	FLAT:?OnBnClickedLightSource2@CDviceCtrlDlgDlg@@QAEXXZ
	DD	0111H
	DD	00H
	DD	040bH
	DD	040bH
	DD	039H
	DD	FLAT:?OnBnClickedLed1@CDviceCtrlDlgDlg@@QAEXXZ
	DD	0111H
	DD	00H
	DD	040cH
	DD	040cH
	DD	039H
	DD	FLAT:?OnBnClickedLed2@CDviceCtrlDlgDlg@@QAEXXZ
	DD	0111H
	DD	00H
	DD	03efH
	DD	03efH
	DD	039H
	DD	FLAT:?OnBnClickedReset@CDviceCtrlDlgDlg@@QAEXXZ
	DD	0111H
	DD	00H
	DD	03eeH
	DD	03eeH
	DD	039H
	DD	FLAT:?OnBnClickedBoxOpen@CDviceCtrlDlgDlg@@QAEXXZ
	DD	0111H
	DD	00H
	DD	03f2H
	DD	03f2H
	DD	039H
	DD	FLAT:?OnBnClickedBoxClose@CDviceCtrlDlgDlg@@QAEXXZ
	DD	0111H
	DD	00H
	DD	040aH
	DD	040aH
	DD	039H
	DD	FLAT:?OnBnClickedClampCtrl@CDviceCtrlDlgDlg@@QAEXXZ
	DD	0111H
	DD	00H
	DD	0408H
	DD	0408H
	DD	039H
	DD	FLAT:?OnBnClickedEpCtrl@CDviceCtrlDlgDlg@@QAEXXZ
	DD	0111H
	DD	00H
	DD	0409H
	DD	0409H
	DD	039H
	DD	FLAT:?OnBnClicked5vPower@CDviceCtrlDlgDlg@@QAEXXZ
	DD	04eH
	DD	0fff4H
	DD	03fcH
	DD	03fcH
	DD	03dH
	DD	FLAT:?OnNMCustomdrawAdjustVoltage@CDviceCtrlDlgDlg@@QAEXPAUtagNMHDR@@PAJ@Z
	DD	0111H
	DD	00H
	DD	03f0H
	DD	03f0H
	DD	039H
	DD	FLAT:?OnBnClickedGSensor@CDviceCtrlDlgDlg@@QAEXXZ
	DD	0111H
	DD	00H
	DD	03f9H
	DD	03f9H
	DD	039H
	DD	FLAT:?OnBnClickedMagneticRotateMagnetic@CDviceCtrlDlgDlg@@QAEXXZ
	DD	0111H
	DD	00H
	DD	041bH
	DD	041bH
	DD	039H
	DD	FLAT:?OnBnClickedRotateStop@CDviceCtrlDlgDlg@@QAEXXZ
	DD	04eH
	DD	0fff0H
	DD	03fcH
	DD	03fcH
	DD	03dH
	DD	FLAT:?OnNMReleasedcaptureAdjustVoltage@CDviceCtrlDlgDlg@@QAEXPAUtagNMHDR@@PAJ@Z
	DD	0113H
	DD	00H
	DD	00H
	DD	00H
	DD	014H
	DD	FLAT:?OnTimer@CDviceCtrlDlgDlg@@QAEXI@Z
	DD	0111H
	DD	00H
	DD	03e8H
	DD	03e8H
	DD	039H
	DD	FLAT:?OnBnClickedPower@CDviceCtrlDlgDlg@@QAEXXZ
	DD	0111H
	DD	00H
	DD	03ecH
	DD	03ecH
	DD	039H
	DD	FLAT:?OnBnClickedVolumeIncrease@CDviceCtrlDlgDlg@@QAEXXZ
	DD	0111H
	DD	00H
	DD	03eaH
	DD	03eaH
	DD	039H
	DD	FLAT:?OnBnClickedVolumeDecrease@CDviceCtrlDlgDlg@@QAEXXZ
	DD	0111H
	DD	00H
	DD	0403H
	DD	0403H
	DD	039H
	DD	FLAT:?OnBnClickedVirtualKey1@CDviceCtrlDlgDlg@@QAEXXZ
	DD	0111H
	DD	00H
	DD	0404H
	DD	0404H
	DD	039H
	DD	FLAT:?OnBnClickedVirtualKey2@CDviceCtrlDlgDlg@@QAEXXZ
	DD	0111H
	DD	00H
	DD	0405H
	DD	0405H
	DD	039H
	DD	FLAT:?OnBnClickedVirtualKey3@CDviceCtrlDlgDlg@@QAEXXZ
	DD	0111H
	DD	00H
	DD	03f4H
	DD	03f4H
	DD	039H
	DD	FLAT:?OnBnClickedTouch1@CDviceCtrlDlgDlg@@QAEXXZ
	DD	0111H
	DD	00H
	DD	03e9H
	DD	03e9H
	DD	039H
	DD	FLAT:?OnBnClickedTouch2@CDviceCtrlDlgDlg@@QAEXXZ
	DD	0111H
	DD	00H
	DD	03edH
	DD	03edH
	DD	039H
	DD	FLAT:?OnBnClickedTouch3@CDviceCtrlDlgDlg@@QAEXXZ
	DD	0111H
	DD	00H
	DD	03ebH
	DD	03ebH
	DD	039H
	DD	FLAT:?OnBnClickedTouch4@CDviceCtrlDlgDlg@@QAEXXZ
	DD	0111H
	DD	00H
	DD	041aH
	DD	041aH
	DD	039H
	DD	FLAT:?OnBnClickedTouch5@CDviceCtrlDlgDlg@@QAEXXZ
	DD	0111H
	DD	00H
	DD	0425H
	DD	0425H
	DD	039H
	DD	FLAT:?OnBnClickedKeyUpMode@CDviceCtrlDlgDlg@@QAEXXZ
	DD	0111H
	DD	00H
	DD	0406H
	DD	0406H
	DD	039H
	DD	FLAT:?OnBnClickedOtgLevelCheck@CDviceCtrlDlgDlg@@QAEXXZ
	DD	0111H
	DD	00H
	DD	0426H
	DD	0426H
	DD	039H
	DD	FLAT:?OnBnClickedAdValueCheck@CDviceCtrlDlgDlg@@QAEXXZ
	DD	0111H
	DD	00H
	DD	0427H
	DD	0427H
	DD	039H
	DD	FLAT:?OnBnClickedOtgCheck@CDviceCtrlDlgDlg@@QAEXXZ
	DD	0111H
	DD	00H
	DD	0428H
	DD	0428H
	DD	039H
	DD	FLAT:?OnBnClickedOtgReset@CDviceCtrlDlgDlg@@QAEXXZ
	DD	0111H
	DD	00H
	DD	0435H
	DD	0435H
	DD	039H
	DD	FLAT:?OnBnClickedBlueScreen@CDviceCtrlDlgDlg@@QAEXXZ
	DD	0111H
	DD	00H
	DD	0436H
	DD	0436H
	DD	039H
	DD	FLAT:?OnBnClickedGreenScreen@CDviceCtrlDlgDlg@@QAEXXZ
	DD	0111H
	DD	00H
	DD	0437H
	DD	0437H
	DD	039H
	DD	FLAT:?OnBnClickedRedScreen@CDviceCtrlDlgDlg@@QAEXXZ
	DD	0111H
	DD	00H
	DD	0432H
	DD	0432H
	DD	039H
	DD	FLAT:?OnBnClickedBlueLed@CDviceCtrlDlgDlg@@QAEXXZ
	DD	0111H
	DD	00H
	DD	0433H
	DD	0433H
	DD	039H
	DD	FLAT:?OnBnClickedGreenLed@CDviceCtrlDlgDlg@@QAEXXZ
	DD	0111H
	DD	00H
	DD	0434H
	DD	0434H
	DD	039H
	DD	FLAT:?OnBnClickedRedLed@CDviceCtrlDlgDlg@@QAEXXZ
	DD	0111H
	DD	00H
	DD	0449H
	DD	0449H
	DD	039H
	DD	FLAT:?OnBnClickedScreenOpen@CDviceCtrlDlgDlg@@QAEXXZ
	DD	0111H
	DD	00H
	DD	044cH
	DD	044cH
	DD	039H
	DD	FLAT:?OnBnClickedScreenRead@CDviceCtrlDlgDlg@@QAEXXZ
	DD	0111H
	DD	00H
	DD	0446H
	DD	0446H
	DD	039H
	DD	FLAT:?OnBnClickedLedOpen@CDviceCtrlDlgDlg@@QAEXXZ
	DD	0111H
	DD	00H
	DD	044dH
	DD	044dH
	DD	039H
	DD	FLAT:?OnBnClickedLedRead@CDviceCtrlDlgDlg@@QAEXXZ
	DD	0111H
	DD	00H
	DD	0430H
	DD	0430H
	DD	039H
	DD	FLAT:?OnBnClickedFixture@CDviceCtrlDlgDlg@@QAEXXZ
	DD	0111H
	DD	00H
	DD	042fH
	DD	042fH
	DD	039H
	DD	FLAT:?OnBnClickedUsbPower@CDviceCtrlDlgDlg@@QAEXXZ
	DD	0111H
	DD	00H
	DD	0438H
	DD	0438H
	DD	039H
	DD	FLAT:?OnBnClickedCir@CDviceCtrlDlgDlg@@QAEXXZ
	DD	0111H
	DD	00H
	DD	043aH
	DD	043aH
	DD	039H
	DD	FLAT:?OnBnClickedRand@CDviceCtrlDlgDlg@@QAEXXZ
	DD	06H
	DD	00H
	DD	00H
	DD	00H
	DD	029H
	DD	FLAT:?OnActivate@CWnd@@IAEXIPAV1@H@Z
	DD	0111H
	DD	00H
	DD	043eH
	DD	043eH
	DD	039H
	DD	FLAT:?OnBnClickedColorlightsource@CDviceCtrlDlgDlg@@QAEXXZ
	DD	0111H
	DD	00H
	DD	043fH
	DD	043fH
	DD	039H
	DD	FLAT:?OnBnClickedWhitelightsource@CDviceCtrlDlgDlg@@QAEXXZ
	DD	0111H
	DD	00H
	DD	0441H
	DD	0441H
	DD	039H
	DD	FLAT:?OnBnClickedOlddevctrl@CDviceCtrlDlgDlg@@QAEXXZ
	DD	0111H
	DD	00H
	DD	0442H
	DD	0442H
	DD	039H
	DD	FLAT:?OnBnClickedHall@CDviceCtrlDlgDlg@@QAEXXZ
	DD	0111H
	DD	00H
	DD	0443H
	DD	0443H
	DD	039H
	DD	FLAT:?OnBnClickedCamerapower@CDviceCtrlDlgDlg@@QAEXXZ
	DD	0111H
	DD	00H
	DD	0447H
	DD	0447H
	DD	039H
	DD	FLAT:?OnBnClickedResetport@CDviceCtrlDlgDlg@@QAEXXZ
	DD	0111H
	DD	00H
	DD	041cH
	DD	041cH
	DD	039H
	DD	FLAT:?OnBnClickedInputSpk2@CDviceCtrlDlgDlg@@QAEXXZ
	DD	0111H
	DD	00H
	DD	0448H
	DD	0448H
	DD	039H
	DD	FLAT:?OnBnClickedGravity@CDviceCtrlDlgDlg@@QAEXXZ
	DD	0111H
	DD	00H
	DD	041dH
	DD	041dH
	DD	039H
	DD	FLAT:?OnBnClickedBacklightStart@CDviceCtrlDlgDlg@@QAEXXZ
	DD	0111H
	DD	00H
	DD	041eH
	DD	041eH
	DD	039H
	DD	FLAT:?OnBnClickedFiashlightStart@CDviceCtrlDlgDlg@@QAEXXZ
	DD	0111H
	DD	00H
	DD	0444H
	DD	0444H
	DD	039H
	DD	FLAT:?OnBnClickedCalloff@CDviceCtrlDlgDlg@@QAEXXZ
	DD	0111H
	DD	00H
	DD	0454H
	DD	0454H
	DD	039H
	DD	FLAT:?OnBnClickedRadio1@CDviceCtrlDlgDlg@@QAEXXZ
	DD	0111H
	DD	00H
	DD	0450H
	DD	0450H
	DD	039H
	DD	FLAT:?OnBnClickedButton5@CDviceCtrlDlgDlg@@QAEXXZ
	DD	0111H
	DD	00H
	DD	0451H
	DD	0451H
	DD	039H
	DD	FLAT:?OnBnClickedButton6@CDviceCtrlDlgDlg@@QAEXXZ
	DD	0111H
	DD	00H
	DD	0452H
	DD	0452H
	DD	039H
	DD	FLAT:?OnBnClickedButton7@CDviceCtrlDlgDlg@@QAEXXZ
	DD	0111H
	DD	00H
	DD	0453H
	DD	0453H
	DD	039H
	DD	FLAT:?OnBnClickedButton8@CDviceCtrlDlgDlg@@QAEXXZ
	DD	0111H
	DD	00H
	DD	0455H
	DD	0455H
	DD	039H
	DD	FLAT:?OnBnClickedRadio2@CDviceCtrlDlgDlg@@QAEXXZ
	DD	0111H
	DD	00H
	DD	0456H
	DD	0456H
	DD	039H
	DD	FLAT:?OnBnClickedRadio3@CDviceCtrlDlgDlg@@QAEXXZ
	DD	0111H
	DD	00H
	DD	0457H
	DD	0457H
	DD	039H
	DD	FLAT:?OnBnClickedRadio4@CDviceCtrlDlgDlg@@QAEXXZ
	DD	0111H
	DD	00H
	DD	0445H
	DD	0445H
	DD	039H
	DD	FLAT:?OnBnClickedCamerakey@CDviceCtrlDlgDlg@@QAEXXZ
	DD	00H
	DD	00H
	DD	00H
	DD	00H
	DD	00H
	DD	00H
?messageMap@?1??GetThisMessageMap@CDviceCtrlDlgDlg@@KGPBUAFX_MSGMAP@@XZ@4U3@B DD FLAT:?GetThisMessageMap@CDialog@@KGPBUAFX_MSGMAP@@XZ ; `CDviceCtrlDlgDlg::GetThisMessageMap'::`2'::messageMap
	DD	FLAT:?_messageEntries@?1??GetThisMessageMap@CDviceCtrlDlgDlg@@KGPBUAFX_MSGMAP@@XZ@4QBUAFX_MSGMAP_ENTRY@@B
CONST	ENDS
;	COMDAT ?_Rank@?$_Arithmetic_traits@O@std@@2HB
CONST	SEGMENT
?_Rank@?$_Arithmetic_traits@O@std@@2HB DD 09H		; std::_Arithmetic_traits<long double>::_Rank
CONST	ENDS
;	COMDAT ?_Rank@?$_Arithmetic_traits@N@std@@2HB
CONST	SEGMENT
?_Rank@?$_Arithmetic_traits@N@std@@2HB DD 08H		; std::_Arithmetic_traits<double>::_Rank
CONST	ENDS
;	COMDAT ?_Rank@?$_Arithmetic_traits@M@std@@2HB
CONST	SEGMENT
?_Rank@?$_Arithmetic_traits@M@std@@2HB DD 07H		; std::_Arithmetic_traits<float>::_Rank
CONST	ENDS
;	COMDAT ?_Rank@?$_Arithmetic_traits@_K@std@@2HB
CONST	SEGMENT
?_Rank@?$_Arithmetic_traits@_K@std@@2HB DD 06H		; std::_Arithmetic_traits<unsigned __int64>::_Rank
CONST	ENDS
;	COMDAT ?_Rank@?$_Arithmetic_traits@_J@std@@2HB
CONST	SEGMENT
?_Rank@?$_Arithmetic_traits@_J@std@@2HB DD 06H		; std::_Arithmetic_traits<__int64>::_Rank
CONST	ENDS
;	COMDAT ?_Rank@?$_Arithmetic_traits@K@std@@2HB
CONST	SEGMENT
?_Rank@?$_Arithmetic_traits@K@std@@2HB DD 05H		; std::_Arithmetic_traits<unsigned long>::_Rank
CONST	ENDS
;	COMDAT ?_Rank@?$_Arithmetic_traits@J@std@@2HB
CONST	SEGMENT
?_Rank@?$_Arithmetic_traits@J@std@@2HB DD 05H		; std::_Arithmetic_traits<long>::_Rank
CONST	ENDS
;	COMDAT ?_Rank@?$_Arithmetic_traits@I@std@@2HB
CONST	SEGMENT
?_Rank@?$_Arithmetic_traits@I@std@@2HB DD 04H		; std::_Arithmetic_traits<unsigned int>::_Rank
CONST	ENDS
;	COMDAT ?_Rank@?$_Arithmetic_traits@H@std@@2HB
CONST	SEGMENT
?_Rank@?$_Arithmetic_traits@H@std@@2HB DD 04H		; std::_Arithmetic_traits<int>::_Rank
CONST	ENDS
;	COMDAT ?_Rank@?$_Arithmetic_traits@G@std@@2HB
CONST	SEGMENT
?_Rank@?$_Arithmetic_traits@G@std@@2HB DD 03H		; std::_Arithmetic_traits<unsigned short>::_Rank
CONST	ENDS
;	COMDAT ?_Rank@?$_Arithmetic_traits@F@std@@2HB
CONST	SEGMENT
?_Rank@?$_Arithmetic_traits@F@std@@2HB DD 03H		; std::_Arithmetic_traits<short>::_Rank
CONST	ENDS
;	COMDAT ?_Rank@?$_Arithmetic_traits@E@std@@2HB
CONST	SEGMENT
?_Rank@?$_Arithmetic_traits@E@std@@2HB DD 02H		; std::_Arithmetic_traits<unsigned char>::_Rank
CONST	ENDS
;	COMDAT ?_Rank@?$_Arithmetic_traits@C@std@@2HB
CONST	SEGMENT
?_Rank@?$_Arithmetic_traits@C@std@@2HB DD 02H		; std::_Arithmetic_traits<signed char>::_Rank
CONST	ENDS
;	COMDAT ?_Rank@?$_Arithmetic_traits@D@std@@2HB
CONST	SEGMENT
?_Rank@?$_Arithmetic_traits@D@std@@2HB DD 02H		; std::_Arithmetic_traits<char>::_Rank
CONST	ENDS
;	COMDAT ?_Rank@?$_Arithmetic_traits@_N@std@@2HB
CONST	SEGMENT
?_Rank@?$_Arithmetic_traits@_N@std@@2HB DD 01H		; std::_Arithmetic_traits<bool>::_Rank
CONST	ENDS
;	COMDAT ?value@?$integral_constant@I$0A@@tr1@std@@2IB
CONST	SEGMENT
?value@?$integral_constant@I$0A@@tr1@std@@2IB DD 00H	; std::tr1::integral_constant<unsigned int,0>::value
CONST	ENDS
;	COMDAT ?value@?$integral_constant@_N$00@tr1@std@@2_NB
CONST	SEGMENT
?value@?$integral_constant@_N$00@tr1@std@@2_NB DB 01H	; std::tr1::integral_constant<bool,1>::value
CONST	ENDS
;	COMDAT ?value@?$integral_constant@_N$0A@@tr1@std@@2_NB
CONST	SEGMENT
?value@?$integral_constant@_N$0A@@tr1@std@@2_NB DB 00H	; std::tr1::integral_constant<bool,0>::value
CONST	ENDS
;	COMDAT ?min_exponent10@?$numeric_limits@O@std@@2HB
CONST	SEGMENT
?min_exponent10@?$numeric_limits@O@std@@2HB DD 0fffffecdH ; std::numeric_limits<long double>::min_exponent10
CONST	ENDS
;	COMDAT ?min_exponent@?$numeric_limits@O@std@@2HB
CONST	SEGMENT
?min_exponent@?$numeric_limits@O@std@@2HB DD 0fffffc03H	; std::numeric_limits<long double>::min_exponent
CONST	ENDS
;	COMDAT ?max_exponent10@?$numeric_limits@O@std@@2HB
CONST	SEGMENT
?max_exponent10@?$numeric_limits@O@std@@2HB DD 0134H	; std::numeric_limits<long double>::max_exponent10
CONST	ENDS
;	COMDAT ?max_exponent@?$numeric_limits@O@std@@2HB
CONST	SEGMENT
?max_exponent@?$numeric_limits@O@std@@2HB DD 0400H	; std::numeric_limits<long double>::max_exponent
CONST	ENDS
;	COMDAT ?max_digits10@?$numeric_limits@O@std@@2HB
CONST	SEGMENT
?max_digits10@?$numeric_limits@O@std@@2HB DD 011H	; std::numeric_limits<long double>::max_digits10
CONST	ENDS
;	COMDAT ?digits10@?$numeric_limits@O@std@@2HB
CONST	SEGMENT
?digits10@?$numeric_limits@O@std@@2HB DD 0fH		; std::numeric_limits<long double>::digits10
CONST	ENDS
;	COMDAT ?digits@?$numeric_limits@O@std@@2HB
CONST	SEGMENT
?digits@?$numeric_limits@O@std@@2HB DD 035H		; std::numeric_limits<long double>::digits
CONST	ENDS
;	COMDAT ?min_exponent10@?$numeric_limits@N@std@@2HB
CONST	SEGMENT
?min_exponent10@?$numeric_limits@N@std@@2HB DD 0fffffecdH ; std::numeric_limits<double>::min_exponent10
CONST	ENDS
;	COMDAT ?min_exponent@?$numeric_limits@N@std@@2HB
CONST	SEGMENT
?min_exponent@?$numeric_limits@N@std@@2HB DD 0fffffc03H	; std::numeric_limits<double>::min_exponent
CONST	ENDS
;	COMDAT ?max_exponent10@?$numeric_limits@N@std@@2HB
CONST	SEGMENT
?max_exponent10@?$numeric_limits@N@std@@2HB DD 0134H	; std::numeric_limits<double>::max_exponent10
CONST	ENDS
;	COMDAT ?max_exponent@?$numeric_limits@N@std@@2HB
CONST	SEGMENT
?max_exponent@?$numeric_limits@N@std@@2HB DD 0400H	; std::numeric_limits<double>::max_exponent
CONST	ENDS
;	COMDAT ?max_digits10@?$numeric_limits@N@std@@2HB
CONST	SEGMENT
?max_digits10@?$numeric_limits@N@std@@2HB DD 011H	; std::numeric_limits<double>::max_digits10
CONST	ENDS
;	COMDAT ?digits10@?$numeric_limits@N@std@@2HB
CONST	SEGMENT
?digits10@?$numeric_limits@N@std@@2HB DD 0fH		; std::numeric_limits<double>::digits10
CONST	ENDS
;	COMDAT ?digits@?$numeric_limits@N@std@@2HB
CONST	SEGMENT
?digits@?$numeric_limits@N@std@@2HB DD 035H		; std::numeric_limits<double>::digits
CONST	ENDS
;	COMDAT ?min_exponent10@?$numeric_limits@M@std@@2HB
CONST	SEGMENT
?min_exponent10@?$numeric_limits@M@std@@2HB DD 0ffffffdbH ; std::numeric_limits<float>::min_exponent10
CONST	ENDS
;	COMDAT ?min_exponent@?$numeric_limits@M@std@@2HB
CONST	SEGMENT
?min_exponent@?$numeric_limits@M@std@@2HB DD 0ffffff83H	; std::numeric_limits<float>::min_exponent
CONST	ENDS
;	COMDAT ?max_exponent10@?$numeric_limits@M@std@@2HB
CONST	SEGMENT
?max_exponent10@?$numeric_limits@M@std@@2HB DD 026H	; std::numeric_limits<float>::max_exponent10
CONST	ENDS
;	COMDAT ?max_exponent@?$numeric_limits@M@std@@2HB
CONST	SEGMENT
?max_exponent@?$numeric_limits@M@std@@2HB DD 080H	; std::numeric_limits<float>::max_exponent
CONST	ENDS
;	COMDAT ?max_digits10@?$numeric_limits@M@std@@2HB
CONST	SEGMENT
?max_digits10@?$numeric_limits@M@std@@2HB DD 08H	; std::numeric_limits<float>::max_digits10
CONST	ENDS
;	COMDAT ?digits10@?$numeric_limits@M@std@@2HB
CONST	SEGMENT
?digits10@?$numeric_limits@M@std@@2HB DD 06H		; std::numeric_limits<float>::digits10
CONST	ENDS
;	COMDAT ?digits@?$numeric_limits@M@std@@2HB
CONST	SEGMENT
?digits@?$numeric_limits@M@std@@2HB DD 018H		; std::numeric_limits<float>::digits
CONST	ENDS
;	COMDAT ?max_digits10@?$numeric_limits@_K@std@@2HB
CONST	SEGMENT
?max_digits10@?$numeric_limits@_K@std@@2HB DD 015H	; std::numeric_limits<unsigned __int64>::max_digits10
CONST	ENDS
;	COMDAT ?digits10@?$numeric_limits@_K@std@@2HB
CONST	SEGMENT
?digits10@?$numeric_limits@_K@std@@2HB DD 013H		; std::numeric_limits<unsigned __int64>::digits10
CONST	ENDS
;	COMDAT ?digits@?$numeric_limits@_K@std@@2HB
CONST	SEGMENT
?digits@?$numeric_limits@_K@std@@2HB DD 040H		; std::numeric_limits<unsigned __int64>::digits
CONST	ENDS
;	COMDAT ?is_signed@?$numeric_limits@_K@std@@2_NB
CONST	SEGMENT
?is_signed@?$numeric_limits@_K@std@@2_NB DB 00H		; std::numeric_limits<unsigned __int64>::is_signed
CONST	ENDS
;	COMDAT ?max_digits10@?$numeric_limits@_J@std@@2HB
CONST	SEGMENT
?max_digits10@?$numeric_limits@_J@std@@2HB DD 014H	; std::numeric_limits<__int64>::max_digits10
CONST	ENDS
;	COMDAT ?digits10@?$numeric_limits@_J@std@@2HB
CONST	SEGMENT
?digits10@?$numeric_limits@_J@std@@2HB DD 012H		; std::numeric_limits<__int64>::digits10
CONST	ENDS
;	COMDAT ?digits@?$numeric_limits@_J@std@@2HB
CONST	SEGMENT
?digits@?$numeric_limits@_J@std@@2HB DD 03fH		; std::numeric_limits<__int64>::digits
CONST	ENDS
;	COMDAT ?is_signed@?$numeric_limits@_J@std@@2_NB
CONST	SEGMENT
?is_signed@?$numeric_limits@_J@std@@2_NB DB 01H		; std::numeric_limits<__int64>::is_signed
CONST	ENDS
;	COMDAT ?max_digits10@?$numeric_limits@K@std@@2HB
CONST	SEGMENT
?max_digits10@?$numeric_limits@K@std@@2HB DD 0bH	; std::numeric_limits<unsigned long>::max_digits10
CONST	ENDS
;	COMDAT ?digits10@?$numeric_limits@K@std@@2HB
CONST	SEGMENT
?digits10@?$numeric_limits@K@std@@2HB DD 09H		; std::numeric_limits<unsigned long>::digits10
CONST	ENDS
;	COMDAT ?digits@?$numeric_limits@K@std@@2HB
CONST	SEGMENT
?digits@?$numeric_limits@K@std@@2HB DD 020H		; std::numeric_limits<unsigned long>::digits
CONST	ENDS
;	COMDAT ?is_signed@?$numeric_limits@K@std@@2_NB
CONST	SEGMENT
?is_signed@?$numeric_limits@K@std@@2_NB DB 00H		; std::numeric_limits<unsigned long>::is_signed
CONST	ENDS
;	COMDAT ?max_digits10@?$numeric_limits@J@std@@2HB
CONST	SEGMENT
?max_digits10@?$numeric_limits@J@std@@2HB DD 0bH	; std::numeric_limits<long>::max_digits10
CONST	ENDS
;	COMDAT ?digits10@?$numeric_limits@J@std@@2HB
CONST	SEGMENT
?digits10@?$numeric_limits@J@std@@2HB DD 09H		; std::numeric_limits<long>::digits10
CONST	ENDS
;	COMDAT ?digits@?$numeric_limits@J@std@@2HB
CONST	SEGMENT
?digits@?$numeric_limits@J@std@@2HB DD 01fH		; std::numeric_limits<long>::digits
CONST	ENDS
;	COMDAT ?is_signed@?$numeric_limits@J@std@@2_NB
CONST	SEGMENT
?is_signed@?$numeric_limits@J@std@@2_NB DB 01H		; std::numeric_limits<long>::is_signed
CONST	ENDS
;	COMDAT ?max_digits10@?$numeric_limits@I@std@@2HB
CONST	SEGMENT
?max_digits10@?$numeric_limits@I@std@@2HB DD 0bH	; std::numeric_limits<unsigned int>::max_digits10
CONST	ENDS
;	COMDAT ?digits10@?$numeric_limits@I@std@@2HB
CONST	SEGMENT
?digits10@?$numeric_limits@I@std@@2HB DD 09H		; std::numeric_limits<unsigned int>::digits10
CONST	ENDS
;	COMDAT ?digits@?$numeric_limits@I@std@@2HB
CONST	SEGMENT
?digits@?$numeric_limits@I@std@@2HB DD 020H		; std::numeric_limits<unsigned int>::digits
CONST	ENDS
;	COMDAT ?is_signed@?$numeric_limits@I@std@@2_NB
CONST	SEGMENT
?is_signed@?$numeric_limits@I@std@@2_NB DB 00H		; std::numeric_limits<unsigned int>::is_signed
CONST	ENDS
;	COMDAT ?max_digits10@?$numeric_limits@H@std@@2HB
CONST	SEGMENT
?max_digits10@?$numeric_limits@H@std@@2HB DD 0bH	; std::numeric_limits<int>::max_digits10
CONST	ENDS
;	COMDAT ?digits10@?$numeric_limits@H@std@@2HB
CONST	SEGMENT
?digits10@?$numeric_limits@H@std@@2HB DD 09H		; std::numeric_limits<int>::digits10
CONST	ENDS
;	COMDAT ?digits@?$numeric_limits@H@std@@2HB
CONST	SEGMENT
?digits@?$numeric_limits@H@std@@2HB DD 01fH		; std::numeric_limits<int>::digits
CONST	ENDS
;	COMDAT ?is_signed@?$numeric_limits@H@std@@2_NB
CONST	SEGMENT
?is_signed@?$numeric_limits@H@std@@2_NB DB 01H		; std::numeric_limits<int>::is_signed
CONST	ENDS
;	COMDAT ?max_digits10@?$numeric_limits@G@std@@2HB
CONST	SEGMENT
?max_digits10@?$numeric_limits@G@std@@2HB DD 06H	; std::numeric_limits<unsigned short>::max_digits10
CONST	ENDS
;	COMDAT ?digits10@?$numeric_limits@G@std@@2HB
CONST	SEGMENT
?digits10@?$numeric_limits@G@std@@2HB DD 04H		; std::numeric_limits<unsigned short>::digits10
CONST	ENDS
;	COMDAT ?digits@?$numeric_limits@G@std@@2HB
CONST	SEGMENT
?digits@?$numeric_limits@G@std@@2HB DD 010H		; std::numeric_limits<unsigned short>::digits
CONST	ENDS
;	COMDAT ?is_signed@?$numeric_limits@G@std@@2_NB
CONST	SEGMENT
?is_signed@?$numeric_limits@G@std@@2_NB DB 00H		; std::numeric_limits<unsigned short>::is_signed
CONST	ENDS
;	COMDAT ?max_digits10@?$numeric_limits@F@std@@2HB
CONST	SEGMENT
?max_digits10@?$numeric_limits@F@std@@2HB DD 06H	; std::numeric_limits<short>::max_digits10
CONST	ENDS
;	COMDAT ?digits10@?$numeric_limits@F@std@@2HB
CONST	SEGMENT
?digits10@?$numeric_limits@F@std@@2HB DD 04H		; std::numeric_limits<short>::digits10
CONST	ENDS
;	COMDAT ?digits@?$numeric_limits@F@std@@2HB
CONST	SEGMENT
?digits@?$numeric_limits@F@std@@2HB DD 0fH		; std::numeric_limits<short>::digits
CONST	ENDS
;	COMDAT ?is_signed@?$numeric_limits@F@std@@2_NB
CONST	SEGMENT
?is_signed@?$numeric_limits@F@std@@2_NB DB 01H		; std::numeric_limits<short>::is_signed
CONST	ENDS
;	COMDAT ?max_digits10@?$numeric_limits@E@std@@2HB
CONST	SEGMENT
?max_digits10@?$numeric_limits@E@std@@2HB DD 04H	; std::numeric_limits<unsigned char>::max_digits10
CONST	ENDS
;	COMDAT ?digits10@?$numeric_limits@E@std@@2HB
CONST	SEGMENT
?digits10@?$numeric_limits@E@std@@2HB DD 02H		; std::numeric_limits<unsigned char>::digits10
CONST	ENDS
;	COMDAT ?digits@?$numeric_limits@E@std@@2HB
CONST	SEGMENT
?digits@?$numeric_limits@E@std@@2HB DD 08H		; std::numeric_limits<unsigned char>::digits
CONST	ENDS
;	COMDAT ?is_signed@?$numeric_limits@E@std@@2_NB
CONST	SEGMENT
?is_signed@?$numeric_limits@E@std@@2_NB DB 00H		; std::numeric_limits<unsigned char>::is_signed
CONST	ENDS
;	COMDAT ?max_digits10@?$numeric_limits@C@std@@2HB
CONST	SEGMENT
?max_digits10@?$numeric_limits@C@std@@2HB DD 04H	; std::numeric_limits<signed char>::max_digits10
CONST	ENDS
;	COMDAT ?digits10@?$numeric_limits@C@std@@2HB
CONST	SEGMENT
?digits10@?$numeric_limits@C@std@@2HB DD 02H		; std::numeric_limits<signed char>::digits10
CONST	ENDS
;	COMDAT ?digits@?$numeric_limits@C@std@@2HB
CONST	SEGMENT
?digits@?$numeric_limits@C@std@@2HB DD 07H		; std::numeric_limits<signed char>::digits
CONST	ENDS
;	COMDAT ?is_signed@?$numeric_limits@C@std@@2_NB
CONST	SEGMENT
?is_signed@?$numeric_limits@C@std@@2_NB DB 01H		; std::numeric_limits<signed char>::is_signed
CONST	ENDS
;	COMDAT ?max_digits10@?$numeric_limits@_N@std@@2HB
CONST	SEGMENT
?max_digits10@?$numeric_limits@_N@std@@2HB DD 00H	; std::numeric_limits<bool>::max_digits10
CONST	ENDS
;	COMDAT ?digits10@?$numeric_limits@_N@std@@2HB
CONST	SEGMENT
?digits10@?$numeric_limits@_N@std@@2HB DD 00H		; std::numeric_limits<bool>::digits10
CONST	ENDS
;	COMDAT ?digits@?$numeric_limits@_N@std@@2HB
CONST	SEGMENT
?digits@?$numeric_limits@_N@std@@2HB DD 01H		; std::numeric_limits<bool>::digits
CONST	ENDS
;	COMDAT ?is_signed@?$numeric_limits@_N@std@@2_NB
CONST	SEGMENT
?is_signed@?$numeric_limits@_N@std@@2_NB DB 00H		; std::numeric_limits<bool>::is_signed
CONST	ENDS
;	COMDAT ?is_modulo@?$numeric_limits@_N@std@@2_NB
CONST	SEGMENT
?is_modulo@?$numeric_limits@_N@std@@2_NB DB 00H		; std::numeric_limits<bool>::is_modulo
CONST	ENDS
;	COMDAT ?max_digits10@?$numeric_limits@_W@std@@2HB
CONST	SEGMENT
?max_digits10@?$numeric_limits@_W@std@@2HB DD 06H	; std::numeric_limits<wchar_t>::max_digits10
CONST	ENDS
;	COMDAT ?digits10@?$numeric_limits@_W@std@@2HB
CONST	SEGMENT
?digits10@?$numeric_limits@_W@std@@2HB DD 04H		; std::numeric_limits<wchar_t>::digits10
CONST	ENDS
;	COMDAT ?digits@?$numeric_limits@_W@std@@2HB
CONST	SEGMENT
?digits@?$numeric_limits@_W@std@@2HB DD 010H		; std::numeric_limits<wchar_t>::digits
CONST	ENDS
;	COMDAT ?is_signed@?$numeric_limits@_W@std@@2_NB
CONST	SEGMENT
?is_signed@?$numeric_limits@_W@std@@2_NB DB 00H		; std::numeric_limits<wchar_t>::is_signed
CONST	ENDS
;	COMDAT ?max_digits10@?$numeric_limits@D@std@@2HB
CONST	SEGMENT
?max_digits10@?$numeric_limits@D@std@@2HB DD 04H	; std::numeric_limits<char>::max_digits10
CONST	ENDS
;	COMDAT ?digits10@?$numeric_limits@D@std@@2HB
CONST	SEGMENT
?digits10@?$numeric_limits@D@std@@2HB DD 02H		; std::numeric_limits<char>::digits10
CONST	ENDS
;	COMDAT ?digits@?$numeric_limits@D@std@@2HB
CONST	SEGMENT
?digits@?$numeric_limits@D@std@@2HB DD 07H		; std::numeric_limits<char>::digits
CONST	ENDS
;	COMDAT ?is_signed@?$numeric_limits@D@std@@2_NB
CONST	SEGMENT
?is_signed@?$numeric_limits@D@std@@2_NB DB 01H		; std::numeric_limits<char>::is_signed
CONST	ENDS
;	COMDAT ?radix@_Num_float_base@std@@2HB
CONST	SEGMENT
?radix@_Num_float_base@std@@2HB DD 02H			; std::_Num_float_base::radix
CONST	ENDS
;	COMDAT ?round_style@_Num_float_base@std@@2W4float_round_style@2@B
CONST	SEGMENT
?round_style@_Num_float_base@std@@2W4float_round_style@2@B DD 01H ; std::_Num_float_base::round_style
CONST	ENDS
;	COMDAT ?traps@_Num_float_base@std@@2_NB
CONST	SEGMENT
?traps@_Num_float_base@std@@2_NB DB 01H			; std::_Num_float_base::traps
CONST	ENDS
;	COMDAT ?tinyness_before@_Num_float_base@std@@2_NB
CONST	SEGMENT
?tinyness_before@_Num_float_base@std@@2_NB DB 01H	; std::_Num_float_base::tinyness_before
CONST	ENDS
;	COMDAT ?is_specialized@_Num_float_base@std@@2_NB
CONST	SEGMENT
?is_specialized@_Num_float_base@std@@2_NB DB 01H	; std::_Num_float_base::is_specialized
CONST	ENDS
;	COMDAT ?is_signed@_Num_float_base@std@@2_NB
CONST	SEGMENT
?is_signed@_Num_float_base@std@@2_NB DB 01H		; std::_Num_float_base::is_signed
CONST	ENDS
;	COMDAT ?is_modulo@_Num_float_base@std@@2_NB
CONST	SEGMENT
?is_modulo@_Num_float_base@std@@2_NB DB 00H		; std::_Num_float_base::is_modulo
CONST	ENDS
;	COMDAT ?is_integer@_Num_float_base@std@@2_NB
CONST	SEGMENT
?is_integer@_Num_float_base@std@@2_NB DB 00H		; std::_Num_float_base::is_integer
CONST	ENDS
;	COMDAT ?is_iec559@_Num_float_base@std@@2_NB
CONST	SEGMENT
?is_iec559@_Num_float_base@std@@2_NB DB 01H		; std::_Num_float_base::is_iec559
CONST	ENDS
;	COMDAT ?is_exact@_Num_float_base@std@@2_NB
CONST	SEGMENT
?is_exact@_Num_float_base@std@@2_NB DB 00H		; std::_Num_float_base::is_exact
CONST	ENDS
;	COMDAT ?is_bounded@_Num_float_base@std@@2_NB
CONST	SEGMENT
?is_bounded@_Num_float_base@std@@2_NB DB 01H		; std::_Num_float_base::is_bounded
CONST	ENDS
;	COMDAT ?has_signaling_NaN@_Num_float_base@std@@2_NB
CONST	SEGMENT
?has_signaling_NaN@_Num_float_base@std@@2_NB DB 01H	; std::_Num_float_base::has_signaling_NaN
CONST	ENDS
;	COMDAT ?has_quiet_NaN@_Num_float_base@std@@2_NB
CONST	SEGMENT
?has_quiet_NaN@_Num_float_base@std@@2_NB DB 01H		; std::_Num_float_base::has_quiet_NaN
CONST	ENDS
;	COMDAT ?has_infinity@_Num_float_base@std@@2_NB
CONST	SEGMENT
?has_infinity@_Num_float_base@std@@2_NB DB 01H		; std::_Num_float_base::has_infinity
CONST	ENDS
;	COMDAT ?has_denorm_loss@_Num_float_base@std@@2_NB
CONST	SEGMENT
?has_denorm_loss@_Num_float_base@std@@2_NB DB 01H	; std::_Num_float_base::has_denorm_loss
CONST	ENDS
;	COMDAT ?has_denorm@_Num_float_base@std@@2W4float_denorm_style@2@B
CONST	SEGMENT
?has_denorm@_Num_float_base@std@@2W4float_denorm_style@2@B DD 01H ; std::_Num_float_base::has_denorm
CONST	ENDS
;	COMDAT ?radix@_Num_int_base@std@@2HB
CONST	SEGMENT
?radix@_Num_int_base@std@@2HB DD 02H			; std::_Num_int_base::radix
CONST	ENDS
;	COMDAT ?is_specialized@_Num_int_base@std@@2_NB
CONST	SEGMENT
?is_specialized@_Num_int_base@std@@2_NB DB 01H		; std::_Num_int_base::is_specialized
CONST	ENDS
;	COMDAT ?is_modulo@_Num_int_base@std@@2_NB
CONST	SEGMENT
?is_modulo@_Num_int_base@std@@2_NB DB 01H		; std::_Num_int_base::is_modulo
CONST	ENDS
;	COMDAT ?is_integer@_Num_int_base@std@@2_NB
CONST	SEGMENT
?is_integer@_Num_int_base@std@@2_NB DB 01H		; std::_Num_int_base::is_integer
CONST	ENDS
;	COMDAT ?is_exact@_Num_int_base@std@@2_NB
CONST	SEGMENT
?is_exact@_Num_int_base@std@@2_NB DB 01H		; std::_Num_int_base::is_exact
CONST	ENDS
;	COMDAT ?is_bounded@_Num_int_base@std@@2_NB
CONST	SEGMENT
?is_bounded@_Num_int_base@std@@2_NB DB 01H		; std::_Num_int_base::is_bounded
CONST	ENDS
;	COMDAT ?radix@_Num_base@std@@2HB
CONST	SEGMENT
?radix@_Num_base@std@@2HB DD 00H			; std::_Num_base::radix
CONST	ENDS
;	COMDAT ?min_exponent10@_Num_base@std@@2HB
CONST	SEGMENT
?min_exponent10@_Num_base@std@@2HB DD 00H		; std::_Num_base::min_exponent10
CONST	ENDS
;	COMDAT ?min_exponent@_Num_base@std@@2HB
CONST	SEGMENT
?min_exponent@_Num_base@std@@2HB DD 00H			; std::_Num_base::min_exponent
CONST	ENDS
;	COMDAT ?max_exponent10@_Num_base@std@@2HB
CONST	SEGMENT
?max_exponent10@_Num_base@std@@2HB DD 00H		; std::_Num_base::max_exponent10
CONST	ENDS
;	COMDAT ?max_exponent@_Num_base@std@@2HB
CONST	SEGMENT
?max_exponent@_Num_base@std@@2HB DD 00H			; std::_Num_base::max_exponent
CONST	ENDS
;	COMDAT ?max_digits10@_Num_base@std@@2HB
CONST	SEGMENT
?max_digits10@_Num_base@std@@2HB DD 00H			; std::_Num_base::max_digits10
CONST	ENDS
;	COMDAT ?digits10@_Num_base@std@@2HB
CONST	SEGMENT
?digits10@_Num_base@std@@2HB DD 00H			; std::_Num_base::digits10
CONST	ENDS
;	COMDAT ?digits@_Num_base@std@@2HB
CONST	SEGMENT
?digits@_Num_base@std@@2HB DD 00H			; std::_Num_base::digits
CONST	ENDS
;	COMDAT ?round_style@_Num_base@std@@2W4float_round_style@2@B
CONST	SEGMENT
?round_style@_Num_base@std@@2W4float_round_style@2@B DD 00H ; std::_Num_base::round_style
CONST	ENDS
;	COMDAT ?traps@_Num_base@std@@2_NB
CONST	SEGMENT
?traps@_Num_base@std@@2_NB DB 00H			; std::_Num_base::traps
CONST	ENDS
;	COMDAT ?tinyness_before@_Num_base@std@@2_NB
CONST	SEGMENT
?tinyness_before@_Num_base@std@@2_NB DB 00H		; std::_Num_base::tinyness_before
CONST	ENDS
;	COMDAT ?is_specialized@_Num_base@std@@2_NB
CONST	SEGMENT
?is_specialized@_Num_base@std@@2_NB DB 00H		; std::_Num_base::is_specialized
CONST	ENDS
;	COMDAT ?is_signed@_Num_base@std@@2_NB
CONST	SEGMENT
?is_signed@_Num_base@std@@2_NB DB 00H			; std::_Num_base::is_signed
CONST	ENDS
;	COMDAT ?is_modulo@_Num_base@std@@2_NB
CONST	SEGMENT
?is_modulo@_Num_base@std@@2_NB DB 00H			; std::_Num_base::is_modulo
CONST	ENDS
;	COMDAT ?is_integer@_Num_base@std@@2_NB
CONST	SEGMENT
?is_integer@_Num_base@std@@2_NB DB 00H			; std::_Num_base::is_integer
CONST	ENDS
;	COMDAT ?is_iec559@_Num_base@std@@2_NB
CONST	SEGMENT
?is_iec559@_Num_base@std@@2_NB DB 00H			; std::_Num_base::is_iec559
CONST	ENDS
;	COMDAT ?is_exact@_Num_base@std@@2_NB
CONST	SEGMENT
?is_exact@_Num_base@std@@2_NB DB 00H			; std::_Num_base::is_exact
CONST	ENDS
;	COMDAT ?is_bounded@_Num_base@std@@2_NB
CONST	SEGMENT
?is_bounded@_Num_base@std@@2_NB DB 00H			; std::_Num_base::is_bounded
CONST	ENDS
;	COMDAT ?has_signaling_NaN@_Num_base@std@@2_NB
CONST	SEGMENT
?has_signaling_NaN@_Num_base@std@@2_NB DB 00H		; std::_Num_base::has_signaling_NaN
CONST	ENDS
;	COMDAT ?has_quiet_NaN@_Num_base@std@@2_NB
CONST	SEGMENT
?has_quiet_NaN@_Num_base@std@@2_NB DB 00H		; std::_Num_base::has_quiet_NaN
CONST	ENDS
;	COMDAT ?has_infinity@_Num_base@std@@2_NB
CONST	SEGMENT
?has_infinity@_Num_base@std@@2_NB DB 00H		; std::_Num_base::has_infinity
CONST	ENDS
;	COMDAT ?has_denorm_loss@_Num_base@std@@2_NB
CONST	SEGMENT
?has_denorm_loss@_Num_base@std@@2_NB DB 00H		; std::_Num_base::has_denorm_loss
CONST	ENDS
;	COMDAT ?has_denorm@_Num_base@std@@2W4float_denorm_style@2@B
CONST	SEGMENT
?has_denorm@_Num_base@std@@2W4float_denorm_style@2@B DD 00H ; std::_Num_base::has_denorm
CONST	ENDS
PUBLIC	??_7CAboutDlg@@6B@				; CAboutDlg::`vftable'
PUBLIC	??0CAboutDlg@@QAE@XZ				; CAboutDlg::CAboutDlg
PUBLIC	??_R4CAboutDlg@@6B@				; CAboutDlg::`RTTI Complete Object Locator'
PUBLIC	??_R0?AVCAboutDlg@@@8				; CAboutDlg `RTTI Type Descriptor'
PUBLIC	??_R3CAboutDlg@@8				; CAboutDlg::`RTTI Class Hierarchy Descriptor'
PUBLIC	??_R2CAboutDlg@@8				; CAboutDlg::`RTTI Base Class Array'
PUBLIC	??_R1A@?0A@EA@CAboutDlg@@8			; CAboutDlg::`RTTI Base Class Descriptor at (0,-1,0,64)'
PUBLIC	??_R1A@?0A@EA@CDialog@@8			; CDialog::`RTTI Base Class Descriptor at (0,-1,0,64)'
PUBLIC	??_R0?AVCDialog@@@8				; CDialog `RTTI Type Descriptor'
PUBLIC	??_R3CDialog@@8					; CDialog::`RTTI Class Hierarchy Descriptor'
PUBLIC	??_R2CDialog@@8					; CDialog::`RTTI Base Class Array'
PUBLIC	??_R1A@?0A@EA@CWnd@@8				; CWnd::`RTTI Base Class Descriptor at (0,-1,0,64)'
PUBLIC	??_R0?AVCWnd@@@8				; CWnd `RTTI Type Descriptor'
PUBLIC	??_R3CWnd@@8					; CWnd::`RTTI Class Hierarchy Descriptor'
PUBLIC	??_R2CWnd@@8					; CWnd::`RTTI Base Class Array'
PUBLIC	??_R1A@?0A@EA@CCmdTarget@@8			; CCmdTarget::`RTTI Base Class Descriptor at (0,-1,0,64)'
PUBLIC	??_R0?AVCCmdTarget@@@8				; CCmdTarget `RTTI Type Descriptor'
PUBLIC	??_R3CCmdTarget@@8				; CCmdTarget::`RTTI Class Hierarchy Descriptor'
PUBLIC	??_R2CCmdTarget@@8				; CCmdTarget::`RTTI Base Class Array'
PUBLIC	??_R1A@?0A@EA@CObject@@8			; CObject::`RTTI Base Class Descriptor at (0,-1,0,64)'
PUBLIC	??_R0?AVCObject@@@8				; CObject `RTTI Type Descriptor'
PUBLIC	??_R3CObject@@8					; CObject::`RTTI Class Hierarchy Descriptor'
PUBLIC	??_R2CObject@@8					; CObject::`RTTI Base Class Array'
PUBLIC	?GetMessageMap@CAboutDlg@@MBEPBUAFX_MSGMAP@@XZ	; CAboutDlg::GetMessageMap
PUBLIC	?DoDataExchange@CAboutDlg@@MAEXPAVCDataExchange@@@Z ; CAboutDlg::DoDataExchange
EXTRN	??0CDialog@@QAE@IPAVCWnd@@@Z:PROC		; CDialog::CDialog
EXTRN	__RTC_CheckEsp:PROC
EXTRN	__RTC_Shutdown:PROC
EXTRN	__RTC_InitBase:PROC
EXTRN	??_7type_info@@6B@:QWORD			; type_info::`vftable'
EXTRN	?GetRuntimeClass@CDialog@@UBEPAUCRuntimeClass@@XZ:PROC ; CDialog::GetRuntimeClass
EXTRN	??_ECAboutDlg@@UAEPAXI@Z:PROC			; CAboutDlg::`vector deleting destructor'
EXTRN	?Serialize@CObject@@UAEXAAVCArchive@@@Z:PROC	; CObject::Serialize
EXTRN	?AssertValid@CDialog@@UBEXXZ:PROC		; CDialog::AssertValid
EXTRN	?Dump@CDialog@@UBEXAAVCDumpContext@@@Z:PROC	; CDialog::Dump
EXTRN	?OnCmdMsg@CDialog@@UAEHIHPAXPAUAFX_CMDHANDLERINFO@@@Z:PROC ; CDialog::OnCmdMsg
EXTRN	?OnFinalRelease@CWnd@@UAEXXZ:PROC		; CWnd::OnFinalRelease
EXTRN	?IsInvokeAllowed@CCmdTarget@@UAEHJ@Z:PROC	; CCmdTarget::IsInvokeAllowed
EXTRN	?GetDispatchIID@CCmdTarget@@UAEHPAU_GUID@@@Z:PROC ; CCmdTarget::GetDispatchIID
EXTRN	?GetTypeInfoCount@CCmdTarget@@UAEIXZ:PROC	; CCmdTarget::GetTypeInfoCount
EXTRN	?GetTypeLibCache@CCmdTarget@@UAEPAVCTypeLibCache@@XZ:PROC ; CCmdTarget::GetTypeLibCache
EXTRN	?GetTypeLib@CCmdTarget@@UAEJKPAPAUITypeLib@@@Z:PROC ; CCmdTarget::GetTypeLib
EXTRN	?GetCommandMap@CCmdTarget@@MBEPBUAFX_OLECMDMAP@@XZ:PROC ; CCmdTarget::GetCommandMap
EXTRN	?GetDispatchMap@CCmdTarget@@MBEPBUAFX_DISPMAP@@XZ:PROC ; CCmdTarget::GetDispatchMap
EXTRN	?GetConnectionMap@CCmdTarget@@MBEPBUAFX_CONNECTIONMAP@@XZ:PROC ; CCmdTarget::GetConnectionMap
EXTRN	?GetInterfaceMap@CWnd@@MBEPBUAFX_INTERFACEMAP@@XZ:PROC ; CWnd::GetInterfaceMap
EXTRN	?GetEventSinkMap@CCmdTarget@@MBEPBUAFX_EVENTSINKMAP@@XZ:PROC ; CCmdTarget::GetEventSinkMap
EXTRN	?OnCreateAggregates@CCmdTarget@@UAEHXZ:PROC	; CCmdTarget::OnCreateAggregates
EXTRN	?GetInterfaceHook@CCmdTarget@@UAEPAUIUnknown@@PBX@Z:PROC ; CCmdTarget::GetInterfaceHook
EXTRN	?GetExtraConnectionPoints@CCmdTarget@@MAEHPAVCPtrArray@@@Z:PROC ; CCmdTarget::GetExtraConnectionPoints
EXTRN	?GetConnectionHook@CCmdTarget@@MAEPAUIConnectionPoint@@ABU_GUID@@@Z:PROC ; CCmdTarget::GetConnectionHook
EXTRN	?PreSubclassWindow@CWnd@@UAEXXZ:PROC		; CWnd::PreSubclassWindow
EXTRN	?Create@CWnd@@UAEHPB_W0KABUtagRECT@@PAV1@IPAUCCreateContext@@@Z:PROC ; CWnd::Create
EXTRN	?CreateEx@CWnd@@UAEHKPB_W0KABUtagRECT@@PAV1@IPAX@Z:PROC ; CWnd::CreateEx
EXTRN	?CreateEx@CWnd@@UAEHKPB_W0KHHHHPAUHWND__@@PAUHMENU__@@PAX@Z:PROC ; CWnd::CreateEx
EXTRN	?DestroyWindow@CWnd@@UAEHXZ:PROC		; CWnd::DestroyWindow
EXTRN	?PreCreateWindow@CWnd@@UAEHAAUtagCREATESTRUCTW@@@Z:PROC ; CWnd::PreCreateWindow
EXTRN	?CalcWindowRect@CWnd@@UAEXPAUtagRECT@@I@Z:PROC	; CWnd::CalcWindowRect
EXTRN	?GetMenu@CWnd@@UBEPAVCMenu@@XZ:PROC		; CWnd::GetMenu
EXTRN	?SetMenu@CWnd@@UAEHPAVCMenu@@@Z:PROC		; CWnd::SetMenu
EXTRN	?OnToolHitTest@CWnd@@UBEHVCPoint@@PAUtagTOOLINFOW@@@Z:PROC ; CWnd::OnToolHitTest
EXTRN	?GetScrollBarCtrl@CWnd@@UBEPAVCScrollBar@@H@Z:PROC ; CWnd::GetScrollBarCtrl
EXTRN	?WinHelpW@CWnd@@UAEXKI@Z:PROC			; CWnd::WinHelpW
EXTRN	?HtmlHelpW@CWnd@@UAEXKI@Z:PROC			; CWnd::HtmlHelpW
EXTRN	?WinHelpInternal@CWnd@@UAEXKI@Z:PROC		; CWnd::WinHelpInternal
EXTRN	?ContinueModal@CWnd@@UAEHXZ:PROC		; CWnd::ContinueModal
EXTRN	?EndModalLoop@CWnd@@UAEXH@Z:PROC		; CWnd::EndModalLoop
EXTRN	?OnDrawIconicThumbnailOrLivePreview@CWnd@@UAEXAAVCDC@@VCRect@@VCSize@@HAAH@Z:PROC ; CWnd::OnDrawIconicThumbnailOrLivePreview
EXTRN	?EnsureStdObj@CWnd@@UAEJXZ:PROC			; CWnd::EnsureStdObj
EXTRN	?get_accParent@CWnd@@UAEJPAPAUIDispatch@@@Z:PROC ; CWnd::get_accParent
EXTRN	?get_accChildCount@CWnd@@UAEJPAJ@Z:PROC		; CWnd::get_accChildCount
EXTRN	?get_accChild@CWnd@@UAEJUtagVARIANT@@PAPAUIDispatch@@@Z:PROC ; CWnd::get_accChild
EXTRN	?get_accName@CWnd@@UAEJUtagVARIANT@@PAPA_W@Z:PROC ; CWnd::get_accName
EXTRN	?get_accValue@CWnd@@UAEJUtagVARIANT@@PAPA_W@Z:PROC ; CWnd::get_accValue
EXTRN	?get_accDescription@CWnd@@UAEJUtagVARIANT@@PAPA_W@Z:PROC ; CWnd::get_accDescription
EXTRN	?get_accRole@CWnd@@UAEJUtagVARIANT@@PAU2@@Z:PROC ; CWnd::get_accRole
EXTRN	?get_accState@CWnd@@UAEJUtagVARIANT@@PAU2@@Z:PROC ; CWnd::get_accState
EXTRN	?get_accHelp@CWnd@@UAEJUtagVARIANT@@PAPA_W@Z:PROC ; CWnd::get_accHelp
EXTRN	?get_accHelpTopic@CWnd@@UAEJPAPA_WUtagVARIANT@@PAJ@Z:PROC ; CWnd::get_accHelpTopic
EXTRN	?get_accKeyboardShortcut@CWnd@@UAEJUtagVARIANT@@PAPA_W@Z:PROC ; CWnd::get_accKeyboardShortcut
EXTRN	?get_accFocus@CWnd@@UAEJPAUtagVARIANT@@@Z:PROC	; CWnd::get_accFocus
EXTRN	?get_accSelection@CWnd@@UAEJPAUtagVARIANT@@@Z:PROC ; CWnd::get_accSelection
EXTRN	?get_accDefaultAction@CWnd@@UAEJUtagVARIANT@@PAPA_W@Z:PROC ; CWnd::get_accDefaultAction
EXTRN	?accSelect@CWnd@@UAEJJUtagVARIANT@@@Z:PROC	; CWnd::accSelect
EXTRN	?accLocation@CWnd@@UAEJPAJ000UtagVARIANT@@@Z:PROC ; CWnd::accLocation
EXTRN	?accNavigate@CWnd@@UAEJJUtagVARIANT@@PAU2@@Z:PROC ; CWnd::accNavigate
EXTRN	?accHitTest@CWnd@@UAEJJJPAUtagVARIANT@@@Z:PROC	; CWnd::accHitTest
EXTRN	?accDoDefaultAction@CWnd@@UAEJUtagVARIANT@@@Z:PROC ; CWnd::accDoDefaultAction
EXTRN	?put_accName@CWnd@@UAEJUtagVARIANT@@PA_W@Z:PROC	; CWnd::put_accName
EXTRN	?put_accValue@CWnd@@UAEJUtagVARIANT@@PA_W@Z:PROC ; CWnd::put_accValue
EXTRN	?SetProxy@CWnd@@UAEJPAUIAccessibleProxy@@@Z:PROC ; CWnd::SetProxy
EXTRN	?CreateAccessibleProxy@CWnd@@UAEJIJPAJ@Z:PROC	; CWnd::CreateAccessibleProxy
EXTRN	?OnCommand@CWnd@@MAEHIJ@Z:PROC			; CWnd::OnCommand
EXTRN	?OnNotify@CWnd@@MAEHIJPAJ@Z:PROC		; CWnd::OnNotify
EXTRN	?GetSuperWndProcAddr@CWnd@@MAEPAP6GJPAUHWND__@@IIJ@ZXZ:PROC ; CWnd::GetSuperWndProcAddr
EXTRN	?BeginModalState@CWnd@@UAEXXZ:PROC		; CWnd::BeginModalState
EXTRN	?EndModalState@CWnd@@UAEXXZ:PROC		; CWnd::EndModalState
EXTRN	?PreTranslateMessage@CDialog@@UAEHPAUtagMSG@@@Z:PROC ; CDialog::PreTranslateMessage
EXTRN	?OnAmbientProperty@CWnd@@UAEHPAVCOleControlSite@@JPAUtagVARIANT@@@Z:PROC ; CWnd::OnAmbientProperty
EXTRN	?WindowProc@CWnd@@MAEJIIJ@Z:PROC		; CWnd::WindowProc
EXTRN	?OnWndMsg@CWnd@@MAEHIIJPAJ@Z:PROC		; CWnd::OnWndMsg
EXTRN	?DefWindowProcW@CWnd@@MAEJIIJ@Z:PROC		; CWnd::DefWindowProcW
EXTRN	?PostNcDestroy@CWnd@@MAEXXZ:PROC		; CWnd::PostNcDestroy
EXTRN	?OnChildNotify@CWnd@@MAEHIIJPAJ@Z:PROC		; CWnd::OnChildNotify
EXTRN	?OnTouchInputs@CWnd@@MAEHIPAUtagTOUCHINPUT@@@Z:PROC ; CWnd::OnTouchInputs
EXTRN	?OnTouchInput@CWnd@@MAEHVCPoint@@HHPAUtagTOUCHINPUT@@@Z:PROC ; CWnd::OnTouchInput
EXTRN	?GetGestureStatus@CWnd@@MAEKVCPoint@@@Z:PROC	; CWnd::GetGestureStatus
EXTRN	?OnGestureZoom@CWnd@@MAEHVCPoint@@J@Z:PROC	; CWnd::OnGestureZoom
EXTRN	?OnGesturePan@CWnd@@MAEHVCPoint@@0@Z:PROC	; CWnd::OnGesturePan
EXTRN	?OnGestureRotate@CWnd@@MAEHVCPoint@@N@Z:PROC	; CWnd::OnGestureRotate
EXTRN	?OnGestureTwoFingerTap@CWnd@@MAEHVCPoint@@@Z:PROC ; CWnd::OnGestureTwoFingerTap
EXTRN	?OnGesturePressAndTap@CWnd@@MAEHVCPoint@@J@Z:PROC ; CWnd::OnGesturePressAndTap
EXTRN	?CheckAutoCenter@CDialog@@UAEHXZ:PROC		; CDialog::CheckAutoCenter
EXTRN	?IsFrameWnd@CWnd@@UBEHXZ:PROC			; CWnd::IsFrameWnd
EXTRN	?CreateControlContainer@CWnd@@MAEHPAPAVCOleControlContainer@@@Z:PROC ; CWnd::CreateControlContainer
EXTRN	?CreateControlSite@CWnd@@MAEHPAVCOleControlContainer@@PAPAVCOleControlSite@@IABU_GUID@@@Z:PROC ; CWnd::CreateControlSite
EXTRN	?SetOccDialogInfo@CDialog@@MAEHPAU_AFX_OCC_DIALOG_INFO@@@Z:PROC ; CDialog::SetOccDialogInfo
EXTRN	?GetOccDialogInfo@CDialog@@MAEPAU_AFX_OCC_DIALOG_INFO@@XZ:PROC ; CDialog::GetOccDialogInfo
EXTRN	?Create@CDialog@@UAEHIPAVCWnd@@@Z:PROC		; CDialog::Create
EXTRN	?Create@CDialog@@UAEHPB_WPAVCWnd@@@Z:PROC	; CDialog::Create
EXTRN	?CreateIndirect@CDialog@@UAEHPAXPAVCWnd@@@Z:PROC ; CDialog::CreateIndirect
EXTRN	?CreateIndirect@CDialog@@UAEHPBUDLGTEMPLATE@@PAVCWnd@@PAX@Z:PROC ; CDialog::CreateIndirect
EXTRN	?DoModal@CDialog@@UAEHXZ:PROC			; CDialog::DoModal
EXTRN	?OnInitDialog@CDialog@@UAEHXZ:PROC		; CDialog::OnInitDialog
EXTRN	?OnSetFont@CDialog@@UAEXPAVCFont@@@Z:PROC	; CDialog::OnSetFont
EXTRN	?OnOK@CDialog@@MAEXXZ:PROC			; CDialog::OnOK
EXTRN	?OnCancel@CDialog@@MAEXXZ:PROC			; CDialog::OnCancel
EXTRN	?PreInitDialog@CDialog@@MAEXXZ:PROC		; CDialog::PreInitDialog
;	COMDAT ??_R2CObject@@8
; File e:\cz\vs\dvicectrldlg_new_signal_1\dvicectrldlgdlg.cpp
rdata$r	SEGMENT
??_R2CObject@@8 DD FLAT:??_R1A@?0A@EA@CObject@@8	; CObject::`RTTI Base Class Array'
rdata$r	ENDS
;	COMDAT ??_R3CObject@@8
rdata$r	SEGMENT
??_R3CObject@@8 DD 00H					; CObject::`RTTI Class Hierarchy Descriptor'
	DD	00H
	DD	01H
	DD	FLAT:??_R2CObject@@8
rdata$r	ENDS
;	COMDAT ??_R0?AVCObject@@@8
_DATA	SEGMENT
??_R0?AVCObject@@@8 DD FLAT:??_7type_info@@6B@		; CObject `RTTI Type Descriptor'
	DD	00H
	DB	'.?AVCObject@@', 00H
_DATA	ENDS
;	COMDAT ??_R1A@?0A@EA@CObject@@8
rdata$r	SEGMENT
??_R1A@?0A@EA@CObject@@8 DD FLAT:??_R0?AVCObject@@@8	; CObject::`RTTI Base Class Descriptor at (0,-1,0,64)'
	DD	00H
	DD	00H
	DD	0ffffffffH
	DD	00H
	DD	040H
	DD	FLAT:??_R3CObject@@8
rdata$r	ENDS
;	COMDAT ??_R2CCmdTarget@@8
rdata$r	SEGMENT
??_R2CCmdTarget@@8 DD FLAT:??_R1A@?0A@EA@CCmdTarget@@8	; CCmdTarget::`RTTI Base Class Array'
	DD	FLAT:??_R1A@?0A@EA@CObject@@8
rdata$r	ENDS
;	COMDAT ??_R3CCmdTarget@@8
rdata$r	SEGMENT
??_R3CCmdTarget@@8 DD 00H				; CCmdTarget::`RTTI Class Hierarchy Descriptor'
	DD	00H
	DD	02H
	DD	FLAT:??_R2CCmdTarget@@8
rdata$r	ENDS
;	COMDAT ??_R0?AVCCmdTarget@@@8
_DATA	SEGMENT
??_R0?AVCCmdTarget@@@8 DD FLAT:??_7type_info@@6B@	; CCmdTarget `RTTI Type Descriptor'
	DD	00H
	DB	'.?AVCCmdTarget@@', 00H
_DATA	ENDS
;	COMDAT ??_R1A@?0A@EA@CCmdTarget@@8
rdata$r	SEGMENT
??_R1A@?0A@EA@CCmdTarget@@8 DD FLAT:??_R0?AVCCmdTarget@@@8 ; CCmdTarget::`RTTI Base Class Descriptor at (0,-1,0,64)'
	DD	01H
	DD	00H
	DD	0ffffffffH
	DD	00H
	DD	040H
	DD	FLAT:??_R3CCmdTarget@@8
rdata$r	ENDS
;	COMDAT ??_R2CWnd@@8
rdata$r	SEGMENT
??_R2CWnd@@8 DD	FLAT:??_R1A@?0A@EA@CWnd@@8		; CWnd::`RTTI Base Class Array'
	DD	FLAT:??_R1A@?0A@EA@CCmdTarget@@8
	DD	FLAT:??_R1A@?0A@EA@CObject@@8
rdata$r	ENDS
;	COMDAT ??_R3CWnd@@8
rdata$r	SEGMENT
??_R3CWnd@@8 DD	00H					; CWnd::`RTTI Class Hierarchy Descriptor'
	DD	00H
	DD	03H
	DD	FLAT:??_R2CWnd@@8
rdata$r	ENDS
;	COMDAT ??_R0?AVCWnd@@@8
_DATA	SEGMENT
??_R0?AVCWnd@@@8 DD FLAT:??_7type_info@@6B@		; CWnd `RTTI Type Descriptor'
	DD	00H
	DB	'.?AVCWnd@@', 00H
_DATA	ENDS
;	COMDAT ??_R1A@?0A@EA@CWnd@@8
rdata$r	SEGMENT
??_R1A@?0A@EA@CWnd@@8 DD FLAT:??_R0?AVCWnd@@@8		; CWnd::`RTTI Base Class Descriptor at (0,-1,0,64)'
	DD	02H
	DD	00H
	DD	0ffffffffH
	DD	00H
	DD	040H
	DD	FLAT:??_R3CWnd@@8
rdata$r	ENDS
;	COMDAT ??_R2CDialog@@8
rdata$r	SEGMENT
??_R2CDialog@@8 DD FLAT:??_R1A@?0A@EA@CDialog@@8	; CDialog::`RTTI Base Class Array'
	DD	FLAT:??_R1A@?0A@EA@CWnd@@8
	DD	FLAT:??_R1A@?0A@EA@CCmdTarget@@8
	DD	FLAT:??_R1A@?0A@EA@CObject@@8
rdata$r	ENDS
;	COMDAT ??_R3CDialog@@8
rdata$r	SEGMENT
??_R3CDialog@@8 DD 00H					; CDialog::`RTTI Class Hierarchy Descriptor'
	DD	00H
	DD	04H
	DD	FLAT:??_R2CDialog@@8
rdata$r	ENDS
;	COMDAT ??_R0?AVCDialog@@@8
_DATA	SEGMENT
??_R0?AVCDialog@@@8 DD FLAT:??_7type_info@@6B@		; CDialog `RTTI Type Descriptor'
	DD	00H
	DB	'.?AVCDialog@@', 00H
_DATA	ENDS
;	COMDAT ??_R1A@?0A@EA@CDialog@@8
rdata$r	SEGMENT
??_R1A@?0A@EA@CDialog@@8 DD FLAT:??_R0?AVCDialog@@@8	; CDialog::`RTTI Base Class Descriptor at (0,-1,0,64)'
	DD	03H
	DD	00H
	DD	0ffffffffH
	DD	00H
	DD	040H
	DD	FLAT:??_R3CDialog@@8
rdata$r	ENDS
;	COMDAT ??_R1A@?0A@EA@CAboutDlg@@8
rdata$r	SEGMENT
??_R1A@?0A@EA@CAboutDlg@@8 DD FLAT:??_R0?AVCAboutDlg@@@8 ; CAboutDlg::`RTTI Base Class Descriptor at (0,-1,0,64)'
	DD	04H
	DD	00H
	DD	0ffffffffH
	DD	00H
	DD	040H
	DD	FLAT:??_R3CAboutDlg@@8
rdata$r	ENDS
;	COMDAT ??_R2CAboutDlg@@8
rdata$r	SEGMENT
??_R2CAboutDlg@@8 DD FLAT:??_R1A@?0A@EA@CAboutDlg@@8	; CAboutDlg::`RTTI Base Class Array'
	DD	FLAT:??_R1A@?0A@EA@CDialog@@8
	DD	FLAT:??_R1A@?0A@EA@CWnd@@8
	DD	FLAT:??_R1A@?0A@EA@CCmdTarget@@8
	DD	FLAT:??_R1A@?0A@EA@CObject@@8
rdata$r	ENDS
;	COMDAT ??_R3CAboutDlg@@8
rdata$r	SEGMENT
??_R3CAboutDlg@@8 DD 00H				; CAboutDlg::`RTTI Class Hierarchy Descriptor'
	DD	00H
	DD	05H
	DD	FLAT:??_R2CAboutDlg@@8
rdata$r	ENDS
;	COMDAT ??_R0?AVCAboutDlg@@@8
_DATA	SEGMENT
??_R0?AVCAboutDlg@@@8 DD FLAT:??_7type_info@@6B@	; CAboutDlg `RTTI Type Descriptor'
	DD	00H
	DB	'.?AVCAboutDlg@@', 00H
_DATA	ENDS
;	COMDAT ??_R4CAboutDlg@@6B@
rdata$r	SEGMENT
??_R4CAboutDlg@@6B@ DD 00H				; CAboutDlg::`RTTI Complete Object Locator'
	DD	00H
	DD	00H
	DD	FLAT:??_R0?AVCAboutDlg@@@8
	DD	FLAT:??_R3CAboutDlg@@8
rdata$r	ENDS
;	COMDAT ??_7CAboutDlg@@6B@
CONST	SEGMENT
??_7CAboutDlg@@6B@ DD FLAT:??_R4CAboutDlg@@6B@		; CAboutDlg::`vftable'
	DD	FLAT:?GetRuntimeClass@CDialog@@UBEPAUCRuntimeClass@@XZ
	DD	FLAT:??_ECAboutDlg@@UAEPAXI@Z
	DD	FLAT:?Serialize@CObject@@UAEXAAVCArchive@@@Z
	DD	FLAT:?AssertValid@CDialog@@UBEXXZ
	DD	FLAT:?Dump@CDialog@@UBEXAAVCDumpContext@@@Z
	DD	FLAT:?OnCmdMsg@CDialog@@UAEHIHPAXPAUAFX_CMDHANDLERINFO@@@Z
	DD	FLAT:?OnFinalRelease@CWnd@@UAEXXZ
	DD	FLAT:?IsInvokeAllowed@CCmdTarget@@UAEHJ@Z
	DD	FLAT:?GetDispatchIID@CCmdTarget@@UAEHPAU_GUID@@@Z
	DD	FLAT:?GetTypeInfoCount@CCmdTarget@@UAEIXZ
	DD	FLAT:?GetTypeLibCache@CCmdTarget@@UAEPAVCTypeLibCache@@XZ
	DD	FLAT:?GetTypeLib@CCmdTarget@@UAEJKPAPAUITypeLib@@@Z
	DD	FLAT:?GetMessageMap@CAboutDlg@@MBEPBUAFX_MSGMAP@@XZ
	DD	FLAT:?GetCommandMap@CCmdTarget@@MBEPBUAFX_OLECMDMAP@@XZ
	DD	FLAT:?GetDispatchMap@CCmdTarget@@MBEPBUAFX_DISPMAP@@XZ
	DD	FLAT:?GetConnectionMap@CCmdTarget@@MBEPBUAFX_CONNECTIONMAP@@XZ
	DD	FLAT:?GetInterfaceMap@CWnd@@MBEPBUAFX_INTERFACEMAP@@XZ
	DD	FLAT:?GetEventSinkMap@CCmdTarget@@MBEPBUAFX_EVENTSINKMAP@@XZ
	DD	FLAT:?OnCreateAggregates@CCmdTarget@@UAEHXZ
	DD	FLAT:?GetInterfaceHook@CCmdTarget@@UAEPAUIUnknown@@PBX@Z
	DD	FLAT:?GetExtraConnectionPoints@CCmdTarget@@MAEHPAVCPtrArray@@@Z
	DD	FLAT:?GetConnectionHook@CCmdTarget@@MAEPAUIConnectionPoint@@ABU_GUID@@@Z
	DD	FLAT:?PreSubclassWindow@CWnd@@UAEXXZ
	DD	FLAT:?Create@CWnd@@UAEHPB_W0KABUtagRECT@@PAV1@IPAUCCreateContext@@@Z
	DD	FLAT:?CreateEx@CWnd@@UAEHKPB_W0KABUtagRECT@@PAV1@IPAX@Z
	DD	FLAT:?CreateEx@CWnd@@UAEHKPB_W0KHHHHPAUHWND__@@PAUHMENU__@@PAX@Z
	DD	FLAT:?DestroyWindow@CWnd@@UAEHXZ
	DD	FLAT:?PreCreateWindow@CWnd@@UAEHAAUtagCREATESTRUCTW@@@Z
	DD	FLAT:?CalcWindowRect@CWnd@@UAEXPAUtagRECT@@I@Z
	DD	FLAT:?GetMenu@CWnd@@UBEPAVCMenu@@XZ
	DD	FLAT:?SetMenu@CWnd@@UAEHPAVCMenu@@@Z
	DD	FLAT:?OnToolHitTest@CWnd@@UBEHVCPoint@@PAUtagTOOLINFOW@@@Z
	DD	FLAT:?GetScrollBarCtrl@CWnd@@UBEPAVCScrollBar@@H@Z
	DD	FLAT:?WinHelpW@CWnd@@UAEXKI@Z
	DD	FLAT:?HtmlHelpW@CWnd@@UAEXKI@Z
	DD	FLAT:?WinHelpInternal@CWnd@@UAEXKI@Z
	DD	FLAT:?ContinueModal@CWnd@@UAEHXZ
	DD	FLAT:?EndModalLoop@CWnd@@UAEXH@Z
	DD	FLAT:?OnDrawIconicThumbnailOrLivePreview@CWnd@@UAEXAAVCDC@@VCRect@@VCSize@@HAAH@Z
	DD	FLAT:?EnsureStdObj@CWnd@@UAEJXZ
	DD	FLAT:?get_accParent@CWnd@@UAEJPAPAUIDispatch@@@Z
	DD	FLAT:?get_accChildCount@CWnd@@UAEJPAJ@Z
	DD	FLAT:?get_accChild@CWnd@@UAEJUtagVARIANT@@PAPAUIDispatch@@@Z
	DD	FLAT:?get_accName@CWnd@@UAEJUtagVARIANT@@PAPA_W@Z
	DD	FLAT:?get_accValue@CWnd@@UAEJUtagVARIANT@@PAPA_W@Z
	DD	FLAT:?get_accDescription@CWnd@@UAEJUtagVARIANT@@PAPA_W@Z
	DD	FLAT:?get_accRole@CWnd@@UAEJUtagVARIANT@@PAU2@@Z
	DD	FLAT:?get_accState@CWnd@@UAEJUtagVARIANT@@PAU2@@Z
	DD	FLAT:?get_accHelp@CWnd@@UAEJUtagVARIANT@@PAPA_W@Z
	DD	FLAT:?get_accHelpTopic@CWnd@@UAEJPAPA_WUtagVARIANT@@PAJ@Z
	DD	FLAT:?get_accKeyboardShortcut@CWnd@@UAEJUtagVARIANT@@PAPA_W@Z
	DD	FLAT:?get_accFocus@CWnd@@UAEJPAUtagVARIANT@@@Z
	DD	FLAT:?get_accSelection@CWnd@@UAEJPAUtagVARIANT@@@Z
	DD	FLAT:?get_accDefaultAction@CWnd@@UAEJUtagVARIANT@@PAPA_W@Z
	DD	FLAT:?accSelect@CWnd@@UAEJJUtagVARIANT@@@Z
	DD	FLAT:?accLocation@CWnd@@UAEJPAJ000UtagVARIANT@@@Z
	DD	FLAT:?accNavigate@CWnd@@UAEJJUtagVARIANT@@PAU2@@Z
	DD	FLAT:?accHitTest@CWnd@@UAEJJJPAUtagVARIANT@@@Z
	DD	FLAT:?accDoDefaultAction@CWnd@@UAEJUtagVARIANT@@@Z
	DD	FLAT:?put_accName@CWnd@@UAEJUtagVARIANT@@PA_W@Z
	DD	FLAT:?put_accValue@CWnd@@UAEJUtagVARIANT@@PA_W@Z
	DD	FLAT:?SetProxy@CWnd@@UAEJPAUIAccessibleProxy@@@Z
	DD	FLAT:?CreateAccessibleProxy@CWnd@@UAEJIJPAJ@Z
	DD	FLAT:?OnCommand@CWnd@@MAEHIJ@Z
	DD	FLAT:?OnNotify@CWnd@@MAEHIJPAJ@Z
	DD	FLAT:?GetSuperWndProcAddr@CWnd@@MAEPAP6GJPAUHWND__@@IIJ@ZXZ
	DD	FLAT:?DoDataExchange@CAboutDlg@@MAEXPAVCDataExchange@@@Z
	DD	FLAT:?BeginModalState@CWnd@@UAEXXZ
	DD	FLAT:?EndModalState@CWnd@@UAEXXZ
	DD	FLAT:?PreTranslateMessage@CDialog@@UAEHPAUtagMSG@@@Z
	DD	FLAT:?OnAmbientProperty@CWnd@@UAEHPAVCOleControlSite@@JPAUtagVARIANT@@@Z
	DD	FLAT:?WindowProc@CWnd@@MAEJIIJ@Z
	DD	FLAT:?OnWndMsg@CWnd@@MAEHIIJPAJ@Z
	DD	FLAT:?DefWindowProcW@CWnd@@MAEJIIJ@Z
	DD	FLAT:?PostNcDestroy@CWnd@@MAEXXZ
	DD	FLAT:?OnChildNotify@CWnd@@MAEHIIJPAJ@Z
	DD	FLAT:?OnTouchInputs@CWnd@@MAEHIPAUtagTOUCHINPUT@@@Z
	DD	FLAT:?OnTouchInput@CWnd@@MAEHVCPoint@@HHPAUtagTOUCHINPUT@@@Z
	DD	FLAT:?GetGestureStatus@CWnd@@MAEKVCPoint@@@Z
	DD	FLAT:?OnGestureZoom@CWnd@@MAEHVCPoint@@J@Z
	DD	FLAT:?OnGesturePan@CWnd@@MAEHVCPoint@@0@Z
	DD	FLAT:?OnGestureRotate@CWnd@@MAEHVCPoint@@N@Z
	DD	FLAT:?OnGestureTwoFingerTap@CWnd@@MAEHVCPoint@@@Z
	DD	FLAT:?OnGesturePressAndTap@CWnd@@MAEHVCPoint@@J@Z
	DD	FLAT:?CheckAutoCenter@CDialog@@UAEHXZ
	DD	FLAT:?IsFrameWnd@CWnd@@UBEHXZ
	DD	FLAT:?CreateControlContainer@CWnd@@MAEHPAPAVCOleControlContainer@@@Z
	DD	FLAT:?CreateControlSite@CWnd@@MAEHPAVCOleControlContainer@@PAPAVCOleControlSite@@IABU_GUID@@@Z
	DD	FLAT:?SetOccDialogInfo@CDialog@@MAEHPAU_AFX_OCC_DIALOG_INFO@@@Z
	DD	FLAT:?GetOccDialogInfo@CDialog@@MAEPAU_AFX_OCC_DIALOG_INFO@@XZ
	DD	FLAT:?Create@CDialog@@UAEHIPAVCWnd@@@Z
	DD	FLAT:?Create@CDialog@@UAEHPB_WPAVCWnd@@@Z
	DD	FLAT:?CreateIndirect@CDialog@@UAEHPAXPAVCWnd@@@Z
	DD	FLAT:?CreateIndirect@CDialog@@UAEHPBUDLGTEMPLATE@@PAVCWnd@@PAX@Z
	DD	FLAT:?DoModal@CDialog@@UAEHXZ
	DD	FLAT:?OnInitDialog@CDialog@@UAEHXZ
	DD	FLAT:?OnSetFont@CDialog@@UAEXPAVCFont@@@Z
	DD	FLAT:?OnOK@CDialog@@MAEXXZ
	DD	FLAT:?OnCancel@CDialog@@MAEXXZ
	DD	FLAT:?PreInitDialog@CDialog@@MAEXXZ
CONST	ENDS
;	COMDAT rtc$TMZ
rtc$TMZ	SEGMENT
__RTC_Shutdown.rtc$TMZ DD FLAT:__RTC_Shutdown
rtc$TMZ	ENDS
;	COMDAT rtc$IMZ
rtc$IMZ	SEGMENT
__RTC_InitBase.rtc$IMZ DD FLAT:__RTC_InitBase
; Function compile flags: /Odtp /RTCsu /ZI
rtc$IMZ	ENDS
;	COMDAT ??0CAboutDlg@@QAE@XZ
_TEXT	SEGMENT
_this$ = -8						; size = 4
??0CAboutDlg@@QAE@XZ PROC				; CAboutDlg::CAboutDlg, COMDAT
; _this$ = ecx

; 63   : {

  00000	55		 push	 ebp
  00001	8b ec		 mov	 ebp, esp
  00003	81 ec cc 00 00
	00		 sub	 esp, 204		; 000000ccH
  00009	53		 push	 ebx
  0000a	56		 push	 esi
  0000b	57		 push	 edi
  0000c	51		 push	 ecx
  0000d	8d bd 34 ff ff
	ff		 lea	 edi, DWORD PTR [ebp-204]
  00013	b9 33 00 00 00	 mov	 ecx, 51			; 00000033H
  00018	b8 cc cc cc cc	 mov	 eax, -858993460		; ccccccccH
  0001d	f3 ab		 rep stosd
  0001f	59		 pop	 ecx
  00020	89 4d f8	 mov	 DWORD PTR _this$[ebp], ecx
  00023	6a 00		 push	 0
  00025	6a 64		 push	 100			; 00000064H
  00027	8b 4d f8	 mov	 ecx, DWORD PTR _this$[ebp]
  0002a	e8 00 00 00 00	 call	 ??0CDialog@@QAE@IPAVCWnd@@@Z ; CDialog::CDialog
  0002f	8b 45 f8	 mov	 eax, DWORD PTR _this$[ebp]
  00032	c7 00 00 00 00
	00		 mov	 DWORD PTR [eax], OFFSET ??_7CAboutDlg@@6B@

; 64   : }

  00038	8b 45 f8	 mov	 eax, DWORD PTR _this$[ebp]
  0003b	5f		 pop	 edi
  0003c	5e		 pop	 esi
  0003d	5b		 pop	 ebx
  0003e	81 c4 cc 00 00
	00		 add	 esp, 204		; 000000ccH
  00044	3b ec		 cmp	 ebp, esp
  00046	e8 00 00 00 00	 call	 __RTC_CheckEsp
  0004b	8b e5		 mov	 esp, ebp
  0004d	5d		 pop	 ebp
  0004e	c3		 ret	 0
??0CAboutDlg@@QAE@XZ ENDP				; CAboutDlg::CAboutDlg
_TEXT	ENDS
PUBLIC	??1CAboutDlg@@UAE@XZ				; CAboutDlg::~CAboutDlg
EXTRN	??3CObject@@SGXPAX@Z:PROC			; CObject::operator delete
; Function compile flags: /Odtp /RTCsu /ZI
;	COMDAT ??_GCAboutDlg@@UAEPAXI@Z
_TEXT	SEGMENT
_this$ = -8						; size = 4
___flags$ = 8						; size = 4
??_GCAboutDlg@@UAEPAXI@Z PROC				; CAboutDlg::`scalar deleting destructor', COMDAT
; _this$ = ecx
  00000	55		 push	 ebp
  00001	8b ec		 mov	 ebp, esp
  00003	81 ec cc 00 00
	00		 sub	 esp, 204		; 000000ccH
  00009	53		 push	 ebx
  0000a	56		 push	 esi
  0000b	57		 push	 edi
  0000c	51		 push	 ecx
  0000d	8d bd 34 ff ff
	ff		 lea	 edi, DWORD PTR [ebp-204]
  00013	b9 33 00 00 00	 mov	 ecx, 51			; 00000033H
  00018	b8 cc cc cc cc	 mov	 eax, -858993460		; ccccccccH
  0001d	f3 ab		 rep stosd
  0001f	59		 pop	 ecx
  00020	89 4d f8	 mov	 DWORD PTR _this$[ebp], ecx
  00023	8b 4d f8	 mov	 ecx, DWORD PTR _this$[ebp]
  00026	e8 00 00 00 00	 call	 ??1CAboutDlg@@UAE@XZ
  0002b	8b 45 08	 mov	 eax, DWORD PTR ___flags$[ebp]
  0002e	83 e0 01	 and	 eax, 1
  00031	74 09		 je	 SHORT $LN1@scalar
  00033	8b 45 f8	 mov	 eax, DWORD PTR _this$[ebp]
  00036	50		 push	 eax
  00037	e8 00 00 00 00	 call	 ??3CObject@@SGXPAX@Z	; CObject::operator delete
$LN1@scalar:
  0003c	8b 45 f8	 mov	 eax, DWORD PTR _this$[ebp]
  0003f	5f		 pop	 edi
  00040	5e		 pop	 esi
  00041	5b		 pop	 ebx
  00042	81 c4 cc 00 00
	00		 add	 esp, 204		; 000000ccH
  00048	3b ec		 cmp	 ebp, esp
  0004a	e8 00 00 00 00	 call	 __RTC_CheckEsp
  0004f	8b e5		 mov	 esp, ebp
  00051	5d		 pop	 ebp
  00052	c2 04 00	 ret	 4
??_GCAboutDlg@@UAEPAXI@Z ENDP				; CAboutDlg::`scalar deleting destructor'
_TEXT	ENDS
EXTRN	??1CDialog@@UAE@XZ:PROC				; CDialog::~CDialog
; Function compile flags: /Odtp /RTCsu /ZI
;	COMDAT ??1CAboutDlg@@UAE@XZ
_TEXT	SEGMENT
_this$ = -8						; size = 4
??1CAboutDlg@@UAE@XZ PROC				; CAboutDlg::~CAboutDlg, COMDAT
; _this$ = ecx
  00000	55		 push	 ebp
  00001	8b ec		 mov	 ebp, esp
  00003	81 ec cc 00 00
	00		 sub	 esp, 204		; 000000ccH
  00009	53		 push	 ebx
  0000a	56		 push	 esi
  0000b	57		 push	 edi
  0000c	51		 push	 ecx
  0000d	8d bd 34 ff ff
	ff		 lea	 edi, DWORD PTR [ebp-204]
  00013	b9 33 00 00 00	 mov	 ecx, 51			; 00000033H
  00018	b8 cc cc cc cc	 mov	 eax, -858993460		; ccccccccH
  0001d	f3 ab		 rep stosd
  0001f	59		 pop	 ecx
  00020	89 4d f8	 mov	 DWORD PTR _this$[ebp], ecx
  00023	8b 4d f8	 mov	 ecx, DWORD PTR _this$[ebp]
  00026	e8 00 00 00 00	 call	 ??1CDialog@@UAE@XZ	; CDialog::~CDialog
  0002b	5f		 pop	 edi
  0002c	5e		 pop	 esi
  0002d	5b		 pop	 ebx
  0002e	81 c4 cc 00 00
	00		 add	 esp, 204		; 000000ccH
  00034	3b ec		 cmp	 ebp, esp
  00036	e8 00 00 00 00	 call	 __RTC_CheckEsp
  0003b	8b e5		 mov	 esp, ebp
  0003d	5d		 pop	 ebp
  0003e	c3		 ret	 0
??1CAboutDlg@@UAE@XZ ENDP				; CAboutDlg::~CAboutDlg
_TEXT	ENDS
EXTRN	?DoDataExchange@CWnd@@MAEXPAVCDataExchange@@@Z:PROC ; CWnd::DoDataExchange
; Function compile flags: /Odtp /RTCsu /ZI
;	COMDAT ?DoDataExchange@CAboutDlg@@MAEXPAVCDataExchange@@@Z
_TEXT	SEGMENT
_this$ = -8						; size = 4
_pDX$ = 8						; size = 4
?DoDataExchange@CAboutDlg@@MAEXPAVCDataExchange@@@Z PROC ; CAboutDlg::DoDataExchange, COMDAT
; _this$ = ecx

; 67   : {

  00000	55		 push	 ebp
  00001	8b ec		 mov	 ebp, esp
  00003	81 ec cc 00 00
	00		 sub	 esp, 204		; 000000ccH
  00009	53		 push	 ebx
  0000a	56		 push	 esi
  0000b	57		 push	 edi
  0000c	51		 push	 ecx
  0000d	8d bd 34 ff ff
	ff		 lea	 edi, DWORD PTR [ebp-204]
  00013	b9 33 00 00 00	 mov	 ecx, 51			; 00000033H
  00018	b8 cc cc cc cc	 mov	 eax, -858993460		; ccccccccH
  0001d	f3 ab		 rep stosd
  0001f	59		 pop	 ecx
  00020	89 4d f8	 mov	 DWORD PTR _this$[ebp], ecx

; 68   : 	CDialog::DoDataExchange(pDX);

  00023	8b 45 08	 mov	 eax, DWORD PTR _pDX$[ebp]
  00026	50		 push	 eax
  00027	8b 4d f8	 mov	 ecx, DWORD PTR _this$[ebp]
  0002a	e8 00 00 00 00	 call	 ?DoDataExchange@CWnd@@MAEXPAVCDataExchange@@@Z ; CWnd::DoDataExchange

; 69   : }

  0002f	5f		 pop	 edi
  00030	5e		 pop	 esi
  00031	5b		 pop	 ebx
  00032	81 c4 cc 00 00
	00		 add	 esp, 204		; 000000ccH
  00038	3b ec		 cmp	 ebp, esp
  0003a	e8 00 00 00 00	 call	 __RTC_CheckEsp
  0003f	8b e5		 mov	 esp, ebp
  00041	5d		 pop	 ebp
  00042	c2 04 00	 ret	 4
?DoDataExchange@CAboutDlg@@MAEXPAVCDataExchange@@@Z ENDP ; CAboutDlg::DoDataExchange
_TEXT	ENDS
PUBLIC	?GetThisMessageMap@CAboutDlg@@KGPBUAFX_MSGMAP@@XZ ; CAboutDlg::GetThisMessageMap
; Function compile flags: /Odtp /RTCsu /ZI
;	COMDAT ?GetMessageMap@CAboutDlg@@MBEPBUAFX_MSGMAP@@XZ
_TEXT	SEGMENT
_this$ = -8						; size = 4
?GetMessageMap@CAboutDlg@@MBEPBUAFX_MSGMAP@@XZ PROC	; CAboutDlg::GetMessageMap, COMDAT
; _this$ = ecx

; 71   : BEGIN_MESSAGE_MAP(CAboutDlg, CDialog)

  00000	55		 push	 ebp
  00001	8b ec		 mov	 ebp, esp
  00003	81 ec cc 00 00
	00		 sub	 esp, 204		; 000000ccH
  00009	53		 push	 ebx
  0000a	56		 push	 esi
  0000b	57		 push	 edi
  0000c	51		 push	 ecx
  0000d	8d bd 34 ff ff
	ff		 lea	 edi, DWORD PTR [ebp-204]
  00013	b9 33 00 00 00	 mov	 ecx, 51			; 00000033H
  00018	b8 cc cc cc cc	 mov	 eax, -858993460		; ccccccccH
  0001d	f3 ab		 rep stosd
  0001f	59		 pop	 ecx
  00020	89 4d f8	 mov	 DWORD PTR _this$[ebp], ecx
  00023	e8 00 00 00 00	 call	 ?GetThisMessageMap@CAboutDlg@@KGPBUAFX_MSGMAP@@XZ ; CAboutDlg::GetThisMessageMap
  00028	5f		 pop	 edi
  00029	5e		 pop	 esi
  0002a	5b		 pop	 ebx
  0002b	81 c4 cc 00 00
	00		 add	 esp, 204		; 000000ccH
  00031	3b ec		 cmp	 ebp, esp
  00033	e8 00 00 00 00	 call	 __RTC_CheckEsp
  00038	8b e5		 mov	 esp, ebp
  0003a	5d		 pop	 ebp
  0003b	c3		 ret	 0
?GetMessageMap@CAboutDlg@@MBEPBUAFX_MSGMAP@@XZ ENDP	; CAboutDlg::GetMessageMap
; Function compile flags: /Odtp /RTCsu /ZI
_TEXT	ENDS
;	COMDAT ?GetThisMessageMap@CAboutDlg@@KGPBUAFX_MSGMAP@@XZ
_TEXT	SEGMENT
?GetThisMessageMap@CAboutDlg@@KGPBUAFX_MSGMAP@@XZ PROC	; CAboutDlg::GetThisMessageMap, COMDAT

; 71   : BEGIN_MESSAGE_MAP(CAboutDlg, CDialog)

  00000	55		 push	 ebp
  00001	8b ec		 mov	 ebp, esp
  00003	81 ec c0 00 00
	00		 sub	 esp, 192		; 000000c0H
  00009	53		 push	 ebx
  0000a	56		 push	 esi
  0000b	57		 push	 edi
  0000c	8d bd 40 ff ff
	ff		 lea	 edi, DWORD PTR [ebp-192]
  00012	b9 30 00 00 00	 mov	 ecx, 48			; 00000030H
  00017	b8 cc cc cc cc	 mov	 eax, -858993460		; ccccccccH
  0001c	f3 ab		 rep stosd

; 72   : END_MESSAGE_MAP()

  0001e	b8 00 00 00 00	 mov	 eax, OFFSET ?messageMap@?1??GetThisMessageMap@CAboutDlg@@KGPBUAFX_MSGMAP@@XZ@4U3@B
  00023	5f		 pop	 edi
  00024	5e		 pop	 esi
  00025	5b		 pop	 ebx
  00026	8b e5		 mov	 esp, ebp
  00028	5d		 pop	 ebp
  00029	c3		 ret	 0
?GetThisMessageMap@CAboutDlg@@KGPBUAFX_MSGMAP@@XZ ENDP	; CAboutDlg::GetThisMessageMap
_TEXT	ENDS
PUBLIC	??1?$vector@V?$CStringT@_WV?$StrTraitMFC@_WV?$ChTraitsCRT@_W@ATL@@@@@ATL@@V?$allocator@V?$CStringT@_WV?$StrTraitMFC@_WV?$ChTraitsCRT@_W@ATL@@@@@ATL@@@std@@@std@@QAE@XZ ; std::vector<ATL::CStringT<wchar_t,StrTraitMFC<wchar_t,ATL::ChTraitsCRT<wchar_t> > >,std::allocator<ATL::CStringT<wchar_t,StrTraitMFC<wchar_t,ATL::ChTraitsCRT<wchar_t> > > > >::~vector<ATL::CStringT<wchar_t,StrTraitMFC<wchar_t,ATL::ChTraitsCRT<wchar_t> > >,std::allocator<ATL::CStringT<wchar_t,StrTraitMFC<wchar_t,ATL::ChTraitsCRT<wchar_t> > > > >
PUBLIC	??1?$CStringT@_WV?$StrTraitMFC@_WV?$ChTraitsCRT@_W@ATL@@@@@ATL@@QAE@XZ ; ATL::CStringT<wchar_t,StrTraitMFC<wchar_t,ATL::ChTraitsCRT<wchar_t> > >::~CStringT<wchar_t,StrTraitMFC<wchar_t,ATL::ChTraitsCRT<wchar_t> > >
PUBLIC	??0?$vector@V?$CStringT@_WV?$StrTraitMFC@_WV?$ChTraitsCRT@_W@ATL@@@@@ATL@@V?$allocator@V?$CStringT@_WV?$StrTraitMFC@_WV?$ChTraitsCRT@_W@ATL@@@@@ATL@@@std@@@std@@QAE@XZ ; std::vector<ATL::CStringT<wchar_t,StrTraitMFC<wchar_t,ATL::ChTraitsCRT<wchar_t> > >,std::allocator<ATL::CStringT<wchar_t,StrTraitMFC<wchar_t,ATL::ChTraitsCRT<wchar_t> > > > >::vector<ATL::CStringT<wchar_t,StrTraitMFC<wchar_t,ATL::ChTraitsCRT<wchar_t> > >,std::allocator<ATL::CStringT<wchar_t,StrTraitMFC<wchar_t,ATL::ChTraitsCRT<wchar_t> > > > >
PUBLIC	??0?$CStringT@_WV?$StrTraitMFC@_WV?$ChTraitsCRT@_W@ATL@@@@@ATL@@QAE@PB_W@Z ; ATL::CStringT<wchar_t,StrTraitMFC<wchar_t,ATL::ChTraitsCRT<wchar_t> > >::CStringT<wchar_t,StrTraitMFC<wchar_t,ATL::ChTraitsCRT<wchar_t> > >
PUBLIC	??_C@_11LOCGONAA@?$AA?$AA@			; `string'
PUBLIC	??_7CDviceCtrlDlgDlg@@6B@			; CDviceCtrlDlgDlg::`vftable'
PUBLIC	??0CDviceCtrlDlgDlg@@QAE@PAVCWnd@@@Z		; CDviceCtrlDlgDlg::CDviceCtrlDlgDlg
PUBLIC	??_R4CDviceCtrlDlgDlg@@6B@			; CDviceCtrlDlgDlg::`RTTI Complete Object Locator'
PUBLIC	??_R0?AVCDviceCtrlDlgDlg@@@8			; CDviceCtrlDlgDlg `RTTI Type Descriptor'
PUBLIC	??_R3CDviceCtrlDlgDlg@@8			; CDviceCtrlDlgDlg::`RTTI Class Hierarchy Descriptor'
PUBLIC	??_R2CDviceCtrlDlgDlg@@8			; CDviceCtrlDlgDlg::`RTTI Base Class Array'
PUBLIC	??_R1A@?0A@EA@CDviceCtrlDlgDlg@@8		; CDviceCtrlDlgDlg::`RTTI Base Class Descriptor at (0,-1,0,64)'
PUBLIC	?GetMessageMap@CDviceCtrlDlgDlg@@MBEPBUAFX_MSGMAP@@XZ ; CDviceCtrlDlgDlg::GetMessageMap
PUBLIC	?DoDataExchange@CDviceCtrlDlgDlg@@MAEXPAVCDataExchange@@@Z ; CDviceCtrlDlgDlg::DoDataExchange
PUBLIC	?PreTranslateMessage@CDviceCtrlDlgDlg@@UAEHPAUtagMSG@@@Z ; CDviceCtrlDlgDlg::PreTranslateMessage
PUBLIC	?OnInitDialog@CDviceCtrlDlgDlg@@MAEHXZ		; CDviceCtrlDlgDlg::OnInitDialog
EXTRN	??1CStatic@@UAE@XZ:PROC				; CStatic::~CStatic
EXTRN	??1CEdit@@UAE@XZ:PROC				; CEdit::~CEdit
EXTRN	??1CSliderCtrl@@UAE@XZ:PROC			; CSliderCtrl::~CSliderCtrl
EXTRN	??1CComPort@LsComm@@UAE@XZ:PROC			; LsComm::CComPort::~CComPort
EXTRN	_memset:PROC
EXTRN	?LoadIconW@CWinApp@@QBEPAUHICON__@@I@Z:PROC	; CWinApp::LoadIconW
EXTRN	?AfxGetApp@@YGPAVCWinApp@@XZ:PROC		; AfxGetApp
EXTRN	??0CStatic@@QAE@XZ:PROC				; CStatic::CStatic
EXTRN	??0CEdit@@QAE@XZ:PROC				; CEdit::CEdit
EXTRN	??0CSliderCtrl@@QAE@XZ:PROC			; CSliderCtrl::CSliderCtrl
EXTRN	??0CComPort@LsComm@@QAE@XZ:PROC			; LsComm::CComPort::CComPort
EXTRN	___security_cookie:DWORD
EXTRN	___CxxFrameHandler3:PROC
EXTRN	@__security_check_cookie@4:PROC
EXTRN	??_ECDviceCtrlDlgDlg@@UAEPAXI@Z:PROC		; CDviceCtrlDlgDlg::`vector deleting destructor'
;	COMDAT ??_R1A@?0A@EA@CDviceCtrlDlgDlg@@8
rdata$r	SEGMENT
??_R1A@?0A@EA@CDviceCtrlDlgDlg@@8 DD FLAT:??_R0?AVCDviceCtrlDlgDlg@@@8 ; CDviceCtrlDlgDlg::`RTTI Base Class Descriptor at (0,-1,0,64)'
	DD	04H
	DD	00H
	DD	0ffffffffH
	DD	00H
	DD	040H
	DD	FLAT:??_R3CDviceCtrlDlgDlg@@8
rdata$r	ENDS
;	COMDAT ??_R2CDviceCtrlDlgDlg@@8
rdata$r	SEGMENT
??_R2CDviceCtrlDlgDlg@@8 DD FLAT:??_R1A@?0A@EA@CDviceCtrlDlgDlg@@8 ; CDviceCtrlDlgDlg::`RTTI Base Class Array'
	DD	FLAT:??_R1A@?0A@EA@CDialog@@8
	DD	FLAT:??_R1A@?0A@EA@CWnd@@8
	DD	FLAT:??_R1A@?0A@EA@CCmdTarget@@8
	DD	FLAT:??_R1A@?0A@EA@CObject@@8
rdata$r	ENDS
;	COMDAT ??_R3CDviceCtrlDlgDlg@@8
rdata$r	SEGMENT
??_R3CDviceCtrlDlgDlg@@8 DD 00H				; CDviceCtrlDlgDlg::`RTTI Class Hierarchy Descriptor'
	DD	00H
	DD	05H
	DD	FLAT:??_R2CDviceCtrlDlgDlg@@8
rdata$r	ENDS
;	COMDAT ??_R0?AVCDviceCtrlDlgDlg@@@8
_DATA	SEGMENT
??_R0?AVCDviceCtrlDlgDlg@@@8 DD FLAT:??_7type_info@@6B@	; CDviceCtrlDlgDlg `RTTI Type Descriptor'
	DD	00H
	DB	'.?AVCDviceCtrlDlgDlg@@', 00H
_DATA	ENDS
;	COMDAT ??_R4CDviceCtrlDlgDlg@@6B@
rdata$r	SEGMENT
??_R4CDviceCtrlDlgDlg@@6B@ DD 00H			; CDviceCtrlDlgDlg::`RTTI Complete Object Locator'
	DD	00H
	DD	00H
	DD	FLAT:??_R0?AVCDviceCtrlDlgDlg@@@8
	DD	FLAT:??_R3CDviceCtrlDlgDlg@@8
rdata$r	ENDS
;	COMDAT ??_C@_11LOCGONAA@?$AA?$AA@
CONST	SEGMENT
??_C@_11LOCGONAA@?$AA?$AA@ DB 00H, 00H			; `string'
CONST	ENDS
;	COMDAT ??_7CDviceCtrlDlgDlg@@6B@
CONST	SEGMENT
??_7CDviceCtrlDlgDlg@@6B@ DD FLAT:??_R4CDviceCtrlDlgDlg@@6B@ ; CDviceCtrlDlgDlg::`vftable'
	DD	FLAT:?GetRuntimeClass@CDialog@@UBEPAUCRuntimeClass@@XZ
	DD	FLAT:??_ECDviceCtrlDlgDlg@@UAEPAXI@Z
	DD	FLAT:?Serialize@CObject@@UAEXAAVCArchive@@@Z
	DD	FLAT:?AssertValid@CDialog@@UBEXXZ
	DD	FLAT:?Dump@CDialog@@UBEXAAVCDumpContext@@@Z
	DD	FLAT:?OnCmdMsg@CDialog@@UAEHIHPAXPAUAFX_CMDHANDLERINFO@@@Z
	DD	FLAT:?OnFinalRelease@CWnd@@UAEXXZ
	DD	FLAT:?IsInvokeAllowed@CCmdTarget@@UAEHJ@Z
	DD	FLAT:?GetDispatchIID@CCmdTarget@@UAEHPAU_GUID@@@Z
	DD	FLAT:?GetTypeInfoCount@CCmdTarget@@UAEIXZ
	DD	FLAT:?GetTypeLibCache@CCmdTarget@@UAEPAVCTypeLibCache@@XZ
	DD	FLAT:?GetTypeLib@CCmdTarget@@UAEJKPAPAUITypeLib@@@Z
	DD	FLAT:?GetMessageMap@CDviceCtrlDlgDlg@@MBEPBUAFX_MSGMAP@@XZ
	DD	FLAT:?GetCommandMap@CCmdTarget@@MBEPBUAFX_OLECMDMAP@@XZ
	DD	FLAT:?GetDispatchMap@CCmdTarget@@MBEPBUAFX_DISPMAP@@XZ
	DD	FLAT:?GetConnectionMap@CCmdTarget@@MBEPBUAFX_CONNECTIONMAP@@XZ
	DD	FLAT:?GetInterfaceMap@CWnd@@MBEPBUAFX_INTERFACEMAP@@XZ
	DD	FLAT:?GetEventSinkMap@CCmdTarget@@MBEPBUAFX_EVENTSINKMAP@@XZ
	DD	FLAT:?OnCreateAggregates@CCmdTarget@@UAEHXZ
	DD	FLAT:?GetInterfaceHook@CCmdTarget@@UAEPAUIUnknown@@PBX@Z
	DD	FLAT:?GetExtraConnectionPoints@CCmdTarget@@MAEHPAVCPtrArray@@@Z
	DD	FLAT:?GetConnectionHook@CCmdTarget@@MAEPAUIConnectionPoint@@ABU_GUID@@@Z
	DD	FLAT:?PreSubclassWindow@CWnd@@UAEXXZ
	DD	FLAT:?Create@CWnd@@UAEHPB_W0KABUtagRECT@@PAV1@IPAUCCreateContext@@@Z
	DD	FLAT:?CreateEx@CWnd@@UAEHKPB_W0KABUtagRECT@@PAV1@IPAX@Z
	DD	FLAT:?CreateEx@CWnd@@UAEHKPB_W0KHHHHPAUHWND__@@PAUHMENU__@@PAX@Z
	DD	FLAT:?DestroyWindow@CWnd@@UAEHXZ
	DD	FLAT:?PreCreateWindow@CWnd@@UAEHAAUtagCREATESTRUCTW@@@Z
	DD	FLAT:?CalcWindowRect@CWnd@@UAEXPAUtagRECT@@I@Z
	DD	FLAT:?GetMenu@CWnd@@UBEPAVCMenu@@XZ
	DD	FLAT:?SetMenu@CWnd@@UAEHPAVCMenu@@@Z
	DD	FLAT:?OnToolHitTest@CWnd@@UBEHVCPoint@@PAUtagTOOLINFOW@@@Z
	DD	FLAT:?GetScrollBarCtrl@CWnd@@UBEPAVCScrollBar@@H@Z
	DD	FLAT:?WinHelpW@CWnd@@UAEXKI@Z
	DD	FLAT:?HtmlHelpW@CWnd@@UAEXKI@Z
	DD	FLAT:?WinHelpInternal@CWnd@@UAEXKI@Z
	DD	FLAT:?ContinueModal@CWnd@@UAEHXZ
	DD	FLAT:?EndModalLoop@CWnd@@UAEXH@Z
	DD	FLAT:?OnDrawIconicThumbnailOrLivePreview@CWnd@@UAEXAAVCDC@@VCRect@@VCSize@@HAAH@Z
	DD	FLAT:?EnsureStdObj@CWnd@@UAEJXZ
	DD	FLAT:?get_accParent@CWnd@@UAEJPAPAUIDispatch@@@Z
	DD	FLAT:?get_accChildCount@CWnd@@UAEJPAJ@Z
	DD	FLAT:?get_accChild@CWnd@@UAEJUtagVARIANT@@PAPAUIDispatch@@@Z
	DD	FLAT:?get_accName@CWnd@@UAEJUtagVARIANT@@PAPA_W@Z
	DD	FLAT:?get_accValue@CWnd@@UAEJUtagVARIANT@@PAPA_W@Z
	DD	FLAT:?get_accDescription@CWnd@@UAEJUtagVARIANT@@PAPA_W@Z
	DD	FLAT:?get_accRole@CWnd@@UAEJUtagVARIANT@@PAU2@@Z
	DD	FLAT:?get_accState@CWnd@@UAEJUtagVARIANT@@PAU2@@Z
	DD	FLAT:?get_accHelp@CWnd@@UAEJUtagVARIANT@@PAPA_W@Z
	DD	FLAT:?get_accHelpTopic@CWnd@@UAEJPAPA_WUtagVARIANT@@PAJ@Z
	DD	FLAT:?get_accKeyboardShortcut@CWnd@@UAEJUtagVARIANT@@PAPA_W@Z
	DD	FLAT:?get_accFocus@CWnd@@UAEJPAUtagVARIANT@@@Z
	DD	FLAT:?get_accSelection@CWnd@@UAEJPAUtagVARIANT@@@Z
	DD	FLAT:?get_accDefaultAction@CWnd@@UAEJUtagVARIANT@@PAPA_W@Z
	DD	FLAT:?accSelect@CWnd@@UAEJJUtagVARIANT@@@Z
	DD	FLAT:?accLocation@CWnd@@UAEJPAJ000UtagVARIANT@@@Z
	DD	FLAT:?accNavigate@CWnd@@UAEJJUtagVARIANT@@PAU2@@Z
	DD	FLAT:?accHitTest@CWnd@@UAEJJJPAUtagVARIANT@@@Z
	DD	FLAT:?accDoDefaultAction@CWnd@@UAEJUtagVARIANT@@@Z
	DD	FLAT:?put_accName@CWnd@@UAEJUtagVARIANT@@PA_W@Z
	DD	FLAT:?put_accValue@CWnd@@UAEJUtagVARIANT@@PA_W@Z
	DD	FLAT:?SetProxy@CWnd@@UAEJPAUIAccessibleProxy@@@Z
	DD	FLAT:?CreateAccessibleProxy@CWnd@@UAEJIJPAJ@Z
	DD	FLAT:?OnCommand@CWnd@@MAEHIJ@Z
	DD	FLAT:?OnNotify@CWnd@@MAEHIJPAJ@Z
	DD	FLAT:?GetSuperWndProcAddr@CWnd@@MAEPAP6GJPAUHWND__@@IIJ@ZXZ
	DD	FLAT:?DoDataExchange@CDviceCtrlDlgDlg@@MAEXPAVCDataExchange@@@Z
	DD	FLAT:?BeginModalState@CWnd@@UAEXXZ
	DD	FLAT:?EndModalState@CWnd@@UAEXXZ
	DD	FLAT:?PreTranslateMessage@CDviceCtrlDlgDlg@@UAEHPAUtagMSG@@@Z
	DD	FLAT:?OnAmbientProperty@CWnd@@UAEHPAVCOleControlSite@@JPAUtagVARIANT@@@Z
	DD	FLAT:?WindowProc@CWnd@@MAEJIIJ@Z
	DD	FLAT:?OnWndMsg@CWnd@@MAEHIIJPAJ@Z
	DD	FLAT:?DefWindowProcW@CWnd@@MAEJIIJ@Z
	DD	FLAT:?PostNcDestroy@CWnd@@MAEXXZ
	DD	FLAT:?OnChildNotify@CWnd@@MAEHIIJPAJ@Z
	DD	FLAT:?OnTouchInputs@CWnd@@MAEHIPAUtagTOUCHINPUT@@@Z
	DD	FLAT:?OnTouchInput@CWnd@@MAEHVCPoint@@HHPAUtagTOUCHINPUT@@@Z
	DD	FLAT:?GetGestureStatus@CWnd@@MAEKVCPoint@@@Z
	DD	FLAT:?OnGestureZoom@CWnd@@MAEHVCPoint@@J@Z
	DD	FLAT:?OnGesturePan@CWnd@@MAEHVCPoint@@0@Z
	DD	FLAT:?OnGestureRotate@CWnd@@MAEHVCPoint@@N@Z
	DD	FLAT:?OnGestureTwoFingerTap@CWnd@@MAEHVCPoint@@@Z
	DD	FLAT:?OnGesturePressAndTap@CWnd@@MAEHVCPoint@@J@Z
	DD	FLAT:?CheckAutoCenter@CDialog@@UAEHXZ
	DD	FLAT:?IsFrameWnd@CWnd@@UBEHXZ
	DD	FLAT:?CreateControlContainer@CWnd@@MAEHPAPAVCOleControlContainer@@@Z
	DD	FLAT:?CreateControlSite@CWnd@@MAEHPAVCOleControlContainer@@PAPAVCOleControlSite@@IABU_GUID@@@Z
	DD	FLAT:?SetOccDialogInfo@CDialog@@MAEHPAU_AFX_OCC_DIALOG_INFO@@@Z
	DD	FLAT:?GetOccDialogInfo@CDialog@@MAEPAU_AFX_OCC_DIALOG_INFO@@XZ
	DD	FLAT:?Create@CDialog@@UAEHIPAVCWnd@@@Z
	DD	FLAT:?Create@CDialog@@UAEHPB_WPAVCWnd@@@Z
	DD	FLAT:?CreateIndirect@CDialog@@UAEHPAXPAVCWnd@@@Z
	DD	FLAT:?CreateIndirect@CDialog@@UAEHPBUDLGTEMPLATE@@PAVCWnd@@PAX@Z
	DD	FLAT:?DoModal@CDialog@@UAEHXZ
	DD	FLAT:?OnInitDialog@CDviceCtrlDlgDlg@@MAEHXZ
	DD	FLAT:?OnSetFont@CDialog@@UAEXPAVCFont@@@Z
	DD	FLAT:?OnOK@CDialog@@MAEXXZ
	DD	FLAT:?OnCancel@CDialog@@MAEXXZ
	DD	FLAT:?PreInitDialog@CDialog@@MAEXXZ
CONST	ENDS
;	COMDAT xdata$x
xdata$x	SEGMENT
__ehfuncinfo$??0CDviceCtrlDlgDlg@@QAE@PAVCWnd@@@Z DD 019930522H
	DD	07H
	DD	FLAT:__unwindtable$??0CDviceCtrlDlgDlg@@QAE@PAVCWnd@@@Z
	DD	2 DUP(00H)
	DD	2 DUP(00H)
	DD	00H
	DD	01H
__unwindtable$??0CDviceCtrlDlgDlg@@QAE@PAVCWnd@@@Z DD 0ffffffffH
	DD	FLAT:__unwindfunclet$??0CDviceCtrlDlgDlg@@QAE@PAVCWnd@@@Z$0
	DD	00H
	DD	FLAT:__unwindfunclet$??0CDviceCtrlDlgDlg@@QAE@PAVCWnd@@@Z$1
	DD	01H
	DD	FLAT:__unwindfunclet$??0CDviceCtrlDlgDlg@@QAE@PAVCWnd@@@Z$2
	DD	02H
	DD	FLAT:__unwindfunclet$??0CDviceCtrlDlgDlg@@QAE@PAVCWnd@@@Z$3
	DD	03H
	DD	FLAT:__unwindfunclet$??0CDviceCtrlDlgDlg@@QAE@PAVCWnd@@@Z$4
	DD	04H
	DD	FLAT:__unwindfunclet$??0CDviceCtrlDlgDlg@@QAE@PAVCWnd@@@Z$5
	DD	05H
	DD	FLAT:__unwindfunclet$??0CDviceCtrlDlgDlg@@QAE@PAVCWnd@@@Z$6
; Function compile flags: /Odtp /RTCsu /ZI
xdata$x	ENDS
;	COMDAT ??0CDviceCtrlDlgDlg@@QAE@PAVCWnd@@@Z
_TEXT	SEGMENT
_this$ = -20						; size = 4
__$EHRec$ = -12						; size = 12
_pParent$ = 8						; size = 4
??0CDviceCtrlDlgDlg@@QAE@PAVCWnd@@@Z PROC		; CDviceCtrlDlgDlg::CDviceCtrlDlgDlg, COMDAT
; _this$ = ecx

; 107  : {

  00000	55		 push	 ebp
  00001	8b ec		 mov	 ebp, esp
  00003	6a ff		 push	 -1
  00005	68 00 00 00 00	 push	 __ehhandler$??0CDviceCtrlDlgDlg@@QAE@PAVCWnd@@@Z
  0000a	64 a1 00 00 00
	00		 mov	 eax, DWORD PTR fs:0
  00010	50		 push	 eax
  00011	81 ec cc 00 00
	00		 sub	 esp, 204		; 000000ccH
  00017	53		 push	 ebx
  00018	56		 push	 esi
  00019	57		 push	 edi
  0001a	51		 push	 ecx
  0001b	8d bd 28 ff ff
	ff		 lea	 edi, DWORD PTR [ebp-216]
  00021	b9 33 00 00 00	 mov	 ecx, 51			; 00000033H
  00026	b8 cc cc cc cc	 mov	 eax, -858993460		; ccccccccH
  0002b	f3 ab		 rep stosd
  0002d	59		 pop	 ecx
  0002e	a1 00 00 00 00	 mov	 eax, DWORD PTR ___security_cookie
  00033	33 c5		 xor	 eax, ebp
  00035	50		 push	 eax
  00036	8d 45 f4	 lea	 eax, DWORD PTR __$EHRec$[ebp]
  00039	64 a3 00 00 00
	00		 mov	 DWORD PTR fs:0, eax
  0003f	89 4d ec	 mov	 DWORD PTR _this$[ebp], ecx
  00042	8b 45 08	 mov	 eax, DWORD PTR _pParent$[ebp]
  00045	50		 push	 eax
  00046	6a 66		 push	 102			; 00000066H
  00048	8b 4d ec	 mov	 ecx, DWORD PTR _this$[ebp]
  0004b	e8 00 00 00 00	 call	 ??0CDialog@@QAE@IPAVCWnd@@@Z ; CDialog::CDialog
  00050	c7 45 fc 00 00
	00 00		 mov	 DWORD PTR __$EHRec$[ebp+8], 0
  00057	8b 45 ec	 mov	 eax, DWORD PTR _this$[ebp]
  0005a	c7 00 00 00 00
	00		 mov	 DWORD PTR [eax], OFFSET ??_7CDviceCtrlDlgDlg@@6B@
  00060	8b 4d ec	 mov	 ecx, DWORD PTR _this$[ebp]
  00063	81 c1 30 01 00
	00		 add	 ecx, 304		; 00000130H
  00069	e8 00 00 00 00	 call	 ??0CComPort@LsComm@@QAE@XZ ; LsComm::CComPort::CComPort
  0006e	c6 45 fc 01	 mov	 BYTE PTR __$EHRec$[ebp+8], 1
  00072	8b 45 ec	 mov	 eax, DWORD PTR _this$[ebp]
  00075	c7 80 78 09 00
	00 00 00 00 00	 mov	 DWORD PTR [eax+2424], 0
  0007f	8b 45 ec	 mov	 eax, DWORD PTR _this$[ebp]
  00082	c7 80 7c 09 00
	00 ff ff ff ff	 mov	 DWORD PTR [eax+2428], -1
  0008c	8b 45 ec	 mov	 eax, DWORD PTR _this$[ebp]
  0008f	c7 80 80 09 00
	00 ff ff ff ff	 mov	 DWORD PTR [eax+2432], -1
  00099	8b 45 ec	 mov	 eax, DWORD PTR _this$[ebp]
  0009c	c7 80 84 09 00
	00 ff ff ff ff	 mov	 DWORD PTR [eax+2436], -1
  000a6	8b 45 ec	 mov	 eax, DWORD PTR _this$[ebp]
  000a9	c7 80 88 09 00
	00 ff ff ff ff	 mov	 DWORD PTR [eax+2440], -1
  000b3	8b 45 ec	 mov	 eax, DWORD PTR _this$[ebp]
  000b6	c7 80 8c 09 00
	00 ff ff ff ff	 mov	 DWORD PTR [eax+2444], -1
  000c0	8b 45 ec	 mov	 eax, DWORD PTR _this$[ebp]
  000c3	c7 80 90 09 00
	00 ff ff ff ff	 mov	 DWORD PTR [eax+2448], -1
  000cd	8b 45 ec	 mov	 eax, DWORD PTR _this$[ebp]
  000d0	c7 80 94 09 00
	00 00 00 00 00	 mov	 DWORD PTR [eax+2452], 0
  000da	68 00 00 00 00	 push	 OFFSET ??_C@_11LOCGONAA@?$AA?$AA@
  000df	8b 4d ec	 mov	 ecx, DWORD PTR _this$[ebp]
  000e2	81 c1 98 09 00
	00		 add	 ecx, 2456		; 00000998H
  000e8	e8 00 00 00 00	 call	 ??0?$CStringT@_WV?$StrTraitMFC@_WV?$ChTraitsCRT@_W@ATL@@@@@ATL@@QAE@PB_W@Z ; ATL::CStringT<wchar_t,StrTraitMFC<wchar_t,ATL::ChTraitsCRT<wchar_t> > >::CStringT<wchar_t,StrTraitMFC<wchar_t,ATL::ChTraitsCRT<wchar_t> > >
  000ed	c6 45 fc 02	 mov	 BYTE PTR __$EHRec$[ebp+8], 2
  000f1	8b 4d ec	 mov	 ecx, DWORD PTR _this$[ebp]
  000f4	81 c1 9c 09 00
	00		 add	 ecx, 2460		; 0000099cH
  000fa	e8 00 00 00 00	 call	 ??0CSliderCtrl@@QAE@XZ	; CSliderCtrl::CSliderCtrl
  000ff	c6 45 fc 03	 mov	 BYTE PTR __$EHRec$[ebp+8], 3
  00103	8b 45 ec	 mov	 eax, DWORD PTR _this$[ebp]
  00106	c7 80 10 0a 00
	00 00 00 00 00	 mov	 DWORD PTR [eax+2576], 0
  00110	8b 4d ec	 mov	 ecx, DWORD PTR _this$[ebp]
  00113	81 c1 14 0a 00
	00		 add	 ecx, 2580		; 00000a14H
  00119	e8 00 00 00 00	 call	 ??0CEdit@@QAE@XZ	; CEdit::CEdit
  0011e	c6 45 fc 04	 mov	 BYTE PTR __$EHRec$[ebp+8], 4
  00122	8b 4d ec	 mov	 ecx, DWORD PTR _this$[ebp]
  00125	81 c1 88 0a 00
	00		 add	 ecx, 2696		; 00000a88H
  0012b	e8 00 00 00 00	 call	 ??0CStatic@@QAE@XZ	; CStatic::CStatic
  00130	c6 45 fc 05	 mov	 BYTE PTR __$EHRec$[ebp+8], 5
  00134	8b 45 ec	 mov	 eax, DWORD PTR _this$[ebp]
  00137	c7 80 fc 0a 00
	00 00 00 00 00	 mov	 DWORD PTR [eax+2812], 0
  00141	8b 45 ec	 mov	 eax, DWORD PTR _this$[ebp]
  00144	c6 80 00 0b 00
	00 00		 mov	 BYTE PTR [eax+2816], 0
  0014b	8b 45 ec	 mov	 eax, DWORD PTR _this$[ebp]
  0014e	c7 80 04 0b 00
	00 00 00 00 00	 mov	 DWORD PTR [eax+2820], 0
  00158	8b 45 ec	 mov	 eax, DWORD PTR _this$[ebp]
  0015b	c7 80 08 0b 00
	00 00 00 00 00	 mov	 DWORD PTR [eax+2824], 0
  00165	8b 45 ec	 mov	 eax, DWORD PTR _this$[ebp]
  00168	c7 80 0c 0b 00
	00 ff ff ff ff	 mov	 DWORD PTR [eax+2828], -1
  00172	8b 45 ec	 mov	 eax, DWORD PTR _this$[ebp]
  00175	c7 80 10 0b 00
	00 ff ff ff ff	 mov	 DWORD PTR [eax+2832], -1
  0017f	8b 45 ec	 mov	 eax, DWORD PTR _this$[ebp]
  00182	c7 80 14 0b 00
	00 00 00 00 00	 mov	 DWORD PTR [eax+2836], 0
  0018c	8b 4d ec	 mov	 ecx, DWORD PTR _this$[ebp]
  0018f	81 c1 18 0b 00
	00		 add	 ecx, 2840		; 00000b18H
  00195	e8 00 00 00 00	 call	 ??0?$vector@V?$CStringT@_WV?$StrTraitMFC@_WV?$ChTraitsCRT@_W@ATL@@@@@ATL@@V?$allocator@V?$CStringT@_WV?$StrTraitMFC@_WV?$ChTraitsCRT@_W@ATL@@@@@ATL@@@std@@@std@@QAE@XZ ; std::vector<ATL::CStringT<wchar_t,StrTraitMFC<wchar_t,ATL::ChTraitsCRT<wchar_t> > >,std::allocator<ATL::CStringT<wchar_t,StrTraitMFC<wchar_t,ATL::ChTraitsCRT<wchar_t> > > > >::vector<ATL::CStringT<wchar_t,StrTraitMFC<wchar_t,ATL::ChTraitsCRT<wchar_t> > >,std::allocator<ATL::CStringT<wchar_t,StrTraitMFC<wchar_t,ATL::ChTraitsCRT<wchar_t> > > > >
  0019a	c6 45 fc 06	 mov	 BYTE PTR __$EHRec$[ebp+8], 6
  0019e	8b 45 ec	 mov	 eax, DWORD PTR _this$[ebp]
  001a1	c7 80 2c 0b 00
	00 00 00 00 00	 mov	 DWORD PTR [eax+2860], 0
  001ab	8b 45 ec	 mov	 eax, DWORD PTR _this$[ebp]
  001ae	c7 80 30 0b 00
	00 00 00 00 00	 mov	 DWORD PTR [eax+2864], 0
  001b8	8b 45 ec	 mov	 eax, DWORD PTR _this$[ebp]
  001bb	c7 80 34 0b 00
	00 00 00 00 00	 mov	 DWORD PTR [eax+2868], 0
  001c5	8b 45 ec	 mov	 eax, DWORD PTR _this$[ebp]
  001c8	c7 80 38 0b 00
	00 00 00 00 00	 mov	 DWORD PTR [eax+2872], 0
  001d2	8b 45 ec	 mov	 eax, DWORD PTR _this$[ebp]
  001d5	c7 80 3c 0b 00
	00 00 00 00 00	 mov	 DWORD PTR [eax+2876], 0
  001df	8b 45 ec	 mov	 eax, DWORD PTR _this$[ebp]
  001e2	c7 80 40 0b 00
	00 00 00 00 00	 mov	 DWORD PTR [eax+2880], 0
  001ec	8b 45 ec	 mov	 eax, DWORD PTR _this$[ebp]
  001ef	c7 80 44 0b 00
	00 00 00 00 00	 mov	 DWORD PTR [eax+2884], 0

; 108  : 	m_hIcon = AfxGetApp()->LoadIcon(IDR_MAINFRAME);

  001f9	68 80 00 00 00	 push	 128			; 00000080H
  001fe	e8 00 00 00 00	 call	 ?AfxGetApp@@YGPAVCWinApp@@XZ ; AfxGetApp
  00203	8b c8		 mov	 ecx, eax
  00205	e8 00 00 00 00	 call	 ?LoadIconW@CWinApp@@QBEPAUHICON__@@I@Z ; CWinApp::LoadIconW
  0020a	8b 4d ec	 mov	 ecx, DWORD PTR _this$[ebp]
  0020d	89 81 94 00 00
	00		 mov	 DWORD PTR [ecx+148], eax

; 109  : 	memset(nListCTimer, 0, sizeof(nListCTimer));

  00213	6a 68		 push	 104			; 00000068H
  00215	6a 00		 push	 0
  00217	8b 45 ec	 mov	 eax, DWORD PTR _this$[ebp]
  0021a	05 c8 00 00 00	 add	 eax, 200		; 000000c8H
  0021f	50		 push	 eax
  00220	e8 00 00 00 00	 call	 _memset
  00225	83 c4 0c	 add	 esp, 12			; 0000000cH

; 110  : }

  00228	c7 45 fc ff ff
	ff ff		 mov	 DWORD PTR __$EHRec$[ebp+8], -1
  0022f	8b 45 ec	 mov	 eax, DWORD PTR _this$[ebp]
  00232	8b 4d f4	 mov	 ecx, DWORD PTR __$EHRec$[ebp]
  00235	64 89 0d 00 00
	00 00		 mov	 DWORD PTR fs:0, ecx
  0023c	59		 pop	 ecx
  0023d	5f		 pop	 edi
  0023e	5e		 pop	 esi
  0023f	5b		 pop	 ebx
  00240	81 c4 d8 00 00
	00		 add	 esp, 216		; 000000d8H
  00246	3b ec		 cmp	 ebp, esp
  00248	e8 00 00 00 00	 call	 __RTC_CheckEsp
  0024d	8b e5		 mov	 esp, ebp
  0024f	5d		 pop	 ebp
  00250	c2 04 00	 ret	 4
_TEXT	ENDS
;	COMDAT text$x
text$x	SEGMENT
__unwindfunclet$??0CDviceCtrlDlgDlg@@QAE@PAVCWnd@@@Z$0:
  00000	8b 4d ec	 mov	 ecx, DWORD PTR _this$[ebp]
  00003	e9 00 00 00 00	 jmp	 ??1CDialog@@UAE@XZ	; CDialog::~CDialog
__unwindfunclet$??0CDviceCtrlDlgDlg@@QAE@PAVCWnd@@@Z$1:
  00008	8b 4d ec	 mov	 ecx, DWORD PTR _this$[ebp]
  0000b	81 c1 30 01 00
	00		 add	 ecx, 304		; 00000130H
  00011	e9 00 00 00 00	 jmp	 ??1CComPort@LsComm@@UAE@XZ ; LsComm::CComPort::~CComPort
__unwindfunclet$??0CDviceCtrlDlgDlg@@QAE@PAVCWnd@@@Z$2:
  00016	8b 4d ec	 mov	 ecx, DWORD PTR _this$[ebp]
  00019	81 c1 98 09 00
	00		 add	 ecx, 2456		; 00000998H
  0001f	e9 00 00 00 00	 jmp	 ??1?$CStringT@_WV?$StrTraitMFC@_WV?$ChTraitsCRT@_W@ATL@@@@@ATL@@QAE@XZ ; ATL::CStringT<wchar_t,StrTraitMFC<wchar_t,ATL::ChTraitsCRT<wchar_t> > >::~CStringT<wchar_t,StrTraitMFC<wchar_t,ATL::ChTraitsCRT<wchar_t> > >
__unwindfunclet$??0CDviceCtrlDlgDlg@@QAE@PAVCWnd@@@Z$3:
  00024	8b 4d ec	 mov	 ecx, DWORD PTR _this$[ebp]
  00027	81 c1 9c 09 00
	00		 add	 ecx, 2460		; 0000099cH
  0002d	e9 00 00 00 00	 jmp	 ??1CSliderCtrl@@UAE@XZ	; CSliderCtrl::~CSliderCtrl
__unwindfunclet$??0CDviceCtrlDlgDlg@@QAE@PAVCWnd@@@Z$4:
  00032	8b 4d ec	 mov	 ecx, DWORD PTR _this$[ebp]
  00035	81 c1 14 0a 00
	00		 add	 ecx, 2580		; 00000a14H
  0003b	e9 00 00 00 00	 jmp	 ??1CEdit@@UAE@XZ	; CEdit::~CEdit
__unwindfunclet$??0CDviceCtrlDlgDlg@@QAE@PAVCWnd@@@Z$5:
  00040	8b 4d ec	 mov	 ecx, DWORD PTR _this$[ebp]
  00043	81 c1 88 0a 00
	00		 add	 ecx, 2696		; 00000a88H
  00049	e9 00 00 00 00	 jmp	 ??1CStatic@@UAE@XZ	; CStatic::~CStatic
__unwindfunclet$??0CDviceCtrlDlgDlg@@QAE@PAVCWnd@@@Z$6:
  0004e	8b 4d ec	 mov	 ecx, DWORD PTR _this$[ebp]
  00051	81 c1 18 0b 00
	00		 add	 ecx, 2840		; 00000b18H
  00057	e9 00 00 00 00	 jmp	 ??1?$vector@V?$CStringT@_WV?$StrTraitMFC@_WV?$ChTraitsCRT@_W@ATL@@@@@ATL@@V?$allocator@V?$CStringT@_WV?$StrTraitMFC@_WV?$ChTraitsCRT@_W@ATL@@@@@ATL@@@std@@@std@@QAE@XZ ; std::vector<ATL::CStringT<wchar_t,StrTraitMFC<wchar_t,ATL::ChTraitsCRT<wchar_t> > >,std::allocator<ATL::CStringT<wchar_t,StrTraitMFC<wchar_t,ATL::ChTraitsCRT<wchar_t> > > > >::~vector<ATL::CStringT<wchar_t,StrTraitMFC<wchar_t,ATL::ChTraitsCRT<wchar_t> > >,std::allocator<ATL::CStringT<wchar_t,StrTraitMFC<wchar_t,ATL::ChTraitsCRT<wchar_t> > > > >
__ehhandler$??0CDviceCtrlDlgDlg@@QAE@PAVCWnd@@@Z:
  0005c	8b 54 24 08	 mov	 edx, DWORD PTR [esp+8]
  00060	8d 42 0c	 lea	 eax, DWORD PTR [edx+12]
  00063	8b 8a 24 ff ff
	ff		 mov	 ecx, DWORD PTR [edx-220]
  00069	33 c8		 xor	 ecx, eax
  0006b	e8 00 00 00 00	 call	 @__security_check_cookie@4
  00070	b8 00 00 00 00	 mov	 eax, OFFSET __ehfuncinfo$??0CDviceCtrlDlgDlg@@QAE@PAVCWnd@@@Z
  00075	e9 00 00 00 00	 jmp	 ___CxxFrameHandler3
text$x	ENDS
??0CDviceCtrlDlgDlg@@QAE@PAVCWnd@@@Z ENDP		; CDviceCtrlDlgDlg::CDviceCtrlDlgDlg
PUBLIC	??1CDviceCtrlDlgDlg@@UAE@XZ			; CDviceCtrlDlgDlg::~CDviceCtrlDlgDlg
; Function compile flags: /Odtp /RTCsu /ZI
;	COMDAT ??_GCDviceCtrlDlgDlg@@UAEPAXI@Z
_TEXT	SEGMENT
_this$ = -8						; size = 4
___flags$ = 8						; size = 4
??_GCDviceCtrlDlgDlg@@UAEPAXI@Z PROC			; CDviceCtrlDlgDlg::`scalar deleting destructor', COMDAT
; _this$ = ecx
  00000	55		 push	 ebp
  00001	8b ec		 mov	 ebp, esp
  00003	81 ec cc 00 00
	00		 sub	 esp, 204		; 000000ccH
  00009	53		 push	 ebx
  0000a	56		 push	 esi
  0000b	57		 push	 edi
  0000c	51		 push	 ecx
  0000d	8d bd 34 ff ff
	ff		 lea	 edi, DWORD PTR [ebp-204]
  00013	b9 33 00 00 00	 mov	 ecx, 51			; 00000033H
  00018	b8 cc cc cc cc	 mov	 eax, -858993460		; ccccccccH
  0001d	f3 ab		 rep stosd
  0001f	59		 pop	 ecx
  00020	89 4d f8	 mov	 DWORD PTR _this$[ebp], ecx
  00023	8b 4d f8	 mov	 ecx, DWORD PTR _this$[ebp]
  00026	e8 00 00 00 00	 call	 ??1CDviceCtrlDlgDlg@@UAE@XZ
  0002b	8b 45 08	 mov	 eax, DWORD PTR ___flags$[ebp]
  0002e	83 e0 01	 and	 eax, 1
  00031	74 09		 je	 SHORT $LN1@scalar@2
  00033	8b 45 f8	 mov	 eax, DWORD PTR _this$[ebp]
  00036	50		 push	 eax
  00037	e8 00 00 00 00	 call	 ??3CObject@@SGXPAX@Z	; CObject::operator delete
$LN1@scalar@2:
  0003c	8b 45 f8	 mov	 eax, DWORD PTR _this$[ebp]
  0003f	5f		 pop	 edi
  00040	5e		 pop	 esi
  00041	5b		 pop	 ebx
  00042	81 c4 cc 00 00
	00		 add	 esp, 204		; 000000ccH
  00048	3b ec		 cmp	 ebp, esp
  0004a	e8 00 00 00 00	 call	 __RTC_CheckEsp
  0004f	8b e5		 mov	 esp, ebp
  00051	5d		 pop	 ebp
  00052	c2 04 00	 ret	 4
??_GCDviceCtrlDlgDlg@@UAEPAXI@Z ENDP			; CDviceCtrlDlgDlg::`scalar deleting destructor'
_TEXT	ENDS
;	COMDAT xdata$x
xdata$x	SEGMENT
__ehfuncinfo$??1CDviceCtrlDlgDlg@@UAE@XZ DD 019930522H
	DD	06H
	DD	FLAT:__unwindtable$??1CDviceCtrlDlgDlg@@UAE@XZ
	DD	2 DUP(00H)
	DD	2 DUP(00H)
	DD	00H
	DD	01H
__unwindtable$??1CDviceCtrlDlgDlg@@UAE@XZ DD 0ffffffffH
	DD	FLAT:__unwindfunclet$??1CDviceCtrlDlgDlg@@UAE@XZ$0
	DD	00H
	DD	FLAT:__unwindfunclet$??1CDviceCtrlDlgDlg@@UAE@XZ$1
	DD	01H
	DD	FLAT:__unwindfunclet$??1CDviceCtrlDlgDlg@@UAE@XZ$2
	DD	02H
	DD	FLAT:__unwindfunclet$??1CDviceCtrlDlgDlg@@UAE@XZ$3
	DD	03H
	DD	FLAT:__unwindfunclet$??1CDviceCtrlDlgDlg@@UAE@XZ$4
	DD	04H
	DD	FLAT:__unwindfunclet$??1CDviceCtrlDlgDlg@@UAE@XZ$5
; Function compile flags: /Odtp /RTCsu /ZI
xdata$x	ENDS
;	COMDAT ??1CDviceCtrlDlgDlg@@UAE@XZ
_TEXT	SEGMENT
_this$ = -20						; size = 4
__$EHRec$ = -12						; size = 12
??1CDviceCtrlDlgDlg@@UAE@XZ PROC			; CDviceCtrlDlgDlg::~CDviceCtrlDlgDlg, COMDAT
; _this$ = ecx
  00000	55		 push	 ebp
  00001	8b ec		 mov	 ebp, esp
  00003	6a ff		 push	 -1
  00005	68 00 00 00 00	 push	 __ehhandler$??1CDviceCtrlDlgDlg@@UAE@XZ
  0000a	64 a1 00 00 00
	00		 mov	 eax, DWORD PTR fs:0
  00010	50		 push	 eax
  00011	81 ec cc 00 00
	00		 sub	 esp, 204		; 000000ccH
  00017	53		 push	 ebx
  00018	56		 push	 esi
  00019	57		 push	 edi
  0001a	51		 push	 ecx
  0001b	8d bd 28 ff ff
	ff		 lea	 edi, DWORD PTR [ebp-216]
  00021	b9 33 00 00 00	 mov	 ecx, 51			; 00000033H
  00026	b8 cc cc cc cc	 mov	 eax, -858993460		; ccccccccH
  0002b	f3 ab		 rep stosd
  0002d	59		 pop	 ecx
  0002e	a1 00 00 00 00	 mov	 eax, DWORD PTR ___security_cookie
  00033	33 c5		 xor	 eax, ebp
  00035	50		 push	 eax
  00036	8d 45 f4	 lea	 eax, DWORD PTR __$EHRec$[ebp]
  00039	64 a3 00 00 00
	00		 mov	 DWORD PTR fs:0, eax
  0003f	89 4d ec	 mov	 DWORD PTR _this$[ebp], ecx
  00042	c7 45 fc 05 00
	00 00		 mov	 DWORD PTR __$EHRec$[ebp+8], 5
  00049	8b 4d ec	 mov	 ecx, DWORD PTR _this$[ebp]
  0004c	81 c1 18 0b 00
	00		 add	 ecx, 2840		; 00000b18H
  00052	e8 00 00 00 00	 call	 ??1?$vector@V?$CStringT@_WV?$StrTraitMFC@_WV?$ChTraitsCRT@_W@ATL@@@@@ATL@@V?$allocator@V?$CStringT@_WV?$StrTraitMFC@_WV?$ChTraitsCRT@_W@ATL@@@@@ATL@@@std@@@std@@QAE@XZ ; std::vector<ATL::CStringT<wchar_t,StrTraitMFC<wchar_t,ATL::ChTraitsCRT<wchar_t> > >,std::allocator<ATL::CStringT<wchar_t,StrTraitMFC<wchar_t,ATL::ChTraitsCRT<wchar_t> > > > >::~vector<ATL::CStringT<wchar_t,StrTraitMFC<wchar_t,ATL::ChTraitsCRT<wchar_t> > >,std::allocator<ATL::CStringT<wchar_t,StrTraitMFC<wchar_t,ATL::ChTraitsCRT<wchar_t> > > > >
  00057	c6 45 fc 04	 mov	 BYTE PTR __$EHRec$[ebp+8], 4
  0005b	8b 4d ec	 mov	 ecx, DWORD PTR _this$[ebp]
  0005e	81 c1 88 0a 00
	00		 add	 ecx, 2696		; 00000a88H
  00064	e8 00 00 00 00	 call	 ??1CStatic@@UAE@XZ	; CStatic::~CStatic
  00069	c6 45 fc 03	 mov	 BYTE PTR __$EHRec$[ebp+8], 3
  0006d	8b 4d ec	 mov	 ecx, DWORD PTR _this$[ebp]
  00070	81 c1 14 0a 00
	00		 add	 ecx, 2580		; 00000a14H
  00076	e8 00 00 00 00	 call	 ??1CEdit@@UAE@XZ	; CEdit::~CEdit
  0007b	c6 45 fc 02	 mov	 BYTE PTR __$EHRec$[ebp+8], 2
  0007f	8b 4d ec	 mov	 ecx, DWORD PTR _this$[ebp]
  00082	81 c1 9c 09 00
	00		 add	 ecx, 2460		; 0000099cH
  00088	e8 00 00 00 00	 call	 ??1CSliderCtrl@@UAE@XZ	; CSliderCtrl::~CSliderCtrl
  0008d	c6 45 fc 01	 mov	 BYTE PTR __$EHRec$[ebp+8], 1
  00091	8b 4d ec	 mov	 ecx, DWORD PTR _this$[ebp]
  00094	81 c1 98 09 00
	00		 add	 ecx, 2456		; 00000998H
  0009a	e8 00 00 00 00	 call	 ??1?$CStringT@_WV?$StrTraitMFC@_WV?$ChTraitsCRT@_W@ATL@@@@@ATL@@QAE@XZ ; ATL::CStringT<wchar_t,StrTraitMFC<wchar_t,ATL::ChTraitsCRT<wchar_t> > >::~CStringT<wchar_t,StrTraitMFC<wchar_t,ATL::ChTraitsCRT<wchar_t> > >
  0009f	c6 45 fc 00	 mov	 BYTE PTR __$EHRec$[ebp+8], 0
  000a3	8b 4d ec	 mov	 ecx, DWORD PTR _this$[ebp]
  000a6	81 c1 30 01 00
	00		 add	 ecx, 304		; 00000130H
  000ac	e8 00 00 00 00	 call	 ??1CComPort@LsComm@@UAE@XZ ; LsComm::CComPort::~CComPort
  000b1	c7 45 fc ff ff
	ff ff		 mov	 DWORD PTR __$EHRec$[ebp+8], -1
  000b8	8b 4d ec	 mov	 ecx, DWORD PTR _this$[ebp]
  000bb	e8 00 00 00 00	 call	 ??1CDialog@@UAE@XZ	; CDialog::~CDialog
  000c0	8b 4d f4	 mov	 ecx, DWORD PTR __$EHRec$[ebp]
  000c3	64 89 0d 00 00
	00 00		 mov	 DWORD PTR fs:0, ecx
  000ca	59		 pop	 ecx
  000cb	5f		 pop	 edi
  000cc	5e		 pop	 esi
  000cd	5b		 pop	 ebx
  000ce	81 c4 d8 00 00
	00		 add	 esp, 216		; 000000d8H
  000d4	3b ec		 cmp	 ebp, esp
  000d6	e8 00 00 00 00	 call	 __RTC_CheckEsp
  000db	8b e5		 mov	 esp, ebp
  000dd	5d		 pop	 ebp
  000de	c3		 ret	 0
_TEXT	ENDS
;	COMDAT text$x
text$x	SEGMENT
__unwindfunclet$??1CDviceCtrlDlgDlg@@UAE@XZ$0:
  00000	8b 4d ec	 mov	 ecx, DWORD PTR _this$[ebp]
  00003	e9 00 00 00 00	 jmp	 ??1CDialog@@UAE@XZ	; CDialog::~CDialog
__unwindfunclet$??1CDviceCtrlDlgDlg@@UAE@XZ$1:
  00008	8b 4d ec	 mov	 ecx, DWORD PTR _this$[ebp]
  0000b	81 c1 30 01 00
	00		 add	 ecx, 304		; 00000130H
  00011	e9 00 00 00 00	 jmp	 ??1CComPort@LsComm@@UAE@XZ ; LsComm::CComPort::~CComPort
__unwindfunclet$??1CDviceCtrlDlgDlg@@UAE@XZ$2:
  00016	8b 4d ec	 mov	 ecx, DWORD PTR _this$[ebp]
  00019	81 c1 98 09 00
	00		 add	 ecx, 2456		; 00000998H
  0001f	e9 00 00 00 00	 jmp	 ??1?$CStringT@_WV?$StrTraitMFC@_WV?$ChTraitsCRT@_W@ATL@@@@@ATL@@QAE@XZ ; ATL::CStringT<wchar_t,StrTraitMFC<wchar_t,ATL::ChTraitsCRT<wchar_t> > >::~CStringT<wchar_t,StrTraitMFC<wchar_t,ATL::ChTraitsCRT<wchar_t> > >
__unwindfunclet$??1CDviceCtrlDlgDlg@@UAE@XZ$3:
  00024	8b 4d ec	 mov	 ecx, DWORD PTR _this$[ebp]
  00027	81 c1 9c 09 00
	00		 add	 ecx, 2460		; 0000099cH
  0002d	e9 00 00 00 00	 jmp	 ??1CSliderCtrl@@UAE@XZ	; CSliderCtrl::~CSliderCtrl
__unwindfunclet$??1CDviceCtrlDlgDlg@@UAE@XZ$4:
  00032	8b 4d ec	 mov	 ecx, DWORD PTR _this$[ebp]
  00035	81 c1 14 0a 00
	00		 add	 ecx, 2580		; 00000a14H
  0003b	e9 00 00 00 00	 jmp	 ??1CEdit@@UAE@XZ	; CEdit::~CEdit
__unwindfunclet$??1CDviceCtrlDlgDlg@@UAE@XZ$5:
  00040	8b 4d ec	 mov	 ecx, DWORD PTR _this$[ebp]
  00043	81 c1 88 0a 00
	00		 add	 ecx, 2696		; 00000a88H
  00049	e9 00 00 00 00	 jmp	 ??1CStatic@@UAE@XZ	; CStatic::~CStatic
__ehhandler$??1CDviceCtrlDlgDlg@@UAE@XZ:
  0004e	8b 54 24 08	 mov	 edx, DWORD PTR [esp+8]
  00052	8d 42 0c	 lea	 eax, DWORD PTR [edx+12]
  00055	8b 8a 24 ff ff
	ff		 mov	 ecx, DWORD PTR [edx-220]
  0005b	33 c8		 xor	 ecx, eax
  0005d	e8 00 00 00 00	 call	 @__security_check_cookie@4
  00062	b8 00 00 00 00	 mov	 eax, OFFSET __ehfuncinfo$??1CDviceCtrlDlgDlg@@UAE@XZ
  00067	e9 00 00 00 00	 jmp	 ___CxxFrameHandler3
text$x	ENDS
??1CDviceCtrlDlgDlg@@UAE@XZ ENDP			; CDviceCtrlDlgDlg::~CDviceCtrlDlgDlg
EXTRN	?DDX_Text@@YGXPAVCDataExchange@@HAAI@Z:PROC	; DDX_Text
EXTRN	?DDV_MinMaxUInt@@YGXPAVCDataExchange@@III@Z:PROC ; DDV_MinMaxUInt
EXTRN	?DDX_Text@@YGXPAVCDataExchange@@HAAK@Z:PROC	; DDX_Text
EXTRN	?DDX_Check@@YGXPAVCDataExchange@@HAAH@Z:PROC	; DDX_Check
EXTRN	?DDX_Control@@YGXPAVCDataExchange@@HAAVCWnd@@@Z:PROC ; DDX_Control
EXTRN	?DDX_Text@@YGXPAVCDataExchange@@HAAV?$CStringT@_WV?$StrTraitMFC@_WV?$ChTraitsCRT@_W@ATL@@@@@ATL@@@Z:PROC ; DDX_Text
EXTRN	?DDX_Radio@@YGXPAVCDataExchange@@HAAH@Z:PROC	; DDX_Radio
; Function compile flags: /Odtp /RTCsu /ZI
;	COMDAT ?DoDataExchange@CDviceCtrlDlgDlg@@MAEXPAVCDataExchange@@@Z
_TEXT	SEGMENT
_this$ = -8						; size = 4
_pDX$ = 8						; size = 4
?DoDataExchange@CDviceCtrlDlgDlg@@MAEXPAVCDataExchange@@@Z PROC ; CDviceCtrlDlgDlg::DoDataExchange, COMDAT
; _this$ = ecx

; 113  : {

  00000	55		 push	 ebp
  00001	8b ec		 mov	 ebp, esp
  00003	81 ec cc 00 00
	00		 sub	 esp, 204		; 000000ccH
  00009	53		 push	 ebx
  0000a	56		 push	 esi
  0000b	57		 push	 edi
  0000c	51		 push	 ecx
  0000d	8d bd 34 ff ff
	ff		 lea	 edi, DWORD PTR [ebp-204]
  00013	b9 33 00 00 00	 mov	 ecx, 51			; 00000033H
  00018	b8 cc cc cc cc	 mov	 eax, -858993460		; ccccccccH
  0001d	f3 ab		 rep stosd
  0001f	59		 pop	 ecx
  00020	89 4d f8	 mov	 DWORD PTR _this$[ebp], ecx

; 114  : 	CDialog::DoDataExchange(pDX);

  00023	8b 45 08	 mov	 eax, DWORD PTR _pDX$[ebp]
  00026	50		 push	 eax
  00027	8b 4d f8	 mov	 ecx, DWORD PTR _this$[ebp]
  0002a	e8 00 00 00 00	 call	 ?DoDataExchange@CWnd@@MAEXPAVCDataExchange@@@Z ; CWnd::DoDataExchange

; 115  : 	DDX_Radio(pDX, IDC_INPUT_SPK, m_nSoundInputGroup);

  0002f	8b 45 f8	 mov	 eax, DWORD PTR _this$[ebp]
  00032	05 78 09 00 00	 add	 eax, 2424		; 00000978H
  00037	50		 push	 eax
  00038	68 fa 03 00 00	 push	 1018			; 000003faH
  0003d	8b 4d 08	 mov	 ecx, DWORD PTR _pDX$[ebp]
  00040	51		 push	 ecx
  00041	e8 00 00 00 00	 call	 ?DDX_Radio@@YGXPAVCDataExchange@@HAAH@Z ; DDX_Radio

; 116  : 	DDX_Radio(pDX, IDC_COLORLIGHTSOURCE, m_colorLightSource);

  00046	8b 45 f8	 mov	 eax, DWORD PTR _this$[ebp]
  00049	05 7c 09 00 00	 add	 eax, 2428		; 0000097cH
  0004e	50		 push	 eax
  0004f	68 3e 04 00 00	 push	 1086			; 0000043eH
  00054	8b 4d 08	 mov	 ecx, DWORD PTR _pDX$[ebp]
  00057	51		 push	 ecx
  00058	e8 00 00 00 00	 call	 ?DDX_Radio@@YGXPAVCDataExchange@@HAAH@Z ; DDX_Radio

; 117  : 	DDX_Radio(pDX, IDC_WHITELIGHTSOURCE, m_whiteLightSource);

  0005d	8b 45 f8	 mov	 eax, DWORD PTR _this$[ebp]
  00060	05 90 09 00 00	 add	 eax, 2448		; 00000990H
  00065	50		 push	 eax
  00066	68 3f 04 00 00	 push	 1087			; 0000043fH
  0006b	8b 4d 08	 mov	 ecx, DWORD PTR _pDX$[ebp]
  0006e	51		 push	 ecx
  0006f	e8 00 00 00 00	 call	 ?DDX_Radio@@YGXPAVCDataExchange@@HAAH@Z ; DDX_Radio

; 118  : 
; 119  : 
; 120  : 	DDX_Radio(pDX, IDC_RADIO1, m_A1colorLightSource);

  00074	8b 45 f8	 mov	 eax, DWORD PTR _this$[ebp]
  00077	05 80 09 00 00	 add	 eax, 2432		; 00000980H
  0007c	50		 push	 eax
  0007d	68 54 04 00 00	 push	 1108			; 00000454H
  00082	8b 4d 08	 mov	 ecx, DWORD PTR _pDX$[ebp]
  00085	51		 push	 ecx
  00086	e8 00 00 00 00	 call	 ?DDX_Radio@@YGXPAVCDataExchange@@HAAH@Z ; DDX_Radio

; 121  : 	DDX_Radio(pDX, IDC_RADIO2, m_A2colorLightSource);

  0008b	8b 45 f8	 mov	 eax, DWORD PTR _this$[ebp]
  0008e	05 84 09 00 00	 add	 eax, 2436		; 00000984H
  00093	50		 push	 eax
  00094	68 55 04 00 00	 push	 1109			; 00000455H
  00099	8b 4d 08	 mov	 ecx, DWORD PTR _pDX$[ebp]
  0009c	51		 push	 ecx
  0009d	e8 00 00 00 00	 call	 ?DDX_Radio@@YGXPAVCDataExchange@@HAAH@Z ; DDX_Radio

; 122  : 	DDX_Radio(pDX, IDC_RADIO3, m_B1colorLightSource);

  000a2	8b 45 f8	 mov	 eax, DWORD PTR _this$[ebp]
  000a5	05 88 09 00 00	 add	 eax, 2440		; 00000988H
  000aa	50		 push	 eax
  000ab	68 56 04 00 00	 push	 1110			; 00000456H
  000b0	8b 4d 08	 mov	 ecx, DWORD PTR _pDX$[ebp]
  000b3	51		 push	 ecx
  000b4	e8 00 00 00 00	 call	 ?DDX_Radio@@YGXPAVCDataExchange@@HAAH@Z ; DDX_Radio

; 123  : 	DDX_Radio(pDX, IDC_RADIO4, m_B2colorLightSource);

  000b9	8b 45 f8	 mov	 eax, DWORD PTR _this$[ebp]
  000bc	05 8c 09 00 00	 add	 eax, 2444		; 0000098cH
  000c1	50		 push	 eax
  000c2	68 57 04 00 00	 push	 1111			; 00000457H
  000c7	8b 4d 08	 mov	 ecx, DWORD PTR _pDX$[ebp]
  000ca	51		 push	 ecx
  000cb	e8 00 00 00 00	 call	 ?DDX_Radio@@YGXPAVCDataExchange@@HAAH@Z ; DDX_Radio

; 124  : 
; 125  : 	//	DDX_Radio(pDX, IDC_RP_1, m_nRP);
; 126  : 	//	DDX_Radio(pDX, IDC_OUTPUT_MIC, m_nSoundOutputGroup);
; 127  : 	DDX_Text(pDX, IDC_STR_VOLTAGE, m_StrVoltage);

  000d0	8b 45 f8	 mov	 eax, DWORD PTR _this$[ebp]
  000d3	05 98 09 00 00	 add	 eax, 2456		; 00000998H
  000d8	50		 push	 eax
  000d9	68 0e 04 00 00	 push	 1038			; 0000040eH
  000de	8b 4d 08	 mov	 ecx, DWORD PTR _pDX$[ebp]
  000e1	51		 push	 ecx
  000e2	e8 00 00 00 00	 call	 ?DDX_Text@@YGXPAVCDataExchange@@HAAV?$CStringT@_WV?$StrTraitMFC@_WV?$ChTraitsCRT@_W@ATL@@@@@ATL@@@Z ; DDX_Text

; 128  : 	DDX_Control(pDX, IDC_ADJUST_VOLTAGE, m_VoltageAdjust);

  000e7	8b 45 f8	 mov	 eax, DWORD PTR _this$[ebp]
  000ea	05 9c 09 00 00	 add	 eax, 2460		; 0000099cH
  000ef	50		 push	 eax
  000f0	68 fc 03 00 00	 push	 1020			; 000003fcH
  000f5	8b 4d 08	 mov	 ecx, DWORD PTR _pDX$[ebp]
  000f8	51		 push	 ecx
  000f9	e8 00 00 00 00	 call	 ?DDX_Control@@YGXPAVCDataExchange@@HAAVCWnd@@@Z ; DDX_Control

; 129  : 	DDX_Control(pDX, IDC_DEVICE_CTRL_LOG, m_ResultLog);

  000fe	8b 45 f8	 mov	 eax, DWORD PTR _this$[ebp]
  00101	05 14 0a 00 00	 add	 eax, 2580		; 00000a14H
  00106	50		 push	 eax
  00107	68 0d 04 00 00	 push	 1037			; 0000040dH
  0010c	8b 4d 08	 mov	 ecx, DWORD PTR _pDX$[ebp]
  0010f	51		 push	 ecx
  00110	e8 00 00 00 00	 call	 ?DDX_Control@@YGXPAVCDataExchange@@HAAVCWnd@@@Z ; DDX_Control

; 130  : 	DDX_Control(pDX, IDC_DEVICE_STATUS, m_DeviceStatus);

  00115	8b 45 f8	 mov	 eax, DWORD PTR _this$[ebp]
  00118	05 88 0a 00 00	 add	 eax, 2696		; 00000a88H
  0011d	50		 push	 eax
  0011e	68 0f 04 00 00	 push	 1039			; 0000040fH
  00123	8b 4d 08	 mov	 ecx, DWORD PTR _pDX$[ebp]
  00126	51		 push	 ecx
  00127	e8 00 00 00 00	 call	 ?DDX_Control@@YGXPAVCDataExchange@@HAAVCWnd@@@Z ; DDX_Control

; 131  : 	DDX_Check(pDX, IDC_KEY_UP_MODE, m_KeyUpMode);

  0012c	8b 45 f8	 mov	 eax, DWORD PTR _this$[ebp]
  0012f	05 fc 0a 00 00	 add	 eax, 2812		; 00000afcH
  00134	50		 push	 eax
  00135	68 25 04 00 00	 push	 1061			; 00000425H
  0013a	8b 4d 08	 mov	 ecx, DWORD PTR _pDX$[ebp]
  0013d	51		 push	 ecx
  0013e	e8 00 00 00 00	 call	 ?DDX_Check@@YGXPAVCDataExchange@@HAAH@Z ; DDX_Check

; 132  : 	DDX_Text(pDX, IDC_CIRTIMES, m_cirTimes);

  00143	8b 45 f8	 mov	 eax, DWORD PTR _this$[ebp]
  00146	05 14 0b 00 00	 add	 eax, 2836		; 00000b14H
  0014b	50		 push	 eax
  0014c	68 39 04 00 00	 push	 1081			; 00000439H
  00151	8b 4d 08	 mov	 ecx, DWORD PTR _pDX$[ebp]
  00154	51		 push	 ecx
  00155	e8 00 00 00 00	 call	 ?DDX_Text@@YGXPAVCDataExchange@@HAAK@Z ; DDX_Text

; 133  : 	DDV_MinMaxUInt(pDX, m_cirTimes, 0, 65536);

  0015a	68 00 00 01 00	 push	 65536			; 00010000H
  0015f	6a 00		 push	 0
  00161	8b 45 f8	 mov	 eax, DWORD PTR _this$[ebp]
  00164	8b 88 14 0b 00
	00		 mov	 ecx, DWORD PTR [eax+2836]
  0016a	51		 push	 ecx
  0016b	8b 55 08	 mov	 edx, DWORD PTR _pDX$[ebp]
  0016e	52		 push	 edx
  0016f	e8 00 00 00 00	 call	 ?DDV_MinMaxUInt@@YGXPAVCDataExchange@@III@Z ; DDV_MinMaxUInt

; 134  : 	DDX_Text(pDX, IDC_COLORLIGHTVALUE, m_colorLightValue);

  00174	8b 45 f8	 mov	 eax, DWORD PTR _this$[ebp]
  00177	05 30 0b 00 00	 add	 eax, 2864		; 00000b30H
  0017c	50		 push	 eax
  0017d	68 3c 04 00 00	 push	 1084			; 0000043cH
  00182	8b 4d 08	 mov	 ecx, DWORD PTR _pDX$[ebp]
  00185	51		 push	 ecx
  00186	e8 00 00 00 00	 call	 ?DDX_Text@@YGXPAVCDataExchange@@HAAI@Z ; DDX_Text

; 135  : 	DDV_MinMaxUInt(pDX, m_colorLightValue, 0, 255);

  0018b	68 ff 00 00 00	 push	 255			; 000000ffH
  00190	6a 00		 push	 0
  00192	8b 45 f8	 mov	 eax, DWORD PTR _this$[ebp]
  00195	8b 88 30 0b 00
	00		 mov	 ecx, DWORD PTR [eax+2864]
  0019b	51		 push	 ecx
  0019c	8b 55 08	 mov	 edx, DWORD PTR _pDX$[ebp]
  0019f	52		 push	 edx
  001a0	e8 00 00 00 00	 call	 ?DDV_MinMaxUInt@@YGXPAVCDataExchange@@III@Z ; DDV_MinMaxUInt

; 136  : 	DDX_Text(pDX, IDC_WHITELIGHTVALUE, m_whiteLightValue);

  001a5	8b 45 f8	 mov	 eax, DWORD PTR _this$[ebp]
  001a8	05 34 0b 00 00	 add	 eax, 2868		; 00000b34H
  001ad	50		 push	 eax
  001ae	68 3d 04 00 00	 push	 1085			; 0000043dH
  001b3	8b 4d 08	 mov	 ecx, DWORD PTR _pDX$[ebp]
  001b6	51		 push	 ecx
  001b7	e8 00 00 00 00	 call	 ?DDX_Text@@YGXPAVCDataExchange@@HAAI@Z ; DDX_Text

; 137  : 	DDV_MinMaxUInt(pDX, m_whiteLightValue, 0, 255);

  001bc	68 ff 00 00 00	 push	 255			; 000000ffH
  001c1	6a 00		 push	 0
  001c3	8b 45 f8	 mov	 eax, DWORD PTR _this$[ebp]
  001c6	8b 88 34 0b 00
	00		 mov	 ecx, DWORD PTR [eax+2868]
  001cc	51		 push	 ecx
  001cd	8b 55 08	 mov	 edx, DWORD PTR _pDX$[ebp]
  001d0	52		 push	 edx
  001d1	e8 00 00 00 00	 call	 ?DDV_MinMaxUInt@@YGXPAVCDataExchange@@III@Z ; DDV_MinMaxUInt

; 138  : 
; 139  : 	DDX_Text(pDX, IDC_EDIT1, m_A1colorLightValue);

  001d6	8b 45 f8	 mov	 eax, DWORD PTR _this$[ebp]
  001d9	05 38 0b 00 00	 add	 eax, 2872		; 00000b38H
  001de	50		 push	 eax
  001df	68 58 04 00 00	 push	 1112			; 00000458H
  001e4	8b 4d 08	 mov	 ecx, DWORD PTR _pDX$[ebp]
  001e7	51		 push	 ecx
  001e8	e8 00 00 00 00	 call	 ?DDX_Text@@YGXPAVCDataExchange@@HAAI@Z ; DDX_Text

; 140  : 	DDV_MinMaxUInt(pDX, m_A1colorLightValue, 0, 255);

  001ed	68 ff 00 00 00	 push	 255			; 000000ffH
  001f2	6a 00		 push	 0
  001f4	8b 45 f8	 mov	 eax, DWORD PTR _this$[ebp]
  001f7	8b 88 38 0b 00
	00		 mov	 ecx, DWORD PTR [eax+2872]
  001fd	51		 push	 ecx
  001fe	8b 55 08	 mov	 edx, DWORD PTR _pDX$[ebp]
  00201	52		 push	 edx
  00202	e8 00 00 00 00	 call	 ?DDV_MinMaxUInt@@YGXPAVCDataExchange@@III@Z ; DDV_MinMaxUInt

; 141  : 	DDX_Text(pDX, IDC_EDIT2, m_A2colorLightValue);

  00207	8b 45 f8	 mov	 eax, DWORD PTR _this$[ebp]
  0020a	05 3c 0b 00 00	 add	 eax, 2876		; 00000b3cH
  0020f	50		 push	 eax
  00210	68 59 04 00 00	 push	 1113			; 00000459H
  00215	8b 4d 08	 mov	 ecx, DWORD PTR _pDX$[ebp]
  00218	51		 push	 ecx
  00219	e8 00 00 00 00	 call	 ?DDX_Text@@YGXPAVCDataExchange@@HAAI@Z ; DDX_Text

; 142  : 	DDV_MinMaxUInt(pDX, m_A2colorLightValue, 0, 255);

  0021e	68 ff 00 00 00	 push	 255			; 000000ffH
  00223	6a 00		 push	 0
  00225	8b 45 f8	 mov	 eax, DWORD PTR _this$[ebp]
  00228	8b 88 3c 0b 00
	00		 mov	 ecx, DWORD PTR [eax+2876]
  0022e	51		 push	 ecx
  0022f	8b 55 08	 mov	 edx, DWORD PTR _pDX$[ebp]
  00232	52		 push	 edx
  00233	e8 00 00 00 00	 call	 ?DDV_MinMaxUInt@@YGXPAVCDataExchange@@III@Z ; DDV_MinMaxUInt

; 143  : 	DDX_Text(pDX, IDC_EDIT3, m_B1colorLightValue);

  00238	8b 45 f8	 mov	 eax, DWORD PTR _this$[ebp]
  0023b	05 40 0b 00 00	 add	 eax, 2880		; 00000b40H
  00240	50		 push	 eax
  00241	68 5a 04 00 00	 push	 1114			; 0000045aH
  00246	8b 4d 08	 mov	 ecx, DWORD PTR _pDX$[ebp]
  00249	51		 push	 ecx
  0024a	e8 00 00 00 00	 call	 ?DDX_Text@@YGXPAVCDataExchange@@HAAI@Z ; DDX_Text

; 144  : 	DDV_MinMaxUInt(pDX, m_B1colorLightValue, 0, 255);

  0024f	68 ff 00 00 00	 push	 255			; 000000ffH
  00254	6a 00		 push	 0
  00256	8b 45 f8	 mov	 eax, DWORD PTR _this$[ebp]
  00259	8b 88 40 0b 00
	00		 mov	 ecx, DWORD PTR [eax+2880]
  0025f	51		 push	 ecx
  00260	8b 55 08	 mov	 edx, DWORD PTR _pDX$[ebp]
  00263	52		 push	 edx
  00264	e8 00 00 00 00	 call	 ?DDV_MinMaxUInt@@YGXPAVCDataExchange@@III@Z ; DDV_MinMaxUInt

; 145  : 	DDX_Text(pDX, IDC_EDIT4, m_B2colorLightValue);

  00269	8b 45 f8	 mov	 eax, DWORD PTR _this$[ebp]
  0026c	05 44 0b 00 00	 add	 eax, 2884		; 00000b44H
  00271	50		 push	 eax
  00272	68 5b 04 00 00	 push	 1115			; 0000045bH
  00277	8b 4d 08	 mov	 ecx, DWORD PTR _pDX$[ebp]
  0027a	51		 push	 ecx
  0027b	e8 00 00 00 00	 call	 ?DDX_Text@@YGXPAVCDataExchange@@HAAI@Z ; DDX_Text

; 146  : 	DDV_MinMaxUInt(pDX, m_B2colorLightValue, 0, 255);

  00280	68 ff 00 00 00	 push	 255			; 000000ffH
  00285	6a 00		 push	 0
  00287	8b 45 f8	 mov	 eax, DWORD PTR _this$[ebp]
  0028a	8b 88 44 0b 00
	00		 mov	 ecx, DWORD PTR [eax+2884]
  00290	51		 push	 ecx
  00291	8b 55 08	 mov	 edx, DWORD PTR _pDX$[ebp]
  00294	52		 push	 edx
  00295	e8 00 00 00 00	 call	 ?DDV_MinMaxUInt@@YGXPAVCDataExchange@@III@Z ; DDV_MinMaxUInt

; 147  : }

  0029a	5f		 pop	 edi
  0029b	5e		 pop	 esi
  0029c	5b		 pop	 ebx
  0029d	81 c4 cc 00 00
	00		 add	 esp, 204		; 000000ccH
  002a3	3b ec		 cmp	 ebp, esp
  002a5	e8 00 00 00 00	 call	 __RTC_CheckEsp
  002aa	8b e5		 mov	 esp, ebp
  002ac	5d		 pop	 ebp
  002ad	c2 04 00	 ret	 4
?DoDataExchange@CDviceCtrlDlgDlg@@MAEXPAVCDataExchange@@@Z ENDP ; CDviceCtrlDlgDlg::DoDataExchange
_TEXT	ENDS
PUBLIC	?GetThisMessageMap@CDviceCtrlDlgDlg@@KGPBUAFX_MSGMAP@@XZ ; CDviceCtrlDlgDlg::GetThisMessageMap
; Function compile flags: /Odtp /RTCsu /ZI
;	COMDAT ?GetMessageMap@CDviceCtrlDlgDlg@@MBEPBUAFX_MSGMAP@@XZ
_TEXT	SEGMENT
_this$ = -8						; size = 4
?GetMessageMap@CDviceCtrlDlgDlg@@MBEPBUAFX_MSGMAP@@XZ PROC ; CDviceCtrlDlgDlg::GetMessageMap, COMDAT
; _this$ = ecx

; 149  : BEGIN_MESSAGE_MAP(CDviceCtrlDlgDlg, CDialog)

  00000	55		 push	 ebp
  00001	8b ec		 mov	 ebp, esp
  00003	81 ec cc 00 00
	00		 sub	 esp, 204		; 000000ccH
  00009	53		 push	 ebx
  0000a	56		 push	 esi
  0000b	57		 push	 edi
  0000c	51		 push	 ecx
  0000d	8d bd 34 ff ff
	ff		 lea	 edi, DWORD PTR [ebp-204]
  00013	b9 33 00 00 00	 mov	 ecx, 51			; 00000033H
  00018	b8 cc cc cc cc	 mov	 eax, -858993460		; ccccccccH
  0001d	f3 ab		 rep stosd
  0001f	59		 pop	 ecx
  00020	89 4d f8	 mov	 DWORD PTR _this$[ebp], ecx
  00023	e8 00 00 00 00	 call	 ?GetThisMessageMap@CDviceCtrlDlgDlg@@KGPBUAFX_MSGMAP@@XZ ; CDviceCtrlDlgDlg::GetThisMessageMap
  00028	5f		 pop	 edi
  00029	5e		 pop	 esi
  0002a	5b		 pop	 ebx
  0002b	81 c4 cc 00 00
	00		 add	 esp, 204		; 000000ccH
  00031	3b ec		 cmp	 ebp, esp
  00033	e8 00 00 00 00	 call	 __RTC_CheckEsp
  00038	8b e5		 mov	 esp, ebp
  0003a	5d		 pop	 ebp
  0003b	c3		 ret	 0
?GetMessageMap@CDviceCtrlDlgDlg@@MBEPBUAFX_MSGMAP@@XZ ENDP ; CDviceCtrlDlgDlg::GetMessageMap
; Function compile flags: /Odtp /RTCsu /ZI
_TEXT	ENDS
;	COMDAT ?GetThisMessageMap@CDviceCtrlDlgDlg@@KGPBUAFX_MSGMAP@@XZ
_TEXT	SEGMENT
?GetThisMessageMap@CDviceCtrlDlgDlg@@KGPBUAFX_MSGMAP@@XZ PROC ; CDviceCtrlDlgDlg::GetThisMessageMap, COMDAT

; 149  : BEGIN_MESSAGE_MAP(CDviceCtrlDlgDlg, CDialog)

  00000	55		 push	 ebp
  00001	8b ec		 mov	 ebp, esp
  00003	81 ec c0 00 00
	00		 sub	 esp, 192		; 000000c0H
  00009	53		 push	 ebx
  0000a	56		 push	 esi
  0000b	57		 push	 edi
  0000c	8d bd 40 ff ff
	ff		 lea	 edi, DWORD PTR [ebp-192]
  00012	b9 30 00 00 00	 mov	 ecx, 48			; 00000030H
  00017	b8 cc cc cc cc	 mov	 eax, -858993460		; ccccccccH
  0001c	f3 ab		 rep stosd

; 150  : 	ON_WM_SYSCOMMAND()
; 151  : 	ON_WM_PAINT()
; 152  : 	ON_WM_QUERYDRAGICON()
; 153  : 	//}}AFX_MSG_MAP
; 154  : 	ON_BN_CLICKED(IDOK, &CDviceCtrlDlgDlg::OnBnClickedOk)
; 155  : 	ON_BN_CLICKED(IDCANCEL, &CDviceCtrlDlgDlg::OnBnClickedCancel)
; 156  : 	ON_BN_CLICKED(IDC_INPUT_EAR_L, &CDviceCtrlDlgDlg::OnBnClickedInputEarL)
; 157  : 	ON_BN_CLICKED(IDC_INPUT_SPK, &CDviceCtrlDlgDlg::OnBnClickedInputSpk)
; 158  : 	ON_BN_CLICKED(IDC_INPUT_REC, &CDviceCtrlDlgDlg::OnBnClickedInputRec)
; 159  : 	ON_BN_CLICKED(IDC_INPUT_EAR_R, &CDviceCtrlDlgDlg::OnBnClickedInputEarR)
; 160  : 	ON_BN_CLICKED(IDC_INPUT_VIB, &CDviceCtrlDlgDlg::OnBnClickedInputVib)
; 161  : 	ON_BN_CLICKED(IDC_INPUT_CLOSE, &CDviceCtrlDlgDlg::OnBnClickedInputClose)
; 162  : 	ON_BN_CLICKED(IDC_OUTPUT_MIC, &CDviceCtrlDlgDlg::OnBnClickedOutputMic)
; 163  : 	ON_BN_CLICKED(IDC_OUTPUT_EAR_MIC, &CDviceCtrlDlgDlg::OnBnClickedOutputEarMic)
; 164  : 	ON_BN_CLICKED(IDC_OUTPUT_CLOSE, &CDviceCtrlDlgDlg::OnBnClickedOutputClose)
; 165  : 	ON_BN_CLICKED(IDC_BACKLIGHT_DETECT, &CDviceCtrlDlgDlg::OnBnClickedBacklightDetect)
; 166  : 	ON_BN_CLICKED(IDC_FIASHLIGHT_DETECT, &CDviceCtrlDlgDlg::OnBnClickedFiashlightDetect)
; 167  : 	ON_BN_CLICKED(IDC_PRODUCT_READY_CHECK, &CDviceCtrlDlgDlg::OnBnClickedProductReadyCheck)
; 168  : 	ON_BN_CLICKED(IDC_DEVICE_READY_CHECK, &CDviceCtrlDlgDlg::OnBnClickedDeviceReadyCheck)
; 169  : 	ON_BN_CLICKED(IDC_LEVEL_CHECK_1, &CDviceCtrlDlgDlg::OnBnClickedLevelCheck1)
; 170  : 	ON_BN_CLICKED(IDC_LEVEL_CHECK_2, &CDviceCtrlDlgDlg::OnBnClickedLevelCheck2)
; 171  : 	ON_BN_CLICKED(IDC_LIGHT_SOURCE_1, &CDviceCtrlDlgDlg::OnBnClickedLightSource1)
; 172  : 	ON_BN_CLICKED(IDC_LIGHT_SOURCE_2, &CDviceCtrlDlgDlg::OnBnClickedLightSource2)
; 173  : 	ON_BN_CLICKED(IDC_LED_1, &CDviceCtrlDlgDlg::OnBnClickedLed1)
; 174  : 	ON_BN_CLICKED(IDC_LED_2, &CDviceCtrlDlgDlg::OnBnClickedLed2)
; 175  : 	ON_BN_CLICKED(IDC_RESET, &CDviceCtrlDlgDlg::OnBnClickedReset)
; 176  : 	ON_BN_CLICKED(IDC_BOX_OPEN, &CDviceCtrlDlgDlg::OnBnClickedBoxOpen)
; 177  : 	ON_BN_CLICKED(IDC_BOX_CLOSE, &CDviceCtrlDlgDlg::OnBnClickedBoxClose)
; 178  : 	ON_BN_CLICKED(IDC_CLAMP_CTRL, &CDviceCtrlDlgDlg::OnBnClickedClampCtrl)
; 179  : 	ON_BN_CLICKED(IDC_EP_CTRL, &CDviceCtrlDlgDlg::OnBnClickedEpCtrl)
; 180  : 	ON_BN_CLICKED(IDC_5V_POWER, &CDviceCtrlDlgDlg::OnBnClicked5vPower)
; 181  : 	ON_NOTIFY(NM_CUSTOMDRAW, IDC_ADJUST_VOLTAGE, &CDviceCtrlDlgDlg::OnNMCustomdrawAdjustVoltage)
; 182  : 	ON_BN_CLICKED(IDC_G_SENSOR, &CDviceCtrlDlgDlg::OnBnClickedGSensor)
; 183  : 	ON_BN_CLICKED(IDC_MAGNETIC_ROTATE_MAGNETIC, &CDviceCtrlDlgDlg::OnBnClickedMagneticRotateMagnetic)
; 184  : 	ON_BN_CLICKED(IDC_ROTATE_STOP, &CDviceCtrlDlgDlg::OnBnClickedRotateStop)
; 185  : 	ON_NOTIFY(NM_RELEASEDCAPTURE, IDC_ADJUST_VOLTAGE, &CDviceCtrlDlgDlg::OnNMReleasedcaptureAdjustVoltage)
; 186  : 	ON_WM_TIMER()
; 187  : 	ON_BN_CLICKED(IDC_POWER, &CDviceCtrlDlgDlg::OnBnClickedPower)
; 188  : 	ON_BN_CLICKED(IDC_VOLUME_INCREASE, &CDviceCtrlDlgDlg::OnBnClickedVolumeIncrease)
; 189  : 	ON_BN_CLICKED(IDC_VOLUME_DECREASE, &CDviceCtrlDlgDlg::OnBnClickedVolumeDecrease)
; 190  : 	ON_BN_CLICKED(IDC_VIRTUAL_KEY_1, &CDviceCtrlDlgDlg::OnBnClickedVirtualKey1)
; 191  : 	ON_BN_CLICKED(IDC_VIRTUAL_KEY_2, &CDviceCtrlDlgDlg::OnBnClickedVirtualKey2)
; 192  : 	ON_BN_CLICKED(IDC_VIRTUAL_KEY_3, &CDviceCtrlDlgDlg::OnBnClickedVirtualKey3)
; 193  : 	ON_BN_CLICKED(IDC_TOUCH_1, &CDviceCtrlDlgDlg::OnBnClickedTouch1)
; 194  : 	ON_BN_CLICKED(IDC_TOUCH_2, &CDviceCtrlDlgDlg::OnBnClickedTouch2)
; 195  : 	ON_BN_CLICKED(IDC_TOUCH_3, &CDviceCtrlDlgDlg::OnBnClickedTouch3)
; 196  : 	ON_BN_CLICKED(IDC_TOUCH_4, &CDviceCtrlDlgDlg::OnBnClickedTouch4)
; 197  : 	ON_BN_CLICKED(IDC_TOUCH_5, &CDviceCtrlDlgDlg::OnBnClickedTouch5)
; 198  : 	ON_BN_CLICKED(IDC_KEY_UP_MODE, &CDviceCtrlDlgDlg::OnBnClickedKeyUpMode)
; 199  : 	ON_BN_CLICKED(IDC_OTG_LEVEL_CHECK, &CDviceCtrlDlgDlg::OnBnClickedOtgLevelCheck)
; 200  : 	ON_BN_CLICKED(IDC_AD_VALUE_CHECK, &CDviceCtrlDlgDlg::OnBnClickedAdValueCheck)
; 201  : 	ON_BN_CLICKED(IDC_OTG_CHECK, &CDviceCtrlDlgDlg::OnBnClickedOtgCheck)
; 202  : 	ON_BN_CLICKED(IDC_OTG_RESET, &CDviceCtrlDlgDlg::OnBnClickedOtgReset)
; 203  : 	ON_BN_CLICKED(IDC_BLUE_SCREEN, &CDviceCtrlDlgDlg::OnBnClickedBlueScreen)
; 204  : 	ON_BN_CLICKED(IDC_GREEN_SCREEN, &CDviceCtrlDlgDlg::OnBnClickedGreenScreen)
; 205  : 	ON_BN_CLICKED(IDC_RED_SCREEN, &CDviceCtrlDlgDlg::OnBnClickedRedScreen)
; 206  : 	ON_BN_CLICKED(IDC_BLUE_LED, &CDviceCtrlDlgDlg::OnBnClickedBlueLed)
; 207  : 	ON_BN_CLICKED(IDC_GREEN_LED, &CDviceCtrlDlgDlg::OnBnClickedGreenLed)
; 208  : 	ON_BN_CLICKED(IDC_RED_LED, &CDviceCtrlDlgDlg::OnBnClickedRedLed)
; 209  : 	
; 210  : 	ON_BN_CLICKED(IDC_SCREEN_OPEN, &CDviceCtrlDlgDlg::OnBnClickedScreenOpen)  // 20141007
; 211  : 	ON_BN_CLICKED(IDC_SCREEN_READ, &CDviceCtrlDlgDlg::OnBnClickedScreenRead)  // 20141007
; 212  : 	ON_BN_CLICKED(IDC_LED_OPEN, &CDviceCtrlDlgDlg::OnBnClickedLedOpen)  // 20141007
; 213  : 	ON_BN_CLICKED(IDC_LED_READ, &CDviceCtrlDlgDlg::OnBnClickedLedRead)  // 20141007
; 214  : 
; 215  : 	ON_BN_CLICKED(IDC_FIXTURE, &CDviceCtrlDlgDlg::OnBnClickedFixture)
; 216  : 	ON_BN_CLICKED(IDC_USB_POWER, &CDviceCtrlDlgDlg::OnBnClickedUsbPower)
; 217  : 	ON_BN_CLICKED(IDC_CIR, &CDviceCtrlDlgDlg::OnBnClickedCir)
; 218  : 	ON_BN_CLICKED(IDC_RAND, &CDviceCtrlDlgDlg::OnBnClickedRand)
; 219  : 	ON_WM_ACTIVATE()
; 220  : 	ON_BN_CLICKED(IDC_COLORLIGHTSOURCE, &CDviceCtrlDlgDlg::OnBnClickedColorlightsource)
; 221  : 	ON_BN_CLICKED(IDC_WHITELIGHTSOURCE, &CDviceCtrlDlgDlg::OnBnClickedWhitelightsource)
; 222  : 	ON_BN_CLICKED(IDC_OLDDEVCTRL, &CDviceCtrlDlgDlg::OnBnClickedOlddevctrl)
; 223  : 	ON_BN_CLICKED(IDC_HALL, &CDviceCtrlDlgDlg::OnBnClickedHall)
; 224  : 	ON_BN_CLICKED(IDC_CAMERAPOWER, &CDviceCtrlDlgDlg::OnBnClickedCamerapower)
; 225  : 	ON_BN_CLICKED(IDC_RESETPORT, &CDviceCtrlDlgDlg::OnBnClickedResetport)
; 226  : 	ON_BN_CLICKED(IDC_INPUT_SPK2, &CDviceCtrlDlgDlg::OnBnClickedInputSpk2)
; 227  : 	ON_BN_CLICKED(IDC_GRAVITY, &CDviceCtrlDlgDlg::OnBnClickedGravity)
; 228  : 	ON_BN_CLICKED(IDC_BACKLIGHT_START, &CDviceCtrlDlgDlg::OnBnClickedBacklightStart)
; 229  : 	ON_BN_CLICKED(IDC_FIASHLIGHT_START, &CDviceCtrlDlgDlg::OnBnClickedFiashlightStart)
; 230  : 	ON_BN_CLICKED(IDC_CALLOFF, &CDviceCtrlDlgDlg::OnBnClickedCalloff)
; 231  : 	ON_BN_CLICKED(IDC_RADIO1, &CDviceCtrlDlgDlg::OnBnClickedRadio1)
; 232  : 	ON_BN_CLICKED(IDC_BUTTON5, &CDviceCtrlDlgDlg::OnBnClickedButton5)
; 233  : 	ON_BN_CLICKED(IDC_BUTTON6, &CDviceCtrlDlgDlg::OnBnClickedButton6)
; 234  : 	ON_BN_CLICKED(IDC_BUTTON7, &CDviceCtrlDlgDlg::OnBnClickedButton7)
; 235  : 	ON_BN_CLICKED(IDC_BUTTON8, &CDviceCtrlDlgDlg::OnBnClickedButton8)
; 236  : 	ON_BN_CLICKED(IDC_RADIO2, &CDviceCtrlDlgDlg::OnBnClickedRadio2)
; 237  : 	ON_BN_CLICKED(IDC_RADIO3, &CDviceCtrlDlgDlg::OnBnClickedRadio3)
; 238  : 	ON_BN_CLICKED(IDC_RADIO4, &CDviceCtrlDlgDlg::OnBnClickedRadio4)
; 239  : 	ON_BN_CLICKED(IDC_CAMERAKEY, &CDviceCtrlDlgDlg::OnBnClickedCamerakey)
; 240  : END_MESSAGE_MAP()

  0001e	b8 00 00 00 00	 mov	 eax, OFFSET ?messageMap@?1??GetThisMessageMap@CDviceCtrlDlgDlg@@KGPBUAFX_MSGMAP@@XZ@4U3@B
  00023	5f		 pop	 edi
  00024	5e		 pop	 esi
  00025	5b		 pop	 ebx
  00026	8b e5		 mov	 esp, ebp
  00028	5d		 pop	 ebp
  00029	c3		 ret	 0
?GetThisMessageMap@CDviceCtrlDlgDlg@@KGPBUAFX_MSGMAP@@XZ ENDP ; CDviceCtrlDlgDlg::GetThisMessageMap
_TEXT	ENDS
PUBLIC	??_C@_17KKONBFDK@?$AA1?$AA9?$AA2?$AA?$AA@	; `string'
PUBLIC	??4?$CStringT@_WV?$StrTraitMFC@_WV?$ChTraitsCRT@_W@ATL@@@@@ATL@@QAEAAV01@PB_W@Z ; ATL::CStringT<wchar_t,StrTraitMFC<wchar_t,ATL::ChTraitsCRT<wchar_t> > >::operator=
PUBLIC	?push_back@?$vector@V?$CStringT@_WV?$StrTraitMFC@_WV?$ChTraitsCRT@_W@ATL@@@@@ATL@@V?$allocator@V?$CStringT@_WV?$StrTraitMFC@_WV?$ChTraitsCRT@_W@ATL@@@@@ATL@@@std@@@std@@QAEXABV?$CStringT@_WV?$StrTraitMFC@_WV?$ChTraitsCRT@_W@ATL@@@@@ATL@@@Z ; std::vector<ATL::CStringT<wchar_t,StrTraitMFC<wchar_t,ATL::ChTraitsCRT<wchar_t> > >,std::allocator<ATL::CStringT<wchar_t,StrTraitMFC<wchar_t,ATL::ChTraitsCRT<wchar_t> > > > >::push_back
PUBLIC	?CheckWideChar@CDviceCtrlDlgDlg@@QAEXV?$CStringT@_WV?$StrTraitMFC@_WV?$ChTraitsCRT@_W@ATL@@@@@ATL@@AAV23@@Z ; CDviceCtrlDlgDlg::CheckWideChar
PUBLIC	??0?$CStringT@_WV?$StrTraitMFC@_WV?$ChTraitsCRT@_W@ATL@@@@@ATL@@QAE@ABV01@@Z ; ATL::CStringT<wchar_t,StrTraitMFC<wchar_t,ATL::ChTraitsCRT<wchar_t> > >::CStringT<wchar_t,StrTraitMFC<wchar_t,ATL::ChTraitsCRT<wchar_t> > >
PUBLIC	??Y?$CStringT@_WV?$StrTraitMFC@_WV?$ChTraitsCRT@_W@ATL@@@@@ATL@@QAEAAV01@PB_W@Z ; ATL::CStringT<wchar_t,StrTraitMFC<wchar_t,ATL::ChTraitsCRT<wchar_t> > >::operator+=
PUBLIC	??_C@_1CA@FJJKCDKK@?$AA?2?$AAD?$AAe?$AAv?$AAi?$AAc?$AAe?$AAF?$AAl?$AAo?$AAw?$AA?4?$AAt?$AAx?$AAt?$AA?$AA@ ; `string'
PUBLIC	??4?$CStringT@_WV?$StrTraitMFC@_WV?$ChTraitsCRT@_W@ATL@@@@@ATL@@QAEAAV01@ABV01@@Z ; ATL::CStringT<wchar_t,StrTraitMFC<wchar_t,ATL::ChTraitsCRT<wchar_t> > >::operator=
PUBLIC	?Left@?$CStringT@_WV?$StrTraitMFC@_WV?$ChTraitsCRT@_W@ATL@@@@@ATL@@QBE?AV12@H@Z ; ATL::CStringT<wchar_t,StrTraitMFC<wchar_t,ATL::ChTraitsCRT<wchar_t> > >::Left
PUBLIC	?ReverseFind@?$CStringT@_WV?$StrTraitMFC@_WV?$ChTraitsCRT@_W@ATL@@@@@ATL@@QBEH_W@Z ; ATL::CStringT<wchar_t,StrTraitMFC<wchar_t,ATL::ChTraitsCRT<wchar_t> > >::ReverseFind
PUBLIC	?ReleaseBuffer@?$CSimpleStringT@_W$0A@@ATL@@QAEXH@Z ; ATL::CSimpleStringT<wchar_t,0>::ReleaseBuffer
PUBLIC	?GetBufferSetLength@?$CSimpleStringT@_W$0A@@ATL@@QAEPA_WH@Z ; ATL::CSimpleStringT<wchar_t,0>::GetBufferSetLength
PUBLIC	??_C@_1BM@EAIEDIBI@?$AAR?$AAe?$AAc?$AAe?$AAi?$AAv?$AAe?$AAr?$AAE?$AAv?$AAe?$AAn?$AAt?$AA?$AA@ ; `string'
PUBLIC	?EnableEdit@CDviceCtrlDlgDlg@@QAEXH@Z		; CDviceCtrlDlgDlg::EnableEdit
PUBLIC	??B?$CSimpleStringT@_W$0A@@ATL@@QBEPB_WXZ	; ATL::CSimpleStringT<wchar_t,0>::operator wchar_t const *
PUBLIC	?IsEmpty@?$CSimpleStringT@_W$0A@@ATL@@QBE_NXZ	; ATL::CSimpleStringT<wchar_t,0>::IsEmpty
PUBLIC	??_C@_0DH@LFMCDPAL@e?3?2cz?2vs?2dvicectrldlg_new_signal@ ; `string'
PUBLIC	?__LINE__Var@?1??OnInitDialog@CDviceCtrlDlgDlg@@MAEHXZ@4JA ; `CDviceCtrlDlgDlg::OnInitDialog'::`2'::__LINE__Var
PUBLIC	?LoadStringW@?$CStringT@_WV?$StrTraitMFC@_WV?$ChTraitsCRT@_W@ATL@@@@@ATL@@QAEHI@Z ; ATL::CStringT<wchar_t,StrTraitMFC<wchar_t,ATL::ChTraitsCRT<wchar_t> > >::LoadStringW
PUBLIC	??0?$CStringT@_WV?$StrTraitMFC@_WV?$ChTraitsCRT@_W@ATL@@@@@ATL@@QAE@XZ ; ATL::CStringT<wchar_t,StrTraitMFC<wchar_t,ATL::ChTraitsCRT<wchar_t> > >::CStringT<wchar_t,StrTraitMFC<wchar_t,ATL::ChTraitsCRT<wchar_t> > >
PUBLIC	__$ArrayPad$
EXTRN	??1CFileFind@@UAE@XZ:PROC			; CFileFind::~CFileFind
EXTRN	?EnableWindow@CWnd@@QAEHH@Z:PROC		; CWnd::EnableWindow
EXTRN	?SetDlgItemTextW@CWnd@@QAEXHPB_W@Z:PROC		; CWnd::SetDlgItemTextW
EXTRN	__imp__SetWindowPos@28:PROC
EXTRN	?Width@CRect@@QBEHXZ:PROC			; CRect::Width
EXTRN	?Height@CRect@@QBEHXZ:PROC			; CRect::Height
EXTRN	?GetDlgItem@CWnd@@QBEPAV1@H@Z:PROC		; CWnd::GetDlgItem
EXTRN	?GetWindowRect@CWnd@@QBEXPAUtagRECT@@@Z:PROC	; CWnd::GetWindowRect
EXTRN	??0CRect@@QAE@XZ:PROC				; CRect::CRect
EXTRN	??1CStdioFile@@UAE@XZ:PROC			; CStdioFile::~CStdioFile
EXTRN	?Close@CStdioFile@@UAEXXZ:PROC			; CStdioFile::Close
EXTRN	?GetPosition@CStdioFile@@UBE_KXZ:PROC		; CStdioFile::GetPosition
EXTRN	?ReadString@CStdioFile@@UAEHAAV?$CStringT@_WV?$StrTraitMFC@_WV?$ChTraitsCRT@_W@ATL@@@@@ATL@@@Z:PROC ; CStdioFile::ReadString
EXTRN	?GetLength@CStdioFile@@UBE_KXZ:PROC		; CStdioFile::GetLength
EXTRN	?Open@CStdioFile@@UAEHPB_WIPAVCFileException@@@Z:PROC ; CStdioFile::Open
EXTRN	??0CStdioFile@@QAE@XZ:PROC			; CStdioFile::CStdioFile
EXTRN	?FindFile@CFileFind@@UAEHPB_WK@Z:PROC		; CFileFind::FindFile
EXTRN	??0CFileFind@@QAE@XZ:PROC			; CFileFind::CFileFind
EXTRN	__imp__GetModuleFileNameW@12:PROC
EXTRN	?SetTimer@CWnd@@QAEIIIP6GXPAUHWND__@@IIK@Z@Z:PROC ; CWnd::SetTimer
EXTRN	__imp__CreateEventW@16:PROC
EXTRN	?SetPos@CSliderCtrl@@QAEXH@Z:PROC		; CSliderCtrl::SetPos
EXTRN	?SetRangeMin@CSliderCtrl@@QAEXHH@Z:PROC		; CSliderCtrl::SetRangeMin
EXTRN	?SetRangeMax@CSliderCtrl@@QAEXHH@Z:PROC		; CSliderCtrl::SetRangeMax
EXTRN	?SetIcon@CWnd@@QAEPAUHICON__@@PAU2@H@Z:PROC	; CWnd::SetIcon
EXTRN	?AppendMenuW@CMenu@@QAEHIIPB_W@Z:PROC		; CMenu::AppendMenuW
EXTRN	?AfxAssertFailedLine@@YGHPBDH@Z:PROC		; AfxAssertFailedLine
EXTRN	?GetSystemMenu@CWnd@@QBEPAVCMenu@@H@Z:PROC	; CWnd::GetSystemMenu
EXTRN	@_RTC_CheckStackVars@8:PROC
;	COMDAT ??_C@_17KKONBFDK@?$AA1?$AA9?$AA2?$AA?$AA@
CONST	SEGMENT
??_C@_17KKONBFDK@?$AA1?$AA9?$AA2?$AA?$AA@ DB '1', 00H, '9', 00H, '2', 00H
	DB	00H, 00H					; `string'
CONST	ENDS
;	COMDAT ??_C@_1CA@FJJKCDKK@?$AA?2?$AAD?$AAe?$AAv?$AAi?$AAc?$AAe?$AAF?$AAl?$AAo?$AAw?$AA?4?$AAt?$AAx?$AAt?$AA?$AA@
CONST	SEGMENT
??_C@_1CA@FJJKCDKK@?$AA?2?$AAD?$AAe?$AAv?$AAi?$AAc?$AAe?$AAF?$AAl?$AAo?$AAw?$AA?4?$AAt?$AAx?$AAt?$AA?$AA@ DB '\'
	DB	00H, 'D', 00H, 'e', 00H, 'v', 00H, 'i', 00H, 'c', 00H, 'e', 00H
	DB	'F', 00H, 'l', 00H, 'o', 00H, 'w', 00H, '.', 00H, 't', 00H, 'x'
	DB	00H, 't', 00H, 00H, 00H			; `string'
CONST	ENDS
;	COMDAT ??_C@_1BM@EAIEDIBI@?$AAR?$AAe?$AAc?$AAe?$AAi?$AAv?$AAe?$AAr?$AAE?$AAv?$AAe?$AAn?$AAt?$AA?$AA@
CONST	SEGMENT
??_C@_1BM@EAIEDIBI@?$AAR?$AAe?$AAc?$AAe?$AAi?$AAv?$AAe?$AAr?$AAE?$AAv?$AAe?$AAn?$AAt?$AA?$AA@ DB 'R'
	DB	00H, 'e', 00H, 'c', 00H, 'e', 00H, 'i', 00H, 'v', 00H, 'e', 00H
	DB	'r', 00H, 'E', 00H, 'v', 00H, 'e', 00H, 'n', 00H, 't', 00H, 00H
	DB	00H						; `string'
CONST	ENDS
;	COMDAT ??_C@_0DH@LFMCDPAL@e?3?2cz?2vs?2dvicectrldlg_new_signal@
CONST	SEGMENT
??_C@_0DH@LFMCDPAL@e?3?2cz?2vs?2dvicectrldlg_new_signal@ DB 'e:\cz\vs\dvi'
	DB	'cectrldlg_new_signal_1\dvicectrldlgdlg.cpp', 00H ; `string'
CONST	ENDS
;	COMDAT ?__LINE__Var@?1??OnInitDialog@CDviceCtrlDlgDlg@@MAEHXZ@4JA
_DATA	SEGMENT
?__LINE__Var@?1??OnInitDialog@CDviceCtrlDlgDlg@@MAEHXZ@4JA DD 0f6H ; `CDviceCtrlDlgDlg::OnInitDialog'::`2'::__LINE__Var
_DATA	ENDS
;	COMDAT xdata$x
xdata$x	SEGMENT
__ehfuncinfo$?OnInitDialog@CDviceCtrlDlgDlg@@MAEHXZ DD 019930522H
	DD	07H
	DD	FLAT:__unwindtable$?OnInitDialog@CDviceCtrlDlgDlg@@MAEHXZ
	DD	2 DUP(00H)
	DD	2 DUP(00H)
	DD	00H
	DD	01H
__unwindtable$?OnInitDialog@CDviceCtrlDlgDlg@@MAEHXZ DD 0ffffffffH
	DD	FLAT:__unwindfunclet$?OnInitDialog@CDviceCtrlDlgDlg@@MAEHXZ$0
	DD	0ffffffffH
	DD	FLAT:__unwindfunclet$?OnInitDialog@CDviceCtrlDlgDlg@@MAEHXZ$1
	DD	01H
	DD	FLAT:__unwindfunclet$?OnInitDialog@CDviceCtrlDlgDlg@@MAEHXZ$2
	DD	01H
	DD	FLAT:__unwindfunclet$?OnInitDialog@CDviceCtrlDlgDlg@@MAEHXZ$3
	DD	03H
	DD	FLAT:__unwindfunclet$?OnInitDialog@CDviceCtrlDlgDlg@@MAEHXZ$4
	DD	04H
	DD	FLAT:__unwindfunclet$?OnInitDialog@CDviceCtrlDlgDlg@@MAEHXZ$5
	DD	05H
	DD	FLAT:__unwindfunclet$?OnInitDialog@CDviceCtrlDlgDlg@@MAEHXZ$6
; Function compile flags: /Odtp /RTCsu /ZI
xdata$x	ENDS
;	COMDAT ?OnInitDialog@CDviceCtrlDlgDlg@@MAEHXZ
_TEXT	SEGMENT
tv531 = -508						; size = 4
tv543 = -504						; size = 4
tv538 = -504						; size = 4
tv197 = -504						; size = 4
$T236725 = -496						; size = 4
$T236726 = -484						; size = 4
$T236727 = -472						; size = 4
$T236728 = -460						; size = 4
_tmpRect2$ = -256					; size = 16
_tmpRect1$ = -232					; size = 16
_str1$232577 = -208					; size = 4
_aStr$232576 = -196					; size = 4
_cPos$232575 = -184					; size = 8
_fLength$232571 = -168					; size = 8
_sFile$232569 = -152					; size = 24
_fileFind$ = -120					; size = 28
_nPos$ = -84						; size = 4
_sPath$ = -72						; size = 4
_strAboutMenu$232558 = -60				; size = 4
_bNameValid$232557 = -48				; size = 4
_pSysMenu$ = -36					; size = 4
_this$ = -24						; size = 4
__$ArrayPad$ = -16					; size = 4
__$EHRec$ = -12						; size = 12
?OnInitDialog@CDviceCtrlDlgDlg@@MAEHXZ PROC		; CDviceCtrlDlgDlg::OnInitDialog, COMDAT
; _this$ = ecx

; 246  : {

  00000	55		 push	 ebp
  00001	8b ec		 mov	 ebp, esp
  00003	6a ff		 push	 -1
  00005	68 00 00 00 00	 push	 __ehhandler$?OnInitDialog@CDviceCtrlDlgDlg@@MAEHXZ
  0000a	64 a1 00 00 00
	00		 mov	 eax, DWORD PTR fs:0
  00010	50		 push	 eax
  00011	81 ec f0 01 00
	00		 sub	 esp, 496		; 000001f0H
  00017	53		 push	 ebx
  00018	56		 push	 esi
  00019	57		 push	 edi
  0001a	51		 push	 ecx
  0001b	8d bd 04 fe ff
	ff		 lea	 edi, DWORD PTR [ebp-508]
  00021	b9 7c 00 00 00	 mov	 ecx, 124		; 0000007cH
  00026	b8 cc cc cc cc	 mov	 eax, -858993460		; ccccccccH
  0002b	f3 ab		 rep stosd
  0002d	59		 pop	 ecx
  0002e	a1 00 00 00 00	 mov	 eax, DWORD PTR ___security_cookie
  00033	33 c5		 xor	 eax, ebp
  00035	89 45 f0	 mov	 DWORD PTR __$ArrayPad$[ebp], eax
  00038	50		 push	 eax
  00039	8d 45 f4	 lea	 eax, DWORD PTR __$EHRec$[ebp]
  0003c	64 a3 00 00 00
	00		 mov	 DWORD PTR fs:0, eax
  00042	89 4d e8	 mov	 DWORD PTR _this$[ebp], ecx

; 247  : 	CDialog::OnInitDialog();

  00045	8b 4d e8	 mov	 ecx, DWORD PTR _this$[ebp]
  00048	e8 00 00 00 00	 call	 ?OnInitDialog@CDialog@@UAEHXZ ; CDialog::OnInitDialog

; 248  : 
; 249  : 	// ...
; 250  : 
; 251  : 	// IDM_ABOUTBOX 
; 252  : 	ASSERT((IDM_ABOUTBOX & 0xFFF0) == IDM_ABOUTBOX);
; 253  : 	ASSERT(IDM_ABOUTBOX < 0xF000);
; 254  : 
; 255  : 	CMenu* pSysMenu = GetSystemMenu(FALSE);

  0004d	6a 00		 push	 0
  0004f	8b 4d e8	 mov	 ecx, DWORD PTR _this$[ebp]
  00052	e8 00 00 00 00	 call	 ?GetSystemMenu@CWnd@@QBEPAVCMenu@@H@Z ; CWnd::GetSystemMenu
  00057	89 45 dc	 mov	 DWORD PTR _pSysMenu$[ebp], eax

; 256  : 	if (pSysMenu != NULL)

  0005a	83 7d dc 00	 cmp	 DWORD PTR _pSysMenu$[ebp], 0
  0005e	74 7e		 je	 SHORT $LN8@OnInitDial

; 257  : 	{
; 258  : 		BOOL bNameValid;
; 259  : 		CString strAboutMenu;

  00060	8d 4d c4	 lea	 ecx, DWORD PTR _strAboutMenu$232558[ebp]
  00063	e8 00 00 00 00	 call	 ??0?$CStringT@_WV?$StrTraitMFC@_WV?$ChTraitsCRT@_W@ATL@@@@@ATL@@QAE@XZ ; ATL::CStringT<wchar_t,StrTraitMFC<wchar_t,ATL::ChTraitsCRT<wchar_t> > >::CStringT<wchar_t,StrTraitMFC<wchar_t,ATL::ChTraitsCRT<wchar_t> > >
  00068	c7 45 fc 00 00
	00 00		 mov	 DWORD PTR __$EHRec$[ebp+8], 0

; 260  : 		bNameValid = strAboutMenu.LoadString(IDS_ABOUTBOX);

  0006f	6a 65		 push	 101			; 00000065H
  00071	8d 4d c4	 lea	 ecx, DWORD PTR _strAboutMenu$232558[ebp]
  00074	e8 00 00 00 00	 call	 ?LoadStringW@?$CStringT@_WV?$StrTraitMFC@_WV?$ChTraitsCRT@_W@ATL@@@@@ATL@@QAEHI@Z ; ATL::CStringT<wchar_t,StrTraitMFC<wchar_t,ATL::ChTraitsCRT<wchar_t> > >::LoadStringW
  00079	89 45 d0	 mov	 DWORD PTR _bNameValid$232557[ebp], eax

; 261  : 		ASSERT(bNameValid);

  0007c	83 7d d0 00	 cmp	 DWORD PTR _bNameValid$232557[ebp], 0
  00080	75 18		 jne	 SHORT $LN11@OnInitDial
  00082	a1 00 00 00 00	 mov	 eax, DWORD PTR ?__LINE__Var@?1??OnInitDialog@CDviceCtrlDlgDlg@@MAEHXZ@4JA
  00087	83 c0 0f	 add	 eax, 15			; 0000000fH
  0008a	50		 push	 eax
  0008b	68 00 00 00 00	 push	 OFFSET ??_C@_0DH@LFMCDPAL@e?3?2cz?2vs?2dvicectrldlg_new_signal@
  00090	e8 00 00 00 00	 call	 ?AfxAssertFailedLine@@YGHPBDH@Z ; AfxAssertFailedLine
  00095	85 c0		 test	 eax, eax
  00097	74 01		 je	 SHORT $LN11@OnInitDial
  00099	cc		 int	 3
$LN11@OnInitDial:

; 262  : 		if (!strAboutMenu.IsEmpty())

  0009a	8d 4d c4	 lea	 ecx, DWORD PTR _strAboutMenu$232558[ebp]
  0009d	e8 00 00 00 00	 call	 ?IsEmpty@?$CSimpleStringT@_W$0A@@ATL@@QBE_NXZ ; ATL::CSimpleStringT<wchar_t,0>::IsEmpty
  000a2	0f b6 c0	 movzx	 eax, al
  000a5	85 c0		 test	 eax, eax
  000a7	75 26		 jne	 SHORT $LN7@OnInitDial

; 263  : 		{
; 264  : 			pSysMenu->AppendMenu(MF_SEPARATOR);

  000a9	6a 00		 push	 0
  000ab	6a 00		 push	 0
  000ad	68 00 08 00 00	 push	 2048			; 00000800H
  000b2	8b 4d dc	 mov	 ecx, DWORD PTR _pSysMenu$[ebp]
  000b5	e8 00 00 00 00	 call	 ?AppendMenuW@CMenu@@QAEHIIPB_W@Z ; CMenu::AppendMenuW

; 265  : 			pSysMenu->AppendMenu(MF_STRING, IDM_ABOUTBOX, strAboutMenu);

  000ba	8d 4d c4	 lea	 ecx, DWORD PTR _strAboutMenu$232558[ebp]
  000bd	e8 00 00 00 00	 call	 ??B?$CSimpleStringT@_W$0A@@ATL@@QBEPB_WXZ ; ATL::CSimpleStringT<wchar_t,0>::operator wchar_t const *
  000c2	50		 push	 eax
  000c3	6a 10		 push	 16			; 00000010H
  000c5	6a 00		 push	 0
  000c7	8b 4d dc	 mov	 ecx, DWORD PTR _pSysMenu$[ebp]
  000ca	e8 00 00 00 00	 call	 ?AppendMenuW@CMenu@@QAEHIIPB_W@Z ; CMenu::AppendMenuW
$LN7@OnInitDial:

; 266  : 		}
; 267  : 	}

  000cf	c7 45 fc ff ff
	ff ff		 mov	 DWORD PTR __$EHRec$[ebp+8], -1
  000d6	8d 4d c4	 lea	 ecx, DWORD PTR _strAboutMenu$232558[ebp]
  000d9	e8 00 00 00 00	 call	 ??1?$CStringT@_WV?$StrTraitMFC@_WV?$ChTraitsCRT@_W@ATL@@@@@ATL@@QAE@XZ ; ATL::CStringT<wchar_t,StrTraitMFC<wchar_t,ATL::ChTraitsCRT<wchar_t> > >::~CStringT<wchar_t,StrTraitMFC<wchar_t,ATL::ChTraitsCRT<wchar_t> > >
$LN8@OnInitDial:

; 268  : 
; 269  : 	// 
; 270  : 	//  
; 271  : 	SetIcon(m_hIcon, TRUE);			// 

  000de	6a 01		 push	 1
  000e0	8b 45 e8	 mov	 eax, DWORD PTR _this$[ebp]
  000e3	8b 88 94 00 00
	00		 mov	 ecx, DWORD PTR [eax+148]
  000e9	51		 push	 ecx
  000ea	8b 4d e8	 mov	 ecx, DWORD PTR _this$[ebp]
  000ed	e8 00 00 00 00	 call	 ?SetIcon@CWnd@@QAEPAUHICON__@@PAU2@H@Z ; CWnd::SetIcon

; 272  : 	SetIcon(m_hIcon, FALSE);		// 

  000f2	6a 00		 push	 0
  000f4	8b 45 e8	 mov	 eax, DWORD PTR _this$[ebp]
  000f7	8b 88 94 00 00
	00		 mov	 ecx, DWORD PTR [eax+148]
  000fd	51		 push	 ecx
  000fe	8b 4d e8	 mov	 ecx, DWORD PTR _this$[ebp]
  00101	e8 00 00 00 00	 call	 ?SetIcon@CWnd@@QAEPAUHICON__@@PAU2@H@Z ; CWnd::SetIcon

; 273  : 
; 274  : 	// TODO: 
; 275  : 	//************************************************************
; 276  : 
; 277  : 	m_DeviceAddress = 0xFF;

  00106	8b 45 e8	 mov	 eax, DWORD PTR _this$[ebp]
  00109	c7 80 b8 00 00
	00 ff 00 00 00	 mov	 DWORD PTR [eax+184], 255 ; 000000ffH

; 278  : 	m_DevicePort = 0;

  00113	8b 45 e8	 mov	 eax, DWORD PTR _this$[ebp]
  00116	c7 80 b4 00 00
	00 00 00 00 00	 mov	 DWORD PTR [eax+180], 0

; 279  : 	m_SerialOpenFlag = FALSE;

  00120	8b 45 e8	 mov	 eax, DWORD PTR _this$[ebp]
  00123	c7 80 bc 00 00
	00 00 00 00 00	 mov	 DWORD PTR [eax+188], 0

; 280  : 	m_nPort = 1;									//

  0012d	8b 45 e8	 mov	 eax, DWORD PTR _this$[ebp]
  00130	c7 80 98 00 00
	00 01 00 00 00	 mov	 DWORD PTR [eax+152], 1

; 281  : 	m_mod = LsComm::CComPort::AutoReceiveBySignal;	//

  0013a	8b 45 e8	 mov	 eax, DWORD PTR _this$[ebp]
  0013d	c7 80 9c 00 00
	00 02 00 00 00	 mov	 DWORD PTR [eax+156], 2

; 282  : 	m_dwBaud = 19200;								//

  00147	8b 45 e8	 mov	 eax, DWORD PTR _this$[ebp]
  0014a	c7 80 a0 00 00
	00 00 4b 00 00	 mov	 DWORD PTR [eax+160], 19200 ; 00004b00H

; 283  : 	m_parity = LsComm::CComPort::NoParity;			//

  00154	8b 45 e8	 mov	 eax, DWORD PTR _this$[ebp]
  00157	c7 80 a4 00 00
	00 02 00 00 00	 mov	 DWORD PTR [eax+164], 2

; 284  : 	m_DataBits = 8;									//

  00161	8b 45 e8	 mov	 eax, DWORD PTR _this$[ebp]
  00164	c6 80 a8 00 00
	00 08		 mov	 BYTE PTR [eax+168], 8

; 285  : 	m_stopbits =  LsComm::CComPort::OneStopBit;		//

  0016b	8b 45 e8	 mov	 eax, DWORD PTR _this$[ebp]
  0016e	c7 80 ac 00 00
	00 00 00 00 00	 mov	 DWORD PTR [eax+172], 0

; 286  : 	m_fc = LsComm::CComPort::NoFlowControl;			//

  00178	8b 45 e8	 mov	 eax, DWORD PTR _this$[ebp]
  0017b	c7 80 b0 00 00
	00 00 00 00 00	 mov	 DWORD PTR [eax+176], 0

; 287  : 
; 288  : 	m_VoltageAdjust.SetRangeMax(45);				//

  00185	6a 00		 push	 0
  00187	6a 2d		 push	 45			; 0000002dH
  00189	8b 4d e8	 mov	 ecx, DWORD PTR _this$[ebp]
  0018c	81 c1 9c 09 00
	00		 add	 ecx, 2460		; 0000099cH
  00192	e8 00 00 00 00	 call	 ?SetRangeMax@CSliderCtrl@@QAEXHH@Z ; CSliderCtrl::SetRangeMax

; 289  : 	m_VoltageAdjust.SetRangeMin(23);				//

  00197	6a 00		 push	 0
  00199	6a 17		 push	 23			; 00000017H
  0019b	8b 4d e8	 mov	 ecx, DWORD PTR _this$[ebp]
  0019e	81 c1 9c 09 00
	00		 add	 ecx, 2460		; 0000099cH
  001a4	e8 00 00 00 00	 call	 ?SetRangeMin@CSliderCtrl@@QAEXHH@Z ; CSliderCtrl::SetRangeMin

; 290  : 	m_VoltageAdjust.SetPos(23);						//

  001a9	6a 17		 push	 23			; 00000017H
  001ab	8b 4d e8	 mov	 ecx, DWORD PTR _this$[ebp]
  001ae	81 c1 9c 09 00
	00		 add	 ecx, 2460		; 0000099cH
  001b4	e8 00 00 00 00	 call	 ?SetPos@CSliderCtrl@@QAEXH@Z ; CSliderCtrl::SetPos

; 291  : 
; 292  : 	EnableEdit(FALSE);

  001b9	6a 00		 push	 0
  001bb	8b 4d e8	 mov	 ecx, DWORD PTR _this$[ebp]
  001be	e8 00 00 00 00	 call	 ?EnableEdit@CDviceCtrlDlgDlg@@QAEXH@Z ; CDviceCtrlDlgDlg::EnableEdit

; 293  : 
; 294  : 	hReceiveEvent = CreateEvent(NULL,TRUE,FALSE,LPCTSTR(_T("ReceiverEvent")));			//

  001c3	8b f4		 mov	 esi, esp
  001c5	68 00 00 00 00	 push	 OFFSET ??_C@_1BM@EAIEDIBI@?$AAR?$AAe?$AAc?$AAe?$AAi?$AAv?$AAe?$AAr?$AAE?$AAv?$AAe?$AAn?$AAt?$AA?$AA@
  001ca	6a 00		 push	 0
  001cc	6a 01		 push	 1
  001ce	6a 00		 push	 0
  001d0	ff 15 00 00 00
	00		 call	 DWORD PTR __imp__CreateEventW@16
  001d6	3b f4		 cmp	 esi, esp
  001d8	e8 00 00 00 00	 call	 __RTC_CheckEsp
  001dd	a3 00 00 00 00	 mov	 DWORD PTR ?hReceiveEvent@@3PAXA, eax ; hReceiveEvent

; 295  : 
; 296  : 	SetTimer(1, 1000, NULL);

  001e2	6a 00		 push	 0
  001e4	68 e8 03 00 00	 push	 1000			; 000003e8H
  001e9	6a 01		 push	 1
  001eb	8b 4d e8	 mov	 ecx, DWORD PTR _this$[ebp]
  001ee	e8 00 00 00 00	 call	 ?SetTimer@CWnd@@QAEIIIP6GXPAUHWND__@@IIK@Z@Z ; CWnd::SetTimer

; 297  : 	//************************************************************
; 298  : 	//
; 299  : 	CString sPath;

  001f3	8d 4d b8	 lea	 ecx, DWORD PTR _sPath$[ebp]
  001f6	e8 00 00 00 00	 call	 ??0?$CStringT@_WV?$StrTraitMFC@_WV?$ChTraitsCRT@_W@ATL@@@@@ATL@@QAE@XZ ; ATL::CStringT<wchar_t,StrTraitMFC<wchar_t,ATL::ChTraitsCRT<wchar_t> > >::CStringT<wchar_t,StrTraitMFC<wchar_t,ATL::ChTraitsCRT<wchar_t> > >
  001fb	c7 45 fc 01 00
	00 00		 mov	 DWORD PTR __$EHRec$[ebp+8], 1

; 300  : 	GetModuleFileName(NULL,sPath.GetBufferSetLength(MAX_PATH+1),MAX_PATH);

  00202	8b f4		 mov	 esi, esp
  00204	68 04 01 00 00	 push	 260			; 00000104H
  00209	68 05 01 00 00	 push	 261			; 00000105H
  0020e	8d 4d b8	 lea	 ecx, DWORD PTR _sPath$[ebp]
  00211	e8 00 00 00 00	 call	 ?GetBufferSetLength@?$CSimpleStringT@_W$0A@@ATL@@QAEPA_WH@Z ; ATL::CSimpleStringT<wchar_t,0>::GetBufferSetLength
  00216	50		 push	 eax
  00217	6a 00		 push	 0
  00219	ff 15 00 00 00
	00		 call	 DWORD PTR __imp__GetModuleFileNameW@12
  0021f	3b f4		 cmp	 esi, esp
  00221	e8 00 00 00 00	 call	 __RTC_CheckEsp

; 301  : 	sPath.ReleaseBuffer ();

  00226	6a ff		 push	 -1
  00228	8d 4d b8	 lea	 ecx, DWORD PTR _sPath$[ebp]
  0022b	e8 00 00 00 00	 call	 ?ReleaseBuffer@?$CSimpleStringT@_W$0A@@ATL@@QAEXH@Z ; ATL::CSimpleStringT<wchar_t,0>::ReleaseBuffer

; 302  : 	int nPos = sPath.ReverseFind('\\');

  00230	6a 5c		 push	 92			; 0000005cH
  00232	8d 4d b8	 lea	 ecx, DWORD PTR _sPath$[ebp]
  00235	e8 00 00 00 00	 call	 ?ReverseFind@?$CStringT@_WV?$StrTraitMFC@_WV?$ChTraitsCRT@_W@ATL@@@@@ATL@@QBEH_W@Z ; ATL::CStringT<wchar_t,StrTraitMFC<wchar_t,ATL::ChTraitsCRT<wchar_t> > >::ReverseFind
  0023a	89 45 ac	 mov	 DWORD PTR _nPos$[ebp], eax

; 303  : 	sPath = sPath.Left(nPos);

  0023d	8b 45 ac	 mov	 eax, DWORD PTR _nPos$[ebp]
  00240	50		 push	 eax
  00241	8d 8d 10 fe ff
	ff		 lea	 ecx, DWORD PTR $T236725[ebp]
  00247	51		 push	 ecx
  00248	8d 4d b8	 lea	 ecx, DWORD PTR _sPath$[ebp]
  0024b	e8 00 00 00 00	 call	 ?Left@?$CStringT@_WV?$StrTraitMFC@_WV?$ChTraitsCRT@_W@ATL@@@@@ATL@@QBE?AV12@H@Z ; ATL::CStringT<wchar_t,StrTraitMFC<wchar_t,ATL::ChTraitsCRT<wchar_t> > >::Left
  00250	89 85 08 fe ff
	ff		 mov	 DWORD PTR tv197[ebp], eax
  00256	8b 95 08 fe ff
	ff		 mov	 edx, DWORD PTR tv197[ebp]
  0025c	89 95 04 fe ff
	ff		 mov	 DWORD PTR tv531[ebp], edx
  00262	c6 45 fc 02	 mov	 BYTE PTR __$EHRec$[ebp+8], 2
  00266	8b 85 04 fe ff
	ff		 mov	 eax, DWORD PTR tv531[ebp]
  0026c	50		 push	 eax
  0026d	8d 4d b8	 lea	 ecx, DWORD PTR _sPath$[ebp]
  00270	e8 00 00 00 00	 call	 ??4?$CStringT@_WV?$StrTraitMFC@_WV?$ChTraitsCRT@_W@ATL@@@@@ATL@@QAEAAV01@ABV01@@Z ; ATL::CStringT<wchar_t,StrTraitMFC<wchar_t,ATL::ChTraitsCRT<wchar_t> > >::operator=
  00275	c6 45 fc 01	 mov	 BYTE PTR __$EHRec$[ebp+8], 1
  00279	8d 8d 10 fe ff
	ff		 lea	 ecx, DWORD PTR $T236725[ebp]
  0027f	e8 00 00 00 00	 call	 ??1?$CStringT@_WV?$StrTraitMFC@_WV?$ChTraitsCRT@_W@ATL@@@@@ATL@@QAE@XZ ; ATL::CStringT<wchar_t,StrTraitMFC<wchar_t,ATL::ChTraitsCRT<wchar_t> > >::~CStringT<wchar_t,StrTraitMFC<wchar_t,ATL::ChTraitsCRT<wchar_t> > >

; 304  : 	sPath += _T("\\DeviceFlow.txt");

  00284	68 00 00 00 00	 push	 OFFSET ??_C@_1CA@FJJKCDKK@?$AA?2?$AAD?$AAe?$AAv?$AAi?$AAc?$AAe?$AAF?$AAl?$AAo?$AAw?$AA?4?$AAt?$AAx?$AAt?$AA?$AA@
  00289	8d 4d b8	 lea	 ecx, DWORD PTR _sPath$[ebp]
  0028c	e8 00 00 00 00	 call	 ??Y?$CStringT@_WV?$StrTraitMFC@_WV?$ChTraitsCRT@_W@ATL@@@@@ATL@@QAEAAV01@PB_W@Z ; ATL::CStringT<wchar_t,StrTraitMFC<wchar_t,ATL::ChTraitsCRT<wchar_t> > >::operator+=

; 305  : 
; 306  : 	CFileFind fileFind;

  00291	8d 4d 88	 lea	 ecx, DWORD PTR _fileFind$[ebp]
  00294	e8 00 00 00 00	 call	 ??0CFileFind@@QAE@XZ	; CFileFind::CFileFind
  00299	c6 45 fc 03	 mov	 BYTE PTR __$EHRec$[ebp+8], 3

; 307  : 	if (fileFind.FindFile(sPath))

  0029d	6a 00		 push	 0
  0029f	8d 4d b8	 lea	 ecx, DWORD PTR _sPath$[ebp]
  002a2	e8 00 00 00 00	 call	 ??B?$CSimpleStringT@_W$0A@@ATL@@QBEPB_WXZ ; ATL::CSimpleStringT<wchar_t,0>::operator wchar_t const *
  002a7	50		 push	 eax
  002a8	8d 4d 88	 lea	 ecx, DWORD PTR _fileFind$[ebp]
  002ab	e8 00 00 00 00	 call	 ?FindFile@CFileFind@@UAEHPB_WK@Z ; CFileFind::FindFile
  002b0	85 c0		 test	 eax, eax
  002b2	0f 84 d1 01 00
	00		 je	 $LN6@OnInitDial

; 308  : 	{
; 309  : 		CStdioFile sFile;

  002b8	8d 8d 68 ff ff
	ff		 lea	 ecx, DWORD PTR _sFile$232569[ebp]
  002be	e8 00 00 00 00	 call	 ??0CStdioFile@@QAE@XZ	; CStdioFile::CStdioFile
  002c3	c6 45 fc 04	 mov	 BYTE PTR __$EHRec$[ebp+8], 4

; 310  : 		if (sFile.Open(sPath, CFile::modeRead | CFile::shareDenyNone))

  002c7	6a 00		 push	 0
  002c9	6a 40		 push	 64			; 00000040H
  002cb	8d 4d b8	 lea	 ecx, DWORD PTR _sPath$[ebp]
  002ce	e8 00 00 00 00	 call	 ??B?$CSimpleStringT@_W$0A@@ATL@@QBEPB_WXZ ; ATL::CSimpleStringT<wchar_t,0>::operator wchar_t const *
  002d3	50		 push	 eax
  002d4	8d 8d 68 ff ff
	ff		 lea	 ecx, DWORD PTR _sFile$232569[ebp]
  002da	e8 00 00 00 00	 call	 ?Open@CStdioFile@@UAEHPB_WIPAVCFileException@@@Z ; CStdioFile::Open
  002df	85 c0		 test	 eax, eax
  002e1	0f 84 88 01 00
	00		 je	 $LN5@OnInitDial

; 311  : 		{
; 312  : 			ULONGLONG fLength = 0;

  002e7	c7 85 58 ff ff
	ff 00 00 00 00	 mov	 DWORD PTR _fLength$232571[ebp], 0
  002f1	c7 85 5c ff ff
	ff 00 00 00 00	 mov	 DWORD PTR _fLength$232571[ebp+4], 0

; 313  : 			fLength = sFile.GetLength();

  002fb	8d 8d 68 ff ff
	ff		 lea	 ecx, DWORD PTR _sFile$232569[ebp]
  00301	e8 00 00 00 00	 call	 ?GetLength@CStdioFile@@UBE_KXZ ; CStdioFile::GetLength
  00306	89 85 58 ff ff
	ff		 mov	 DWORD PTR _fLength$232571[ebp], eax
  0030c	89 95 5c ff ff
	ff		 mov	 DWORD PTR _fLength$232571[ebp+4], edx
$LN4@OnInitDial:

; 314  : 			for (;;)
; 315  : 			{
; 316  : 				ULONGLONG cPos = 0;

  00312	c7 85 48 ff ff
	ff 00 00 00 00	 mov	 DWORD PTR _cPos$232575[ebp], 0
  0031c	c7 85 4c ff ff
	ff 00 00 00 00	 mov	 DWORD PTR _cPos$232575[ebp+4], 0

; 317  : 				CString aStr;

  00326	8d 8d 3c ff ff
	ff		 lea	 ecx, DWORD PTR _aStr$232576[ebp]
  0032c	e8 00 00 00 00	 call	 ??0?$CStringT@_WV?$StrTraitMFC@_WV?$ChTraitsCRT@_W@ATL@@@@@ATL@@QAE@XZ ; ATL::CStringT<wchar_t,StrTraitMFC<wchar_t,ATL::ChTraitsCRT<wchar_t> > >::CStringT<wchar_t,StrTraitMFC<wchar_t,ATL::ChTraitsCRT<wchar_t> > >
  00331	c6 45 fc 05	 mov	 BYTE PTR __$EHRec$[ebp+8], 5

; 318  : 				CString str1;

  00335	8d 8d 30 ff ff
	ff		 lea	 ecx, DWORD PTR _str1$232577[ebp]
  0033b	e8 00 00 00 00	 call	 ??0?$CStringT@_WV?$StrTraitMFC@_WV?$ChTraitsCRT@_W@ATL@@@@@ATL@@QAE@XZ ; ATL::CStringT<wchar_t,StrTraitMFC<wchar_t,ATL::ChTraitsCRT<wchar_t> > >::CStringT<wchar_t,StrTraitMFC<wchar_t,ATL::ChTraitsCRT<wchar_t> > >
  00340	c6 45 fc 06	 mov	 BYTE PTR __$EHRec$[ebp+8], 6

; 319  : 				sFile.ReadString(aStr);

  00344	8d 85 3c ff ff
	ff		 lea	 eax, DWORD PTR _aStr$232576[ebp]
  0034a	50		 push	 eax
  0034b	8d 8d 68 ff ff
	ff		 lea	 ecx, DWORD PTR _sFile$232569[ebp]
  00351	e8 00 00 00 00	 call	 ?ReadString@CStdioFile@@UAEHAAV?$CStringT@_WV?$StrTraitMFC@_WV?$ChTraitsCRT@_W@ATL@@@@@ATL@@@Z ; CStdioFile::ReadString

; 320  : 				cPos = sFile.GetPosition();

  00356	8d 8d 68 ff ff
	ff		 lea	 ecx, DWORD PTR _sFile$232569[ebp]
  0035c	e8 00 00 00 00	 call	 ?GetPosition@CStdioFile@@UBE_KXZ ; CStdioFile::GetPosition
  00361	89 85 48 ff ff
	ff		 mov	 DWORD PTR _cPos$232575[ebp], eax
  00367	89 95 4c ff ff
	ff		 mov	 DWORD PTR _cPos$232575[ebp+4], edx

; 321  : 				if (cPos == fLength)

  0036d	8b 85 48 ff ff
	ff		 mov	 eax, DWORD PTR _cPos$232575[ebp]
  00373	3b 85 58 ff ff
	ff		 cmp	 eax, DWORD PTR _fLength$232571[ebp]
  00379	75 70		 jne	 SHORT $LN2@OnInitDial
  0037b	8b 8d 4c ff ff
	ff		 mov	 ecx, DWORD PTR _cPos$232575[ebp+4]
  00381	3b 8d 5c ff ff
	ff		 cmp	 ecx, DWORD PTR _fLength$232571[ebp+4]
  00387	75 62		 jne	 SHORT $LN2@OnInitDial

; 322  : 				{
; 323  : 					CheckWideChar(aStr, str1);

  00389	8d 85 30 ff ff
	ff		 lea	 eax, DWORD PTR _str1$232577[ebp]
  0038f	50		 push	 eax
  00390	51		 push	 ecx
  00391	8b cc		 mov	 ecx, esp
  00393	89 a5 1c fe ff
	ff		 mov	 DWORD PTR $T236726[ebp], esp
  00399	8d 95 3c ff ff
	ff		 lea	 edx, DWORD PTR _aStr$232576[ebp]
  0039f	52		 push	 edx
  003a0	e8 00 00 00 00	 call	 ??0?$CStringT@_WV?$StrTraitMFC@_WV?$ChTraitsCRT@_W@ATL@@@@@ATL@@QAE@ABV01@@Z ; ATL::CStringT<wchar_t,StrTraitMFC<wchar_t,ATL::ChTraitsCRT<wchar_t> > >::CStringT<wchar_t,StrTraitMFC<wchar_t,ATL::ChTraitsCRT<wchar_t> > >
  003a5	89 85 08 fe ff
	ff		 mov	 DWORD PTR tv538[ebp], eax
  003ab	8b 4d e8	 mov	 ecx, DWORD PTR _this$[ebp]
  003ae	e8 00 00 00 00	 call	 ?CheckWideChar@CDviceCtrlDlgDlg@@QAEXV?$CStringT@_WV?$StrTraitMFC@_WV?$ChTraitsCRT@_W@ATL@@@@@ATL@@AAV23@@Z ; CDviceCtrlDlgDlg::CheckWideChar

; 324  : 					wStr.push_back(str1);

  003b3	8d 85 30 ff ff
	ff		 lea	 eax, DWORD PTR _str1$232577[ebp]
  003b9	50		 push	 eax
  003ba	8b 4d e8	 mov	 ecx, DWORD PTR _this$[ebp]
  003bd	81 c1 18 0b 00
	00		 add	 ecx, 2840		; 00000b18H
  003c3	e8 00 00 00 00	 call	 ?push_back@?$vector@V?$CStringT@_WV?$StrTraitMFC@_WV?$ChTraitsCRT@_W@ATL@@@@@ATL@@V?$allocator@V?$CStringT@_WV?$StrTraitMFC@_WV?$ChTraitsCRT@_W@ATL@@@@@ATL@@@std@@@std@@QAEXABV?$CStringT@_WV?$StrTraitMFC@_WV?$ChTraitsCRT@_W@ATL@@@@@ATL@@@Z ; std::vector<ATL::CStringT<wchar_t,StrTraitMFC<wchar_t,ATL::ChTraitsCRT<wchar_t> > >,std::allocator<ATL::CStringT<wchar_t,StrTraitMFC<wchar_t,ATL::ChTraitsCRT<wchar_t> > > > >::push_back

; 325  : 					break;

  003c8	c6 45 fc 05	 mov	 BYTE PTR __$EHRec$[ebp+8], 5
  003cc	8d 8d 30 ff ff
	ff		 lea	 ecx, DWORD PTR _str1$232577[ebp]
  003d2	e8 00 00 00 00	 call	 ??1?$CStringT@_WV?$StrTraitMFC@_WV?$ChTraitsCRT@_W@ATL@@@@@ATL@@QAE@XZ ; ATL::CStringT<wchar_t,StrTraitMFC<wchar_t,ATL::ChTraitsCRT<wchar_t> > >::~CStringT<wchar_t,StrTraitMFC<wchar_t,ATL::ChTraitsCRT<wchar_t> > >
  003d7	c6 45 fc 04	 mov	 BYTE PTR __$EHRec$[ebp+8], 4
  003db	8d 8d 3c ff ff
	ff		 lea	 ecx, DWORD PTR _aStr$232576[ebp]
  003e1	e8 00 00 00 00	 call	 ??1?$CStringT@_WV?$StrTraitMFC@_WV?$ChTraitsCRT@_W@ATL@@@@@ATL@@QAE@XZ ; ATL::CStringT<wchar_t,StrTraitMFC<wchar_t,ATL::ChTraitsCRT<wchar_t> > >::~CStringT<wchar_t,StrTraitMFC<wchar_t,ATL::ChTraitsCRT<wchar_t> > >
  003e6	e9 84 00 00 00	 jmp	 $LN5@OnInitDial
$LN2@OnInitDial:

; 326  : 				}
; 327  : 				if (aStr.IsEmpty())

  003eb	8d 8d 3c ff ff
	ff		 lea	 ecx, DWORD PTR _aStr$232576[ebp]
  003f1	e8 00 00 00 00	 call	 ?IsEmpty@?$CSimpleStringT@_W$0A@@ATL@@QBE_NXZ ; ATL::CSimpleStringT<wchar_t,0>::IsEmpty
  003f6	0f b6 c0	 movzx	 eax, al
  003f9	85 c0		 test	 eax, eax
  003fb	74 10		 je	 SHORT $LN1@OnInitDial

; 328  : 				{
; 329  : 					aStr = _T("");

  003fd	68 00 00 00 00	 push	 OFFSET ??_C@_11LOCGONAA@?$AA?$AA@
  00402	8d 8d 3c ff ff
	ff		 lea	 ecx, DWORD PTR _aStr$232576[ebp]
  00408	e8 00 00 00 00	 call	 ??4?$CStringT@_WV?$StrTraitMFC@_WV?$ChTraitsCRT@_W@ATL@@@@@ATL@@QAEAAV01@PB_W@Z ; ATL::CStringT<wchar_t,StrTraitMFC<wchar_t,ATL::ChTraitsCRT<wchar_t> > >::operator=
$LN1@OnInitDial:

; 330  : 				}
; 331  : 				CheckWideChar(aStr, str1);

  0040d	8d 85 30 ff ff
	ff		 lea	 eax, DWORD PTR _str1$232577[ebp]
  00413	50		 push	 eax
  00414	51		 push	 ecx
  00415	8b cc		 mov	 ecx, esp
  00417	89 a5 28 fe ff
	ff		 mov	 DWORD PTR $T236727[ebp], esp
  0041d	8d 95 3c ff ff
	ff		 lea	 edx, DWORD PTR _aStr$232576[ebp]
  00423	52		 push	 edx
  00424	e8 00 00 00 00	 call	 ??0?$CStringT@_WV?$StrTraitMFC@_WV?$ChTraitsCRT@_W@ATL@@@@@ATL@@QAE@ABV01@@Z ; ATL::CStringT<wchar_t,StrTraitMFC<wchar_t,ATL::ChTraitsCRT<wchar_t> > >::CStringT<wchar_t,StrTraitMFC<wchar_t,ATL::ChTraitsCRT<wchar_t> > >
  00429	89 85 08 fe ff
	ff		 mov	 DWORD PTR tv543[ebp], eax
  0042f	8b 4d e8	 mov	 ecx, DWORD PTR _this$[ebp]
  00432	e8 00 00 00 00	 call	 ?CheckWideChar@CDviceCtrlDlgDlg@@QAEXV?$CStringT@_WV?$StrTraitMFC@_WV?$ChTraitsCRT@_W@ATL@@@@@ATL@@AAV23@@Z ; CDviceCtrlDlgDlg::CheckWideChar

; 332  : 				wStr.push_back(str1);

  00437	8d 85 30 ff ff
	ff		 lea	 eax, DWORD PTR _str1$232577[ebp]
  0043d	50		 push	 eax
  0043e	8b 4d e8	 mov	 ecx, DWORD PTR _this$[ebp]
  00441	81 c1 18 0b 00
	00		 add	 ecx, 2840		; 00000b18H
  00447	e8 00 00 00 00	 call	 ?push_back@?$vector@V?$CStringT@_WV?$StrTraitMFC@_WV?$ChTraitsCRT@_W@ATL@@@@@ATL@@V?$allocator@V?$CStringT@_WV?$StrTraitMFC@_WV?$ChTraitsCRT@_W@ATL@@@@@ATL@@@std@@@std@@QAEXABV?$CStringT@_WV?$StrTraitMFC@_WV?$ChTraitsCRT@_W@ATL@@@@@ATL@@@Z ; std::vector<ATL::CStringT<wchar_t,StrTraitMFC<wchar_t,ATL::ChTraitsCRT<wchar_t> > >,std::allocator<ATL::CStringT<wchar_t,StrTraitMFC<wchar_t,ATL::ChTraitsCRT<wchar_t> > > > >::push_back

; 333  : 			}

  0044c	c6 45 fc 05	 mov	 BYTE PTR __$EHRec$[ebp+8], 5
  00450	8d 8d 30 ff ff
	ff		 lea	 ecx, DWORD PTR _str1$232577[ebp]
  00456	e8 00 00 00 00	 call	 ??1?$CStringT@_WV?$StrTraitMFC@_WV?$ChTraitsCRT@_W@ATL@@@@@ATL@@QAE@XZ ; ATL::CStringT<wchar_t,StrTraitMFC<wchar_t,ATL::ChTraitsCRT<wchar_t> > >::~CStringT<wchar_t,StrTraitMFC<wchar_t,ATL::ChTraitsCRT<wchar_t> > >
  0045b	c6 45 fc 04	 mov	 BYTE PTR __$EHRec$[ebp+8], 4
  0045f	8d 8d 3c ff ff
	ff		 lea	 ecx, DWORD PTR _aStr$232576[ebp]
  00465	e8 00 00 00 00	 call	 ??1?$CStringT@_WV?$StrTraitMFC@_WV?$ChTraitsCRT@_W@ATL@@@@@ATL@@QAE@XZ ; ATL::CStringT<wchar_t,StrTraitMFC<wchar_t,ATL::ChTraitsCRT<wchar_t> > >::~CStringT<wchar_t,StrTraitMFC<wchar_t,ATL::ChTraitsCRT<wchar_t> > >
  0046a	e9 a3 fe ff ff	 jmp	 $LN4@OnInitDial
$LN5@OnInitDial:

; 334  : 		}
; 335  : 		sFile.Close();

  0046f	8d 8d 68 ff ff
	ff		 lea	 ecx, DWORD PTR _sFile$232569[ebp]
  00475	e8 00 00 00 00	 call	 ?Close@CStdioFile@@UAEXXZ ; CStdioFile::Close

; 336  : 	}

  0047a	c6 45 fc 03	 mov	 BYTE PTR __$EHRec$[ebp+8], 3
  0047e	8d 8d 68 ff ff
	ff		 lea	 ecx, DWORD PTR _sFile$232569[ebp]
  00484	e8 00 00 00 00	 call	 ??1CStdioFile@@UAE@XZ	; CStdioFile::~CStdioFile
$LN6@OnInitDial:

; 337  : 
; 338  : 	CRect tmpRect1, tmpRect2;

  00489	8d 8d 18 ff ff
	ff		 lea	 ecx, DWORD PTR _tmpRect1$[ebp]
  0048f	e8 00 00 00 00	 call	 ??0CRect@@QAE@XZ	; CRect::CRect
  00494	8d 8d 00 ff ff
	ff		 lea	 ecx, DWORD PTR _tmpRect2$[ebp]
  0049a	e8 00 00 00 00	 call	 ??0CRect@@QAE@XZ	; CRect::CRect

; 339  : 	GetWindowRect(&tmpRect1);

  0049f	8d 85 18 ff ff
	ff		 lea	 eax, DWORD PTR _tmpRect1$[ebp]
  004a5	50		 push	 eax
  004a6	8b 4d e8	 mov	 ecx, DWORD PTR _this$[ebp]
  004a9	e8 00 00 00 00	 call	 ?GetWindowRect@CWnd@@QBEXPAUtagRECT@@@Z ; CWnd::GetWindowRect

; 340  : 	GetDlgItem(IDC_OLDSIZE)->GetWindowRect(&tmpRect2);

  004ae	8d 85 00 ff ff
	ff		 lea	 eax, DWORD PTR _tmpRect2$[ebp]
  004b4	50		 push	 eax
  004b5	68 40 04 00 00	 push	 1088			; 00000440H
  004ba	8b 4d e8	 mov	 ecx, DWORD PTR _this$[ebp]
  004bd	e8 00 00 00 00	 call	 ?GetDlgItem@CWnd@@QBEPAV1@H@Z ; CWnd::GetDlgItem
  004c2	8b c8		 mov	 ecx, eax
  004c4	e8 00 00 00 00	 call	 ?GetWindowRect@CWnd@@QBEXPAUtagRECT@@@Z ; CWnd::GetWindowRect

; 341  : 	devOldSize = tmpRect1;

  004c9	8b 85 18 ff ff
	ff		 mov	 eax, DWORD PTR _tmpRect1$[ebp]
  004cf	a3 00 00 00 00	 mov	 DWORD PTR ?devOldSize@@3VCRect@@A, eax
  004d4	8b 8d 1c ff ff
	ff		 mov	 ecx, DWORD PTR _tmpRect1$[ebp+4]
  004da	89 0d 04 00 00
	00		 mov	 DWORD PTR ?devOldSize@@3VCRect@@A+4, ecx
  004e0	8b 95 20 ff ff
	ff		 mov	 edx, DWORD PTR _tmpRect1$[ebp+8]
  004e6	89 15 08 00 00
	00		 mov	 DWORD PTR ?devOldSize@@3VCRect@@A+8, edx
  004ec	8b 85 24 ff ff
	ff		 mov	 eax, DWORD PTR _tmpRect1$[ebp+12]
  004f2	a3 0c 00 00 00	 mov	 DWORD PTR ?devOldSize@@3VCRect@@A+12, eax

; 342  : 	devNewSize.right = tmpRect2.right;

  004f7	8b 85 08 ff ff
	ff		 mov	 eax, DWORD PTR _tmpRect2$[ebp+8]
  004fd	a3 08 00 00 00	 mov	 DWORD PTR ?devNewSize@@3VCRect@@A+8, eax

; 343  : 	devNewSize.left = tmpRect1.left;

  00502	8b 85 18 ff ff
	ff		 mov	 eax, DWORD PTR _tmpRect1$[ebp]
  00508	a3 00 00 00 00	 mov	 DWORD PTR ?devNewSize@@3VCRect@@A, eax

; 344  : 	devNewSize.bottom = tmpRect1.bottom;

  0050d	8b 85 24 ff ff
	ff		 mov	 eax, DWORD PTR _tmpRect1$[ebp+12]
  00513	a3 0c 00 00 00	 mov	 DWORD PTR ?devNewSize@@3VCRect@@A+12, eax

; 345  : 	devNewSize.top = tmpRect1.top;

  00518	8b 85 1c ff ff
	ff		 mov	 eax, DWORD PTR _tmpRect1$[ebp+4]
  0051e	a3 04 00 00 00	 mov	 DWORD PTR ?devNewSize@@3VCRect@@A+4, eax

; 346  : 	
; 347  : 	::SetWindowPos(this->m_hWnd, HWND_TOP, 0, 0, devNewSize.Width(), devNewSize.Height(), SWP_NOMOVE | SWP_NOZORDER);

  00523	8b f4		 mov	 esi, esp
  00525	6a 06		 push	 6
  00527	b9 00 00 00 00	 mov	 ecx, OFFSET ?devNewSize@@3VCRect@@A ; devNewSize
  0052c	e8 00 00 00 00	 call	 ?Height@CRect@@QBEHXZ	; CRect::Height
  00531	50		 push	 eax
  00532	b9 00 00 00 00	 mov	 ecx, OFFSET ?devNewSize@@3VCRect@@A ; devNewSize
  00537	e8 00 00 00 00	 call	 ?Width@CRect@@QBEHXZ	; CRect::Width
  0053c	50		 push	 eax
  0053d	6a 00		 push	 0
  0053f	6a 00		 push	 0
  00541	6a 00		 push	 0
  00543	8b 45 e8	 mov	 eax, DWORD PTR _this$[ebp]
  00546	8b 48 20	 mov	 ecx, DWORD PTR [eax+32]
  00549	51		 push	 ecx
  0054a	ff 15 00 00 00
	00		 call	 DWORD PTR __imp__SetWindowPos@28
  00550	3b f4		 cmp	 esi, esp
  00552	e8 00 00 00 00	 call	 __RTC_CheckEsp

; 348  : 
; 349  : 	SetDlgItemText(IDC_SPK_RP,		L"192");

  00557	68 00 00 00 00	 push	 OFFSET ??_C@_17KKONBFDK@?$AA1?$AA9?$AA2?$AA?$AA@
  0055c	68 12 04 00 00	 push	 1042			; 00000412H
  00561	8b 4d e8	 mov	 ecx, DWORD PTR _this$[ebp]
  00564	e8 00 00 00 00	 call	 ?SetDlgItemTextW@CWnd@@QAEXHPB_W@Z ; CWnd::SetDlgItemTextW

; 350  : 	SetDlgItemText(IDC_SPK_RP2,		L"192");

  00569	68 00 00 00 00	 push	 OFFSET ??_C@_17KKONBFDK@?$AA1?$AA9?$AA2?$AA?$AA@
  0056e	68 13 04 00 00	 push	 1043			; 00000413H
  00573	8b 4d e8	 mov	 ecx, DWORD PTR _this$[ebp]
  00576	e8 00 00 00 00	 call	 ?SetDlgItemTextW@CWnd@@QAEXHPB_W@Z ; CWnd::SetDlgItemTextW

; 351  : 	SetDlgItemText(IDC_REC_RP,		L"192");

  0057b	68 00 00 00 00	 push	 OFFSET ??_C@_17KKONBFDK@?$AA1?$AA9?$AA2?$AA?$AA@
  00580	68 14 04 00 00	 push	 1044			; 00000414H
  00585	8b 4d e8	 mov	 ecx, DWORD PTR _this$[ebp]
  00588	e8 00 00 00 00	 call	 ?SetDlgItemTextW@CWnd@@QAEXHPB_W@Z ; CWnd::SetDlgItemTextW

; 352  : 	SetDlgItemText(IDC_EAR_L_RP,	L"192");

  0058d	68 00 00 00 00	 push	 OFFSET ??_C@_17KKONBFDK@?$AA1?$AA9?$AA2?$AA?$AA@
  00592	68 15 04 00 00	 push	 1045			; 00000415H
  00597	8b 4d e8	 mov	 ecx, DWORD PTR _this$[ebp]
  0059a	e8 00 00 00 00	 call	 ?SetDlgItemTextW@CWnd@@QAEXHPB_W@Z ; CWnd::SetDlgItemTextW

; 353  : 	SetDlgItemText(IDC_EAR_R_RP,	L"192");

  0059f	68 00 00 00 00	 push	 OFFSET ??_C@_17KKONBFDK@?$AA1?$AA9?$AA2?$AA?$AA@
  005a4	68 16 04 00 00	 push	 1046			; 00000416H
  005a9	8b 4d e8	 mov	 ecx, DWORD PTR _this$[ebp]
  005ac	e8 00 00 00 00	 call	 ?SetDlgItemTextW@CWnd@@QAEXHPB_W@Z ; CWnd::SetDlgItemTextW

; 354  : 	SetDlgItemText(IDC_VIB_RP,		L"192");

  005b1	68 00 00 00 00	 push	 OFFSET ??_C@_17KKONBFDK@?$AA1?$AA9?$AA2?$AA?$AA@
  005b6	68 17 04 00 00	 push	 1047			; 00000417H
  005bb	8b 4d e8	 mov	 ecx, DWORD PTR _this$[ebp]
  005be	e8 00 00 00 00	 call	 ?SetDlgItemTextW@CWnd@@QAEXHPB_W@Z ; CWnd::SetDlgItemTextW

; 355  : 	SetDlgItemText(IDC_EAR_MIC_RP,	L"192");

  005c3	68 00 00 00 00	 push	 OFFSET ??_C@_17KKONBFDK@?$AA1?$AA9?$AA2?$AA?$AA@
  005c8	68 19 04 00 00	 push	 1049			; 00000419H
  005cd	8b 4d e8	 mov	 ecx, DWORD PTR _this$[ebp]
  005d0	e8 00 00 00 00	 call	 ?SetDlgItemTextW@CWnd@@QAEXHPB_W@Z ; CWnd::SetDlgItemTextW

; 356  : 	SetDlgItemText(IDC_MIC_RP,		L"192");

  005d5	68 00 00 00 00	 push	 OFFSET ??_C@_17KKONBFDK@?$AA1?$AA9?$AA2?$AA?$AA@
  005da	68 18 04 00 00	 push	 1048			; 00000418H
  005df	8b 4d e8	 mov	 ecx, DWORD PTR _this$[ebp]
  005e2	e8 00 00 00 00	 call	 ?SetDlgItemTextW@CWnd@@QAEXHPB_W@Z ; CWnd::SetDlgItemTextW

; 357  : 
; 358  : 	GetDlgItem(IDC_SPK_RP)->EnableWindow(FALSE);

  005e7	6a 00		 push	 0
  005e9	68 12 04 00 00	 push	 1042			; 00000412H
  005ee	8b 4d e8	 mov	 ecx, DWORD PTR _this$[ebp]
  005f1	e8 00 00 00 00	 call	 ?GetDlgItem@CWnd@@QBEPAV1@H@Z ; CWnd::GetDlgItem
  005f6	8b c8		 mov	 ecx, eax
  005f8	e8 00 00 00 00	 call	 ?EnableWindow@CWnd@@QAEHH@Z ; CWnd::EnableWindow

; 359  : 	GetDlgItem(IDC_SPK_RP2)->EnableWindow(FALSE);

  005fd	6a 00		 push	 0
  005ff	68 13 04 00 00	 push	 1043			; 00000413H
  00604	8b 4d e8	 mov	 ecx, DWORD PTR _this$[ebp]
  00607	e8 00 00 00 00	 call	 ?GetDlgItem@CWnd@@QBEPAV1@H@Z ; CWnd::GetDlgItem
  0060c	8b c8		 mov	 ecx, eax
  0060e	e8 00 00 00 00	 call	 ?EnableWindow@CWnd@@QAEHH@Z ; CWnd::EnableWindow

; 360  : 	GetDlgItem(IDC_REC_RP)->EnableWindow(FALSE);

  00613	6a 00		 push	 0
  00615	68 14 04 00 00	 push	 1044			; 00000414H
  0061a	8b 4d e8	 mov	 ecx, DWORD PTR _this$[ebp]
  0061d	e8 00 00 00 00	 call	 ?GetDlgItem@CWnd@@QBEPAV1@H@Z ; CWnd::GetDlgItem
  00622	8b c8		 mov	 ecx, eax
  00624	e8 00 00 00 00	 call	 ?EnableWindow@CWnd@@QAEHH@Z ; CWnd::EnableWindow

; 361  : 	GetDlgItem(IDC_EAR_L_RP)->EnableWindow(FALSE);

  00629	6a 00		 push	 0
  0062b	68 15 04 00 00	 push	 1045			; 00000415H
  00630	8b 4d e8	 mov	 ecx, DWORD PTR _this$[ebp]
  00633	e8 00 00 00 00	 call	 ?GetDlgItem@CWnd@@QBEPAV1@H@Z ; CWnd::GetDlgItem
  00638	8b c8		 mov	 ecx, eax
  0063a	e8 00 00 00 00	 call	 ?EnableWindow@CWnd@@QAEHH@Z ; CWnd::EnableWindow

; 362  : 	GetDlgItem(IDC_EAR_R_RP)->EnableWindow(FALSE);	

  0063f	6a 00		 push	 0
  00641	68 16 04 00 00	 push	 1046			; 00000416H
  00646	8b 4d e8	 mov	 ecx, DWORD PTR _this$[ebp]
  00649	e8 00 00 00 00	 call	 ?GetDlgItem@CWnd@@QBEPAV1@H@Z ; CWnd::GetDlgItem
  0064e	8b c8		 mov	 ecx, eax
  00650	e8 00 00 00 00	 call	 ?EnableWindow@CWnd@@QAEHH@Z ; CWnd::EnableWindow

; 363  : 	GetDlgItem(IDC_VIB_RP)->EnableWindow(FALSE);

  00655	6a 00		 push	 0
  00657	68 17 04 00 00	 push	 1047			; 00000417H
  0065c	8b 4d e8	 mov	 ecx, DWORD PTR _this$[ebp]
  0065f	e8 00 00 00 00	 call	 ?GetDlgItem@CWnd@@QBEPAV1@H@Z ; CWnd::GetDlgItem
  00664	8b c8		 mov	 ecx, eax
  00666	e8 00 00 00 00	 call	 ?EnableWindow@CWnd@@QAEHH@Z ; CWnd::EnableWindow

; 364  : 	GetDlgItem(IDC_EAR_MIC_RP)->EnableWindow(FALSE);	

  0066b	6a 00		 push	 0
  0066d	68 19 04 00 00	 push	 1049			; 00000419H
  00672	8b 4d e8	 mov	 ecx, DWORD PTR _this$[ebp]
  00675	e8 00 00 00 00	 call	 ?GetDlgItem@CWnd@@QBEPAV1@H@Z ; CWnd::GetDlgItem
  0067a	8b c8		 mov	 ecx, eax
  0067c	e8 00 00 00 00	 call	 ?EnableWindow@CWnd@@QAEHH@Z ; CWnd::EnableWindow

; 365  : 	GetDlgItem(IDC_MIC_RP)->EnableWindow(FALSE);

  00681	6a 00		 push	 0
  00683	68 18 04 00 00	 push	 1048			; 00000418H
  00688	8b 4d e8	 mov	 ecx, DWORD PTR _this$[ebp]
  0068b	e8 00 00 00 00	 call	 ?GetDlgItem@CWnd@@QBEPAV1@H@Z ; CWnd::GetDlgItem
  00690	8b c8		 mov	 ecx, eax
  00692	e8 00 00 00 00	 call	 ?EnableWindow@CWnd@@QAEHH@Z ; CWnd::EnableWindow

; 366  : 	
; 367  : 	return TRUE;  //  TRUE

  00697	c7 85 34 fe ff
	ff 01 00 00 00	 mov	 DWORD PTR $T236728[ebp], 1
  006a1	c6 45 fc 01	 mov	 BYTE PTR __$EHRec$[ebp+8], 1
  006a5	8d 4d 88	 lea	 ecx, DWORD PTR _fileFind$[ebp]
  006a8	e8 00 00 00 00	 call	 ??1CFileFind@@UAE@XZ	; CFileFind::~CFileFind
  006ad	c7 45 fc ff ff
	ff ff		 mov	 DWORD PTR __$EHRec$[ebp+8], -1
  006b4	8d 4d b8	 lea	 ecx, DWORD PTR _sPath$[ebp]
  006b7	e8 00 00 00 00	 call	 ??1?$CStringT@_WV?$StrTraitMFC@_WV?$ChTraitsCRT@_W@ATL@@@@@ATL@@QAE@XZ ; ATL::CStringT<wchar_t,StrTraitMFC<wchar_t,ATL::ChTraitsCRT<wchar_t> > >::~CStringT<wchar_t,StrTraitMFC<wchar_t,ATL::ChTraitsCRT<wchar_t> > >
  006bc	8b 85 34 fe ff
	ff		 mov	 eax, DWORD PTR $T236728[ebp]

; 368  : }

  006c2	52		 push	 edx
  006c3	8b cd		 mov	 ecx, ebp
  006c5	50		 push	 eax
  006c6	8d 15 00 00 00
	00		 lea	 edx, DWORD PTR $LN31@OnInitDial
  006cc	e8 00 00 00 00	 call	 @_RTC_CheckStackVars@8
  006d1	58		 pop	 eax
  006d2	5a		 pop	 edx
  006d3	8b 4d f4	 mov	 ecx, DWORD PTR __$EHRec$[ebp]
  006d6	64 89 0d 00 00
	00 00		 mov	 DWORD PTR fs:0, ecx
  006dd	59		 pop	 ecx
  006de	5f		 pop	 edi
  006df	5e		 pop	 esi
  006e0	5b		 pop	 ebx
  006e1	8b 4d f0	 mov	 ecx, DWORD PTR __$ArrayPad$[ebp]
  006e4	33 cd		 xor	 ecx, ebp
  006e6	e8 00 00 00 00	 call	 @__security_check_cookie@4
  006eb	81 c4 fc 01 00
	00		 add	 esp, 508		; 000001fcH
  006f1	3b ec		 cmp	 ebp, esp
  006f3	e8 00 00 00 00	 call	 __RTC_CheckEsp
  006f8	8b e5		 mov	 esp, ebp
  006fa	5d		 pop	 ebp
  006fb	c3		 ret	 0
$LN31@OnInitDial:
  006fc	08 00 00 00	 DD	 8
  00700	00 00 00 00	 DD	 $LN30@OnInitDial
$LN30@OnInitDial:
  00704	c4 ff ff ff	 DD	 -60			; ffffffc4H
  00708	04 00 00 00	 DD	 4
  0070c	00 00 00 00	 DD	 $LN21@OnInitDial
  00710	b8 ff ff ff	 DD	 -72			; ffffffb8H
  00714	04 00 00 00	 DD	 4
  00718	00 00 00 00	 DD	 $LN22@OnInitDial
  0071c	88 ff ff ff	 DD	 -120			; ffffff88H
  00720	1c 00 00 00	 DD	 28			; 0000001cH
  00724	00 00 00 00	 DD	 $LN23@OnInitDial
  00728	68 ff ff ff	 DD	 -152			; ffffff68H
  0072c	18 00 00 00	 DD	 24			; 00000018H
  00730	00 00 00 00	 DD	 $LN24@OnInitDial
  00734	3c ff ff ff	 DD	 -196			; ffffff3cH
  00738	04 00 00 00	 DD	 4
  0073c	00 00 00 00	 DD	 $LN25@OnInitDial
  00740	30 ff ff ff	 DD	 -208			; ffffff30H
  00744	04 00 00 00	 DD	 4
  00748	00 00 00 00	 DD	 $LN26@OnInitDial
  0074c	18 ff ff ff	 DD	 -232			; ffffff18H
  00750	10 00 00 00	 DD	 16			; 00000010H
  00754	00 00 00 00	 DD	 $LN27@OnInitDial
  00758	00 ff ff ff	 DD	 -256			; ffffff00H
  0075c	10 00 00 00	 DD	 16			; 00000010H
  00760	00 00 00 00	 DD	 $LN28@OnInitDial
$LN28@OnInitDial:
  00764	74		 DB	 116			; 00000074H
  00765	6d		 DB	 109			; 0000006dH
  00766	70		 DB	 112			; 00000070H
  00767	52		 DB	 82			; 00000052H
  00768	65		 DB	 101			; 00000065H
  00769	63		 DB	 99			; 00000063H
  0076a	74		 DB	 116			; 00000074H
  0076b	32		 DB	 50			; 00000032H
  0076c	00		 DB	 0
$LN27@OnInitDial:
  0076d	74		 DB	 116			; 00000074H
  0076e	6d		 DB	 109			; 0000006dH
  0076f	70		 DB	 112			; 00000070H
  00770	52		 DB	 82			; 00000052H
  00771	65		 DB	 101			; 00000065H
  00772	63		 DB	 99			; 00000063H
  00773	74		 DB	 116			; 00000074H
  00774	31		 DB	 49			; 00000031H
  00775	00		 DB	 0
$LN26@OnInitDial:
  00776	73		 DB	 115			; 00000073H
  00777	74		 DB	 116			; 00000074H
  00778	72		 DB	 114			; 00000072H
  00779	31		 DB	 49			; 00000031H
  0077a	00		 DB	 0
$LN25@OnInitDial:
  0077b	61		 DB	 97			; 00000061H
  0077c	53		 DB	 83			; 00000053H
  0077d	74		 DB	 116			; 00000074H
  0077e	72		 DB	 114			; 00000072H
  0077f	00		 DB	 0
$LN24@OnInitDial:
  00780	73		 DB	 115			; 00000073H
  00781	46		 DB	 70			; 00000046H
  00782	69		 DB	 105			; 00000069H
  00783	6c		 DB	 108			; 0000006cH
  00784	65		 DB	 101			; 00000065H
  00785	00		 DB	 0
$LN23@OnInitDial:
  00786	66		 DB	 102			; 00000066H
  00787	69		 DB	 105			; 00000069H
  00788	6c		 DB	 108			; 0000006cH
  00789	65		 DB	 101			; 00000065H
  0078a	46		 DB	 70			; 00000046H
  0078b	69		 DB	 105			; 00000069H
  0078c	6e		 DB	 110			; 0000006eH
  0078d	64		 DB	 100			; 00000064H
  0078e	00		 DB	 0
$LN22@OnInitDial:
  0078f	73		 DB	 115			; 00000073H
  00790	50		 DB	 80			; 00000050H
  00791	61		 DB	 97			; 00000061H
  00792	74		 DB	 116			; 00000074H
  00793	68		 DB	 104			; 00000068H
  00794	00		 DB	 0
$LN21@OnInitDial:
  00795	73		 DB	 115			; 00000073H
  00796	74		 DB	 116			; 00000074H
  00797	72		 DB	 114			; 00000072H
  00798	41		 DB	 65			; 00000041H
  00799	62		 DB	 98			; 00000062H
  0079a	6f		 DB	 111			; 0000006fH
  0079b	75		 DB	 117			; 00000075H
  0079c	74		 DB	 116			; 00000074H
  0079d	4d		 DB	 77			; 0000004dH
  0079e	65		 DB	 101			; 00000065H
  0079f	6e		 DB	 110			; 0000006eH
  007a0	75		 DB	 117			; 00000075H
  007a1	00		 DB	 0
_TEXT	ENDS
;	COMDAT text$x
text$x	SEGMENT
__unwindfunclet$?OnInitDialog@CDviceCtrlDlgDlg@@MAEHXZ$0:
  00000	8d 4d c4	 lea	 ecx, DWORD PTR _strAboutMenu$232558[ebp]
  00003	e9 00 00 00 00	 jmp	 ??1?$CStringT@_WV?$StrTraitMFC@_WV?$ChTraitsCRT@_W@ATL@@@@@ATL@@QAE@XZ ; ATL::CStringT<wchar_t,StrTraitMFC<wchar_t,ATL::ChTraitsCRT<wchar_t> > >::~CStringT<wchar_t,StrTraitMFC<wchar_t,ATL::ChTraitsCRT<wchar_t> > >
__unwindfunclet$?OnInitDialog@CDviceCtrlDlgDlg@@MAEHXZ$1:
  00008	8d 4d b8	 lea	 ecx, DWORD PTR _sPath$[ebp]
  0000b	e9 00 00 00 00	 jmp	 ??1?$CStringT@_WV?$StrTraitMFC@_WV?$ChTraitsCRT@_W@ATL@@@@@ATL@@QAE@XZ ; ATL::CStringT<wchar_t,StrTraitMFC<wchar_t,ATL::ChTraitsCRT<wchar_t> > >::~CStringT<wchar_t,StrTraitMFC<wchar_t,ATL::ChTraitsCRT<wchar_t> > >
__unwindfunclet$?OnInitDialog@CDviceCtrlDlgDlg@@MAEHXZ$2:
  00010	8d 8d 10 fe ff
	ff		 lea	 ecx, DWORD PTR $T236725[ebp]
  00016	e9 00 00 00 00	 jmp	 ??1?$CStringT@_WV?$StrTraitMFC@_WV?$ChTraitsCRT@_W@ATL@@@@@ATL@@QAE@XZ ; ATL::CStringT<wchar_t,StrTraitMFC<wchar_t,ATL::ChTraitsCRT<wchar_t> > >::~CStringT<wchar_t,StrTraitMFC<wchar_t,ATL::ChTraitsCRT<wchar_t> > >
__unwindfunclet$?OnInitDialog@CDviceCtrlDlgDlg@@MAEHXZ$3:
  0001b	8d 4d 88	 lea	 ecx, DWORD PTR _fileFind$[ebp]
  0001e	e9 00 00 00 00	 jmp	 ??1CFileFind@@UAE@XZ	; CFileFind::~CFileFind
__unwindfunclet$?OnInitDialog@CDviceCtrlDlgDlg@@MAEHXZ$4:
  00023	8d 8d 68 ff ff
	ff		 lea	 ecx, DWORD PTR _sFile$232569[ebp]
  00029	e9 00 00 00 00	 jmp	 ??1CStdioFile@@UAE@XZ	; CStdioFile::~CStdioFile
__unwindfunclet$?OnInitDialog@CDviceCtrlDlgDlg@@MAEHXZ$5:
  0002e	8d 8d 3c ff ff
	ff		 lea	 ecx, DWORD PTR _aStr$232576[ebp]
  00034	e9 00 00 00 00	 jmp	 ??1?$CStringT@_WV?$StrTraitMFC@_WV?$ChTraitsCRT@_W@ATL@@@@@ATL@@QAE@XZ ; ATL::CStringT<wchar_t,StrTraitMFC<wchar_t,ATL::ChTraitsCRT<wchar_t> > >::~CStringT<wchar_t,StrTraitMFC<wchar_t,ATL::ChTraitsCRT<wchar_t> > >
__unwindfunclet$?OnInitDialog@CDviceCtrlDlgDlg@@MAEHXZ$6:
  00039	8d 8d 30 ff ff
	ff		 lea	 ecx, DWORD PTR _str1$232577[ebp]
  0003f	e9 00 00 00 00	 jmp	 ??1?$CStringT@_WV?$StrTraitMFC@_WV?$ChTraitsCRT@_W@ATL@@@@@ATL@@QAE@XZ ; ATL::CStringT<wchar_t,StrTraitMFC<wchar_t,ATL::ChTraitsCRT<wchar_t> > >::~CStringT<wchar_t,StrTraitMFC<wchar_t,ATL::ChTraitsCRT<wchar_t> > >
__ehhandler$?OnInitDialog@CDviceCtrlDlgDlg@@MAEHXZ:
  00044	8b 54 24 08	 mov	 edx, DWORD PTR [esp+8]
  00048	8d 42 0c	 lea	 eax, DWORD PTR [edx+12]
  0004b	8b 8a 00 fe ff
	ff		 mov	 ecx, DWORD PTR [edx-512]
  00051	33 c8		 xor	 ecx, eax
  00053	e8 00 00 00 00	 call	 @__security_check_cookie@4
  00058	8b 4a fc	 mov	 ecx, DWORD PTR [edx-4]
  0005b	33 c8		 xor	 ecx, eax
  0005d	e8 00 00 00 00	 call	 @__security_check_cookie@4
  00062	b8 00 00 00 00	 mov	 eax, OFFSET __ehfuncinfo$?OnInitDialog@CDviceCtrlDlgDlg@@MAEHXZ
  00067	e9 00 00 00 00	 jmp	 ___CxxFrameHandler3
text$x	ENDS
?OnInitDialog@CDviceCtrlDlgDlg@@MAEHXZ ENDP		; CDviceCtrlDlgDlg::OnInitDialog
EXTRN	?OnSysCommand@CWnd@@IAEXIJ@Z:PROC		; CWnd::OnSysCommand
;	COMDAT xdata$x
xdata$x	SEGMENT
__unwindtable$?OnSysCommand@CDviceCtrlDlgDlg@@IAEXIJ@Z DD 0ffffffffH
	DD	FLAT:__unwindfunclet$?OnSysCommand@CDviceCtrlDlgDlg@@IAEXIJ@Z$0
__ehfuncinfo$?OnSysCommand@CDviceCtrlDlgDlg@@IAEXIJ@Z DD 019930522H
	DD	01H
	DD	FLAT:__unwindtable$?OnSysCommand@CDviceCtrlDlgDlg@@IAEXIJ@Z
	DD	2 DUP(00H)
	DD	2 DUP(00H)
	DD	00H
	DD	01H
; Function compile flags: /Odtp /RTCsu /ZI
xdata$x	ENDS
;	COMDAT ?OnSysCommand@CDviceCtrlDlgDlg@@IAEXIJ@Z
_TEXT	SEGMENT
_dlgAbout$232593 = -176					; size = 148
_this$ = -20						; size = 4
__$EHRec$ = -12						; size = 12
_nID$ = 8						; size = 4
_lParam$ = 12						; size = 4
?OnSysCommand@CDviceCtrlDlgDlg@@IAEXIJ@Z PROC		; CDviceCtrlDlgDlg::OnSysCommand, COMDAT
; _this$ = ecx

; 371  : {

  00000	55		 push	 ebp
  00001	8b ec		 mov	 ebp, esp
  00003	6a ff		 push	 -1
  00005	68 00 00 00 00	 push	 __ehhandler$?OnSysCommand@CDviceCtrlDlgDlg@@IAEXIJ@Z
  0000a	64 a1 00 00 00
	00		 mov	 eax, DWORD PTR fs:0
  00010	50		 push	 eax
  00011	81 ec 68 01 00
	00		 sub	 esp, 360		; 00000168H
  00017	53		 push	 ebx
  00018	56		 push	 esi
  00019	57		 push	 edi
  0001a	51		 push	 ecx
  0001b	8d bd 8c fe ff
	ff		 lea	 edi, DWORD PTR [ebp-372]
  00021	b9 5a 00 00 00	 mov	 ecx, 90			; 0000005aH
  00026	b8 cc cc cc cc	 mov	 eax, -858993460		; ccccccccH
  0002b	f3 ab		 rep stosd
  0002d	59		 pop	 ecx
  0002e	a1 00 00 00 00	 mov	 eax, DWORD PTR ___security_cookie
  00033	33 c5		 xor	 eax, ebp
  00035	50		 push	 eax
  00036	8d 45 f4	 lea	 eax, DWORD PTR __$EHRec$[ebp]
  00039	64 a3 00 00 00
	00		 mov	 DWORD PTR fs:0, eax
  0003f	89 4d ec	 mov	 DWORD PTR _this$[ebp], ecx

; 372  : 	if ((nID & 0xFFF0) == IDM_ABOUTBOX)

  00042	8b 45 08	 mov	 eax, DWORD PTR _nID$[ebp]
  00045	25 f0 ff 00 00	 and	 eax, 65520		; 0000fff0H
  0004a	83 f8 10	 cmp	 eax, 16			; 00000010H
  0004d	75 31		 jne	 SHORT $LN2@OnSysComma

; 373  : 	{
; 374  : 		CAboutDlg dlgAbout;

  0004f	8d 8d 50 ff ff
	ff		 lea	 ecx, DWORD PTR _dlgAbout$232593[ebp]
  00055	e8 00 00 00 00	 call	 ??0CAboutDlg@@QAE@XZ	; CAboutDlg::CAboutDlg
  0005a	c7 45 fc 00 00
	00 00		 mov	 DWORD PTR __$EHRec$[ebp+8], 0

; 375  : 		dlgAbout.DoModal();

  00061	8d 8d 50 ff ff
	ff		 lea	 ecx, DWORD PTR _dlgAbout$232593[ebp]
  00067	e8 00 00 00 00	 call	 ?DoModal@CDialog@@UAEHXZ ; CDialog::DoModal

; 376  : 	}

  0006c	c7 45 fc ff ff
	ff ff		 mov	 DWORD PTR __$EHRec$[ebp+8], -1
  00073	8d 8d 50 ff ff
	ff		 lea	 ecx, DWORD PTR _dlgAbout$232593[ebp]
  00079	e8 00 00 00 00	 call	 ??1CAboutDlg@@UAE@XZ

; 377  : 	else

  0007e	eb 10		 jmp	 SHORT $LN3@OnSysComma
$LN2@OnSysComma:

; 378  : 	{
; 379  : 		CDialog::OnSysCommand(nID, lParam);

  00080	8b 45 0c	 mov	 eax, DWORD PTR _lParam$[ebp]
  00083	50		 push	 eax
  00084	8b 4d 08	 mov	 ecx, DWORD PTR _nID$[ebp]
  00087	51		 push	 ecx
  00088	8b 4d ec	 mov	 ecx, DWORD PTR _this$[ebp]
  0008b	e8 00 00 00 00	 call	 ?OnSysCommand@CWnd@@IAEXIJ@Z ; CWnd::OnSysCommand
$LN3@OnSysComma:

; 380  : 	}
; 381  : }

  00090	52		 push	 edx
  00091	8b cd		 mov	 ecx, ebp
  00093	50		 push	 eax
  00094	8d 15 00 00 00
	00		 lea	 edx, DWORD PTR $LN9@OnSysComma
  0009a	e8 00 00 00 00	 call	 @_RTC_CheckStackVars@8
  0009f	58		 pop	 eax
  000a0	5a		 pop	 edx
  000a1	8b 4d f4	 mov	 ecx, DWORD PTR __$EHRec$[ebp]
  000a4	64 89 0d 00 00
	00 00		 mov	 DWORD PTR fs:0, ecx
  000ab	59		 pop	 ecx
  000ac	5f		 pop	 edi
  000ad	5e		 pop	 esi
  000ae	5b		 pop	 ebx
  000af	81 c4 74 01 00
	00		 add	 esp, 372		; 00000174H
  000b5	3b ec		 cmp	 ebp, esp
  000b7	e8 00 00 00 00	 call	 __RTC_CheckEsp
  000bc	8b e5		 mov	 esp, ebp
  000be	5d		 pop	 ebp
  000bf	c2 08 00	 ret	 8
  000c2	8b ff		 npad	 2
$LN9@OnSysComma:
  000c4	01 00 00 00	 DD	 1
  000c8	00 00 00 00	 DD	 $LN8@OnSysComma
$LN8@OnSysComma:
  000cc	50 ff ff ff	 DD	 -176			; ffffff50H
  000d0	94 00 00 00	 DD	 148			; 00000094H
  000d4	00 00 00 00	 DD	 $LN6@OnSysComma
$LN6@OnSysComma:
  000d8	64		 DB	 100			; 00000064H
  000d9	6c		 DB	 108			; 0000006cH
  000da	67		 DB	 103			; 00000067H
  000db	41		 DB	 65			; 00000041H
  000dc	62		 DB	 98			; 00000062H
  000dd	6f		 DB	 111			; 0000006fH
  000de	75		 DB	 117			; 00000075H
  000df	74		 DB	 116			; 00000074H
  000e0	00		 DB	 0
_TEXT	ENDS
;	COMDAT text$x
text$x	SEGMENT
__unwindfunclet$?OnSysCommand@CDviceCtrlDlgDlg@@IAEXIJ@Z$0:
  00000	8d 8d 50 ff ff
	ff		 lea	 ecx, DWORD PTR _dlgAbout$232593[ebp]
  00006	e9 00 00 00 00	 jmp	 ??1CAboutDlg@@UAE@XZ
__ehhandler$?OnSysCommand@CDviceCtrlDlgDlg@@IAEXIJ@Z:
  0000b	8b 54 24 08	 mov	 edx, DWORD PTR [esp+8]
  0000f	8d 42 0c	 lea	 eax, DWORD PTR [edx+12]
  00012	8b 8a 88 fe ff
	ff		 mov	 ecx, DWORD PTR [edx-376]
  00018	33 c8		 xor	 ecx, eax
  0001a	e8 00 00 00 00	 call	 @__security_check_cookie@4
  0001f	b8 00 00 00 00	 mov	 eax, OFFSET __ehfuncinfo$?OnSysCommand@CDviceCtrlDlgDlg@@IAEXIJ@Z
  00024	e9 00 00 00 00	 jmp	 ___CxxFrameHandler3
text$x	ENDS
?OnSysCommand@CDviceCtrlDlgDlg@@IAEXIJ@Z ENDP		; CDviceCtrlDlgDlg::OnSysCommand
PUBLIC	__$ArrayPad$
EXTRN	?OnPaint@CDialog@@IAEXXZ:PROC			; CDialog::OnPaint
EXTRN	??1CPaintDC@@UAE@XZ:PROC			; CPaintDC::~CPaintDC
EXTRN	?DrawIcon@CDC@@QAEHHHPAUHICON__@@@Z:PROC	; CDC::DrawIcon
EXTRN	?GetClientRect@CWnd@@QBEXPAUtagRECT@@@Z:PROC	; CWnd::GetClientRect
EXTRN	__imp__GetSystemMetrics@4:PROC
EXTRN	?SendMessageW@CWnd@@QBEJIIJ@Z:PROC		; CWnd::SendMessageW
EXTRN	?GetSafeHdc@CDC@@QBEPAUHDC__@@XZ:PROC		; CDC::GetSafeHdc
EXTRN	??0CPaintDC@@QAE@PAVCWnd@@@Z:PROC		; CPaintDC::CPaintDC
EXTRN	?IsIconic@CWnd@@QBEHXZ:PROC			; CWnd::IsIconic
;	COMDAT xdata$x
xdata$x	SEGMENT
__unwindtable$?OnPaint@CDviceCtrlDlgDlg@@IAEXXZ DD 0ffffffffH
	DD	FLAT:__unwindfunclet$?OnPaint@CDviceCtrlDlgDlg@@IAEXXZ$0
__ehfuncinfo$?OnPaint@CDviceCtrlDlgDlg@@IAEXXZ DD 019930522H
	DD	01H
	DD	FLAT:__unwindtable$?OnPaint@CDviceCtrlDlgDlg@@IAEXXZ
	DD	2 DUP(00H)
	DD	2 DUP(00H)
	DD	00H
	DD	01H
; Function compile flags: /Odtp /RTCsu /ZI
xdata$x	ENDS
;	COMDAT ?OnPaint@CDviceCtrlDlgDlg@@IAEXXZ
_TEXT	SEGMENT
_y$232605 = -188					; size = 4
_x$232604 = -176					; size = 4
_rect$232603 = -164					; size = 16
_cyIcon$232602 = -140					; size = 4
_cxIcon$232601 = -128					; size = 4
_dc$232599 = -116					; size = 84
_this$ = -24						; size = 4
__$ArrayPad$ = -16					; size = 4
__$EHRec$ = -12						; size = 12
?OnPaint@CDviceCtrlDlgDlg@@IAEXXZ PROC			; CDviceCtrlDlgDlg::OnPaint, COMDAT
; _this$ = ecx

; 388  : {

  00000	55		 push	 ebp
  00001	8b ec		 mov	 ebp, esp
  00003	6a ff		 push	 -1
  00005	68 00 00 00 00	 push	 __ehhandler$?OnPaint@CDviceCtrlDlgDlg@@IAEXXZ
  0000a	64 a1 00 00 00
	00		 mov	 eax, DWORD PTR fs:0
  00010	50		 push	 eax
  00011	81 ec 74 01 00
	00		 sub	 esp, 372		; 00000174H
  00017	53		 push	 ebx
  00018	56		 push	 esi
  00019	57		 push	 edi
  0001a	51		 push	 ecx
  0001b	8d bd 80 fe ff
	ff		 lea	 edi, DWORD PTR [ebp-384]
  00021	b9 5d 00 00 00	 mov	 ecx, 93			; 0000005dH
  00026	b8 cc cc cc cc	 mov	 eax, -858993460		; ccccccccH
  0002b	f3 ab		 rep stosd
  0002d	59		 pop	 ecx
  0002e	a1 00 00 00 00	 mov	 eax, DWORD PTR ___security_cookie
  00033	33 c5		 xor	 eax, ebp
  00035	89 45 f0	 mov	 DWORD PTR __$ArrayPad$[ebp], eax
  00038	50		 push	 eax
  00039	8d 45 f4	 lea	 eax, DWORD PTR __$EHRec$[ebp]
  0003c	64 a3 00 00 00
	00		 mov	 DWORD PTR fs:0, eax
  00042	89 4d e8	 mov	 DWORD PTR _this$[ebp], ecx

; 389  : 	if (IsIconic())

  00045	8b 4d e8	 mov	 ecx, DWORD PTR _this$[ebp]
  00048	e8 00 00 00 00	 call	 ?IsIconic@CWnd@@QBEHXZ	; CWnd::IsIconic
  0004d	85 c0		 test	 eax, eax
  0004f	0f 84 d9 00 00
	00		 je	 $LN2@OnPaint

; 390  : 	{
; 391  : 		CPaintDC dc(this); // 

  00055	8b 45 e8	 mov	 eax, DWORD PTR _this$[ebp]
  00058	50		 push	 eax
  00059	8d 4d 8c	 lea	 ecx, DWORD PTR _dc$232599[ebp]
  0005c	e8 00 00 00 00	 call	 ??0CPaintDC@@QAE@PAVCWnd@@@Z ; CPaintDC::CPaintDC
  00061	c7 45 fc 00 00
	00 00		 mov	 DWORD PTR __$EHRec$[ebp+8], 0

; 392  : 
; 393  : 		SendMessage(WM_ICONERASEBKGND, reinterpret_cast<WPARAM>(dc.GetSafeHdc()), 0);

  00068	6a 00		 push	 0
  0006a	8d 4d 8c	 lea	 ecx, DWORD PTR _dc$232599[ebp]
  0006d	e8 00 00 00 00	 call	 ?GetSafeHdc@CDC@@QBEPAUHDC__@@XZ ; CDC::GetSafeHdc
  00072	50		 push	 eax
  00073	6a 27		 push	 39			; 00000027H
  00075	8b 4d e8	 mov	 ecx, DWORD PTR _this$[ebp]
  00078	e8 00 00 00 00	 call	 ?SendMessageW@CWnd@@QBEJIIJ@Z ; CWnd::SendMessageW

; 394  : 
; 395  : 		// 
; 396  : 		int cxIcon = GetSystemMetrics(SM_CXICON);

  0007d	8b f4		 mov	 esi, esp
  0007f	6a 0b		 push	 11			; 0000000bH
  00081	ff 15 00 00 00
	00		 call	 DWORD PTR __imp__GetSystemMetrics@4
  00087	3b f4		 cmp	 esi, esp
  00089	e8 00 00 00 00	 call	 __RTC_CheckEsp
  0008e	89 45 80	 mov	 DWORD PTR _cxIcon$232601[ebp], eax

; 397  : 		int cyIcon = GetSystemMetrics(SM_CYICON);

  00091	8b f4		 mov	 esi, esp
  00093	6a 0c		 push	 12			; 0000000cH
  00095	ff 15 00 00 00
	00		 call	 DWORD PTR __imp__GetSystemMetrics@4
  0009b	3b f4		 cmp	 esi, esp
  0009d	e8 00 00 00 00	 call	 __RTC_CheckEsp
  000a2	89 85 74 ff ff
	ff		 mov	 DWORD PTR _cyIcon$232602[ebp], eax

; 398  : 		CRect rect;

  000a8	8d 8d 5c ff ff
	ff		 lea	 ecx, DWORD PTR _rect$232603[ebp]
  000ae	e8 00 00 00 00	 call	 ??0CRect@@QAE@XZ	; CRect::CRect

; 399  : 		GetClientRect(&rect);

  000b3	8d 85 5c ff ff
	ff		 lea	 eax, DWORD PTR _rect$232603[ebp]
  000b9	50		 push	 eax
  000ba	8b 4d e8	 mov	 ecx, DWORD PTR _this$[ebp]
  000bd	e8 00 00 00 00	 call	 ?GetClientRect@CWnd@@QBEXPAUtagRECT@@@Z ; CWnd::GetClientRect

; 400  : 		int x = (rect.Width() - cxIcon + 1) / 2;

  000c2	8d 8d 5c ff ff
	ff		 lea	 ecx, DWORD PTR _rect$232603[ebp]
  000c8	e8 00 00 00 00	 call	 ?Width@CRect@@QBEHXZ	; CRect::Width
  000cd	2b 45 80	 sub	 eax, DWORD PTR _cxIcon$232601[ebp]
  000d0	83 c0 01	 add	 eax, 1
  000d3	99		 cdq
  000d4	2b c2		 sub	 eax, edx
  000d6	d1 f8		 sar	 eax, 1
  000d8	89 85 50 ff ff
	ff		 mov	 DWORD PTR _x$232604[ebp], eax

; 401  : 		int y = (rect.Height() - cyIcon + 1) / 2;

  000de	8d 8d 5c ff ff
	ff		 lea	 ecx, DWORD PTR _rect$232603[ebp]
  000e4	e8 00 00 00 00	 call	 ?Height@CRect@@QBEHXZ	; CRect::Height
  000e9	2b 85 74 ff ff
	ff		 sub	 eax, DWORD PTR _cyIcon$232602[ebp]
  000ef	83 c0 01	 add	 eax, 1
  000f2	99		 cdq
  000f3	2b c2		 sub	 eax, edx
  000f5	d1 f8		 sar	 eax, 1
  000f7	89 85 44 ff ff
	ff		 mov	 DWORD PTR _y$232605[ebp], eax

; 402  : 
; 403  : 		// 
; 404  : 		dc.DrawIcon(x, y, m_hIcon);

  000fd	8b 45 e8	 mov	 eax, DWORD PTR _this$[ebp]
  00100	8b 88 94 00 00
	00		 mov	 ecx, DWORD PTR [eax+148]
  00106	51		 push	 ecx
  00107	8b 95 44 ff ff
	ff		 mov	 edx, DWORD PTR _y$232605[ebp]
  0010d	52		 push	 edx
  0010e	8b 85 50 ff ff
	ff		 mov	 eax, DWORD PTR _x$232604[ebp]
  00114	50		 push	 eax
  00115	8d 4d 8c	 lea	 ecx, DWORD PTR _dc$232599[ebp]
  00118	e8 00 00 00 00	 call	 ?DrawIcon@CDC@@QAEHHHPAUHICON__@@@Z ; CDC::DrawIcon

; 405  : 	}

  0011d	c7 45 fc ff ff
	ff ff		 mov	 DWORD PTR __$EHRec$[ebp+8], -1
  00124	8d 4d 8c	 lea	 ecx, DWORD PTR _dc$232599[ebp]
  00127	e8 00 00 00 00	 call	 ??1CPaintDC@@UAE@XZ	; CPaintDC::~CPaintDC

; 406  : 	else

  0012c	eb 08		 jmp	 SHORT $LN3@OnPaint
$LN2@OnPaint:

; 407  : 	{
; 408  : 		CDialog::OnPaint();

  0012e	8b 4d e8	 mov	 ecx, DWORD PTR _this$[ebp]
  00131	e8 00 00 00 00	 call	 ?OnPaint@CDialog@@IAEXXZ ; CDialog::OnPaint
$LN3@OnPaint:

; 409  : 	}
; 410  : }

  00136	52		 push	 edx
  00137	8b cd		 mov	 ecx, ebp
  00139	50		 push	 eax
  0013a	8d 15 00 00 00
	00		 lea	 edx, DWORD PTR $LN10@OnPaint
  00140	e8 00 00 00 00	 call	 @_RTC_CheckStackVars@8
  00145	58		 pop	 eax
  00146	5a		 pop	 edx
  00147	8b 4d f4	 mov	 ecx, DWORD PTR __$EHRec$[ebp]
  0014a	64 89 0d 00 00
	00 00		 mov	 DWORD PTR fs:0, ecx
  00151	59		 pop	 ecx
  00152	5f		 pop	 edi
  00153	5e		 pop	 esi
  00154	5b		 pop	 ebx
  00155	8b 4d f0	 mov	 ecx, DWORD PTR __$ArrayPad$[ebp]
  00158	33 cd		 xor	 ecx, ebp
  0015a	e8 00 00 00 00	 call	 @__security_check_cookie@4
  0015f	81 c4 80 01 00
	00		 add	 esp, 384		; 00000180H
  00165	3b ec		 cmp	 ebp, esp
  00167	e8 00 00 00 00	 call	 __RTC_CheckEsp
  0016c	8b e5		 mov	 esp, ebp
  0016e	5d		 pop	 ebp
  0016f	c3		 ret	 0
$LN10@OnPaint:
  00170	02 00 00 00	 DD	 2
  00174	00 00 00 00	 DD	 $LN9@OnPaint
$LN9@OnPaint:
  00178	8c ff ff ff	 DD	 -116			; ffffff8cH
  0017c	54 00 00 00	 DD	 84			; 00000054H
  00180	00 00 00 00	 DD	 $LN6@OnPaint
  00184	5c ff ff ff	 DD	 -164			; ffffff5cH
  00188	10 00 00 00	 DD	 16			; 00000010H
  0018c	00 00 00 00	 DD	 $LN7@OnPaint
$LN7@OnPaint:
  00190	72		 DB	 114			; 00000072H
  00191	65		 DB	 101			; 00000065H
  00192	63		 DB	 99			; 00000063H
  00193	74		 DB	 116			; 00000074H
  00194	00		 DB	 0
$LN6@OnPaint:
  00195	64		 DB	 100			; 00000064H
  00196	63		 DB	 99			; 00000063H
  00197	00		 DB	 0
_TEXT	ENDS
;	COMDAT text$x
text$x	SEGMENT
__unwindfunclet$?OnPaint@CDviceCtrlDlgDlg@@IAEXXZ$0:
  00000	8d 4d 8c	 lea	 ecx, DWORD PTR _dc$232599[ebp]
  00003	e9 00 00 00 00	 jmp	 ??1CPaintDC@@UAE@XZ	; CPaintDC::~CPaintDC
__ehhandler$?OnPaint@CDviceCtrlDlgDlg@@IAEXXZ:
  00008	8b 54 24 08	 mov	 edx, DWORD PTR [esp+8]
  0000c	8d 42 0c	 lea	 eax, DWORD PTR [edx+12]
  0000f	8b 8a 7c fe ff
	ff		 mov	 ecx, DWORD PTR [edx-388]
  00015	33 c8		 xor	 ecx, eax
  00017	e8 00 00 00 00	 call	 @__security_check_cookie@4
  0001c	8b 4a fc	 mov	 ecx, DWORD PTR [edx-4]
  0001f	33 c8		 xor	 ecx, eax
  00021	e8 00 00 00 00	 call	 @__security_check_cookie@4
  00026	b8 00 00 00 00	 mov	 eax, OFFSET __ehfuncinfo$?OnPaint@CDviceCtrlDlgDlg@@IAEXXZ
  0002b	e9 00 00 00 00	 jmp	 ___CxxFrameHandler3
text$x	ENDS
?OnPaint@CDviceCtrlDlgDlg@@IAEXXZ ENDP			; CDviceCtrlDlgDlg::OnPaint
; Function compile flags: /Odtp /RTCsu /ZI
;	COMDAT ?OnQueryDragIcon@CDviceCtrlDlgDlg@@IAEPAUHICON__@@XZ
_TEXT	SEGMENT
_this$ = -8						; size = 4
?OnQueryDragIcon@CDviceCtrlDlgDlg@@IAEPAUHICON__@@XZ PROC ; CDviceCtrlDlgDlg::OnQueryDragIcon, COMDAT
; _this$ = ecx

; 415  : {

  00000	55		 push	 ebp
  00001	8b ec		 mov	 ebp, esp
  00003	81 ec cc 00 00
	00		 sub	 esp, 204		; 000000ccH
  00009	53		 push	 ebx
  0000a	56		 push	 esi
  0000b	57		 push	 edi
  0000c	51		 push	 ecx
  0000d	8d bd 34 ff ff
	ff		 lea	 edi, DWORD PTR [ebp-204]
  00013	b9 33 00 00 00	 mov	 ecx, 51			; 00000033H
  00018	b8 cc cc cc cc	 mov	 eax, -858993460		; ccccccccH
  0001d	f3 ab		 rep stosd
  0001f	59		 pop	 ecx
  00020	89 4d f8	 mov	 DWORD PTR _this$[ebp], ecx

; 416  : 	return static_cast<HCURSOR>(m_hIcon);

  00023	8b 45 f8	 mov	 eax, DWORD PTR _this$[ebp]
  00026	8b 80 94 00 00
	00		 mov	 eax, DWORD PTR [eax+148]

; 417  : }

  0002c	5f		 pop	 edi
  0002d	5e		 pop	 esi
  0002e	5b		 pop	 ebx
  0002f	8b e5		 mov	 esp, ebp
  00031	5d		 pop	 ebp
  00032	c3		 ret	 0
?OnQueryDragIcon@CDviceCtrlDlgDlg@@IAEPAUHICON__@@XZ ENDP ; CDviceCtrlDlgDlg::OnQueryDragIcon
_TEXT	ENDS
EXTRN	?UpdateData@CWnd@@QAEHH@Z:PROC			; CWnd::UpdateData
EXTRN	?GetFocus@CWnd@@SGPAV1@XZ:PROC			; CWnd::GetFocus
; Function compile flags: /Odtp /RTCsu /ZI
;	COMDAT ?OnBnClickedOk@CDviceCtrlDlgDlg@@QAEXXZ
_TEXT	SEGMENT
_pWnd$ = -20						; size = 4
_this$ = -8						; size = 4
?OnBnClickedOk@CDviceCtrlDlgDlg@@QAEXXZ PROC		; CDviceCtrlDlgDlg::OnBnClickedOk, COMDAT
; _this$ = ecx

; 421  : {

  00000	55		 push	 ebp
  00001	8b ec		 mov	 ebp, esp
  00003	81 ec d8 00 00
	00		 sub	 esp, 216		; 000000d8H
  00009	53		 push	 ebx
  0000a	56		 push	 esi
  0000b	57		 push	 edi
  0000c	51		 push	 ecx
  0000d	8d bd 28 ff ff
	ff		 lea	 edi, DWORD PTR [ebp-216]
  00013	b9 36 00 00 00	 mov	 ecx, 54			; 00000036H
  00018	b8 cc cc cc cc	 mov	 eax, -858993460		; ccccccccH
  0001d	f3 ab		 rep stosd
  0001f	59		 pop	 ecx
  00020	89 4d f8	 mov	 DWORD PTR _this$[ebp], ecx

; 422  : 	// TODO: 
; 423  : 	CWnd *pWnd = GetFocus();

  00023	e8 00 00 00 00	 call	 ?GetFocus@CWnd@@SGPAV1@XZ ; CWnd::GetFocus
  00028	89 45 ec	 mov	 DWORD PTR _pWnd$[ebp], eax

; 424  : 	if (pWnd == GetDlgItem(IDC_SPK_RP))

  0002b	68 12 04 00 00	 push	 1042			; 00000412H
  00030	8b 4d f8	 mov	 ecx, DWORD PTR _this$[ebp]
  00033	e8 00 00 00 00	 call	 ?GetDlgItem@CWnd@@QBEPAV1@H@Z ; CWnd::GetDlgItem
  00038	39 45 ec	 cmp	 DWORD PTR _pWnd$[ebp], eax
  0003b	75 1f		 jne	 SHORT $LN10@OnBnClicke

; 425  : 	{
; 426  : 		m_nSoundInputGroup = 0;

  0003d	8b 45 f8	 mov	 eax, DWORD PTR _this$[ebp]
  00040	c7 80 78 09 00
	00 00 00 00 00	 mov	 DWORD PTR [eax+2424], 0

; 427  : 		UpdateData(FALSE);

  0004a	6a 00		 push	 0
  0004c	8b 4d f8	 mov	 ecx, DWORD PTR _this$[ebp]
  0004f	e8 00 00 00 00	 call	 ?UpdateData@CWnd@@QAEHH@Z ; CWnd::UpdateData

; 428  : 		OnBnClickedInputSpk();

  00054	8b 4d f8	 mov	 ecx, DWORD PTR _this$[ebp]
  00057	e8 00 00 00 00	 call	 ?OnBnClickedInputSpk@CDviceCtrlDlgDlg@@QAEXXZ ; CDviceCtrlDlgDlg::OnBnClickedInputSpk
$LN10@OnBnClicke:

; 429  : 	}
; 430  : 	if (pWnd == GetDlgItem(IDC_SPK_RP2))

  0005c	68 13 04 00 00	 push	 1043			; 00000413H
  00061	8b 4d f8	 mov	 ecx, DWORD PTR _this$[ebp]
  00064	e8 00 00 00 00	 call	 ?GetDlgItem@CWnd@@QBEPAV1@H@Z ; CWnd::GetDlgItem
  00069	39 45 ec	 cmp	 DWORD PTR _pWnd$[ebp], eax
  0006c	75 1f		 jne	 SHORT $LN9@OnBnClicke

; 431  : 	{
; 432  : 		m_nSoundInputGroup = 1;

  0006e	8b 45 f8	 mov	 eax, DWORD PTR _this$[ebp]
  00071	c7 80 78 09 00
	00 01 00 00 00	 mov	 DWORD PTR [eax+2424], 1

; 433  : 		UpdateData(FALSE);

  0007b	6a 00		 push	 0
  0007d	8b 4d f8	 mov	 ecx, DWORD PTR _this$[ebp]
  00080	e8 00 00 00 00	 call	 ?UpdateData@CWnd@@QAEHH@Z ; CWnd::UpdateData

; 434  : 		OnBnClickedInputSpk2();

  00085	8b 4d f8	 mov	 ecx, DWORD PTR _this$[ebp]
  00088	e8 00 00 00 00	 call	 ?OnBnClickedInputSpk2@CDviceCtrlDlgDlg@@QAEXXZ ; CDviceCtrlDlgDlg::OnBnClickedInputSpk2
$LN9@OnBnClicke:

; 435  : 	}
; 436  : 	if (pWnd == GetDlgItem(IDC_REC_RP))

  0008d	68 14 04 00 00	 push	 1044			; 00000414H
  00092	8b 4d f8	 mov	 ecx, DWORD PTR _this$[ebp]
  00095	e8 00 00 00 00	 call	 ?GetDlgItem@CWnd@@QBEPAV1@H@Z ; CWnd::GetDlgItem
  0009a	39 45 ec	 cmp	 DWORD PTR _pWnd$[ebp], eax
  0009d	75 1f		 jne	 SHORT $LN8@OnBnClicke

; 437  : 	{
; 438  : 		m_nSoundInputGroup = 2;

  0009f	8b 45 f8	 mov	 eax, DWORD PTR _this$[ebp]
  000a2	c7 80 78 09 00
	00 02 00 00 00	 mov	 DWORD PTR [eax+2424], 2

; 439  : 		UpdateData(FALSE);

  000ac	6a 00		 push	 0
  000ae	8b 4d f8	 mov	 ecx, DWORD PTR _this$[ebp]
  000b1	e8 00 00 00 00	 call	 ?UpdateData@CWnd@@QAEHH@Z ; CWnd::UpdateData

; 440  : 		OnBnClickedInputRec();

  000b6	8b 4d f8	 mov	 ecx, DWORD PTR _this$[ebp]
  000b9	e8 00 00 00 00	 call	 ?OnBnClickedInputRec@CDviceCtrlDlgDlg@@QAEXXZ ; CDviceCtrlDlgDlg::OnBnClickedInputRec
$LN8@OnBnClicke:

; 441  : 	}
; 442  : 	if (pWnd == GetDlgItem(IDC_EAR_L_RP))

  000be	68 15 04 00 00	 push	 1045			; 00000415H
  000c3	8b 4d f8	 mov	 ecx, DWORD PTR _this$[ebp]
  000c6	e8 00 00 00 00	 call	 ?GetDlgItem@CWnd@@QBEPAV1@H@Z ; CWnd::GetDlgItem
  000cb	39 45 ec	 cmp	 DWORD PTR _pWnd$[ebp], eax
  000ce	75 1f		 jne	 SHORT $LN7@OnBnClicke

; 443  : 	{
; 444  : 		m_nSoundInputGroup = 3;

  000d0	8b 45 f8	 mov	 eax, DWORD PTR _this$[ebp]
  000d3	c7 80 78 09 00
	00 03 00 00 00	 mov	 DWORD PTR [eax+2424], 3

; 445  : 		UpdateData(FALSE);

  000dd	6a 00		 push	 0
  000df	8b 4d f8	 mov	 ecx, DWORD PTR _this$[ebp]
  000e2	e8 00 00 00 00	 call	 ?UpdateData@CWnd@@QAEHH@Z ; CWnd::UpdateData

; 446  : 		OnBnClickedInputEarL();

  000e7	8b 4d f8	 mov	 ecx, DWORD PTR _this$[ebp]
  000ea	e8 00 00 00 00	 call	 ?OnBnClickedInputEarL@CDviceCtrlDlgDlg@@QAEXXZ ; CDviceCtrlDlgDlg::OnBnClickedInputEarL
$LN7@OnBnClicke:

; 447  : 	}
; 448  : 	if (pWnd == GetDlgItem(IDC_EAR_R_RP))

  000ef	68 16 04 00 00	 push	 1046			; 00000416H
  000f4	8b 4d f8	 mov	 ecx, DWORD PTR _this$[ebp]
  000f7	e8 00 00 00 00	 call	 ?GetDlgItem@CWnd@@QBEPAV1@H@Z ; CWnd::GetDlgItem
  000fc	39 45 ec	 cmp	 DWORD PTR _pWnd$[ebp], eax
  000ff	75 1f		 jne	 SHORT $LN6@OnBnClicke

; 449  : 	{
; 450  : 		m_nSoundInputGroup = 4;

  00101	8b 45 f8	 mov	 eax, DWORD PTR _this$[ebp]
  00104	c7 80 78 09 00
	00 04 00 00 00	 mov	 DWORD PTR [eax+2424], 4

; 451  : 		UpdateData(FALSE);

  0010e	6a 00		 push	 0
  00110	8b 4d f8	 mov	 ecx, DWORD PTR _this$[ebp]
  00113	e8 00 00 00 00	 call	 ?UpdateData@CWnd@@QAEHH@Z ; CWnd::UpdateData

; 452  : 		OnBnClickedInputEarR();

  00118	8b 4d f8	 mov	 ecx, DWORD PTR _this$[ebp]
  0011b	e8 00 00 00 00	 call	 ?OnBnClickedInputEarR@CDviceCtrlDlgDlg@@QAEXXZ ; CDviceCtrlDlgDlg::OnBnClickedInputEarR
$LN6@OnBnClicke:

; 453  : 	}
; 454  : 	if (pWnd == GetDlgItem(IDC_VIB_RP))

  00120	68 17 04 00 00	 push	 1047			; 00000417H
  00125	8b 4d f8	 mov	 ecx, DWORD PTR _this$[ebp]
  00128	e8 00 00 00 00	 call	 ?GetDlgItem@CWnd@@QBEPAV1@H@Z ; CWnd::GetDlgItem
  0012d	39 45 ec	 cmp	 DWORD PTR _pWnd$[ebp], eax
  00130	75 1f		 jne	 SHORT $LN5@OnBnClicke

; 455  : 	{
; 456  : 		m_nSoundInputGroup = 5;

  00132	8b 45 f8	 mov	 eax, DWORD PTR _this$[ebp]
  00135	c7 80 78 09 00
	00 05 00 00 00	 mov	 DWORD PTR [eax+2424], 5

; 457  : 		UpdateData(FALSE);

  0013f	6a 00		 push	 0
  00141	8b 4d f8	 mov	 ecx, DWORD PTR _this$[ebp]
  00144	e8 00 00 00 00	 call	 ?UpdateData@CWnd@@QAEHH@Z ; CWnd::UpdateData

; 458  : 		OnBnClickedInputVib();

  00149	8b 4d f8	 mov	 ecx, DWORD PTR _this$[ebp]
  0014c	e8 00 00 00 00	 call	 ?OnBnClickedInputVib@CDviceCtrlDlgDlg@@QAEXXZ ; CDviceCtrlDlgDlg::OnBnClickedInputVib
$LN5@OnBnClicke:

; 459  : 	}
; 460  : 	if (pWnd == GetDlgItem(IDC_EAR_MIC_RP))

  00151	68 19 04 00 00	 push	 1049			; 00000419H
  00156	8b 4d f8	 mov	 ecx, DWORD PTR _this$[ebp]
  00159	e8 00 00 00 00	 call	 ?GetDlgItem@CWnd@@QBEPAV1@H@Z ; CWnd::GetDlgItem
  0015e	39 45 ec	 cmp	 DWORD PTR _pWnd$[ebp], eax
  00161	75 1f		 jne	 SHORT $LN4@OnBnClicke

; 461  : 	{
; 462  : 		m_nSoundInputGroup = 7;

  00163	8b 45 f8	 mov	 eax, DWORD PTR _this$[ebp]
  00166	c7 80 78 09 00
	00 07 00 00 00	 mov	 DWORD PTR [eax+2424], 7

; 463  : 		UpdateData(FALSE);

  00170	6a 00		 push	 0
  00172	8b 4d f8	 mov	 ecx, DWORD PTR _this$[ebp]
  00175	e8 00 00 00 00	 call	 ?UpdateData@CWnd@@QAEHH@Z ; CWnd::UpdateData

; 464  : 		OnBnClickedOutputEarMic();

  0017a	8b 4d f8	 mov	 ecx, DWORD PTR _this$[ebp]
  0017d	e8 00 00 00 00	 call	 ?OnBnClickedOutputEarMic@CDviceCtrlDlgDlg@@QAEXXZ ; CDviceCtrlDlgDlg::OnBnClickedOutputEarMic
$LN4@OnBnClicke:

; 465  : 	}
; 466  : 	if (pWnd == GetDlgItem(IDC_MIC_RP))

  00182	68 18 04 00 00	 push	 1048			; 00000418H
  00187	8b 4d f8	 mov	 ecx, DWORD PTR _this$[ebp]
  0018a	e8 00 00 00 00	 call	 ?GetDlgItem@CWnd@@QBEPAV1@H@Z ; CWnd::GetDlgItem
  0018f	39 45 ec	 cmp	 DWORD PTR _pWnd$[ebp], eax
  00192	75 1f		 jne	 SHORT $LN3@OnBnClicke

; 467  : 	{
; 468  : 		m_nSoundInputGroup = 8;

  00194	8b 45 f8	 mov	 eax, DWORD PTR _this$[ebp]
  00197	c7 80 78 09 00
	00 08 00 00 00	 mov	 DWORD PTR [eax+2424], 8

; 469  : 		UpdateData(FALSE);

  001a1	6a 00		 push	 0
  001a3	8b 4d f8	 mov	 ecx, DWORD PTR _this$[ebp]
  001a6	e8 00 00 00 00	 call	 ?UpdateData@CWnd@@QAEHH@Z ; CWnd::UpdateData

; 470  : 		OnBnClickedOutputMic();

  001ab	8b 4d f8	 mov	 ecx, DWORD PTR _this$[ebp]
  001ae	e8 00 00 00 00	 call	 ?OnBnClickedOutputMic@CDviceCtrlDlgDlg@@QAEXXZ ; CDviceCtrlDlgDlg::OnBnClickedOutputMic
$LN3@OnBnClicke:

; 471  : 	}
; 472  : 	if (pWnd == GetDlgItem(IDC_COLORLIGHTVALUE))

  001b3	68 3c 04 00 00	 push	 1084			; 0000043cH
  001b8	8b 4d f8	 mov	 ecx, DWORD PTR _this$[ebp]
  001bb	e8 00 00 00 00	 call	 ?GetDlgItem@CWnd@@QBEPAV1@H@Z ; CWnd::GetDlgItem
  001c0	39 45 ec	 cmp	 DWORD PTR _pWnd$[ebp], eax
  001c3	75 08		 jne	 SHORT $LN2@OnBnClicke

; 473  : 	{
; 474  : 		OnBnClickedColorlightsource();

  001c5	8b 4d f8	 mov	 ecx, DWORD PTR _this$[ebp]
  001c8	e8 00 00 00 00	 call	 ?OnBnClickedColorlightsource@CDviceCtrlDlgDlg@@QAEXXZ ; CDviceCtrlDlgDlg::OnBnClickedColorlightsource
$LN2@OnBnClicke:

; 475  : 	}
; 476  : 	if (pWnd == GetDlgItem(IDC_WHITELIGHTVALUE))

  001cd	68 3d 04 00 00	 push	 1085			; 0000043dH
  001d2	8b 4d f8	 mov	 ecx, DWORD PTR _this$[ebp]
  001d5	e8 00 00 00 00	 call	 ?GetDlgItem@CWnd@@QBEPAV1@H@Z ; CWnd::GetDlgItem
  001da	39 45 ec	 cmp	 DWORD PTR _pWnd$[ebp], eax
  001dd	75 08		 jne	 SHORT $LN11@OnBnClicke

; 477  : 	{
; 478  : 		OnBnClickedWhitelightsource();

  001df	8b 4d f8	 mov	 ecx, DWORD PTR _this$[ebp]
  001e2	e8 00 00 00 00	 call	 ?OnBnClickedWhitelightsource@CDviceCtrlDlgDlg@@QAEXXZ ; CDviceCtrlDlgDlg::OnBnClickedWhitelightsource
$LN11@OnBnClicke:

; 479  : 	}
; 480  : }

  001e7	5f		 pop	 edi
  001e8	5e		 pop	 esi
  001e9	5b		 pop	 ebx
  001ea	81 c4 d8 00 00
	00		 add	 esp, 216		; 000000d8H
  001f0	3b ec		 cmp	 ebp, esp
  001f2	e8 00 00 00 00	 call	 __RTC_CheckEsp
  001f7	8b e5		 mov	 esp, ebp
  001f9	5d		 pop	 ebp
  001fa	c3		 ret	 0
?OnBnClickedOk@CDviceCtrlDlgDlg@@QAEXXZ ENDP		; CDviceCtrlDlgDlg::OnBnClickedOk
; Function compile flags: /Odtp /RTCsu /ZI
_TEXT	ENDS
;	COMDAT ?OnBnClickedCancel@CDviceCtrlDlgDlg@@QAEXXZ
_TEXT	SEGMENT
_this$ = -8						; size = 4
?OnBnClickedCancel@CDviceCtrlDlgDlg@@QAEXXZ PROC	; CDviceCtrlDlgDlg::OnBnClickedCancel, COMDAT
; _this$ = ecx

; 483  : {

  00000	55		 push	 ebp
  00001	8b ec		 mov	 ebp, esp
  00003	81 ec cc 00 00
	00		 sub	 esp, 204		; 000000ccH
  00009	53		 push	 ebx
  0000a	56		 push	 esi
  0000b	57		 push	 edi
  0000c	51		 push	 ecx
  0000d	8d bd 34 ff ff
	ff		 lea	 edi, DWORD PTR [ebp-204]
  00013	b9 33 00 00 00	 mov	 ecx, 51			; 00000033H
  00018	b8 cc cc cc cc	 mov	 eax, -858993460		; ccccccccH
  0001d	f3 ab		 rep stosd
  0001f	59		 pop	 ecx
  00020	89 4d f8	 mov	 DWORD PTR _this$[ebp], ecx

; 484  : 	// TODO: 
; 485  : 	OnCancel();

  00023	8b 45 f8	 mov	 eax, DWORD PTR _this$[ebp]
  00026	8b 10		 mov	 edx, DWORD PTR [eax]
  00028	8b f4		 mov	 esi, esp
  0002a	8b 4d f8	 mov	 ecx, DWORD PTR _this$[ebp]
  0002d	8b 82 88 01 00
	00		 mov	 eax, DWORD PTR [edx+392]
  00033	ff d0		 call	 eax
  00035	3b f4		 cmp	 esi, esp
  00037	e8 00 00 00 00	 call	 __RTC_CheckEsp

; 486  : }

  0003c	5f		 pop	 edi
  0003d	5e		 pop	 esi
  0003e	5b		 pop	 ebx
  0003f	81 c4 cc 00 00
	00		 add	 esp, 204		; 000000ccH
  00045	3b ec		 cmp	 ebp, esp
  00047	e8 00 00 00 00	 call	 __RTC_CheckEsp
  0004c	8b e5		 mov	 esp, ebp
  0004e	5d		 pop	 ebp
  0004f	c3		 ret	 0
?OnBnClickedCancel@CDviceCtrlDlgDlg@@QAEXXZ ENDP	; CDviceCtrlDlgDlg::OnBnClickedCancel
_TEXT	ENDS
PUBLIC	?Right@?$CStringT@_WV?$StrTraitMFC@_WV?$ChTraitsCRT@_W@ATL@@@@@ATL@@QBE?AV12@H@Z ; ATL::CStringT<wchar_t,StrTraitMFC<wchar_t,ATL::ChTraitsCRT<wchar_t> > >::Right
PUBLIC	??_C@_19HAJNCJPK@?$AA?$CI?$AAC?$AAO?$AAM?$AA?$AA@ ; `string'
PUBLIC	?GetLength@?$CSimpleStringT@_W$0A@@ATL@@QBEHXZ	; ATL::CSimpleStringT<wchar_t,0>::GetLength
PUBLIC	??HATL@@YA?AV?$CStringT@_WV?$StrTraitMFC@_WV?$ChTraitsCRT@_W@ATL@@@@@0@PB_WABV10@@Z ; ATL::operator+
PUBLIC	??_C@_1BM@OOGAOCDN@?$AAS?$AAe?$AAt?$AAu?$AAp?$AAD?$AAi?$AAG?$AAe?$AAt?$AA?5?$AA?3?$AA?5?$AA?$AA@ ; `string'
PUBLIC	?Find@?$CStringT@_WV?$StrTraitMFC@_WV?$ChTraitsCRT@_W@ATL@@@@@ATL@@QBEHPB_WH@Z ; ATL::CStringT<wchar_t,StrTraitMFC<wchar_t,ATL::ChTraitsCRT<wchar_t> > >::Find
PUBLIC	__$ArrayPad$
PUBLIC	?GetUsbDevInfo@CDviceCtrlDlgDlg@@QAEIPAXPAU_GUID@@PB_W@Z ; CDviceCtrlDlgDlg::GetUsbDevInfo
EXTRN	__imp__SetupDiDestroyDeviceInfoList@4:PROC
EXTRN	__wtoi:PROC
EXTRN	__imp__OutputDebugStringW@4:PROC
EXTRN	__imp__SetupDiGetDeviceRegistryPropertyW@28:PROC
EXTRN	__imp__SetupDiEnumDeviceInfo@12:PROC
EXTRN	__imp__SetupDiGetClassDevsW@16:PROC
;	COMDAT ??_C@_19HAJNCJPK@?$AA?$CI?$AAC?$AAO?$AAM?$AA?$AA@
CONST	SEGMENT
??_C@_19HAJNCJPK@?$AA?$CI?$AAC?$AAO?$AAM?$AA?$AA@ DB '(', 00H, 'C', 00H, 'O'
	DB	00H, 'M', 00H, 00H, 00H			; `string'
CONST	ENDS
;	COMDAT ??_C@_1BM@OOGAOCDN@?$AAS?$AAe?$AAt?$AAu?$AAp?$AAD?$AAi?$AAG?$AAe?$AAt?$AA?5?$AA?3?$AA?5?$AA?$AA@
CONST	SEGMENT
??_C@_1BM@OOGAOCDN@?$AAS?$AAe?$AAt?$AAu?$AAp?$AAD?$AAi?$AAG?$AAe?$AAt?$AA?5?$AA?3?$AA?5?$AA?$AA@ DB 'S'
	DB	00H, 'e', 00H, 't', 00H, 'u', 00H, 'p', 00H, 'D', 00H, 'i', 00H
	DB	'G', 00H, 'e', 00H, 't', 00H, ' ', 00H, ':', 00H, ' ', 00H, 00H
	DB	00H						; `string'
CONST	ENDS
;	COMDAT xdata$x
xdata$x	SEGMENT
__unwindtable$?GetUsbDevInfo@CDviceCtrlDlgDlg@@QAEIPAXPAU_GUID@@PB_W@Z DD 0ffffffffH
	DD	FLAT:__unwindfunclet$?GetUsbDevInfo@CDviceCtrlDlgDlg@@QAEIPAXPAU_GUID@@PB_W@Z$0
	DD	00H
	DD	FLAT:__unwindfunclet$?GetUsbDevInfo@CDviceCtrlDlgDlg@@QAEIPAXPAU_GUID@@PB_W@Z$2
	DD	00H
	DD	FLAT:__unwindfunclet$?GetUsbDevInfo@CDviceCtrlDlgDlg@@QAEIPAXPAU_GUID@@PB_W@Z$3
__ehfuncinfo$?GetUsbDevInfo@CDviceCtrlDlgDlg@@QAEIPAXPAU_GUID@@PB_W@Z DD 019930522H
	DD	03H
	DD	FLAT:__unwindtable$?GetUsbDevInfo@CDviceCtrlDlgDlg@@QAEIPAXPAU_GUID@@PB_W@Z
	DD	2 DUP(00H)
	DD	2 DUP(00H)
	DD	00H
	DD	01H
; Function compile flags: /Odtp /RTCsu /ZI
xdata$x	ENDS
;	COMDAT ?GetUsbDevInfo@CDviceCtrlDlgDlg@@QAEIPAXPAU_GUID@@PB_W@Z
_TEXT	SEGMENT
tv188 = -912						; size = 4
tv186 = -912						; size = 4
tv190 = -908						; size = 4
tv184 = -908						; size = 4
tv65 = -908						; size = 4
$T236790 = -900						; size = 4
$T236791 = -888						; size = 4
$T236792 = -876						; size = 4
$T236793 = -864						; size = 4
$T236794 = -852						; size = 4
_hDevInfo$ = -648					; size = 4
_DevData$ = -636					; size = 28
_strTmp$ = -600						; size = 4
_wcBuf$ = -588						; size = 520
_nPort$ = -60						; size = 4
_nCnt$ = -48						; size = 4
_nDev$ = -36						; size = 4
_this$ = -24						; size = 4
__$ArrayPad$ = -16					; size = 4
__$EHRec$ = -12						; size = 12
_lpOutput$ = 8						; size = 4
_lpGuid$ = 12						; size = 4
_pszDevTag$ = 16					; size = 4
?GetUsbDevInfo@CDviceCtrlDlgDlg@@QAEIPAXPAU_GUID@@PB_W@Z PROC ; CDviceCtrlDlgDlg::GetUsbDevInfo, COMDAT
; _this$ = ecx

; 491  : {

  00000	55		 push	 ebp
  00001	8b ec		 mov	 ebp, esp
  00003	6a ff		 push	 -1
  00005	68 00 00 00 00	 push	 __ehhandler$?GetUsbDevInfo@CDviceCtrlDlgDlg@@QAEIPAXPAU_GUID@@PB_W@Z
  0000a	64 a1 00 00 00
	00		 mov	 eax, DWORD PTR fs:0
  00010	50		 push	 eax
  00011	81 ec 84 03 00
	00		 sub	 esp, 900		; 00000384H
  00017	53		 push	 ebx
  00018	56		 push	 esi
  00019	57		 push	 edi
  0001a	51		 push	 ecx
  0001b	8d bd 70 fc ff
	ff		 lea	 edi, DWORD PTR [ebp-912]
  00021	b9 e1 00 00 00	 mov	 ecx, 225		; 000000e1H
  00026	b8 cc cc cc cc	 mov	 eax, -858993460		; ccccccccH
  0002b	f3 ab		 rep stosd
  0002d	59		 pop	 ecx
  0002e	a1 00 00 00 00	 mov	 eax, DWORD PTR ___security_cookie
  00033	33 c5		 xor	 eax, ebp
  00035	89 45 f0	 mov	 DWORD PTR __$ArrayPad$[ebp], eax
  00038	50		 push	 eax
  00039	8d 45 f4	 lea	 eax, DWORD PTR __$EHRec$[ebp]
  0003c	64 a3 00 00 00
	00		 mov	 DWORD PTR fs:0, eax
  00042	89 4d e8	 mov	 DWORD PTR _this$[ebp], ecx

; 492  : 	int nDev=0, nCnt=0, nPort=0;

  00045	c7 45 dc 00 00
	00 00		 mov	 DWORD PTR _nDev$[ebp], 0
  0004c	c7 45 d0 00 00
	00 00		 mov	 DWORD PTR _nCnt$[ebp], 0
  00053	c7 45 c4 00 00
	00 00		 mov	 DWORD PTR _nPort$[ebp], 0

; 493  : 	wchar_t wcBuf[MAX_PATH];   
; 494  : 	CString strTmp(_T(""));

  0005a	68 00 00 00 00	 push	 OFFSET ??_C@_11LOCGONAA@?$AA?$AA@
  0005f	8d 8d a8 fd ff
	ff		 lea	 ecx, DWORD PTR _strTmp$[ebp]
  00065	e8 00 00 00 00	 call	 ??0?$CStringT@_WV?$StrTraitMFC@_WV?$ChTraitsCRT@_W@ATL@@@@@ATL@@QAE@PB_W@Z ; ATL::CStringT<wchar_t,StrTraitMFC<wchar_t,ATL::ChTraitsCRT<wchar_t> > >::CStringT<wchar_t,StrTraitMFC<wchar_t,ATL::ChTraitsCRT<wchar_t> > >
  0006a	c7 45 fc 00 00
	00 00		 mov	 DWORD PTR __$EHRec$[ebp+8], 0

; 495  : 
; 496  : 	SP_DEVINFO_DATA DevData;
; 497  : 	DevData.cbSize	= sizeof(SP_DEVINFO_DATA);

  00071	c7 85 84 fd ff
	ff 1c 00 00 00	 mov	 DWORD PTR _DevData$[ebp], 28 ; 0000001cH

; 498  : 
; 499  : 	HDEVINFO hDevInfo = ::SetupDiGetClassDevs(lpGuid, NULL, NULL, DIGCF_PRESENT|DIGCF_DEVICEINTERFACE);		

  0007b	8b f4		 mov	 esi, esp
  0007d	6a 12		 push	 18			; 00000012H
  0007f	6a 00		 push	 0
  00081	6a 00		 push	 0
  00083	8b 45 0c	 mov	 eax, DWORD PTR _lpGuid$[ebp]
  00086	50		 push	 eax
  00087	ff 15 00 00 00
	00		 call	 DWORD PTR __imp__SetupDiGetClassDevsW@16
  0008d	3b f4		 cmp	 esi, esp
  0008f	e8 00 00 00 00	 call	 __RTC_CheckEsp
  00094	89 85 78 fd ff
	ff		 mov	 DWORD PTR _hDevInfo$[ebp], eax

; 500  : 	if(hDevInfo == INVALID_HANDLE_VALUE)

  0009a	83 bd 78 fd ff
	ff ff		 cmp	 DWORD PTR _hDevInfo$[ebp], -1
  000a1	75 27		 jne	 SHORT $LN5@GetUsbDevI

; 501  : 	{
; 502  : 		return 0;

  000a3	c7 85 7c fc ff
	ff 00 00 00 00	 mov	 DWORD PTR $T236790[ebp], 0
  000ad	c7 45 fc ff ff
	ff ff		 mov	 DWORD PTR __$EHRec$[ebp+8], -1
  000b4	8d 8d a8 fd ff
	ff		 lea	 ecx, DWORD PTR _strTmp$[ebp]
  000ba	e8 00 00 00 00	 call	 ??1?$CStringT@_WV?$StrTraitMFC@_WV?$ChTraitsCRT@_W@ATL@@@@@ATL@@QAE@XZ ; ATL::CStringT<wchar_t,StrTraitMFC<wchar_t,ATL::ChTraitsCRT<wchar_t> > >::~CStringT<wchar_t,StrTraitMFC<wchar_t,ATL::ChTraitsCRT<wchar_t> > >
  000bf	8b 85 7c fc ff
	ff		 mov	 eax, DWORD PTR $T236790[ebp]
  000c5	e9 f7 01 00 00	 jmp	 $LN7@GetUsbDevI
$LN5@GetUsbDevI:

; 503  : 	}
; 504  : 
; 505  : 	for(;;)
; 506  : 	{		
; 507  : 		if(!SetupDiEnumDeviceInfo(hDevInfo, nDev, &DevData))

  000ca	8b f4		 mov	 esi, esp
  000cc	8d 85 84 fd ff
	ff		 lea	 eax, DWORD PTR _DevData$[ebp]
  000d2	50		 push	 eax
  000d3	8b 4d dc	 mov	 ecx, DWORD PTR _nDev$[ebp]
  000d6	51		 push	 ecx
  000d7	8b 95 78 fd ff
	ff		 mov	 edx, DWORD PTR _hDevInfo$[ebp]
  000dd	52		 push	 edx
  000de	ff 15 00 00 00
	00		 call	 DWORD PTR __imp__SetupDiEnumDeviceInfo@12
  000e4	3b f4		 cmp	 esi, esp
  000e6	e8 00 00 00 00	 call	 __RTC_CheckEsp
  000eb	85 c0		 test	 eax, eax
  000ed	75 05		 jne	 SHORT $LN3@GetUsbDevI

; 508  : 		{
; 509  : 			break;

  000ef	e9 96 01 00 00	 jmp	 $LN4@GetUsbDevI
$LN3@GetUsbDevI:

; 510  : 		}
; 511  : 
; 512  : 		if(SetupDiGetDeviceRegistryProperty(hDevInfo, &DevData,
; 513  : 			SPDRP_FRIENDLYNAME,NULL,(PBYTE)wcBuf,MAX_PATH,NULL)) 

  000f4	8b f4		 mov	 esi, esp
  000f6	6a 00		 push	 0
  000f8	68 04 01 00 00	 push	 260			; 00000104H
  000fd	8d 85 b4 fd ff
	ff		 lea	 eax, DWORD PTR _wcBuf$[ebp]
  00103	50		 push	 eax
  00104	6a 00		 push	 0
  00106	6a 0c		 push	 12			; 0000000cH
  00108	8d 8d 84 fd ff
	ff		 lea	 ecx, DWORD PTR _DevData$[ebp]
  0010e	51		 push	 ecx
  0010f	8b 95 78 fd ff
	ff		 mov	 edx, DWORD PTR _hDevInfo$[ebp]
  00115	52		 push	 edx
  00116	ff 15 00 00 00
	00		 call	 DWORD PTR __imp__SetupDiGetDeviceRegistryPropertyW@28
  0011c	3b f4		 cmp	 esi, esp
  0011e	e8 00 00 00 00	 call	 __RTC_CheckEsp
  00123	85 c0		 test	 eax, eax
  00125	0f 84 51 01 00
	00		 je	 $LN2@GetUsbDevI

; 514  : 		{   
; 515  : 			strTmp = wcBuf;			

  0012b	8d 85 b4 fd ff
	ff		 lea	 eax, DWORD PTR _wcBuf$[ebp]
  00131	50		 push	 eax
  00132	8d 8d a8 fd ff
	ff		 lea	 ecx, DWORD PTR _strTmp$[ebp]
  00138	e8 00 00 00 00	 call	 ??4?$CStringT@_WV?$StrTraitMFC@_WV?$ChTraitsCRT@_W@ATL@@@@@ATL@@QAEAAV01@PB_W@Z ; ATL::CStringT<wchar_t,StrTraitMFC<wchar_t,ATL::ChTraitsCRT<wchar_t> > >::operator=

; 516  : 			if(-1 != strTmp.Find(pszDevTag))

  0013d	6a 00		 push	 0
  0013f	8b 45 10	 mov	 eax, DWORD PTR _pszDevTag$[ebp]
  00142	50		 push	 eax
  00143	8d 8d a8 fd ff
	ff		 lea	 ecx, DWORD PTR _strTmp$[ebp]
  00149	e8 00 00 00 00	 call	 ?Find@?$CStringT@_WV?$StrTraitMFC@_WV?$ChTraitsCRT@_W@ATL@@@@@ATL@@QBEHPB_WH@Z ; ATL::CStringT<wchar_t,StrTraitMFC<wchar_t,ATL::ChTraitsCRT<wchar_t> > >::Find
  0014e	83 f8 ff	 cmp	 eax, -1
  00151	0f 84 25 01 00
	00		 je	 $LN2@GetUsbDevI

; 517  : 			{	
; 518  : 				//nCnt ++;
; 519  : 
; 520  : 				OutputDebugString(L"SetupDiGet : " + strTmp); // 20140911

  00157	8d 85 a8 fd ff
	ff		 lea	 eax, DWORD PTR _strTmp$[ebp]
  0015d	50		 push	 eax
  0015e	68 00 00 00 00	 push	 OFFSET ??_C@_1BM@OOGAOCDN@?$AAS?$AAe?$AAt?$AAu?$AAp?$AAD?$AAi?$AAG?$AAe?$AAt?$AA?5?$AA?3?$AA?5?$AA?$AA@
  00163	8d 8d 88 fc ff
	ff		 lea	 ecx, DWORD PTR $T236791[ebp]
  00169	51		 push	 ecx
  0016a	e8 00 00 00 00	 call	 ??HATL@@YA?AV?$CStringT@_WV?$StrTraitMFC@_WV?$ChTraitsCRT@_W@ATL@@@@@0@PB_WABV10@@Z ; ATL::operator+
  0016f	83 c4 0c	 add	 esp, 12			; 0000000cH
  00172	89 85 74 fc ff
	ff		 mov	 DWORD PTR tv184[ebp], eax
  00178	8b 8d 74 fc ff
	ff		 mov	 ecx, DWORD PTR tv184[ebp]
  0017e	e8 00 00 00 00	 call	 ??B?$CSimpleStringT@_W$0A@@ATL@@QBEPB_WXZ ; ATL::CSimpleStringT<wchar_t,0>::operator wchar_t const *
  00183	8b f4		 mov	 esi, esp
  00185	50		 push	 eax
  00186	ff 15 00 00 00
	00		 call	 DWORD PTR __imp__OutputDebugStringW@4
  0018c	3b f4		 cmp	 esi, esp
  0018e	e8 00 00 00 00	 call	 __RTC_CheckEsp
  00193	8d 8d 88 fc ff
	ff		 lea	 ecx, DWORD PTR $T236791[ebp]
  00199	e8 00 00 00 00	 call	 ??1?$CStringT@_WV?$StrTraitMFC@_WV?$ChTraitsCRT@_W@ATL@@@@@ATL@@QAE@XZ ; ATL::CStringT<wchar_t,StrTraitMFC<wchar_t,ATL::ChTraitsCRT<wchar_t> > >::~CStringT<wchar_t,StrTraitMFC<wchar_t,ATL::ChTraitsCRT<wchar_t> > >

; 521  : 
; 522  : 				strTmp = strTmp.Right(strTmp.GetLength() -(strTmp.Find(_T("(COM")) +4) );

  0019e	8d 8d a8 fd ff
	ff		 lea	 ecx, DWORD PTR _strTmp$[ebp]
  001a4	e8 00 00 00 00	 call	 ?GetLength@?$CSimpleStringT@_W$0A@@ATL@@QBEHXZ ; ATL::CSimpleStringT<wchar_t,0>::GetLength
  001a9	8b f0		 mov	 esi, eax
  001ab	6a 00		 push	 0
  001ad	68 00 00 00 00	 push	 OFFSET ??_C@_19HAJNCJPK@?$AA?$CI?$AAC?$AAO?$AAM?$AA?$AA@
  001b2	8d 8d a8 fd ff
	ff		 lea	 ecx, DWORD PTR _strTmp$[ebp]
  001b8	e8 00 00 00 00	 call	 ?Find@?$CStringT@_WV?$StrTraitMFC@_WV?$ChTraitsCRT@_W@ATL@@@@@ATL@@QBEHPB_WH@Z ; ATL::CStringT<wchar_t,StrTraitMFC<wchar_t,ATL::ChTraitsCRT<wchar_t> > >::Find
  001bd	83 c0 04	 add	 eax, 4
  001c0	2b f0		 sub	 esi, eax
  001c2	56		 push	 esi
  001c3	8d 85 94 fc ff
	ff		 lea	 eax, DWORD PTR $T236792[ebp]
  001c9	50		 push	 eax
  001ca	8d 8d a8 fd ff
	ff		 lea	 ecx, DWORD PTR _strTmp$[ebp]
  001d0	e8 00 00 00 00	 call	 ?Right@?$CStringT@_WV?$StrTraitMFC@_WV?$ChTraitsCRT@_W@ATL@@@@@ATL@@QBE?AV12@H@Z ; ATL::CStringT<wchar_t,StrTraitMFC<wchar_t,ATL::ChTraitsCRT<wchar_t> > >::Right
  001d5	89 85 74 fc ff
	ff		 mov	 DWORD PTR tv65[ebp], eax
  001db	8b 8d 74 fc ff
	ff		 mov	 ecx, DWORD PTR tv65[ebp]
  001e1	89 8d 70 fc ff
	ff		 mov	 DWORD PTR tv186[ebp], ecx
  001e7	c6 45 fc 01	 mov	 BYTE PTR __$EHRec$[ebp+8], 1
  001eb	8b 95 70 fc ff
	ff		 mov	 edx, DWORD PTR tv186[ebp]
  001f1	52		 push	 edx
  001f2	8d 8d a8 fd ff
	ff		 lea	 ecx, DWORD PTR _strTmp$[ebp]
  001f8	e8 00 00 00 00	 call	 ??4?$CStringT@_WV?$StrTraitMFC@_WV?$ChTraitsCRT@_W@ATL@@@@@ATL@@QAEAAV01@ABV01@@Z ; ATL::CStringT<wchar_t,StrTraitMFC<wchar_t,ATL::ChTraitsCRT<wchar_t> > >::operator=
  001fd	c6 45 fc 00	 mov	 BYTE PTR __$EHRec$[ebp+8], 0
  00201	8d 8d 94 fc ff
	ff		 lea	 ecx, DWORD PTR $T236792[ebp]
  00207	e8 00 00 00 00	 call	 ??1?$CStringT@_WV?$StrTraitMFC@_WV?$ChTraitsCRT@_W@ATL@@@@@ATL@@QAE@XZ ; ATL::CStringT<wchar_t,StrTraitMFC<wchar_t,ATL::ChTraitsCRT<wchar_t> > >::~CStringT<wchar_t,StrTraitMFC<wchar_t,ATL::ChTraitsCRT<wchar_t> > >

; 523  : 				strTmp = strTmp.Left(strTmp.ReverseFind(')'));

  0020c	6a 29		 push	 41			; 00000029H
  0020e	8d 8d a8 fd ff
	ff		 lea	 ecx, DWORD PTR _strTmp$[ebp]
  00214	e8 00 00 00 00	 call	 ?ReverseFind@?$CStringT@_WV?$StrTraitMFC@_WV?$ChTraitsCRT@_W@ATL@@@@@ATL@@QBEH_W@Z ; ATL::CStringT<wchar_t,StrTraitMFC<wchar_t,ATL::ChTraitsCRT<wchar_t> > >::ReverseFind
  00219	50		 push	 eax
  0021a	8d 85 a0 fc ff
	ff		 lea	 eax, DWORD PTR $T236793[ebp]
  00220	50		 push	 eax
  00221	8d 8d a8 fd ff
	ff		 lea	 ecx, DWORD PTR _strTmp$[ebp]
  00227	e8 00 00 00 00	 call	 ?Left@?$CStringT@_WV?$StrTraitMFC@_WV?$ChTraitsCRT@_W@ATL@@@@@ATL@@QBE?AV12@H@Z ; ATL::CStringT<wchar_t,StrTraitMFC<wchar_t,ATL::ChTraitsCRT<wchar_t> > >::Left
  0022c	89 85 74 fc ff
	ff		 mov	 DWORD PTR tv190[ebp], eax
  00232	8b 8d 74 fc ff
	ff		 mov	 ecx, DWORD PTR tv190[ebp]
  00238	89 8d 70 fc ff
	ff		 mov	 DWORD PTR tv188[ebp], ecx
  0023e	c6 45 fc 02	 mov	 BYTE PTR __$EHRec$[ebp+8], 2
  00242	8b 95 70 fc ff
	ff		 mov	 edx, DWORD PTR tv188[ebp]
  00248	52		 push	 edx
  00249	8d 8d a8 fd ff
	ff		 lea	 ecx, DWORD PTR _strTmp$[ebp]
  0024f	e8 00 00 00 00	 call	 ??4?$CStringT@_WV?$StrTraitMFC@_WV?$ChTraitsCRT@_W@ATL@@@@@ATL@@QAEAAV01@ABV01@@Z ; ATL::CStringT<wchar_t,StrTraitMFC<wchar_t,ATL::ChTraitsCRT<wchar_t> > >::operator=
  00254	c6 45 fc 00	 mov	 BYTE PTR __$EHRec$[ebp+8], 0
  00258	8d 8d a0 fc ff
	ff		 lea	 ecx, DWORD PTR $T236793[ebp]
  0025e	e8 00 00 00 00	 call	 ??1?$CStringT@_WV?$StrTraitMFC@_WV?$ChTraitsCRT@_W@ATL@@@@@ATL@@QAE@XZ ; ATL::CStringT<wchar_t,StrTraitMFC<wchar_t,ATL::ChTraitsCRT<wchar_t> > >::~CStringT<wchar_t,StrTraitMFC<wchar_t,ATL::ChTraitsCRT<wchar_t> > >

; 524  : 
; 525  : 				nPort = _ttoi(strTmp);

  00263	8d 8d a8 fd ff
	ff		 lea	 ecx, DWORD PTR _strTmp$[ebp]
  00269	e8 00 00 00 00	 call	 ??B?$CSimpleStringT@_W$0A@@ATL@@QBEPB_WXZ ; ATL::CSimpleStringT<wchar_t,0>::operator wchar_t const *
  0026e	50		 push	 eax
  0026f	e8 00 00 00 00	 call	 __wtoi
  00274	83 c4 04	 add	 esp, 4
  00277	89 45 c4	 mov	 DWORD PTR _nPort$[ebp], eax

; 526  : 
; 527  : 				break;

  0027a	eb 0e		 jmp	 SHORT $LN4@GetUsbDevI
$LN2@GetUsbDevI:

; 528  : 			}
; 529  : 		} 
; 530  : 		nDev+=1;		

  0027c	8b 45 dc	 mov	 eax, DWORD PTR _nDev$[ebp]
  0027f	83 c0 01	 add	 eax, 1
  00282	89 45 dc	 mov	 DWORD PTR _nDev$[ebp], eax

; 531  : 	}

  00285	e9 40 fe ff ff	 jmp	 $LN5@GetUsbDevI
$LN4@GetUsbDevI:

; 532  : 
; 533  : 	::SetupDiDestroyDeviceInfoList(hDevInfo);

  0028a	8b f4		 mov	 esi, esp
  0028c	8b 85 78 fd ff
	ff		 mov	 eax, DWORD PTR _hDevInfo$[ebp]
  00292	50		 push	 eax
  00293	ff 15 00 00 00
	00		 call	 DWORD PTR __imp__SetupDiDestroyDeviceInfoList@4
  00299	3b f4		 cmp	 esi, esp
  0029b	e8 00 00 00 00	 call	 __RTC_CheckEsp

; 534  : 
; 535  : 	return nPort;

  002a0	8b 45 c4	 mov	 eax, DWORD PTR _nPort$[ebp]
  002a3	89 85 ac fc ff
	ff		 mov	 DWORD PTR $T236794[ebp], eax
  002a9	c7 45 fc ff ff
	ff ff		 mov	 DWORD PTR __$EHRec$[ebp+8], -1
  002b0	8d 8d a8 fd ff
	ff		 lea	 ecx, DWORD PTR _strTmp$[ebp]
  002b6	e8 00 00 00 00	 call	 ??1?$CStringT@_WV?$StrTraitMFC@_WV?$ChTraitsCRT@_W@ATL@@@@@ATL@@QAE@XZ ; ATL::CStringT<wchar_t,StrTraitMFC<wchar_t,ATL::ChTraitsCRT<wchar_t> > >::~CStringT<wchar_t,StrTraitMFC<wchar_t,ATL::ChTraitsCRT<wchar_t> > >
  002bb	8b 85 ac fc ff
	ff		 mov	 eax, DWORD PTR $T236794[ebp]
$LN7@GetUsbDevI:

; 536  : }

  002c1	52		 push	 edx
  002c2	8b cd		 mov	 ecx, ebp
  002c4	50		 push	 eax
  002c5	8d 15 00 00 00
	00		 lea	 edx, DWORD PTR $LN18@GetUsbDevI
  002cb	e8 00 00 00 00	 call	 @_RTC_CheckStackVars@8
  002d0	58		 pop	 eax
  002d1	5a		 pop	 edx
  002d2	8b 4d f4	 mov	 ecx, DWORD PTR __$EHRec$[ebp]
  002d5	64 89 0d 00 00
	00 00		 mov	 DWORD PTR fs:0, ecx
  002dc	59		 pop	 ecx
  002dd	5f		 pop	 edi
  002de	5e		 pop	 esi
  002df	5b		 pop	 ebx
  002e0	8b 4d f0	 mov	 ecx, DWORD PTR __$ArrayPad$[ebp]
  002e3	33 cd		 xor	 ecx, ebp
  002e5	e8 00 00 00 00	 call	 @__security_check_cookie@4
  002ea	81 c4 90 03 00
	00		 add	 esp, 912		; 00000390H
  002f0	3b ec		 cmp	 ebp, esp
  002f2	e8 00 00 00 00	 call	 __RTC_CheckEsp
  002f7	8b e5		 mov	 esp, ebp
  002f9	5d		 pop	 ebp
  002fa	c2 0c 00	 ret	 12			; 0000000cH
  002fd	8d 49 00	 npad	 3
$LN18@GetUsbDevI:
  00300	03 00 00 00	 DD	 3
  00304	00 00 00 00	 DD	 $LN17@GetUsbDevI
$LN17@GetUsbDevI:
  00308	b4 fd ff ff	 DD	 -588			; fffffdb4H
  0030c	08 02 00 00	 DD	 520			; 00000208H
  00310	00 00 00 00	 DD	 $LN13@GetUsbDevI
  00314	a8 fd ff ff	 DD	 -600			; fffffda8H
  00318	04 00 00 00	 DD	 4
  0031c	00 00 00 00	 DD	 $LN14@GetUsbDevI
  00320	84 fd ff ff	 DD	 -636			; fffffd84H
  00324	1c 00 00 00	 DD	 28			; 0000001cH
  00328	00 00 00 00	 DD	 $LN15@GetUsbDevI
$LN15@GetUsbDevI:
  0032c	44		 DB	 68			; 00000044H
  0032d	65		 DB	 101			; 00000065H
  0032e	76		 DB	 118			; 00000076H
  0032f	44		 DB	 68			; 00000044H
  00330	61		 DB	 97			; 00000061H
  00331	74		 DB	 116			; 00000074H
  00332	61		 DB	 97			; 00000061H
  00333	00		 DB	 0
$LN14@GetUsbDevI:
  00334	73		 DB	 115			; 00000073H
  00335	74		 DB	 116			; 00000074H
  00336	72		 DB	 114			; 00000072H
  00337	54		 DB	 84			; 00000054H
  00338	6d		 DB	 109			; 0000006dH
  00339	70		 DB	 112			; 00000070H
  0033a	00		 DB	 0
$LN13@GetUsbDevI:
  0033b	77		 DB	 119			; 00000077H
  0033c	63		 DB	 99			; 00000063H
  0033d	42		 DB	 66			; 00000042H
  0033e	75		 DB	 117			; 00000075H
  0033f	66		 DB	 102			; 00000066H
  00340	00		 DB	 0
_TEXT	ENDS
;	COMDAT text$x
text$x	SEGMENT
__unwindfunclet$?GetUsbDevInfo@CDviceCtrlDlgDlg@@QAEIPAXPAU_GUID@@PB_W@Z$0:
  00000	8d 8d a8 fd ff
	ff		 lea	 ecx, DWORD PTR _strTmp$[ebp]
  00006	e9 00 00 00 00	 jmp	 ??1?$CStringT@_WV?$StrTraitMFC@_WV?$ChTraitsCRT@_W@ATL@@@@@ATL@@QAE@XZ ; ATL::CStringT<wchar_t,StrTraitMFC<wchar_t,ATL::ChTraitsCRT<wchar_t> > >::~CStringT<wchar_t,StrTraitMFC<wchar_t,ATL::ChTraitsCRT<wchar_t> > >
__unwindfunclet$?GetUsbDevInfo@CDviceCtrlDlgDlg@@QAEIPAXPAU_GUID@@PB_W@Z$2:
  0000b	8d 8d 94 fc ff
	ff		 lea	 ecx, DWORD PTR $T236792[ebp]
  00011	e9 00 00 00 00	 jmp	 ??1?$CStringT@_WV?$StrTraitMFC@_WV?$ChTraitsCRT@_W@ATL@@@@@ATL@@QAE@XZ ; ATL::CStringT<wchar_t,StrTraitMFC<wchar_t,ATL::ChTraitsCRT<wchar_t> > >::~CStringT<wchar_t,StrTraitMFC<wchar_t,ATL::ChTraitsCRT<wchar_t> > >
__unwindfunclet$?GetUsbDevInfo@CDviceCtrlDlgDlg@@QAEIPAXPAU_GUID@@PB_W@Z$3:
  00016	8d 8d a0 fc ff
	ff		 lea	 ecx, DWORD PTR $T236793[ebp]
  0001c	e9 00 00 00 00	 jmp	 ??1?$CStringT@_WV?$StrTraitMFC@_WV?$ChTraitsCRT@_W@ATL@@@@@ATL@@QAE@XZ ; ATL::CStringT<wchar_t,StrTraitMFC<wchar_t,ATL::ChTraitsCRT<wchar_t> > >::~CStringT<wchar_t,StrTraitMFC<wchar_t,ATL::ChTraitsCRT<wchar_t> > >
__ehhandler$?GetUsbDevInfo@CDviceCtrlDlgDlg@@QAEIPAXPAU_GUID@@PB_W@Z:
  00021	8b 54 24 08	 mov	 edx, DWORD PTR [esp+8]
  00025	8d 42 0c	 lea	 eax, DWORD PTR [edx+12]
  00028	8b 8a 6c fc ff
	ff		 mov	 ecx, DWORD PTR [edx-916]
  0002e	33 c8		 xor	 ecx, eax
  00030	e8 00 00 00 00	 call	 @__security_check_cookie@4
  00035	8b 4a fc	 mov	 ecx, DWORD PTR [edx-4]
  00038	33 c8		 xor	 ecx, eax
  0003a	e8 00 00 00 00	 call	 @__security_check_cookie@4
  0003f	b8 00 00 00 00	 mov	 eax, OFFSET __ehfuncinfo$?GetUsbDevInfo@CDviceCtrlDlgDlg@@QAEIPAXPAU_GUID@@PB_W@Z
  00044	e9 00 00 00 00	 jmp	 ___CxxFrameHandler3
text$x	ENDS
?GetUsbDevInfo@CDviceCtrlDlgDlg@@QAEIPAXPAU_GUID@@PB_W@Z ENDP ; CDviceCtrlDlgDlg::GetUsbDevInfo
PUBLIC	?pow@@YANNH@Z					; pow
PUBLIC	__real@4024000000000000
PUBLIC	?GetPortValue@CDviceCtrlDlgDlg@@QAEHPA_WAAH@Z	; CDviceCtrlDlgDlg::GetPortValue
EXTRN	__fltused:DWORD
EXTRN	__ftol2_sse:PROC
;	COMDAT __real@4024000000000000
CONST	SEGMENT
__real@4024000000000000 DQ 04024000000000000r	; 10
; Function compile flags: /Odtp /RTCsu /ZI
CONST	ENDS
;	COMDAT ?GetPortValue@CDviceCtrlDlgDlg@@QAEHPA_WAAH@Z
_TEXT	SEGMENT
tv144 = -252						; size = 8
tv131 = -244						; size = 4
_i$232670 = -44						; size = 4
_iPortLen$ = -32					; size = 4
_iNameLen$ = -20					; size = 4
_this$ = -8						; size = 4
_ucPortName$ = 8					; size = 4
_iPortValue$ = 12					; size = 4
?GetPortValue@CDviceCtrlDlgDlg@@QAEHPA_WAAH@Z PROC	; CDviceCtrlDlgDlg::GetPortValue, COMDAT
; _this$ = ecx

; 542  : {

  00000	55		 push	 ebp
  00001	8b ec		 mov	 ebp, esp
  00003	81 ec fc 00 00
	00		 sub	 esp, 252		; 000000fcH
  00009	53		 push	 ebx
  0000a	56		 push	 esi
  0000b	57		 push	 edi
  0000c	51		 push	 ecx
  0000d	8d bd 04 ff ff
	ff		 lea	 edi, DWORD PTR [ebp-252]
  00013	b9 3f 00 00 00	 mov	 ecx, 63			; 0000003fH
  00018	b8 cc cc cc cc	 mov	 eax, -858993460		; ccccccccH
  0001d	f3 ab		 rep stosd
  0001f	59		 pop	 ecx
  00020	89 4d f8	 mov	 DWORD PTR _this$[ebp], ecx

; 543  : 	if(ucPortName == NULL)

  00023	83 7d 08 00	 cmp	 DWORD PTR _ucPortName$[ebp], 0
  00027	75 07		 jne	 SHORT $LN7@GetPortVal

; 544  : 	{
; 545  : 		return FALSE;

  00029	33 c0		 xor	 eax, eax
  0002b	e9 a5 00 00 00	 jmp	 $LN8@GetPortVal
$LN7@GetPortVal:

; 546  : 	}
; 547  : 
; 548  : 	int iNameLen=0;

  00030	c7 45 ec 00 00
	00 00		 mov	 DWORD PTR _iNameLen$[ebp], 0
  00037	eb 09		 jmp	 SHORT $LN6@GetPortVal
$LN5@GetPortVal:

; 549  : 	for(; ucPortName[iNameLen] != 0x00; iNameLen++)

  00039	8b 45 ec	 mov	 eax, DWORD PTR _iNameLen$[ebp]
  0003c	83 c0 01	 add	 eax, 1
  0003f	89 45 ec	 mov	 DWORD PTR _iNameLen$[ebp], eax
$LN6@GetPortVal:
  00042	8b 45 ec	 mov	 eax, DWORD PTR _iNameLen$[ebp]
  00045	8b 4d 08	 mov	 ecx, DWORD PTR _ucPortName$[ebp]
  00048	0f b7 14 41	 movzx	 edx, WORD PTR [ecx+eax*2]
  0004c	85 d2		 test	 edx, edx
  0004e	74 02		 je	 SHORT $LN4@GetPortVal

; 550  : 		;

  00050	eb e7		 jmp	 SHORT $LN5@GetPortVal
$LN4@GetPortVal:

; 551  : 
; 552  : 	int iPortLen = iNameLen - 3;

  00052	8b 45 ec	 mov	 eax, DWORD PTR _iNameLen$[ebp]
  00055	83 e8 03	 sub	 eax, 3
  00058	89 45 e0	 mov	 DWORD PTR _iPortLen$[ebp], eax

; 553  : 
; 554  : 	iPortValue = 0;

  0005b	8b 45 0c	 mov	 eax, DWORD PTR _iPortValue$[ebp]
  0005e	c7 00 00 00 00
	00		 mov	 DWORD PTR [eax], 0

; 555  : 	for(int i=0; i<iPortLen; i++)

  00064	c7 45 d4 00 00
	00 00		 mov	 DWORD PTR _i$232670[ebp], 0
  0006b	eb 09		 jmp	 SHORT $LN3@GetPortVal
$LN2@GetPortVal:
  0006d	8b 45 d4	 mov	 eax, DWORD PTR _i$232670[ebp]
  00070	83 c0 01	 add	 eax, 1
  00073	89 45 d4	 mov	 DWORD PTR _i$232670[ebp], eax
$LN3@GetPortVal:
  00076	8b 45 d4	 mov	 eax, DWORD PTR _i$232670[ebp]
  00079	3b 45 e0	 cmp	 eax, DWORD PTR _iPortLen$[ebp]
  0007c	7d 55		 jge	 SHORT $LN1@GetPortVal

; 556  : 	{
; 557  : 		iPortValue += ((int)((ucPortName[3+i] - 0x30) * pow(10.0, iPortLen - i - 1)));

  0007e	8b 45 d4	 mov	 eax, DWORD PTR _i$232670[ebp]
  00081	8b 4d 08	 mov	 ecx, DWORD PTR _ucPortName$[ebp]
  00084	0f b7 54 41 06	 movzx	 edx, WORD PTR [ecx+eax*2+6]
  00089	83 ea 30	 sub	 edx, 48			; 00000030H
  0008c	89 95 0c ff ff
	ff		 mov	 DWORD PTR tv131[ebp], edx
  00092	db 85 0c ff ff
	ff		 fild	 DWORD PTR tv131[ebp]
  00098	8b 45 e0	 mov	 eax, DWORD PTR _iPortLen$[ebp]
  0009b	2b 45 d4	 sub	 eax, DWORD PTR _i$232670[ebp]
  0009e	83 e8 01	 sub	 eax, 1
  000a1	50		 push	 eax
  000a2	83 ec 08	 sub	 esp, 8
  000a5	dd 05 00 00 00
	00		 fld	 QWORD PTR __real@4024000000000000
  000ab	dd 1c 24	 fstp	 QWORD PTR [esp]
  000ae	dd 9d 04 ff ff
	ff		 fstp	 QWORD PTR tv144[ebp]
  000b4	e8 00 00 00 00	 call	 ?pow@@YANNH@Z		; pow
  000b9	83 c4 0c	 add	 esp, 12			; 0000000cH
  000bc	dc 8d 04 ff ff
	ff		 fmul	 QWORD PTR tv144[ebp]
  000c2	e8 00 00 00 00	 call	 __ftol2_sse
  000c7	8b 4d 0c	 mov	 ecx, DWORD PTR _iPortValue$[ebp]
  000ca	03 01		 add	 eax, DWORD PTR [ecx]
  000cc	8b 55 0c	 mov	 edx, DWORD PTR _iPortValue$[ebp]
  000cf	89 02		 mov	 DWORD PTR [edx], eax

; 558  : 	}

  000d1	eb 9a		 jmp	 SHORT $LN2@GetPortVal
$LN1@GetPortVal:

; 559  : 
; 560  : 	return 0;

  000d3	33 c0		 xor	 eax, eax
$LN8@GetPortVal:

; 561  : }

  000d5	5f		 pop	 edi
  000d6	5e		 pop	 esi
  000d7	5b		 pop	 ebx
  000d8	81 c4 fc 00 00
	00		 add	 esp, 252		; 000000fcH
  000de	3b ec		 cmp	 ebp, esp
  000e0	e8 00 00 00 00	 call	 __RTC_CheckEsp
  000e5	8b e5		 mov	 esp, ebp
  000e7	5d		 pop	 ebp
  000e8	c2 08 00	 ret	 8
?GetPortValue@CDviceCtrlDlgDlg@@QAEHPA_WAAH@Z ENDP	; CDviceCtrlDlgDlg::GetPortValue
_TEXT	ENDS
PUBLIC	??$_Pow_int@N@@YANNH@Z				; _Pow_int<double>
; Function compile flags: /Odtp /RTCsu /ZI
; File c:\program files\microsoft visual studio 10.0\vc\include\math.h
;	COMDAT ?pow@@YANNH@Z
_TEXT	SEGMENT
__X$ = 8						; size = 8
__Y$ = 16						; size = 4
?pow@@YANNH@Z PROC					; pow, COMDAT

; 498  :         {return (_Pow_int(_X, _Y)); }

  00000	55		 push	 ebp
  00001	8b ec		 mov	 ebp, esp
  00003	81 ec c0 00 00
	00		 sub	 esp, 192		; 000000c0H
  00009	53		 push	 ebx
  0000a	56		 push	 esi
  0000b	57		 push	 edi
  0000c	8d bd 40 ff ff
	ff		 lea	 edi, DWORD PTR [ebp-192]
  00012	b9 30 00 00 00	 mov	 ecx, 48			; 00000030H
  00017	b8 cc cc cc cc	 mov	 eax, -858993460		; ccccccccH
  0001c	f3 ab		 rep stosd
  0001e	8b 45 10	 mov	 eax, DWORD PTR __Y$[ebp]
  00021	50		 push	 eax
  00022	83 ec 08	 sub	 esp, 8
  00025	dd 45 08	 fld	 QWORD PTR __X$[ebp]
  00028	dd 1c 24	 fstp	 QWORD PTR [esp]
  0002b	e8 00 00 00 00	 call	 ??$_Pow_int@N@@YANNH@Z	; _Pow_int<double>
  00030	83 c4 0c	 add	 esp, 12			; 0000000cH
  00033	5f		 pop	 edi
  00034	5e		 pop	 esi
  00035	5b		 pop	 ebx
  00036	81 c4 c0 00 00
	00		 add	 esp, 192		; 000000c0H
  0003c	3b ec		 cmp	 ebp, esp
  0003e	e8 00 00 00 00	 call	 __RTC_CheckEsp
  00043	8b e5		 mov	 esp, ebp
  00045	5d		 pop	 ebp
  00046	c3		 ret	 0
?pow@@YANNH@Z ENDP					; pow
_TEXT	ENDS
PUBLIC	??_C@_1DO@LFKPKOGB@?$AAH?$AAA?$AAR?$AAD?$AAW?$AAA?$AAR?$AAE?$AA?2?$AAD?$AAE?$AAV?$AAI?$AAC?$AAE?$AAM?$AAA?$AAP?$AA?2?$AAS?$AAE?$AAR?$AAI?$AAA?$AAL?$AAC?$AAO?$AAM?$AAM?$AA?2?$AA?$AA@ ; `string'
PUBLIC	__$ArrayPad$
PUBLIC	?DC_EnumCommPort@CDviceCtrlDlgDlg@@QAEHPAHAAH@Z	; CDviceCtrlDlgDlg::DC_EnumCommPort
EXTRN	__imp__RegCloseKey@4:PROC
EXTRN	__imp__RegEnumValueW@32:PROC
EXTRN	__imp__RegOpenKeyExW@20:PROC
EXTRN	_memset:PROC
;	COMDAT ??_C@_1DO@LFKPKOGB@?$AAH?$AAA?$AAR?$AAD?$AAW?$AAA?$AAR?$AAE?$AA?2?$AAD?$AAE?$AAV?$AAI?$AAC?$AAE?$AAM?$AAA?$AAP?$AA?2?$AAS?$AAE?$AAR?$AAI?$AAA?$AAL?$AAC?$AAO?$AAM?$AAM?$AA?2?$AA?$AA@
; File e:\cz\vs\dvicectrldlg_new_signal_1\dvicectrldlgdlg.cpp
CONST	SEGMENT
??_C@_1DO@LFKPKOGB@?$AAH?$AAA?$AAR?$AAD?$AAW?$AAA?$AAR?$AAE?$AA?2?$AAD?$AAE?$AAV?$AAI?$AAC?$AAE?$AAM?$AAA?$AAP?$AA?2?$AAS?$AAE?$AAR?$AAI?$AAA?$AAL?$AAC?$AAO?$AAM?$AAM?$AA?2?$AA?$AA@ DB 'H'
	DB	00H, 'A', 00H, 'R', 00H, 'D', 00H, 'W', 00H, 'A', 00H, 'R', 00H
	DB	'E', 00H, '\', 00H, 'D', 00H, 'E', 00H, 'V', 00H, 'I', 00H, 'C'
	DB	00H, 'E', 00H, 'M', 00H, 'A', 00H, 'P', 00H, '\', 00H, 'S', 00H
	DB	'E', 00H, 'R', 00H, 'I', 00H, 'A', 00H, 'L', 00H, 'C', 00H, 'O'
	DB	00H, 'M', 00H, 'M', 00H, '\', 00H, 00H, 00H	; `string'
; Function compile flags: /Odtp /RTCsu /ZI
CONST	ENDS
;	COMDAT ?DC_EnumCommPort@CDviceCtrlDlgDlg@@QAEHPAHAAH@Z
_TEXT	SEGMENT
tv86 = -824						; size = 4
_iPortValue$232700 = -624				; size = 4
_dwType$ = -612						; size = 4
_dwIndex$ = -600					; size = 4
_dwSize$ = -588						; size = 4
_dwLong$ = -576						; size = 4
_SerialPortName$ = -564					; size = 256
_RegKeyName$ = -300					; size = 256
_lRet$ = -36						; size = 4
_hKey$ = -24						; size = 4
_this$ = -12						; size = 4
__$ArrayPad$ = -4					; size = 4
_bPortList$ = 8						; size = 4
_iPortNum$ = 12						; size = 4
?DC_EnumCommPort@CDviceCtrlDlgDlg@@QAEHPAHAAH@Z PROC	; CDviceCtrlDlgDlg::DC_EnumCommPort, COMDAT
; _this$ = ecx

; 565  : {

  00000	55		 push	 ebp
  00001	8b ec		 mov	 ebp, esp
  00003	81 ec 38 03 00
	00		 sub	 esp, 824		; 00000338H
  00009	53		 push	 ebx
  0000a	56		 push	 esi
  0000b	57		 push	 edi
  0000c	51		 push	 ecx
  0000d	8d bd c8 fc ff
	ff		 lea	 edi, DWORD PTR [ebp-824]
  00013	b9 ce 00 00 00	 mov	 ecx, 206		; 000000ceH
  00018	b8 cc cc cc cc	 mov	 eax, -858993460		; ccccccccH
  0001d	f3 ab		 rep stosd
  0001f	59		 pop	 ecx
  00020	a1 00 00 00 00	 mov	 eax, DWORD PTR ___security_cookie
  00025	33 c5		 xor	 eax, ebp
  00027	89 45 fc	 mov	 DWORD PTR __$ArrayPad$[ebp], eax
  0002a	89 4d f4	 mov	 DWORD PTR _this$[ebp], ecx

; 566  : 	HKEY hKey;
; 567  : 
; 568  : 	if(bPortList == NULL)

  0002d	83 7d 08 00	 cmp	 DWORD PTR _bPortList$[ebp], 0
  00031	75 07		 jne	 SHORT $LN8@DC_EnumCom

; 569  : 	{
; 570  : 		return FALSE;

  00033	33 c0		 xor	 eax, eax
  00035	e9 a2 01 00 00	 jmp	 $LN9@DC_EnumCom
$LN8@DC_EnumCom:

; 571  : 	}
; 572  : 
; 573  : 	long lRet = RegOpenKeyEx(HKEY_LOCAL_MACHINE, _T("HARDWARE\\DEVICEMAP\\SERIALCOMM\\"), 0, KEY_READ, &hKey);

  0003a	8b f4		 mov	 esi, esp
  0003c	8d 45 e8	 lea	 eax, DWORD PTR _hKey$[ebp]
  0003f	50		 push	 eax
  00040	68 19 00 02 00	 push	 131097			; 00020019H
  00045	6a 00		 push	 0
  00047	68 00 00 00 00	 push	 OFFSET ??_C@_1DO@LFKPKOGB@?$AAH?$AAA?$AAR?$AAD?$AAW?$AAA?$AAR?$AAE?$AA?2?$AAD?$AAE?$AAV?$AAI?$AAC?$AAE?$AAM?$AAA?$AAP?$AA?2?$AAS?$AAE?$AAR?$AAI?$AAA?$AAL?$AAC?$AAO?$AAM?$AAM?$AA?2?$AA?$AA@
  0004c	68 02 00 00 80	 push	 -2147483646		; 80000002H
  00051	ff 15 00 00 00
	00		 call	 DWORD PTR __imp__RegOpenKeyExW@20
  00057	3b f4		 cmp	 esi, esp
  00059	e8 00 00 00 00	 call	 __RTC_CheckEsp
  0005e	89 45 dc	 mov	 DWORD PTR _lRet$[ebp], eax

; 574  : 	if(lRet != ERROR_SUCCESS)

  00061	83 7d dc 00	 cmp	 DWORD PTR _lRet$[ebp], 0
  00065	74 07		 je	 SHORT $LN7@DC_EnumCom

; 575  : 	{
; 576  : 		return FALSE;

  00067	33 c0		 xor	 eax, eax
  00069	e9 6e 01 00 00	 jmp	 $LN9@DC_EnumCom
$LN7@DC_EnumCom:

; 577  : 	}
; 578  : 
; 579  : 	TCHAR RegKeyName[128] = {0x00};			//Abel	2013_03_02

  0006e	33 c0		 xor	 eax, eax
  00070	66 89 85 d4 fe
	ff ff		 mov	 WORD PTR _RegKeyName$[ebp], ax
  00077	68 fe 00 00 00	 push	 254			; 000000feH
  0007c	6a 00		 push	 0
  0007e	8d 85 d6 fe ff
	ff		 lea	 eax, DWORD PTR _RegKeyName$[ebp+2]
  00084	50		 push	 eax
  00085	e8 00 00 00 00	 call	 _memset
  0008a	83 c4 0c	 add	 esp, 12			; 0000000cH

; 580  : 	TCHAR SerialPortName[128] = {0x00};		//Abel	2013_03_02

  0008d	33 c0		 xor	 eax, eax
  0008f	66 89 85 cc fd
	ff ff		 mov	 WORD PTR _SerialPortName$[ebp], ax
  00096	68 fe 00 00 00	 push	 254			; 000000feH
  0009b	6a 00		 push	 0
  0009d	8d 85 ce fd ff
	ff		 lea	 eax, DWORD PTR _SerialPortName$[ebp+2]
  000a3	50		 push	 eax
  000a4	e8 00 00 00 00	 call	 _memset
  000a9	83 c4 0c	 add	 esp, 12			; 0000000cH

; 581  : 	DWORD dwLong,dwSize; 
; 582  : 	DWORD dwIndex = 0;						//

  000ac	c7 85 a8 fd ff
	ff 00 00 00 00	 mov	 DWORD PTR _dwIndex$[ebp], 0

; 583  : 	DWORD dwType = REG_SZ;					//Abel	2013_03_02

  000b6	c7 85 9c fd ff
	ff 01 00 00 00	 mov	 DWORD PTR _dwType$[ebp], 1
$LN6@DC_EnumCom:

; 584  : 
; 585  : 	do 
; 586  : 	{
; 587  : 		dwLong = dwSize = sizeof(RegKeyName);   

  000c0	c7 85 b4 fd ff
	ff 00 01 00 00	 mov	 DWORD PTR _dwSize$[ebp], 256 ; 00000100H
  000ca	8b 85 b4 fd ff
	ff		 mov	 eax, DWORD PTR _dwSize$[ebp]
  000d0	89 85 c0 fd ff
	ff		 mov	 DWORD PTR _dwLong$[ebp], eax

; 588  : 		lRet = RegEnumValue(hKey, dwIndex++, RegKeyName, &dwLong, NULL, &dwType, (PUCHAR)SerialPortName, &dwSize);

  000d6	8b 85 a8 fd ff
	ff		 mov	 eax, DWORD PTR _dwIndex$[ebp]
  000dc	89 85 c8 fc ff
	ff		 mov	 DWORD PTR tv86[ebp], eax
  000e2	8b 8d a8 fd ff
	ff		 mov	 ecx, DWORD PTR _dwIndex$[ebp]
  000e8	83 c1 01	 add	 ecx, 1
  000eb	89 8d a8 fd ff
	ff		 mov	 DWORD PTR _dwIndex$[ebp], ecx
  000f1	8b f4		 mov	 esi, esp
  000f3	8d 95 b4 fd ff
	ff		 lea	 edx, DWORD PTR _dwSize$[ebp]
  000f9	52		 push	 edx
  000fa	8d 85 cc fd ff
	ff		 lea	 eax, DWORD PTR _SerialPortName$[ebp]
  00100	50		 push	 eax
  00101	8d 8d 9c fd ff
	ff		 lea	 ecx, DWORD PTR _dwType$[ebp]
  00107	51		 push	 ecx
  00108	6a 00		 push	 0
  0010a	8d 95 c0 fd ff
	ff		 lea	 edx, DWORD PTR _dwLong$[ebp]
  00110	52		 push	 edx
  00111	8d 85 d4 fe ff
	ff		 lea	 eax, DWORD PTR _RegKeyName$[ebp]
  00117	50		 push	 eax
  00118	8b 8d c8 fc ff
	ff		 mov	 ecx, DWORD PTR tv86[ebp]
  0011e	51		 push	 ecx
  0011f	8b 55 e8	 mov	 edx, DWORD PTR _hKey$[ebp]
  00122	52		 push	 edx
  00123	ff 15 00 00 00
	00		 call	 DWORD PTR __imp__RegEnumValueW@32
  00129	3b f4		 cmp	 esi, esp
  0012b	e8 00 00 00 00	 call	 __RTC_CheckEsp
  00130	89 45 dc	 mov	 DWORD PTR _lRet$[ebp], eax

; 589  : 		if((lRet == ERROR_SUCCESS) || (lRet == ERROR_MORE_DATA))

  00133	83 7d dc 00	 cmp	 DWORD PTR _lRet$[ebp], 0
  00137	74 09		 je	 SHORT $LN2@DC_EnumCom
  00139	81 7d dc ea 00
	00 00		 cmp	 DWORD PTR _lRet$[ebp], 234 ; 000000eaH
  00140	75 42		 jne	 SHORT $LN3@DC_EnumCom
$LN2@DC_EnumCom:

; 590  : 		{
; 591  : 			int iPortValue = 0;

  00142	c7 85 90 fd ff
	ff 00 00 00 00	 mov	 DWORD PTR _iPortValue$232700[ebp], 0

; 592  : 			if(GetPortValue(SerialPortName, iPortValue) == 0)

  0014c	8d 85 90 fd ff
	ff		 lea	 eax, DWORD PTR _iPortValue$232700[ebp]
  00152	50		 push	 eax
  00153	8d 8d cc fd ff
	ff		 lea	 ecx, DWORD PTR _SerialPortName$[ebp]
  00159	51		 push	 ecx
  0015a	8b 4d f4	 mov	 ecx, DWORD PTR _this$[ebp]
  0015d	e8 00 00 00 00	 call	 ?GetPortValue@CDviceCtrlDlgDlg@@QAEHPA_WAAH@Z ; CDviceCtrlDlgDlg::GetPortValue
  00162	85 c0		 test	 eax, eax
  00164	75 1e		 jne	 SHORT $LN3@DC_EnumCom

; 593  : 			{
; 594  : 				*(bPortList + dwIndex -1) = iPortValue;

  00166	8b 85 a8 fd ff
	ff		 mov	 eax, DWORD PTR _dwIndex$[ebp]
  0016c	8b 4d 08	 mov	 ecx, DWORD PTR _bPortList$[ebp]
  0016f	8b 95 90 fd ff
	ff		 mov	 edx, DWORD PTR _iPortValue$232700[ebp]
  00175	89 54 81 fc	 mov	 DWORD PTR [ecx+eax*4-4], edx

; 595  : 				iPortNum = dwIndex;

  00179	8b 45 0c	 mov	 eax, DWORD PTR _iPortNum$[ebp]
  0017c	8b 8d a8 fd ff
	ff		 mov	 ecx, DWORD PTR _dwIndex$[ebp]
  00182	89 08		 mov	 DWORD PTR [eax], ecx
$LN3@DC_EnumCom:

; 596  : 			}
; 597  : 		}
; 598  : 		memset(RegKeyName,0,sizeof(RegKeyName));

  00184	68 00 01 00 00	 push	 256			; 00000100H
  00189	6a 00		 push	 0
  0018b	8d 85 d4 fe ff
	ff		 lea	 eax, DWORD PTR _RegKeyName$[ebp]
  00191	50		 push	 eax
  00192	e8 00 00 00 00	 call	 _memset
  00197	83 c4 0c	 add	 esp, 12			; 0000000cH

; 599  : 		memset(SerialPortName,0,sizeof(SerialPortName));

  0019a	68 00 01 00 00	 push	 256			; 00000100H
  0019f	6a 00		 push	 0
  001a1	8d 85 cc fd ff
	ff		 lea	 eax, DWORD PTR _SerialPortName$[ebp]
  001a7	50		 push	 eax
  001a8	e8 00 00 00 00	 call	 _memset
  001ad	83 c4 0c	 add	 esp, 12			; 0000000cH

; 600  : 	} while ((lRet == ERROR_SUCCESS) || (lRet == ERROR_MORE_DATA));

  001b0	83 7d dc 00	 cmp	 DWORD PTR _lRet$[ebp], 0
  001b4	0f 84 06 ff ff
	ff		 je	 $LN6@DC_EnumCom
  001ba	81 7d dc ea 00
	00 00		 cmp	 DWORD PTR _lRet$[ebp], 234 ; 000000eaH
  001c1	0f 84 f9 fe ff
	ff		 je	 $LN6@DC_EnumCom

; 601  : 
; 602  : 	RegCloseKey(hKey);

  001c7	8b f4		 mov	 esi, esp
  001c9	8b 45 e8	 mov	 eax, DWORD PTR _hKey$[ebp]
  001cc	50		 push	 eax
  001cd	ff 15 00 00 00
	00		 call	 DWORD PTR __imp__RegCloseKey@4
  001d3	3b f4		 cmp	 esi, esp
  001d5	e8 00 00 00 00	 call	 __RTC_CheckEsp

; 603  : 
; 604  : 	return 0;

  001da	33 c0		 xor	 eax, eax
$LN9@DC_EnumCom:

; 605  : }

  001dc	52		 push	 edx
  001dd	8b cd		 mov	 ecx, ebp
  001df	50		 push	 eax
  001e0	8d 15 00 00 00
	00		 lea	 edx, DWORD PTR $LN20@DC_EnumCom
  001e6	e8 00 00 00 00	 call	 @_RTC_CheckStackVars@8
  001eb	58		 pop	 eax
  001ec	5a		 pop	 edx
  001ed	5f		 pop	 edi
  001ee	5e		 pop	 esi
  001ef	5b		 pop	 ebx
  001f0	8b 4d fc	 mov	 ecx, DWORD PTR __$ArrayPad$[ebp]
  001f3	33 cd		 xor	 ecx, ebp
  001f5	e8 00 00 00 00	 call	 @__security_check_cookie@4
  001fa	81 c4 38 03 00
	00		 add	 esp, 824		; 00000338H
  00200	3b ec		 cmp	 ebp, esp
  00202	e8 00 00 00 00	 call	 __RTC_CheckEsp
  00207	8b e5		 mov	 esp, ebp
  00209	5d		 pop	 ebp
  0020a	c2 08 00	 ret	 8
  0020d	8d 49 00	 npad	 3
$LN20@DC_EnumCom:
  00210	07 00 00 00	 DD	 7
  00214	00 00 00 00	 DD	 $LN19@DC_EnumCom
$LN19@DC_EnumCom:
  00218	e8 ff ff ff	 DD	 -24			; ffffffe8H
  0021c	04 00 00 00	 DD	 4
  00220	00 00 00 00	 DD	 $LN12@DC_EnumCom
  00224	d4 fe ff ff	 DD	 -300			; fffffed4H
  00228	00 01 00 00	 DD	 256			; 00000100H
  0022c	00 00 00 00	 DD	 $LN13@DC_EnumCom
  00230	cc fd ff ff	 DD	 -564			; fffffdccH
  00234	00 01 00 00	 DD	 256			; 00000100H
  00238	00 00 00 00	 DD	 $LN14@DC_EnumCom
  0023c	c0 fd ff ff	 DD	 -576			; fffffdc0H
  00240	04 00 00 00	 DD	 4
  00244	00 00 00 00	 DD	 $LN15@DC_EnumCom
  00248	b4 fd ff ff	 DD	 -588			; fffffdb4H
  0024c	04 00 00 00	 DD	 4
  00250	00 00 00 00	 DD	 $LN16@DC_EnumCom
  00254	9c fd ff ff	 DD	 -612			; fffffd9cH
  00258	04 00 00 00	 DD	 4
  0025c	00 00 00 00	 DD	 $LN17@DC_EnumCom
  00260	90 fd ff ff	 DD	 -624			; fffffd90H
  00264	04 00 00 00	 DD	 4
  00268	00 00 00 00	 DD	 $LN18@DC_EnumCom
$LN18@DC_EnumCom:
  0026c	69		 DB	 105			; 00000069H
  0026d	50		 DB	 80			; 00000050H
  0026e	6f		 DB	 111			; 0000006fH
  0026f	72		 DB	 114			; 00000072H
  00270	74		 DB	 116			; 00000074H
  00271	56		 DB	 86			; 00000056H
  00272	61		 DB	 97			; 00000061H
  00273	6c		 DB	 108			; 0000006cH
  00274	75		 DB	 117			; 00000075H
  00275	65		 DB	 101			; 00000065H
  00276	00		 DB	 0
$LN17@DC_EnumCom:
  00277	64		 DB	 100			; 00000064H
  00278	77		 DB	 119			; 00000077H
  00279	54		 DB	 84			; 00000054H
  0027a	79		 DB	 121			; 00000079H
  0027b	70		 DB	 112			; 00000070H
  0027c	65		 DB	 101			; 00000065H
  0027d	00		 DB	 0
$LN16@DC_EnumCom:
  0027e	64		 DB	 100			; 00000064H
  0027f	77		 DB	 119			; 00000077H
  00280	53		 DB	 83			; 00000053H
  00281	69		 DB	 105			; 00000069H
  00282	7a		 DB	 122			; 0000007aH
  00283	65		 DB	 101			; 00000065H
  00284	00		 DB	 0
$LN15@DC_EnumCom:
  00285	64		 DB	 100			; 00000064H
  00286	77		 DB	 119			; 00000077H
  00287	4c		 DB	 76			; 0000004cH
  00288	6f		 DB	 111			; 0000006fH
  00289	6e		 DB	 110			; 0000006eH
  0028a	67		 DB	 103			; 00000067H
  0028b	00		 DB	 0
$LN14@DC_EnumCom:
  0028c	53		 DB	 83			; 00000053H
  0028d	65		 DB	 101			; 00000065H
  0028e	72		 DB	 114			; 00000072H
  0028f	69		 DB	 105			; 00000069H
  00290	61		 DB	 97			; 00000061H
  00291	6c		 DB	 108			; 0000006cH
  00292	50		 DB	 80			; 00000050H
  00293	6f		 DB	 111			; 0000006fH
  00294	72		 DB	 114			; 00000072H
  00295	74		 DB	 116			; 00000074H
  00296	4e		 DB	 78			; 0000004eH
  00297	61		 DB	 97			; 00000061H
  00298	6d		 DB	 109			; 0000006dH
  00299	65		 DB	 101			; 00000065H
  0029a	00		 DB	 0
$LN13@DC_EnumCom:
  0029b	52		 DB	 82			; 00000052H
  0029c	65		 DB	 101			; 00000065H
  0029d	67		 DB	 103			; 00000067H
  0029e	4b		 DB	 75			; 0000004bH
  0029f	65		 DB	 101			; 00000065H
  002a0	79		 DB	 121			; 00000079H
  002a1	4e		 DB	 78			; 0000004eH
  002a2	61		 DB	 97			; 00000061H
  002a3	6d		 DB	 109			; 0000006dH
  002a4	65		 DB	 101			; 00000065H
  002a5	00		 DB	 0
$LN12@DC_EnumCom:
  002a6	68		 DB	 104			; 00000068H
  002a7	4b		 DB	 75			; 0000004bH
  002a8	65		 DB	 101			; 00000065H
  002a9	79		 DB	 121			; 00000079H
  002aa	00		 DB	 0
?DC_EnumCommPort@CDviceCtrlDlgDlg@@QAEHPAHAAH@Z ENDP	; CDviceCtrlDlgDlg::DC_EnumCommPort
_TEXT	ENDS
