; Listing generated by Microsoft (R) Optimizing Compiler Version 16.00.30319.01 

	TITLE	E:\cz\VS\DviceCtrlDlg_new_signal_1\DviceCtrlDlg.cpp
	.686P
	.XMM
	include listing.inc
	.model	flat

INCLUDELIB LIBCMTD
INCLUDELIB OLDNAMES

PUBLIC	?has_denorm@_Num_base@std@@2W4float_denorm_style@2@B ; std::_Num_base::has_denorm
PUBLIC	?has_denorm_loss@_Num_base@std@@2_NB		; std::_Num_base::has_denorm_loss
PUBLIC	?has_infinity@_Num_base@std@@2_NB		; std::_Num_base::has_infinity
PUBLIC	?has_quiet_NaN@_Num_base@std@@2_NB		; std::_Num_base::has_quiet_NaN
PUBLIC	?has_signaling_NaN@_Num_base@std@@2_NB		; std::_Num_base::has_signaling_NaN
PUBLIC	?is_bounded@_Num_base@std@@2_NB			; std::_Num_base::is_bounded
PUBLIC	?is_exact@_Num_base@std@@2_NB			; std::_Num_base::is_exact
PUBLIC	?is_iec559@_Num_base@std@@2_NB			; std::_Num_base::is_iec559
PUBLIC	?is_integer@_Num_base@std@@2_NB			; std::_Num_base::is_integer
PUBLIC	?is_modulo@_Num_base@std@@2_NB			; std::_Num_base::is_modulo
PUBLIC	?is_signed@_Num_base@std@@2_NB			; std::_Num_base::is_signed
PUBLIC	?is_specialized@_Num_base@std@@2_NB		; std::_Num_base::is_specialized
PUBLIC	?tinyness_before@_Num_base@std@@2_NB		; std::_Num_base::tinyness_before
PUBLIC	?traps@_Num_base@std@@2_NB			; std::_Num_base::traps
PUBLIC	?round_style@_Num_base@std@@2W4float_round_style@2@B ; std::_Num_base::round_style
PUBLIC	?digits@_Num_base@std@@2HB			; std::_Num_base::digits
PUBLIC	?digits10@_Num_base@std@@2HB			; std::_Num_base::digits10
PUBLIC	?max_digits10@_Num_base@std@@2HB		; std::_Num_base::max_digits10
PUBLIC	?max_exponent@_Num_base@std@@2HB		; std::_Num_base::max_exponent
PUBLIC	?max_exponent10@_Num_base@std@@2HB		; std::_Num_base::max_exponent10
PUBLIC	?min_exponent@_Num_base@std@@2HB		; std::_Num_base::min_exponent
PUBLIC	?min_exponent10@_Num_base@std@@2HB		; std::_Num_base::min_exponent10
PUBLIC	?radix@_Num_base@std@@2HB			; std::_Num_base::radix
PUBLIC	?is_bounded@_Num_int_base@std@@2_NB		; std::_Num_int_base::is_bounded
PUBLIC	?is_exact@_Num_int_base@std@@2_NB		; std::_Num_int_base::is_exact
PUBLIC	?is_integer@_Num_int_base@std@@2_NB		; std::_Num_int_base::is_integer
PUBLIC	?is_modulo@_Num_int_base@std@@2_NB		; std::_Num_int_base::is_modulo
PUBLIC	?is_specialized@_Num_int_base@std@@2_NB		; std::_Num_int_base::is_specialized
PUBLIC	?radix@_Num_int_base@std@@2HB			; std::_Num_int_base::radix
PUBLIC	?has_denorm@_Num_float_base@std@@2W4float_denorm_style@2@B ; std::_Num_float_base::has_denorm
PUBLIC	?has_denorm_loss@_Num_float_base@std@@2_NB	; std::_Num_float_base::has_denorm_loss
PUBLIC	?has_infinity@_Num_float_base@std@@2_NB		; std::_Num_float_base::has_infinity
PUBLIC	?has_quiet_NaN@_Num_float_base@std@@2_NB	; std::_Num_float_base::has_quiet_NaN
PUBLIC	?has_signaling_NaN@_Num_float_base@std@@2_NB	; std::_Num_float_base::has_signaling_NaN
PUBLIC	?is_bounded@_Num_float_base@std@@2_NB		; std::_Num_float_base::is_bounded
PUBLIC	?is_exact@_Num_float_base@std@@2_NB		; std::_Num_float_base::is_exact
PUBLIC	?is_iec559@_Num_float_base@std@@2_NB		; std::_Num_float_base::is_iec559
PUBLIC	?is_integer@_Num_float_base@std@@2_NB		; std::_Num_float_base::is_integer
PUBLIC	?is_modulo@_Num_float_base@std@@2_NB		; std::_Num_float_base::is_modulo
PUBLIC	?is_signed@_Num_float_base@std@@2_NB		; std::_Num_float_base::is_signed
PUBLIC	?is_specialized@_Num_float_base@std@@2_NB	; std::_Num_float_base::is_specialized
PUBLIC	?tinyness_before@_Num_float_base@std@@2_NB	; std::_Num_float_base::tinyness_before
PUBLIC	?traps@_Num_float_base@std@@2_NB		; std::_Num_float_base::traps
PUBLIC	?round_style@_Num_float_base@std@@2W4float_round_style@2@B ; std::_Num_float_base::round_style
PUBLIC	?radix@_Num_float_base@std@@2HB			; std::_Num_float_base::radix
PUBLIC	?is_signed@?$numeric_limits@D@std@@2_NB		; std::numeric_limits<char>::is_signed
PUBLIC	?digits@?$numeric_limits@D@std@@2HB		; std::numeric_limits<char>::digits
PUBLIC	?digits10@?$numeric_limits@D@std@@2HB		; std::numeric_limits<char>::digits10
PUBLIC	?max_digits10@?$numeric_limits@D@std@@2HB	; std::numeric_limits<char>::max_digits10
PUBLIC	?is_signed@?$numeric_limits@_W@std@@2_NB	; std::numeric_limits<wchar_t>::is_signed
PUBLIC	?digits@?$numeric_limits@_W@std@@2HB		; std::numeric_limits<wchar_t>::digits
PUBLIC	?digits10@?$numeric_limits@_W@std@@2HB		; std::numeric_limits<wchar_t>::digits10
PUBLIC	?max_digits10@?$numeric_limits@_W@std@@2HB	; std::numeric_limits<wchar_t>::max_digits10
PUBLIC	?is_modulo@?$numeric_limits@_N@std@@2_NB	; std::numeric_limits<bool>::is_modulo
PUBLIC	?is_signed@?$numeric_limits@_N@std@@2_NB	; std::numeric_limits<bool>::is_signed
PUBLIC	?digits@?$numeric_limits@_N@std@@2HB		; std::numeric_limits<bool>::digits
PUBLIC	?digits10@?$numeric_limits@_N@std@@2HB		; std::numeric_limits<bool>::digits10
PUBLIC	?max_digits10@?$numeric_limits@_N@std@@2HB	; std::numeric_limits<bool>::max_digits10
PUBLIC	?is_signed@?$numeric_limits@C@std@@2_NB		; std::numeric_limits<signed char>::is_signed
PUBLIC	?digits@?$numeric_limits@C@std@@2HB		; std::numeric_limits<signed char>::digits
PUBLIC	?digits10@?$numeric_limits@C@std@@2HB		; std::numeric_limits<signed char>::digits10
PUBLIC	?max_digits10@?$numeric_limits@C@std@@2HB	; std::numeric_limits<signed char>::max_digits10
PUBLIC	?is_signed@?$numeric_limits@E@std@@2_NB		; std::numeric_limits<unsigned char>::is_signed
PUBLIC	?digits@?$numeric_limits@E@std@@2HB		; std::numeric_limits<unsigned char>::digits
PUBLIC	?digits10@?$numeric_limits@E@std@@2HB		; std::numeric_limits<unsigned char>::digits10
PUBLIC	?max_digits10@?$numeric_limits@E@std@@2HB	; std::numeric_limits<unsigned char>::max_digits10
PUBLIC	?is_signed@?$numeric_limits@F@std@@2_NB		; std::numeric_limits<short>::is_signed
PUBLIC	?digits@?$numeric_limits@F@std@@2HB		; std::numeric_limits<short>::digits
PUBLIC	?digits10@?$numeric_limits@F@std@@2HB		; std::numeric_limits<short>::digits10
PUBLIC	?max_digits10@?$numeric_limits@F@std@@2HB	; std::numeric_limits<short>::max_digits10
PUBLIC	?is_signed@?$numeric_limits@G@std@@2_NB		; std::numeric_limits<unsigned short>::is_signed
PUBLIC	?digits@?$numeric_limits@G@std@@2HB		; std::numeric_limits<unsigned short>::digits
PUBLIC	?digits10@?$numeric_limits@G@std@@2HB		; std::numeric_limits<unsigned short>::digits10
PUBLIC	?max_digits10@?$numeric_limits@G@std@@2HB	; std::numeric_limits<unsigned short>::max_digits10
PUBLIC	?is_signed@?$numeric_limits@H@std@@2_NB		; std::numeric_limits<int>::is_signed
PUBLIC	?digits@?$numeric_limits@H@std@@2HB		; std::numeric_limits<int>::digits
PUBLIC	?digits10@?$numeric_limits@H@std@@2HB		; std::numeric_limits<int>::digits10
PUBLIC	?max_digits10@?$numeric_limits@H@std@@2HB	; std::numeric_limits<int>::max_digits10
PUBLIC	?is_signed@?$numeric_limits@I@std@@2_NB		; std::numeric_limits<unsigned int>::is_signed
PUBLIC	?digits@?$numeric_limits@I@std@@2HB		; std::numeric_limits<unsigned int>::digits
PUBLIC	?digits10@?$numeric_limits@I@std@@2HB		; std::numeric_limits<unsigned int>::digits10
PUBLIC	?max_digits10@?$numeric_limits@I@std@@2HB	; std::numeric_limits<unsigned int>::max_digits10
PUBLIC	?is_signed@?$numeric_limits@J@std@@2_NB		; std::numeric_limits<long>::is_signed
PUBLIC	?digits@?$numeric_limits@J@std@@2HB		; std::numeric_limits<long>::digits
PUBLIC	?digits10@?$numeric_limits@J@std@@2HB		; std::numeric_limits<long>::digits10
PUBLIC	?max_digits10@?$numeric_limits@J@std@@2HB	; std::numeric_limits<long>::max_digits10
PUBLIC	?is_signed@?$numeric_limits@K@std@@2_NB		; std::numeric_limits<unsigned long>::is_signed
PUBLIC	?digits@?$numeric_limits@K@std@@2HB		; std::numeric_limits<unsigned long>::digits
PUBLIC	?digits10@?$numeric_limits@K@std@@2HB		; std::numeric_limits<unsigned long>::digits10
PUBLIC	?max_digits10@?$numeric_limits@K@std@@2HB	; std::numeric_limits<unsigned long>::max_digits10
PUBLIC	?is_signed@?$numeric_limits@_J@std@@2_NB	; std::numeric_limits<__int64>::is_signed
PUBLIC	?digits@?$numeric_limits@_J@std@@2HB		; std::numeric_limits<__int64>::digits
PUBLIC	?digits10@?$numeric_limits@_J@std@@2HB		; std::numeric_limits<__int64>::digits10
PUBLIC	?max_digits10@?$numeric_limits@_J@std@@2HB	; std::numeric_limits<__int64>::max_digits10
PUBLIC	?is_signed@?$numeric_limits@_K@std@@2_NB	; std::numeric_limits<unsigned __int64>::is_signed
PUBLIC	?digits@?$numeric_limits@_K@std@@2HB		; std::numeric_limits<unsigned __int64>::digits
PUBLIC	?digits10@?$numeric_limits@_K@std@@2HB		; std::numeric_limits<unsigned __int64>::digits10
PUBLIC	?max_digits10@?$numeric_limits@_K@std@@2HB	; std::numeric_limits<unsigned __int64>::max_digits10
PUBLIC	?digits@?$numeric_limits@M@std@@2HB		; std::numeric_limits<float>::digits
PUBLIC	?digits10@?$numeric_limits@M@std@@2HB		; std::numeric_limits<float>::digits10
PUBLIC	?max_digits10@?$numeric_limits@M@std@@2HB	; std::numeric_limits<float>::max_digits10
PUBLIC	?max_exponent@?$numeric_limits@M@std@@2HB	; std::numeric_limits<float>::max_exponent
PUBLIC	?max_exponent10@?$numeric_limits@M@std@@2HB	; std::numeric_limits<float>::max_exponent10
PUBLIC	?min_exponent@?$numeric_limits@M@std@@2HB	; std::numeric_limits<float>::min_exponent
PUBLIC	?min_exponent10@?$numeric_limits@M@std@@2HB	; std::numeric_limits<float>::min_exponent10
PUBLIC	?digits@?$numeric_limits@N@std@@2HB		; std::numeric_limits<double>::digits
PUBLIC	?digits10@?$numeric_limits@N@std@@2HB		; std::numeric_limits<double>::digits10
PUBLIC	?max_digits10@?$numeric_limits@N@std@@2HB	; std::numeric_limits<double>::max_digits10
PUBLIC	?max_exponent@?$numeric_limits@N@std@@2HB	; std::numeric_limits<double>::max_exponent
PUBLIC	?max_exponent10@?$numeric_limits@N@std@@2HB	; std::numeric_limits<double>::max_exponent10
PUBLIC	?min_exponent@?$numeric_limits@N@std@@2HB	; std::numeric_limits<double>::min_exponent
PUBLIC	?min_exponent10@?$numeric_limits@N@std@@2HB	; std::numeric_limits<double>::min_exponent10
PUBLIC	?digits@?$numeric_limits@O@std@@2HB		; std::numeric_limits<long double>::digits
PUBLIC	?digits10@?$numeric_limits@O@std@@2HB		; std::numeric_limits<long double>::digits10
PUBLIC	?max_digits10@?$numeric_limits@O@std@@2HB	; std::numeric_limits<long double>::max_digits10
PUBLIC	?max_exponent@?$numeric_limits@O@std@@2HB	; std::numeric_limits<long double>::max_exponent
PUBLIC	?max_exponent10@?$numeric_limits@O@std@@2HB	; std::numeric_limits<long double>::max_exponent10
PUBLIC	?min_exponent@?$numeric_limits@O@std@@2HB	; std::numeric_limits<long double>::min_exponent
PUBLIC	?min_exponent10@?$numeric_limits@O@std@@2HB	; std::numeric_limits<long double>::min_exponent10
PUBLIC	?value@?$integral_constant@_N$0A@@tr1@std@@2_NB	; std::tr1::integral_constant<bool,0>::value
PUBLIC	?value@?$integral_constant@_N$00@tr1@std@@2_NB	; std::tr1::integral_constant<bool,1>::value
PUBLIC	?value@?$integral_constant@I$0A@@tr1@std@@2IB	; std::tr1::integral_constant<unsigned int,0>::value
PUBLIC	?_Rank@?$_Arithmetic_traits@_N@std@@2HB		; std::_Arithmetic_traits<bool>::_Rank
PUBLIC	?_Rank@?$_Arithmetic_traits@D@std@@2HB		; std::_Arithmetic_traits<char>::_Rank
PUBLIC	?_Rank@?$_Arithmetic_traits@C@std@@2HB		; std::_Arithmetic_traits<signed char>::_Rank
PUBLIC	?_Rank@?$_Arithmetic_traits@E@std@@2HB		; std::_Arithmetic_traits<unsigned char>::_Rank
PUBLIC	?_Rank@?$_Arithmetic_traits@F@std@@2HB		; std::_Arithmetic_traits<short>::_Rank
PUBLIC	?_Rank@?$_Arithmetic_traits@G@std@@2HB		; std::_Arithmetic_traits<unsigned short>::_Rank
PUBLIC	?_Rank@?$_Arithmetic_traits@H@std@@2HB		; std::_Arithmetic_traits<int>::_Rank
PUBLIC	?_Rank@?$_Arithmetic_traits@I@std@@2HB		; std::_Arithmetic_traits<unsigned int>::_Rank
PUBLIC	?_Rank@?$_Arithmetic_traits@J@std@@2HB		; std::_Arithmetic_traits<long>::_Rank
PUBLIC	?_Rank@?$_Arithmetic_traits@K@std@@2HB		; std::_Arithmetic_traits<unsigned long>::_Rank
PUBLIC	?_Rank@?$_Arithmetic_traits@_J@std@@2HB		; std::_Arithmetic_traits<__int64>::_Rank
PUBLIC	?_Rank@?$_Arithmetic_traits@_K@std@@2HB		; std::_Arithmetic_traits<unsigned __int64>::_Rank
PUBLIC	?_Rank@?$_Arithmetic_traits@M@std@@2HB		; std::_Arithmetic_traits<float>::_Rank
PUBLIC	?_Rank@?$_Arithmetic_traits@N@std@@2HB		; std::_Arithmetic_traits<double>::_Rank
PUBLIC	?_Rank@?$_Arithmetic_traits@O@std@@2HB		; std::_Arithmetic_traits<long double>::_Rank
EXTRN	?GetThisMessageMap@CWinApp@@KGPBUAFX_MSGMAP@@XZ:PROC ; CWinApp::GetThisMessageMap
EXTRN	?OnHelp@CWinApp@@IAEXXZ:PROC			; CWinApp::OnHelp
CONST	SEGMENT
?_messageEntries@?1??GetThisMessageMap@CDviceCtrlDlgApp@@KGPBUAFX_MSGMAP@@XZ@4QBUAFX_MSGMAP_ENTRY@@B DD 0111H ; `CDviceCtrlDlgApp::GetThisMessageMap'::`2'::_messageEntries
	DD	00H
	DD	0e146H
	DD	0e146H
	DD	039H
	DD	FLAT:?OnHelp@CWinApp@@IAEXXZ
	DD	00H
	DD	00H
	DD	00H
	DD	00H
	DD	00H
	DD	00H
?messageMap@?1??GetThisMessageMap@CDviceCtrlDlgApp@@KGPBUAFX_MSGMAP@@XZ@4U3@B DD FLAT:?GetThisMessageMap@CWinApp@@KGPBUAFX_MSGMAP@@XZ ; `CDviceCtrlDlgApp::GetThisMessageMap'::`2'::messageMap
	DD	FLAT:?_messageEntries@?1??GetThisMessageMap@CDviceCtrlDlgApp@@KGPBUAFX_MSGMAP@@XZ@4QBUAFX_MSGMAP_ENTRY@@B
CONST	ENDS
;	COMDAT ?_Rank@?$_Arithmetic_traits@O@std@@2HB
CONST	SEGMENT
?_Rank@?$_Arithmetic_traits@O@std@@2HB DD 09H		; std::_Arithmetic_traits<long double>::_Rank
CONST	ENDS
;	COMDAT ?_Rank@?$_Arithmetic_traits@N@std@@2HB
CONST	SEGMENT
?_Rank@?$_Arithmetic_traits@N@std@@2HB DD 08H		; std::_Arithmetic_traits<double>::_Rank
CONST	ENDS
;	COMDAT ?_Rank@?$_Arithmetic_traits@M@std@@2HB
CONST	SEGMENT
?_Rank@?$_Arithmetic_traits@M@std@@2HB DD 07H		; std::_Arithmetic_traits<float>::_Rank
CONST	ENDS
;	COMDAT ?_Rank@?$_Arithmetic_traits@_K@std@@2HB
CONST	SEGMENT
?_Rank@?$_Arithmetic_traits@_K@std@@2HB DD 06H		; std::_Arithmetic_traits<unsigned __int64>::_Rank
CONST	ENDS
;	COMDAT ?_Rank@?$_Arithmetic_traits@_J@std@@2HB
CONST	SEGMENT
?_Rank@?$_Arithmetic_traits@_J@std@@2HB DD 06H		; std::_Arithmetic_traits<__int64>::_Rank
CONST	ENDS
;	COMDAT ?_Rank@?$_Arithmetic_traits@K@std@@2HB
CONST	SEGMENT
?_Rank@?$_Arithmetic_traits@K@std@@2HB DD 05H		; std::_Arithmetic_traits<unsigned long>::_Rank
CONST	ENDS
;	COMDAT ?_Rank@?$_Arithmetic_traits@J@std@@2HB
CONST	SEGMENT
?_Rank@?$_Arithmetic_traits@J@std@@2HB DD 05H		; std::_Arithmetic_traits<long>::_Rank
CONST	ENDS
;	COMDAT ?_Rank@?$_Arithmetic_traits@I@std@@2HB
CONST	SEGMENT
?_Rank@?$_Arithmetic_traits@I@std@@2HB DD 04H		; std::_Arithmetic_traits<unsigned int>::_Rank
CONST	ENDS
;	COMDAT ?_Rank@?$_Arithmetic_traits@H@std@@2HB
CONST	SEGMENT
?_Rank@?$_Arithmetic_traits@H@std@@2HB DD 04H		; std::_Arithmetic_traits<int>::_Rank
CONST	ENDS
;	COMDAT ?_Rank@?$_Arithmetic_traits@G@std@@2HB
CONST	SEGMENT
?_Rank@?$_Arithmetic_traits@G@std@@2HB DD 03H		; std::_Arithmetic_traits<unsigned short>::_Rank
CONST	ENDS
;	COMDAT ?_Rank@?$_Arithmetic_traits@F@std@@2HB
CONST	SEGMENT
?_Rank@?$_Arithmetic_traits@F@std@@2HB DD 03H		; std::_Arithmetic_traits<short>::_Rank
CONST	ENDS
;	COMDAT ?_Rank@?$_Arithmetic_traits@E@std@@2HB
CONST	SEGMENT
?_Rank@?$_Arithmetic_traits@E@std@@2HB DD 02H		; std::_Arithmetic_traits<unsigned char>::_Rank
CONST	ENDS
;	COMDAT ?_Rank@?$_Arithmetic_traits@C@std@@2HB
CONST	SEGMENT
?_Rank@?$_Arithmetic_traits@C@std@@2HB DD 02H		; std::_Arithmetic_traits<signed char>::_Rank
CONST	ENDS
;	COMDAT ?_Rank@?$_Arithmetic_traits@D@std@@2HB
CONST	SEGMENT
?_Rank@?$_Arithmetic_traits@D@std@@2HB DD 02H		; std::_Arithmetic_traits<char>::_Rank
CONST	ENDS
;	COMDAT ?_Rank@?$_Arithmetic_traits@_N@std@@2HB
CONST	SEGMENT
?_Rank@?$_Arithmetic_traits@_N@std@@2HB DD 01H		; std::_Arithmetic_traits<bool>::_Rank
CONST	ENDS
;	COMDAT ?value@?$integral_constant@I$0A@@tr1@std@@2IB
CONST	SEGMENT
?value@?$integral_constant@I$0A@@tr1@std@@2IB DD 00H	; std::tr1::integral_constant<unsigned int,0>::value
CONST	ENDS
;	COMDAT ?value@?$integral_constant@_N$00@tr1@std@@2_NB
CONST	SEGMENT
?value@?$integral_constant@_N$00@tr1@std@@2_NB DB 01H	; std::tr1::integral_constant<bool,1>::value
CONST	ENDS
;	COMDAT ?value@?$integral_constant@_N$0A@@tr1@std@@2_NB
CONST	SEGMENT
?value@?$integral_constant@_N$0A@@tr1@std@@2_NB DB 00H	; std::tr1::integral_constant<bool,0>::value
CONST	ENDS
;	COMDAT ?min_exponent10@?$numeric_limits@O@std@@2HB
CONST	SEGMENT
?min_exponent10@?$numeric_limits@O@std@@2HB DD 0fffffecdH ; std::numeric_limits<long double>::min_exponent10
CONST	ENDS
;	COMDAT ?min_exponent@?$numeric_limits@O@std@@2HB
CONST	SEGMENT
?min_exponent@?$numeric_limits@O@std@@2HB DD 0fffffc03H	; std::numeric_limits<long double>::min_exponent
CONST	ENDS
;	COMDAT ?max_exponent10@?$numeric_limits@O@std@@2HB
CONST	SEGMENT
?max_exponent10@?$numeric_limits@O@std@@2HB DD 0134H	; std::numeric_limits<long double>::max_exponent10
CONST	ENDS
;	COMDAT ?max_exponent@?$numeric_limits@O@std@@2HB
CONST	SEGMENT
?max_exponent@?$numeric_limits@O@std@@2HB DD 0400H	; std::numeric_limits<long double>::max_exponent
CONST	ENDS
;	COMDAT ?max_digits10@?$numeric_limits@O@std@@2HB
CONST	SEGMENT
?max_digits10@?$numeric_limits@O@std@@2HB DD 011H	; std::numeric_limits<long double>::max_digits10
CONST	ENDS
;	COMDAT ?digits10@?$numeric_limits@O@std@@2HB
CONST	SEGMENT
?digits10@?$numeric_limits@O@std@@2HB DD 0fH		; std::numeric_limits<long double>::digits10
CONST	ENDS
;	COMDAT ?digits@?$numeric_limits@O@std@@2HB
CONST	SEGMENT
?digits@?$numeric_limits@O@std@@2HB DD 035H		; std::numeric_limits<long double>::digits
CONST	ENDS
;	COMDAT ?min_exponent10@?$numeric_limits@N@std@@2HB
CONST	SEGMENT
?min_exponent10@?$numeric_limits@N@std@@2HB DD 0fffffecdH ; std::numeric_limits<double>::min_exponent10
CONST	ENDS
;	COMDAT ?min_exponent@?$numeric_limits@N@std@@2HB
CONST	SEGMENT
?min_exponent@?$numeric_limits@N@std@@2HB DD 0fffffc03H	; std::numeric_limits<double>::min_exponent
CONST	ENDS
;	COMDAT ?max_exponent10@?$numeric_limits@N@std@@2HB
CONST	SEGMENT
?max_exponent10@?$numeric_limits@N@std@@2HB DD 0134H	; std::numeric_limits<double>::max_exponent10
CONST	ENDS
;	COMDAT ?max_exponent@?$numeric_limits@N@std@@2HB
CONST	SEGMENT
?max_exponent@?$numeric_limits@N@std@@2HB DD 0400H	; std::numeric_limits<double>::max_exponent
CONST	ENDS
;	COMDAT ?max_digits10@?$numeric_limits@N@std@@2HB
CONST	SEGMENT
?max_digits10@?$numeric_limits@N@std@@2HB DD 011H	; std::numeric_limits<double>::max_digits10
CONST	ENDS
;	COMDAT ?digits10@?$numeric_limits@N@std@@2HB
CONST	SEGMENT
?digits10@?$numeric_limits@N@std@@2HB DD 0fH		; std::numeric_limits<double>::digits10
CONST	ENDS
;	COMDAT ?digits@?$numeric_limits@N@std@@2HB
CONST	SEGMENT
?digits@?$numeric_limits@N@std@@2HB DD 035H		; std::numeric_limits<double>::digits
CONST	ENDS
;	COMDAT ?min_exponent10@?$numeric_limits@M@std@@2HB
CONST	SEGMENT
?min_exponent10@?$numeric_limits@M@std@@2HB DD 0ffffffdbH ; std::numeric_limits<float>::min_exponent10
CONST	ENDS
;	COMDAT ?min_exponent@?$numeric_limits@M@std@@2HB
CONST	SEGMENT
?min_exponent@?$numeric_limits@M@std@@2HB DD 0ffffff83H	; std::numeric_limits<float>::min_exponent
CONST	ENDS
;	COMDAT ?max_exponent10@?$numeric_limits@M@std@@2HB
CONST	SEGMENT
?max_exponent10@?$numeric_limits@M@std@@2HB DD 026H	; std::numeric_limits<float>::max_exponent10
CONST	ENDS
;	COMDAT ?max_exponent@?$numeric_limits@M@std@@2HB
CONST	SEGMENT
?max_exponent@?$numeric_limits@M@std@@2HB DD 080H	; std::numeric_limits<float>::max_exponent
CONST	ENDS
;	COMDAT ?max_digits10@?$numeric_limits@M@std@@2HB
CONST	SEGMENT
?max_digits10@?$numeric_limits@M@std@@2HB DD 08H	; std::numeric_limits<float>::max_digits10
CONST	ENDS
;	COMDAT ?digits10@?$numeric_limits@M@std@@2HB
CONST	SEGMENT
?digits10@?$numeric_limits@M@std@@2HB DD 06H		; std::numeric_limits<float>::digits10
CONST	ENDS
;	COMDAT ?digits@?$numeric_limits@M@std@@2HB
CONST	SEGMENT
?digits@?$numeric_limits@M@std@@2HB DD 018H		; std::numeric_limits<float>::digits
CONST	ENDS
;	COMDAT ?max_digits10@?$numeric_limits@_K@std@@2HB
CONST	SEGMENT
?max_digits10@?$numeric_limits@_K@std@@2HB DD 015H	; std::numeric_limits<unsigned __int64>::max_digits10
CONST	ENDS
;	COMDAT ?digits10@?$numeric_limits@_K@std@@2HB
CONST	SEGMENT
?digits10@?$numeric_limits@_K@std@@2HB DD 013H		; std::numeric_limits<unsigned __int64>::digits10
CONST	ENDS
;	COMDAT ?digits@?$numeric_limits@_K@std@@2HB
CONST	SEGMENT
?digits@?$numeric_limits@_K@std@@2HB DD 040H		; std::numeric_limits<unsigned __int64>::digits
CONST	ENDS
;	COMDAT ?is_signed@?$numeric_limits@_K@std@@2_NB
CONST	SEGMENT
?is_signed@?$numeric_limits@_K@std@@2_NB DB 00H		; std::numeric_limits<unsigned __int64>::is_signed
CONST	ENDS
;	COMDAT ?max_digits10@?$numeric_limits@_J@std@@2HB
CONST	SEGMENT
?max_digits10@?$numeric_limits@_J@std@@2HB DD 014H	; std::numeric_limits<__int64>::max_digits10
CONST	ENDS
;	COMDAT ?digits10@?$numeric_limits@_J@std@@2HB
CONST	SEGMENT
?digits10@?$numeric_limits@_J@std@@2HB DD 012H		; std::numeric_limits<__int64>::digits10
CONST	ENDS
;	COMDAT ?digits@?$numeric_limits@_J@std@@2HB
CONST	SEGMENT
?digits@?$numeric_limits@_J@std@@2HB DD 03fH		; std::numeric_limits<__int64>::digits
CONST	ENDS
;	COMDAT ?is_signed@?$numeric_limits@_J@std@@2_NB
CONST	SEGMENT
?is_signed@?$numeric_limits@_J@std@@2_NB DB 01H		; std::numeric_limits<__int64>::is_signed
CONST	ENDS
;	COMDAT ?max_digits10@?$numeric_limits@K@std@@2HB
CONST	SEGMENT
?max_digits10@?$numeric_limits@K@std@@2HB DD 0bH	; std::numeric_limits<unsigned long>::max_digits10
CONST	ENDS
;	COMDAT ?digits10@?$numeric_limits@K@std@@2HB
CONST	SEGMENT
?digits10@?$numeric_limits@K@std@@2HB DD 09H		; std::numeric_limits<unsigned long>::digits10
CONST	ENDS
;	COMDAT ?digits@?$numeric_limits@K@std@@2HB
CONST	SEGMENT
?digits@?$numeric_limits@K@std@@2HB DD 020H		; std::numeric_limits<unsigned long>::digits
CONST	ENDS
;	COMDAT ?is_signed@?$numeric_limits@K@std@@2_NB
CONST	SEGMENT
?is_signed@?$numeric_limits@K@std@@2_NB DB 00H		; std::numeric_limits<unsigned long>::is_signed
CONST	ENDS
;	COMDAT ?max_digits10@?$numeric_limits@J@std@@2HB
CONST	SEGMENT
?max_digits10@?$numeric_limits@J@std@@2HB DD 0bH	; std::numeric_limits<long>::max_digits10
CONST	ENDS
;	COMDAT ?digits10@?$numeric_limits@J@std@@2HB
CONST	SEGMENT
?digits10@?$numeric_limits@J@std@@2HB DD 09H		; std::numeric_limits<long>::digits10
CONST	ENDS
;	COMDAT ?digits@?$numeric_limits@J@std@@2HB
CONST	SEGMENT
?digits@?$numeric_limits@J@std@@2HB DD 01fH		; std::numeric_limits<long>::digits
CONST	ENDS
;	COMDAT ?is_signed@?$numeric_limits@J@std@@2_NB
CONST	SEGMENT
?is_signed@?$numeric_limits@J@std@@2_NB DB 01H		; std::numeric_limits<long>::is_signed
CONST	ENDS
;	COMDAT ?max_digits10@?$numeric_limits@I@std@@2HB
CONST	SEGMENT
?max_digits10@?$numeric_limits@I@std@@2HB DD 0bH	; std::numeric_limits<unsigned int>::max_digits10
CONST	ENDS
;	COMDAT ?digits10@?$numeric_limits@I@std@@2HB
CONST	SEGMENT
?digits10@?$numeric_limits@I@std@@2HB DD 09H		; std::numeric_limits<unsigned int>::digits10
CONST	ENDS
;	COMDAT ?digits@?$numeric_limits@I@std@@2HB
CONST	SEGMENT
?digits@?$numeric_limits@I@std@@2HB DD 020H		; std::numeric_limits<unsigned int>::digits
CONST	ENDS
;	COMDAT ?is_signed@?$numeric_limits@I@std@@2_NB
CONST	SEGMENT
?is_signed@?$numeric_limits@I@std@@2_NB DB 00H		; std::numeric_limits<unsigned int>::is_signed
CONST	ENDS
;	COMDAT ?max_digits10@?$numeric_limits@H@std@@2HB
CONST	SEGMENT
?max_digits10@?$numeric_limits@H@std@@2HB DD 0bH	; std::numeric_limits<int>::max_digits10
CONST	ENDS
;	COMDAT ?digits10@?$numeric_limits@H@std@@2HB
CONST	SEGMENT
?digits10@?$numeric_limits@H@std@@2HB DD 09H		; std::numeric_limits<int>::digits10
CONST	ENDS
;	COMDAT ?digits@?$numeric_limits@H@std@@2HB
CONST	SEGMENT
?digits@?$numeric_limits@H@std@@2HB DD 01fH		; std::numeric_limits<int>::digits
CONST	ENDS
;	COMDAT ?is_signed@?$numeric_limits@H@std@@2_NB
CONST	SEGMENT
?is_signed@?$numeric_limits@H@std@@2_NB DB 01H		; std::numeric_limits<int>::is_signed
CONST	ENDS
;	COMDAT ?max_digits10@?$numeric_limits@G@std@@2HB
CONST	SEGMENT
?max_digits10@?$numeric_limits@G@std@@2HB DD 06H	; std::numeric_limits<unsigned short>::max_digits10
CONST	ENDS
;	COMDAT ?digits10@?$numeric_limits@G@std@@2HB
CONST	SEGMENT
?digits10@?$numeric_limits@G@std@@2HB DD 04H		; std::numeric_limits<unsigned short>::digits10
CONST	ENDS
;	COMDAT ?digits@?$numeric_limits@G@std@@2HB
CONST	SEGMENT
?digits@?$numeric_limits@G@std@@2HB DD 010H		; std::numeric_limits<unsigned short>::digits
CONST	ENDS
;	COMDAT ?is_signed@?$numeric_limits@G@std@@2_NB
CONST	SEGMENT
?is_signed@?$numeric_limits@G@std@@2_NB DB 00H		; std::numeric_limits<unsigned short>::is_signed
CONST	ENDS
;	COMDAT ?max_digits10@?$numeric_limits@F@std@@2HB
CONST	SEGMENT
?max_digits10@?$numeric_limits@F@std@@2HB DD 06H	; std::numeric_limits<short>::max_digits10
CONST	ENDS
;	COMDAT ?digits10@?$numeric_limits@F@std@@2HB
CONST	SEGMENT
?digits10@?$numeric_limits@F@std@@2HB DD 04H		; std::numeric_limits<short>::digits10
CONST	ENDS
;	COMDAT ?digits@?$numeric_limits@F@std@@2HB
CONST	SEGMENT
?digits@?$numeric_limits@F@std@@2HB DD 0fH		; std::numeric_limits<short>::digits
CONST	ENDS
;	COMDAT ?is_signed@?$numeric_limits@F@std@@2_NB
CONST	SEGMENT
?is_signed@?$numeric_limits@F@std@@2_NB DB 01H		; std::numeric_limits<short>::is_signed
CONST	ENDS
;	COMDAT ?max_digits10@?$numeric_limits@E@std@@2HB
CONST	SEGMENT
?max_digits10@?$numeric_limits@E@std@@2HB DD 04H	; std::numeric_limits<unsigned char>::max_digits10
CONST	ENDS
;	COMDAT ?digits10@?$numeric_limits@E@std@@2HB
CONST	SEGMENT
?digits10@?$numeric_limits@E@std@@2HB DD 02H		; std::numeric_limits<unsigned char>::digits10
CONST	ENDS
;	COMDAT ?digits@?$numeric_limits@E@std@@2HB
CONST	SEGMENT
?digits@?$numeric_limits@E@std@@2HB DD 08H		; std::numeric_limits<unsigned char>::digits
CONST	ENDS
;	COMDAT ?is_signed@?$numeric_limits@E@std@@2_NB
CONST	SEGMENT
?is_signed@?$numeric_limits@E@std@@2_NB DB 00H		; std::numeric_limits<unsigned char>::is_signed
CONST	ENDS
;	COMDAT ?max_digits10@?$numeric_limits@C@std@@2HB
CONST	SEGMENT
?max_digits10@?$numeric_limits@C@std@@2HB DD 04H	; std::numeric_limits<signed char>::max_digits10
CONST	ENDS
;	COMDAT ?digits10@?$numeric_limits@C@std@@2HB
CONST	SEGMENT
?digits10@?$numeric_limits@C@std@@2HB DD 02H		; std::numeric_limits<signed char>::digits10
CONST	ENDS
;	COMDAT ?digits@?$numeric_limits@C@std@@2HB
CONST	SEGMENT
?digits@?$numeric_limits@C@std@@2HB DD 07H		; std::numeric_limits<signed char>::digits
CONST	ENDS
;	COMDAT ?is_signed@?$numeric_limits@C@std@@2_NB
CONST	SEGMENT
?is_signed@?$numeric_limits@C@std@@2_NB DB 01H		; std::numeric_limits<signed char>::is_signed
CONST	ENDS
;	COMDAT ?max_digits10@?$numeric_limits@_N@std@@2HB
CONST	SEGMENT
?max_digits10@?$numeric_limits@_N@std@@2HB DD 00H	; std::numeric_limits<bool>::max_digits10
CONST	ENDS
;	COMDAT ?digits10@?$numeric_limits@_N@std@@2HB
CONST	SEGMENT
?digits10@?$numeric_limits@_N@std@@2HB DD 00H		; std::numeric_limits<bool>::digits10
CONST	ENDS
;	COMDAT ?digits@?$numeric_limits@_N@std@@2HB
CONST	SEGMENT
?digits@?$numeric_limits@_N@std@@2HB DD 01H		; std::numeric_limits<bool>::digits
CONST	ENDS
;	COMDAT ?is_signed@?$numeric_limits@_N@std@@2_NB
CONST	SEGMENT
?is_signed@?$numeric_limits@_N@std@@2_NB DB 00H		; std::numeric_limits<bool>::is_signed
CONST	ENDS
;	COMDAT ?is_modulo@?$numeric_limits@_N@std@@2_NB
CONST	SEGMENT
?is_modulo@?$numeric_limits@_N@std@@2_NB DB 00H		; std::numeric_limits<bool>::is_modulo
CONST	ENDS
;	COMDAT ?max_digits10@?$numeric_limits@_W@std@@2HB
CONST	SEGMENT
?max_digits10@?$numeric_limits@_W@std@@2HB DD 06H	; std::numeric_limits<wchar_t>::max_digits10
CONST	ENDS
;	COMDAT ?digits10@?$numeric_limits@_W@std@@2HB
CONST	SEGMENT
?digits10@?$numeric_limits@_W@std@@2HB DD 04H		; std::numeric_limits<wchar_t>::digits10
CONST	ENDS
;	COMDAT ?digits@?$numeric_limits@_W@std@@2HB
CONST	SEGMENT
?digits@?$numeric_limits@_W@std@@2HB DD 010H		; std::numeric_limits<wchar_t>::digits
CONST	ENDS
;	COMDAT ?is_signed@?$numeric_limits@_W@std@@2_NB
CONST	SEGMENT
?is_signed@?$numeric_limits@_W@std@@2_NB DB 00H		; std::numeric_limits<wchar_t>::is_signed
CONST	ENDS
;	COMDAT ?max_digits10@?$numeric_limits@D@std@@2HB
CONST	SEGMENT
?max_digits10@?$numeric_limits@D@std@@2HB DD 04H	; std::numeric_limits<char>::max_digits10
CONST	ENDS
;	COMDAT ?digits10@?$numeric_limits@D@std@@2HB
CONST	SEGMENT
?digits10@?$numeric_limits@D@std@@2HB DD 02H		; std::numeric_limits<char>::digits10
CONST	ENDS
;	COMDAT ?digits@?$numeric_limits@D@std@@2HB
CONST	SEGMENT
?digits@?$numeric_limits@D@std@@2HB DD 07H		; std::numeric_limits<char>::digits
CONST	ENDS
;	COMDAT ?is_signed@?$numeric_limits@D@std@@2_NB
CONST	SEGMENT
?is_signed@?$numeric_limits@D@std@@2_NB DB 01H		; std::numeric_limits<char>::is_signed
CONST	ENDS
;	COMDAT ?radix@_Num_float_base@std@@2HB
CONST	SEGMENT
?radix@_Num_float_base@std@@2HB DD 02H			; std::_Num_float_base::radix
CONST	ENDS
;	COMDAT ?round_style@_Num_float_base@std@@2W4float_round_style@2@B
CONST	SEGMENT
?round_style@_Num_float_base@std@@2W4float_round_style@2@B DD 01H ; std::_Num_float_base::round_style
CONST	ENDS
;	COMDAT ?traps@_Num_float_base@std@@2_NB
CONST	SEGMENT
?traps@_Num_float_base@std@@2_NB DB 01H			; std::_Num_float_base::traps
CONST	ENDS
;	COMDAT ?tinyness_before@_Num_float_base@std@@2_NB
CONST	SEGMENT
?tinyness_before@_Num_float_base@std@@2_NB DB 01H	; std::_Num_float_base::tinyness_before
CONST	ENDS
;	COMDAT ?is_specialized@_Num_float_base@std@@2_NB
CONST	SEGMENT
?is_specialized@_Num_float_base@std@@2_NB DB 01H	; std::_Num_float_base::is_specialized
CONST	ENDS
;	COMDAT ?is_signed@_Num_float_base@std@@2_NB
CONST	SEGMENT
?is_signed@_Num_float_base@std@@2_NB DB 01H		; std::_Num_float_base::is_signed
CONST	ENDS
;	COMDAT ?is_modulo@_Num_float_base@std@@2_NB
CONST	SEGMENT
?is_modulo@_Num_float_base@std@@2_NB DB 00H		; std::_Num_float_base::is_modulo
CONST	ENDS
;	COMDAT ?is_integer@_Num_float_base@std@@2_NB
CONST	SEGMENT
?is_integer@_Num_float_base@std@@2_NB DB 00H		; std::_Num_float_base::is_integer
CONST	ENDS
;	COMDAT ?is_iec559@_Num_float_base@std@@2_NB
CONST	SEGMENT
?is_iec559@_Num_float_base@std@@2_NB DB 01H		; std::_Num_float_base::is_iec559
CONST	ENDS
;	COMDAT ?is_exact@_Num_float_base@std@@2_NB
CONST	SEGMENT
?is_exact@_Num_float_base@std@@2_NB DB 00H		; std::_Num_float_base::is_exact
CONST	ENDS
;	COMDAT ?is_bounded@_Num_float_base@std@@2_NB
CONST	SEGMENT
?is_bounded@_Num_float_base@std@@2_NB DB 01H		; std::_Num_float_base::is_bounded
CONST	ENDS
;	COMDAT ?has_signaling_NaN@_Num_float_base@std@@2_NB
CONST	SEGMENT
?has_signaling_NaN@_Num_float_base@std@@2_NB DB 01H	; std::_Num_float_base::has_signaling_NaN
CONST	ENDS
;	COMDAT ?has_quiet_NaN@_Num_float_base@std@@2_NB
CONST	SEGMENT
?has_quiet_NaN@_Num_float_base@std@@2_NB DB 01H		; std::_Num_float_base::has_quiet_NaN
CONST	ENDS
;	COMDAT ?has_infinity@_Num_float_base@std@@2_NB
CONST	SEGMENT
?has_infinity@_Num_float_base@std@@2_NB DB 01H		; std::_Num_float_base::has_infinity
CONST	ENDS
;	COMDAT ?has_denorm_loss@_Num_float_base@std@@2_NB
CONST	SEGMENT
?has_denorm_loss@_Num_float_base@std@@2_NB DB 01H	; std::_Num_float_base::has_denorm_loss
CONST	ENDS
;	COMDAT ?has_denorm@_Num_float_base@std@@2W4float_denorm_style@2@B
CONST	SEGMENT
?has_denorm@_Num_float_base@std@@2W4float_denorm_style@2@B DD 01H ; std::_Num_float_base::has_denorm
CONST	ENDS
;	COMDAT ?radix@_Num_int_base@std@@2HB
CONST	SEGMENT
?radix@_Num_int_base@std@@2HB DD 02H			; std::_Num_int_base::radix
CONST	ENDS
;	COMDAT ?is_specialized@_Num_int_base@std@@2_NB
CONST	SEGMENT
?is_specialized@_Num_int_base@std@@2_NB DB 01H		; std::_Num_int_base::is_specialized
CONST	ENDS
;	COMDAT ?is_modulo@_Num_int_base@std@@2_NB
CONST	SEGMENT
?is_modulo@_Num_int_base@std@@2_NB DB 01H		; std::_Num_int_base::is_modulo
CONST	ENDS
;	COMDAT ?is_integer@_Num_int_base@std@@2_NB
CONST	SEGMENT
?is_integer@_Num_int_base@std@@2_NB DB 01H		; std::_Num_int_base::is_integer
CONST	ENDS
;	COMDAT ?is_exact@_Num_int_base@std@@2_NB
CONST	SEGMENT
?is_exact@_Num_int_base@std@@2_NB DB 01H		; std::_Num_int_base::is_exact
CONST	ENDS
;	COMDAT ?is_bounded@_Num_int_base@std@@2_NB
CONST	SEGMENT
?is_bounded@_Num_int_base@std@@2_NB DB 01H		; std::_Num_int_base::is_bounded
CONST	ENDS
;	COMDAT ?radix@_Num_base@std@@2HB
CONST	SEGMENT
?radix@_Num_base@std@@2HB DD 00H			; std::_Num_base::radix
CONST	ENDS
;	COMDAT ?min_exponent10@_Num_base@std@@2HB
CONST	SEGMENT
?min_exponent10@_Num_base@std@@2HB DD 00H		; std::_Num_base::min_exponent10
CONST	ENDS
;	COMDAT ?min_exponent@_Num_base@std@@2HB
CONST	SEGMENT
?min_exponent@_Num_base@std@@2HB DD 00H			; std::_Num_base::min_exponent
CONST	ENDS
;	COMDAT ?max_exponent10@_Num_base@std@@2HB
CONST	SEGMENT
?max_exponent10@_Num_base@std@@2HB DD 00H		; std::_Num_base::max_exponent10
CONST	ENDS
;	COMDAT ?max_exponent@_Num_base@std@@2HB
CONST	SEGMENT
?max_exponent@_Num_base@std@@2HB DD 00H			; std::_Num_base::max_exponent
CONST	ENDS
;	COMDAT ?max_digits10@_Num_base@std@@2HB
CONST	SEGMENT
?max_digits10@_Num_base@std@@2HB DD 00H			; std::_Num_base::max_digits10
CONST	ENDS
;	COMDAT ?digits10@_Num_base@std@@2HB
CONST	SEGMENT
?digits10@_Num_base@std@@2HB DD 00H			; std::_Num_base::digits10
CONST	ENDS
;	COMDAT ?digits@_Num_base@std@@2HB
CONST	SEGMENT
?digits@_Num_base@std@@2HB DD 00H			; std::_Num_base::digits
CONST	ENDS
;	COMDAT ?round_style@_Num_base@std@@2W4float_round_style@2@B
CONST	SEGMENT
?round_style@_Num_base@std@@2W4float_round_style@2@B DD 00H ; std::_Num_base::round_style
CONST	ENDS
;	COMDAT ?traps@_Num_base@std@@2_NB
CONST	SEGMENT
?traps@_Num_base@std@@2_NB DB 00H			; std::_Num_base::traps
CONST	ENDS
;	COMDAT ?tinyness_before@_Num_base@std@@2_NB
CONST	SEGMENT
?tinyness_before@_Num_base@std@@2_NB DB 00H		; std::_Num_base::tinyness_before
CONST	ENDS
;	COMDAT ?is_specialized@_Num_base@std@@2_NB
CONST	SEGMENT
?is_specialized@_Num_base@std@@2_NB DB 00H		; std::_Num_base::is_specialized
CONST	ENDS
;	COMDAT ?is_signed@_Num_base@std@@2_NB
CONST	SEGMENT
?is_signed@_Num_base@std@@2_NB DB 00H			; std::_Num_base::is_signed
CONST	ENDS
;	COMDAT ?is_modulo@_Num_base@std@@2_NB
CONST	SEGMENT
?is_modulo@_Num_base@std@@2_NB DB 00H			; std::_Num_base::is_modulo
CONST	ENDS
;	COMDAT ?is_integer@_Num_base@std@@2_NB
CONST	SEGMENT
?is_integer@_Num_base@std@@2_NB DB 00H			; std::_Num_base::is_integer
CONST	ENDS
;	COMDAT ?is_iec559@_Num_base@std@@2_NB
CONST	SEGMENT
?is_iec559@_Num_base@std@@2_NB DB 00H			; std::_Num_base::is_iec559
CONST	ENDS
;	COMDAT ?is_exact@_Num_base@std@@2_NB
CONST	SEGMENT
?is_exact@_Num_base@std@@2_NB DB 00H			; std::_Num_base::is_exact
CONST	ENDS
;	COMDAT ?is_bounded@_Num_base@std@@2_NB
CONST	SEGMENT
?is_bounded@_Num_base@std@@2_NB DB 00H			; std::_Num_base::is_bounded
CONST	ENDS
;	COMDAT ?has_signaling_NaN@_Num_base@std@@2_NB
CONST	SEGMENT
?has_signaling_NaN@_Num_base@std@@2_NB DB 00H		; std::_Num_base::has_signaling_NaN
CONST	ENDS
;	COMDAT ?has_quiet_NaN@_Num_base@std@@2_NB
CONST	SEGMENT
?has_quiet_NaN@_Num_base@std@@2_NB DB 00H		; std::_Num_base::has_quiet_NaN
CONST	ENDS
;	COMDAT ?has_infinity@_Num_base@std@@2_NB
CONST	SEGMENT
?has_infinity@_Num_base@std@@2_NB DB 00H		; std::_Num_base::has_infinity
CONST	ENDS
;	COMDAT ?has_denorm_loss@_Num_base@std@@2_NB
CONST	SEGMENT
?has_denorm_loss@_Num_base@std@@2_NB DB 00H		; std::_Num_base::has_denorm_loss
CONST	ENDS
;	COMDAT ?has_denorm@_Num_base@std@@2W4float_denorm_style@2@B
CONST	SEGMENT
?has_denorm@_Num_base@std@@2W4float_denorm_style@2@B DD 00H ; std::_Num_base::has_denorm
CONST	ENDS
PUBLIC	?GetThisMessageMap@CDviceCtrlDlgApp@@KGPBUAFX_MSGMAP@@XZ ; CDviceCtrlDlgApp::GetThisMessageMap
PUBLIC	?GetMessageMap@CDviceCtrlDlgApp@@MBEPBUAFX_MSGMAP@@XZ ; CDviceCtrlDlgApp::GetMessageMap
EXTRN	__RTC_CheckEsp:PROC
EXTRN	__RTC_Shutdown:PROC
EXTRN	__RTC_InitBase:PROC
;	COMDAT rtc$TMZ
; File e:\cz\vs\dvicectrldlg_new_signal_1\dvicectrldlg.cpp
rtc$TMZ	SEGMENT
__RTC_Shutdown.rtc$TMZ DD FLAT:__RTC_Shutdown
rtc$TMZ	ENDS
;	COMDAT rtc$IMZ
rtc$IMZ	SEGMENT
__RTC_InitBase.rtc$IMZ DD FLAT:__RTC_InitBase
; Function compile flags: /Odtp /RTCsu /ZI
rtc$IMZ	ENDS
;	COMDAT ?GetMessageMap@CDviceCtrlDlgApp@@MBEPBUAFX_MSGMAP@@XZ
_TEXT	SEGMENT
_this$ = -8						; size = 4
?GetMessageMap@CDviceCtrlDlgApp@@MBEPBUAFX_MSGMAP@@XZ PROC ; CDviceCtrlDlgApp::GetMessageMap, COMDAT
; _this$ = ecx

  00000	55		 push	 ebp
  00001	8b ec		 mov	 ebp, esp
  00003	81 ec cc 00 00
	00		 sub	 esp, 204		; 000000ccH
  00009	53		 push	 ebx
  0000a	56		 push	 esi
  0000b	57		 push	 edi
  0000c	51		 push	 ecx
  0000d	8d bd 34 ff ff
	ff		 lea	 edi, DWORD PTR [ebp-204]
  00013	b9 33 00 00 00	 mov	 ecx, 51			; 00000033H
  00018	b8 cc cc cc cc	 mov	 eax, -858993460		; ccccccccH
  0001d	f3 ab		 rep stosd
  0001f	59		 pop	 ecx
  00020	89 4d f8	 mov	 DWORD PTR _this$[ebp], ecx
  00023	e8 00 00 00 00	 call	 ?GetThisMessageMap@CDviceCtrlDlgApp@@KGPBUAFX_MSGMAP@@XZ ; CDviceCtrlDlgApp::GetThisMessageMap
  00028	5f		 pop	 edi
  00029	5e		 pop	 esi
  0002a	5b		 pop	 ebx
  0002b	81 c4 cc 00 00
	00		 add	 esp, 204		; 000000ccH
  00031	3b ec		 cmp	 ebp, esp
  00033	e8 00 00 00 00	 call	 __RTC_CheckEsp
  00038	8b e5		 mov	 esp, ebp
  0003a	5d		 pop	 ebp
  0003b	c3		 ret	 0
?GetMessageMap@CDviceCtrlDlgApp@@MBEPBUAFX_MSGMAP@@XZ ENDP ; CDviceCtrlDlgApp::GetMessageMap
; Function compile flags: /Odtp /RTCsu /ZI
_TEXT	ENDS
;	COMDAT ?GetThisMessageMap@CDviceCtrlDlgApp@@KGPBUAFX_MSGMAP@@XZ
_TEXT	SEGMENT
?GetThisMessageMap@CDviceCtrlDlgApp@@KGPBUAFX_MSGMAP@@XZ PROC ; CDviceCtrlDlgApp::GetThisMessageMap, COMDAT

  00000	55		 push	 ebp
  00001	8b ec		 mov	 ebp, esp
  00003	81 ec c0 00 00
	00		 sub	 esp, 192		; 000000c0H
  00009	53		 push	 ebx
  0000a	56		 push	 esi
  0000b	57		 push	 edi
  0000c	8d bd 40 ff ff
	ff		 lea	 edi, DWORD PTR [ebp-192]
  00012	b9 30 00 00 00	 mov	 ecx, 48			; 00000030H
  00017	b8 cc cc cc cc	 mov	 eax, -858993460		; ccccccccH
  0001c	f3 ab		 rep stosd

  0001e	b8 00 00 00 00	 mov	 eax, OFFSET ?messageMap@?1??GetThisMessageMap@CDviceCtrlDlgApp@@KGPBUAFX_MSGMAP@@XZ@4U3@B
  00023	5f		 pop	 edi
  00024	5e		 pop	 esi
  00025	5b		 pop	 ebx
  00026	8b e5		 mov	 esp, ebp
  00028	5d		 pop	 ebp
  00029	c3		 ret	 0
?GetThisMessageMap@CDviceCtrlDlgApp@@KGPBUAFX_MSGMAP@@XZ ENDP ; CDviceCtrlDlgApp::GetThisMessageMap
_TEXT	ENDS
PUBLIC	??_7CDviceCtrlDlgApp@@6B@			; CDviceCtrlDlgApp::`vftable'
PUBLIC	??0CDviceCtrlDlgApp@@QAE@XZ			; CDviceCtrlDlgApp::CDviceCtrlDlgApp
PUBLIC	??_R4CDviceCtrlDlgApp@@6B@			; CDviceCtrlDlgApp::`RTTI Complete Object Locator'
PUBLIC	??_R0?AVCDviceCtrlDlgApp@@@8			; CDviceCtrlDlgApp `RTTI Type Descriptor'
PUBLIC	??_R3CDviceCtrlDlgApp@@8			; CDviceCtrlDlgApp::`RTTI Class Hierarchy Descriptor'
PUBLIC	??_R2CDviceCtrlDlgApp@@8			; CDviceCtrlDlgApp::`RTTI Base Class Array'
PUBLIC	??_R1A@?0A@EA@CDviceCtrlDlgApp@@8		; CDviceCtrlDlgApp::`RTTI Base Class Descriptor at (0,-1,0,64)'
PUBLIC	??_R1A@?0A@EA@CWinAppEx@@8			; CWinAppEx::`RTTI Base Class Descriptor at (0,-1,0,64)'
PUBLIC	??_R0?AVCWinAppEx@@@8				; CWinAppEx `RTTI Type Descriptor'
PUBLIC	??_R3CWinAppEx@@8				; CWinAppEx::`RTTI Class Hierarchy Descriptor'
PUBLIC	??_R2CWinAppEx@@8				; CWinAppEx::`RTTI Base Class Array'
PUBLIC	??_R1A@?0A@EA@CWinApp@@8			; CWinApp::`RTTI Base Class Descriptor at (0,-1,0,64)'
PUBLIC	??_R0?AVCWinApp@@@8				; CWinApp `RTTI Type Descriptor'
PUBLIC	??_R3CWinApp@@8					; CWinApp::`RTTI Class Hierarchy Descriptor'
PUBLIC	??_R2CWinApp@@8					; CWinApp::`RTTI Base Class Array'
PUBLIC	??_R1A@?0A@EA@CWinThread@@8			; CWinThread::`RTTI Base Class Descriptor at (0,-1,0,64)'
PUBLIC	??_R0?AVCWinThread@@@8				; CWinThread `RTTI Type Descriptor'
PUBLIC	??_R3CWinThread@@8				; CWinThread::`RTTI Class Hierarchy Descriptor'
PUBLIC	??_R2CWinThread@@8				; CWinThread::`RTTI Base Class Array'
PUBLIC	??_R1A@?0A@EA@CCmdTarget@@8			; CCmdTarget::`RTTI Base Class Descriptor at (0,-1,0,64)'
PUBLIC	??_R0?AVCCmdTarget@@@8				; CCmdTarget `RTTI Type Descriptor'
PUBLIC	??_R3CCmdTarget@@8				; CCmdTarget::`RTTI Class Hierarchy Descriptor'
PUBLIC	??_R2CCmdTarget@@8				; CCmdTarget::`RTTI Base Class Array'
PUBLIC	??_R1A@?0A@EA@CObject@@8			; CObject::`RTTI Base Class Descriptor at (0,-1,0,64)'
PUBLIC	??_R0?AVCObject@@@8				; CObject `RTTI Type Descriptor'
PUBLIC	??_R3CObject@@8					; CObject::`RTTI Class Hierarchy Descriptor'
PUBLIC	??_R2CObject@@8					; CObject::`RTTI Base Class Array'
PUBLIC	?InitInstance@CDviceCtrlDlgApp@@UAEHXZ		; CDviceCtrlDlgApp::InitInstance
PUBLIC	?SupportsRestartManager@CWinApp@@UBEHXZ		; CWinApp::SupportsRestartManager
PUBLIC	?SupportsApplicationRecovery@CWinApp@@UBEHXZ	; CWinApp::SupportsApplicationRecovery
PUBLIC	?SupportsAutosaveAtRestart@CWinApp@@UBEHXZ	; CWinApp::SupportsAutosaveAtRestart
PUBLIC	?SupportsAutosaveAtInterval@CWinApp@@UBEHXZ	; CWinApp::SupportsAutosaveAtInterval
PUBLIC	?ReopenPreviousFilesAtRestart@CWinApp@@UBEHXZ	; CWinApp::ReopenPreviousFilesAtRestart
PUBLIC	?RestoreAutosavedFilesAtRestart@CWinApp@@UBEHXZ	; CWinApp::RestoreAutosavedFilesAtRestart
PUBLIC	?GetApplicationRestartFlags@CWinApp@@UAEKXZ	; CWinApp::GetApplicationRestartFlags
PUBLIC	?GetApplicationRecoveryParameter@CWinApp@@UAEPAXXZ ; CWinApp::GetApplicationRecoveryParameter
PUBLIC	?GetApplicationRecoveryPingInterval@CWinApp@@UAEKXZ ; CWinApp::GetApplicationRecoveryPingInterval
PUBLIC	?OnWorkspaceIdle@CWinAppEx@@UAEHPAVCWnd@@@Z	; CWinAppEx::OnWorkspaceIdle
PUBLIC	?PreLoadState@CWinAppEx@@MAEXXZ			; CWinAppEx::PreLoadState
PUBLIC	?LoadCustomState@CWinAppEx@@MAEXXZ		; CWinAppEx::LoadCustomState
PUBLIC	?PreSaveState@CWinAppEx@@MAEXXZ			; CWinAppEx::PreSaveState
PUBLIC	?SaveCustomState@CWinAppEx@@MAEXXZ		; CWinAppEx::SaveCustomState
EXTRN	??0CWinAppEx@@QAE@H@Z:PROC			; CWinAppEx::CWinAppEx
EXTRN	??_7type_info@@6B@:QWORD			; type_info::`vftable'
EXTRN	?GetRuntimeClass@CWinAppEx@@UBEPAUCRuntimeClass@@XZ:PROC ; CWinAppEx::GetRuntimeClass
EXTRN	??_ECDviceCtrlDlgApp@@UAEPAXI@Z:PROC		; CDviceCtrlDlgApp::`vector deleting destructor'
EXTRN	?Serialize@CObject@@UAEXAAVCArchive@@@Z:PROC	; CObject::Serialize
EXTRN	?AssertValid@CWinApp@@UBEXXZ:PROC		; CWinApp::AssertValid
EXTRN	?Dump@CWinApp@@UBEXAAVCDumpContext@@@Z:PROC	; CWinApp::Dump
EXTRN	?OnCmdMsg@CCmdTarget@@UAEHIHPAXPAUAFX_CMDHANDLERINFO@@@Z:PROC ; CCmdTarget::OnCmdMsg
EXTRN	?OnFinalRelease@CCmdTarget@@UAEXXZ:PROC		; CCmdTarget::OnFinalRelease
EXTRN	?IsInvokeAllowed@CCmdTarget@@UAEHJ@Z:PROC	; CCmdTarget::IsInvokeAllowed
EXTRN	?GetDispatchIID@CCmdTarget@@UAEHPAU_GUID@@@Z:PROC ; CCmdTarget::GetDispatchIID
EXTRN	?GetTypeInfoCount@CCmdTarget@@UAEIXZ:PROC	; CCmdTarget::GetTypeInfoCount
EXTRN	?GetTypeLibCache@CCmdTarget@@UAEPAVCTypeLibCache@@XZ:PROC ; CCmdTarget::GetTypeLibCache
EXTRN	?GetTypeLib@CCmdTarget@@UAEJKPAPAUITypeLib@@@Z:PROC ; CCmdTarget::GetTypeLib
EXTRN	?GetCommandMap@CCmdTarget@@MBEPBUAFX_OLECMDMAP@@XZ:PROC ; CCmdTarget::GetCommandMap
EXTRN	?GetDispatchMap@CCmdTarget@@MBEPBUAFX_DISPMAP@@XZ:PROC ; CCmdTarget::GetDispatchMap
EXTRN	?GetConnectionMap@CCmdTarget@@MBEPBUAFX_CONNECTIONMAP@@XZ:PROC ; CCmdTarget::GetConnectionMap
EXTRN	?GetInterfaceMap@CCmdTarget@@MBEPBUAFX_INTERFACEMAP@@XZ:PROC ; CCmdTarget::GetInterfaceMap
EXTRN	?GetEventSinkMap@CCmdTarget@@MBEPBUAFX_EVENTSINKMAP@@XZ:PROC ; CCmdTarget::GetEventSinkMap
EXTRN	?OnCreateAggregates@CCmdTarget@@UAEHXZ:PROC	; CCmdTarget::OnCreateAggregates
EXTRN	?GetInterfaceHook@CCmdTarget@@UAEPAUIUnknown@@PBX@Z:PROC ; CCmdTarget::GetInterfaceHook
EXTRN	?GetExtraConnectionPoints@CCmdTarget@@MAEHPAVCPtrArray@@@Z:PROC ; CCmdTarget::GetExtraConnectionPoints
EXTRN	?GetConnectionHook@CCmdTarget@@MAEPAUIConnectionPoint@@ABU_GUID@@@Z:PROC ; CCmdTarget::GetConnectionHook
EXTRN	?Run@CWinApp@@UAEHXZ:PROC			; CWinApp::Run
EXTRN	?PreTranslateMessage@CWinThread@@UAEHPAUtagMSG@@@Z:PROC ; CWinThread::PreTranslateMessage
EXTRN	?PumpMessage@CWinThread@@UAEHXZ:PROC		; CWinThread::PumpMessage
EXTRN	?OnIdle@CWinApp@@UAEHJ@Z:PROC			; CWinApp::OnIdle
EXTRN	?IsIdleMessage@CWinThread@@UAEHPAUtagMSG@@@Z:PROC ; CWinThread::IsIdleMessage
EXTRN	?ExitInstance@CWinAppEx@@UAEHXZ:PROC		; CWinAppEx::ExitInstance
EXTRN	?ProcessWndProcException@CWinApp@@UAEJPAVCException@@PBUtagMSG@@@Z:PROC ; CWinApp::ProcessWndProcException
EXTRN	?ProcessMessageFilter@CWinThread@@UAEHHPAUtagMSG@@@Z:PROC ; CWinThread::ProcessMessageFilter
EXTRN	?GetMainWnd@CWinThread@@UAEPAVCWnd@@XZ:PROC	; CWinThread::GetMainWnd
EXTRN	?Delete@CWinThread@@UAEXXZ:PROC			; CWinThread::Delete
EXTRN	?GetProfileIntW@CWinApp@@UAEIPB_W0H@Z:PROC	; CWinApp::GetProfileIntW
EXTRN	?WriteProfileInt@CWinApp@@UAEHPB_W0H@Z:PROC	; CWinApp::WriteProfileInt
EXTRN	?GetProfileStringW@CWinApp@@UAE?AV?$CStringT@_WV?$StrTraitMFC@_WV?$ChTraitsCRT@_W@ATL@@@@@ATL@@PB_W00@Z:PROC ; CWinApp::GetProfileStringW
EXTRN	?WriteProfileStringW@CWinApp@@UAEHPB_W00@Z:PROC	; CWinApp::WriteProfileStringW
EXTRN	?GetProfileBinary@CWinApp@@UAEHPB_W0PAPAEPAI@Z:PROC ; CWinApp::GetProfileBinary
EXTRN	?WriteProfileBinary@CWinApp@@UAEHPB_W0PAEI@Z:PROC ; CWinApp::WriteProfileBinary
EXTRN	?InitLibId@CWinApp@@UAEXXZ:PROC			; CWinApp::InitLibId
EXTRN	?Register@CWinApp@@UAEHXZ:PROC			; CWinApp::Register
EXTRN	?Unregister@CWinApp@@UAEHXZ:PROC		; CWinApp::Unregister
EXTRN	?OpenDocumentFile@CWinApp@@UAEPAVCDocument@@PB_WH@Z:PROC ; CWinApp::OpenDocumentFile
EXTRN	?OpenDocumentFile@CWinApp@@UAEPAVCDocument@@PB_W@Z:PROC ; CWinApp::OpenDocumentFile
EXTRN	?AddToRecentFileList@CWinApp@@UAEXPB_W@Z:PROC	; CWinApp::AddToRecentFileList
EXTRN	?InitApplication@CWinApp@@UAEHXZ:PROC		; CWinApp::InitApplication
EXTRN	?SaveAllModified@CWinApp@@UAEHXZ:PROC		; CWinApp::SaveAllModified
EXTRN	?DoMessageBox@CWinApp@@UAEHPB_WII@Z:PROC	; CWinApp::DoMessageBox
EXTRN	?DoWaitCursor@CWinApp@@UAEXH@Z:PROC		; CWinApp::DoWaitCursor
EXTRN	?OnDDECommand@CWinApp@@UAEHPA_W@Z:PROC		; CWinApp::OnDDECommand
EXTRN	?WinHelpW@CWinApp@@UAEXKI@Z:PROC		; CWinApp::WinHelpW
EXTRN	?HtmlHelpW@CWinApp@@UAEXKI@Z:PROC		; CWinApp::HtmlHelpW
EXTRN	?WinHelpInternal@CWinApp@@UAEXKI@Z:PROC		; CWinApp::WinHelpInternal
EXTRN	?RegisterWithRestartManager@CWinApp@@UAEJPB_WKP6GKPAX@Z1KK@Z:PROC ; CWinApp::RegisterWithRestartManager
EXTRN	?RegisterWithRestartManager@CWinApp@@UAEJHABV?$CStringT@_WV?$StrTraitMFC@_WV?$ChTraitsCRT@_W@ATL@@@@@ATL@@@Z:PROC ; CWinApp::RegisterWithRestartManager
EXTRN	?ApplicationRecoveryCallback@CWinApp@@UAEKPAX@Z:PROC ; CWinApp::ApplicationRecoveryCallback
EXTRN	?GetDataRecoveryHandler@CWinApp@@UAEPAVCDataRecoveryHandler@@XZ:PROC ; CWinApp::GetDataRecoveryHandler
EXTRN	?IsTaskbarInteractionEnabled@CWinApp@@UAEHXZ:PROC ; CWinApp::IsTaskbarInteractionEnabled
EXTRN	?RestartInstance@CWinApp@@UAEHXZ:PROC		; CWinApp::RestartInstance
EXTRN	?LoadAppLangResourceDLL@CWinApp@@UAEPAUHINSTANCE__@@XZ:PROC ; CWinApp::LoadAppLangResourceDLL
EXTRN	?LoadSysPolicies@CWinApp@@UAEHXZ:PROC		; CWinApp::LoadSysPolicies
EXTRN	?LoadState@CWinAppEx@@UAEHPB_WPAVCFrameImpl@@@Z:PROC ; CWinAppEx::LoadState
EXTRN	?CleanState@CWinAppEx@@UAEHPB_W@Z:PROC		; CWinAppEx::CleanState
EXTRN	?SaveState@CWinAppEx@@UAEHPB_WPAVCFrameImpl@@@Z:PROC ; CWinAppEx::SaveState
EXTRN	?OnViewDoubleClick@CWinAppEx@@UAEHPAVCWnd@@H@Z:PROC ; CWinAppEx::OnViewDoubleClick
EXTRN	?ShowPopupMenu@CWinAppEx@@UAEHIABVCPoint@@PAVCWnd@@@Z:PROC ; CWinAppEx::ShowPopupMenu
EXTRN	?OnAppContextHelp@CWinAppEx@@UAEXPAVCWnd@@QBK@Z:PROC ; CWinAppEx::OnAppContextHelp
EXTRN	?OnClosingMainFrame@CWinAppEx@@MAEXPAVCFrameImpl@@@Z:PROC ; CWinAppEx::OnClosingMainFrame
EXTRN	?LoadWindowPlacement@CWinAppEx@@MAEHAAVCRect@@AAH1@Z:PROC ; CWinAppEx::LoadWindowPlacement
EXTRN	?StoreWindowPlacement@CWinAppEx@@MAEHABVCRect@@HH@Z:PROC ; CWinAppEx::StoreWindowPlacement
EXTRN	?ReloadWindowPlacement@CWinAppEx@@MAEHPAVCFrameWnd@@@Z:PROC ; CWinAppEx::ReloadWindowPlacement
;	COMDAT ??_R2CObject@@8
rdata$r	SEGMENT
??_R2CObject@@8 DD FLAT:??_R1A@?0A@EA@CObject@@8	; CObject::`RTTI Base Class Array'
rdata$r	ENDS
;	COMDAT ??_R3CObject@@8
rdata$r	SEGMENT
??_R3CObject@@8 DD 00H					; CObject::`RTTI Class Hierarchy Descriptor'
	DD	00H
	DD	01H
	DD	FLAT:??_R2CObject@@8
rdata$r	ENDS
;	COMDAT ??_R0?AVCObject@@@8
_DATA	SEGMENT
??_R0?AVCObject@@@8 DD FLAT:??_7type_info@@6B@		; CObject `RTTI Type Descriptor'
	DD	00H
	DB	'.?AVCObject@@', 00H
_DATA	ENDS
;	COMDAT ??_R1A@?0A@EA@CObject@@8
rdata$r	SEGMENT
??_R1A@?0A@EA@CObject@@8 DD FLAT:??_R0?AVCObject@@@8	; CObject::`RTTI Base Class Descriptor at (0,-1,0,64)'
	DD	00H
	DD	00H
	DD	0ffffffffH
	DD	00H
	DD	040H
	DD	FLAT:??_R3CObject@@8
rdata$r	ENDS
;	COMDAT ??_R2CCmdTarget@@8
rdata$r	SEGMENT
??_R2CCmdTarget@@8 DD FLAT:??_R1A@?0A@EA@CCmdTarget@@8	; CCmdTarget::`RTTI Base Class Array'
	DD	FLAT:??_R1A@?0A@EA@CObject@@8
rdata$r	ENDS
;	COMDAT ??_R3CCmdTarget@@8
rdata$r	SEGMENT
??_R3CCmdTarget@@8 DD 00H				; CCmdTarget::`RTTI Class Hierarchy Descriptor'
	DD	00H
	DD	02H
	DD	FLAT:??_R2CCmdTarget@@8
rdata$r	ENDS
;	COMDAT ??_R0?AVCCmdTarget@@@8
_DATA	SEGMENT
??_R0?AVCCmdTarget@@@8 DD FLAT:??_7type_info@@6B@	; CCmdTarget `RTTI Type Descriptor'
	DD	00H
	DB	'.?AVCCmdTarget@@', 00H
_DATA	ENDS
;	COMDAT ??_R1A@?0A@EA@CCmdTarget@@8
rdata$r	SEGMENT
??_R1A@?0A@EA@CCmdTarget@@8 DD FLAT:??_R0?AVCCmdTarget@@@8 ; CCmdTarget::`RTTI Base Class Descriptor at (0,-1,0,64)'
	DD	01H
	DD	00H
	DD	0ffffffffH
	DD	00H
	DD	040H
	DD	FLAT:??_R3CCmdTarget@@8
rdata$r	ENDS
;	COMDAT ??_R2CWinThread@@8
rdata$r	SEGMENT
??_R2CWinThread@@8 DD FLAT:??_R1A@?0A@EA@CWinThread@@8	; CWinThread::`RTTI Base Class Array'
	DD	FLAT:??_R1A@?0A@EA@CCmdTarget@@8
	DD	FLAT:??_R1A@?0A@EA@CObject@@8
rdata$r	ENDS
;	COMDAT ??_R3CWinThread@@8
rdata$r	SEGMENT
??_R3CWinThread@@8 DD 00H				; CWinThread::`RTTI Class Hierarchy Descriptor'
	DD	00H
	DD	03H
	DD	FLAT:??_R2CWinThread@@8
rdata$r	ENDS
;	COMDAT ??_R0?AVCWinThread@@@8
_DATA	SEGMENT
??_R0?AVCWinThread@@@8 DD FLAT:??_7type_info@@6B@	; CWinThread `RTTI Type Descriptor'
	DD	00H
	DB	'.?AVCWinThread@@', 00H
_DATA	ENDS
;	COMDAT ??_R1A@?0A@EA@CWinThread@@8
rdata$r	SEGMENT
??_R1A@?0A@EA@CWinThread@@8 DD FLAT:??_R0?AVCWinThread@@@8 ; CWinThread::`RTTI Base Class Descriptor at (0,-1,0,64)'
	DD	02H
	DD	00H
	DD	0ffffffffH
	DD	00H
	DD	040H
	DD	FLAT:??_R3CWinThread@@8
rdata$r	ENDS
;	COMDAT ??_R2CWinApp@@8
rdata$r	SEGMENT
??_R2CWinApp@@8 DD FLAT:??_R1A@?0A@EA@CWinApp@@8	; CWinApp::`RTTI Base Class Array'
	DD	FLAT:??_R1A@?0A@EA@CWinThread@@8
	DD	FLAT:??_R1A@?0A@EA@CCmdTarget@@8
	DD	FLAT:??_R1A@?0A@EA@CObject@@8
rdata$r	ENDS
;	COMDAT ??_R3CWinApp@@8
rdata$r	SEGMENT
??_R3CWinApp@@8 DD 00H					; CWinApp::`RTTI Class Hierarchy Descriptor'
	DD	00H
	DD	04H
	DD	FLAT:??_R2CWinApp@@8
rdata$r	ENDS
;	COMDAT ??_R0?AVCWinApp@@@8
_DATA	SEGMENT
??_R0?AVCWinApp@@@8 DD FLAT:??_7type_info@@6B@		; CWinApp `RTTI Type Descriptor'
	DD	00H
	DB	'.?AVCWinApp@@', 00H
_DATA	ENDS
;	COMDAT ??_R1A@?0A@EA@CWinApp@@8
rdata$r	SEGMENT
??_R1A@?0A@EA@CWinApp@@8 DD FLAT:??_R0?AVCWinApp@@@8	; CWinApp::`RTTI Base Class Descriptor at (0,-1,0,64)'
	DD	03H
	DD	00H
	DD	0ffffffffH
	DD	00H
	DD	040H
	DD	FLAT:??_R3CWinApp@@8
rdata$r	ENDS
;	COMDAT ??_R2CWinAppEx@@8
rdata$r	SEGMENT
??_R2CWinAppEx@@8 DD FLAT:??_R1A@?0A@EA@CWinAppEx@@8	; CWinAppEx::`RTTI Base Class Array'
	DD	FLAT:??_R1A@?0A@EA@CWinApp@@8
	DD	FLAT:??_R1A@?0A@EA@CWinThread@@8
	DD	FLAT:??_R1A@?0A@EA@CCmdTarget@@8
	DD	FLAT:??_R1A@?0A@EA@CObject@@8
rdata$r	ENDS
;	COMDAT ??_R3CWinAppEx@@8
rdata$r	SEGMENT
??_R3CWinAppEx@@8 DD 00H				; CWinAppEx::`RTTI Class Hierarchy Descriptor'
	DD	00H
	DD	05H
	DD	FLAT:??_R2CWinAppEx@@8
rdata$r	ENDS
;	COMDAT ??_R0?AVCWinAppEx@@@8
_DATA	SEGMENT
??_R0?AVCWinAppEx@@@8 DD FLAT:??_7type_info@@6B@	; CWinAppEx `RTTI Type Descriptor'
	DD	00H
	DB	'.?AVCWinAppEx@@', 00H
_DATA	ENDS
;	COMDAT ??_R1A@?0A@EA@CWinAppEx@@8
rdata$r	SEGMENT
??_R1A@?0A@EA@CWinAppEx@@8 DD FLAT:??_R0?AVCWinAppEx@@@8 ; CWinAppEx::`RTTI Base Class Descriptor at (0,-1,0,64)'
	DD	04H
	DD	00H
	DD	0ffffffffH
	DD	00H
	DD	040H
	DD	FLAT:??_R3CWinAppEx@@8
rdata$r	ENDS
;	COMDAT ??_R1A@?0A@EA@CDviceCtrlDlgApp@@8
rdata$r	SEGMENT
??_R1A@?0A@EA@CDviceCtrlDlgApp@@8 DD FLAT:??_R0?AVCDviceCtrlDlgApp@@@8 ; CDviceCtrlDlgApp::`RTTI Base Class Descriptor at (0,-1,0,64)'
	DD	05H
	DD	00H
	DD	0ffffffffH
	DD	00H
	DD	040H
	DD	FLAT:??_R3CDviceCtrlDlgApp@@8
rdata$r	ENDS
;	COMDAT ??_R2CDviceCtrlDlgApp@@8
rdata$r	SEGMENT
??_R2CDviceCtrlDlgApp@@8 DD FLAT:??_R1A@?0A@EA@CDviceCtrlDlgApp@@8 ; CDviceCtrlDlgApp::`RTTI Base Class Array'
	DD	FLAT:??_R1A@?0A@EA@CWinAppEx@@8
	DD	FLAT:??_R1A@?0A@EA@CWinApp@@8
	DD	FLAT:??_R1A@?0A@EA@CWinThread@@8
	DD	FLAT:??_R1A@?0A@EA@CCmdTarget@@8
	DD	FLAT:??_R1A@?0A@EA@CObject@@8
rdata$r	ENDS
;	COMDAT ??_R3CDviceCtrlDlgApp@@8
rdata$r	SEGMENT
??_R3CDviceCtrlDlgApp@@8 DD 00H				; CDviceCtrlDlgApp::`RTTI Class Hierarchy Descriptor'
	DD	00H
	DD	06H
	DD	FLAT:??_R2CDviceCtrlDlgApp@@8
rdata$r	ENDS
;	COMDAT ??_R0?AVCDviceCtrlDlgApp@@@8
_DATA	SEGMENT
??_R0?AVCDviceCtrlDlgApp@@@8 DD FLAT:??_7type_info@@6B@	; CDviceCtrlDlgApp `RTTI Type Descriptor'
	DD	00H
	DB	'.?AVCDviceCtrlDlgApp@@', 00H
_DATA	ENDS
;	COMDAT ??_R4CDviceCtrlDlgApp@@6B@
rdata$r	SEGMENT
??_R4CDviceCtrlDlgApp@@6B@ DD 00H			; CDviceCtrlDlgApp::`RTTI Complete Object Locator'
	DD	00H
	DD	00H
	DD	FLAT:??_R0?AVCDviceCtrlDlgApp@@@8
	DD	FLAT:??_R3CDviceCtrlDlgApp@@8
rdata$r	ENDS
;	COMDAT ??_7CDviceCtrlDlgApp@@6B@
CONST	SEGMENT
??_7CDviceCtrlDlgApp@@6B@ DD FLAT:??_R4CDviceCtrlDlgApp@@6B@ ; CDviceCtrlDlgApp::`vftable'
	DD	FLAT:?GetRuntimeClass@CWinAppEx@@UBEPAUCRuntimeClass@@XZ
	DD	FLAT:??_ECDviceCtrlDlgApp@@UAEPAXI@Z
	DD	FLAT:?Serialize@CObject@@UAEXAAVCArchive@@@Z
	DD	FLAT:?AssertValid@CWinApp@@UBEXXZ
	DD	FLAT:?Dump@CWinApp@@UBEXAAVCDumpContext@@@Z
	DD	FLAT:?OnCmdMsg@CCmdTarget@@UAEHIHPAXPAUAFX_CMDHANDLERINFO@@@Z
	DD	FLAT:?OnFinalRelease@CCmdTarget@@UAEXXZ
	DD	FLAT:?IsInvokeAllowed@CCmdTarget@@UAEHJ@Z
	DD	FLAT:?GetDispatchIID@CCmdTarget@@UAEHPAU_GUID@@@Z
	DD	FLAT:?GetTypeInfoCount@CCmdTarget@@UAEIXZ
	DD	FLAT:?GetTypeLibCache@CCmdTarget@@UAEPAVCTypeLibCache@@XZ
	DD	FLAT:?GetTypeLib@CCmdTarget@@UAEJKPAPAUITypeLib@@@Z
	DD	FLAT:?GetMessageMap@CDviceCtrlDlgApp@@MBEPBUAFX_MSGMAP@@XZ
	DD	FLAT:?GetCommandMap@CCmdTarget@@MBEPBUAFX_OLECMDMAP@@XZ
	DD	FLAT:?GetDispatchMap@CCmdTarget@@MBEPBUAFX_DISPMAP@@XZ
	DD	FLAT:?GetConnectionMap@CCmdTarget@@MBEPBUAFX_CONNECTIONMAP@@XZ
	DD	FLAT:?GetInterfaceMap@CCmdTarget@@MBEPBUAFX_INTERFACEMAP@@XZ
	DD	FLAT:?GetEventSinkMap@CCmdTarget@@MBEPBUAFX_EVENTSINKMAP@@XZ
	DD	FLAT:?OnCreateAggregates@CCmdTarget@@UAEHXZ
	DD	FLAT:?GetInterfaceHook@CCmdTarget@@UAEPAUIUnknown@@PBX@Z
	DD	FLAT:?GetExtraConnectionPoints@CCmdTarget@@MAEHPAVCPtrArray@@@Z
	DD	FLAT:?GetConnectionHook@CCmdTarget@@MAEPAUIConnectionPoint@@ABU_GUID@@@Z
	DD	FLAT:?InitInstance@CDviceCtrlDlgApp@@UAEHXZ
	DD	FLAT:?Run@CWinApp@@UAEHXZ
	DD	FLAT:?PreTranslateMessage@CWinThread@@UAEHPAUtagMSG@@@Z
	DD	FLAT:?PumpMessage@CWinThread@@UAEHXZ
	DD	FLAT:?OnIdle@CWinApp@@UAEHJ@Z
	DD	FLAT:?IsIdleMessage@CWinThread@@UAEHPAUtagMSG@@@Z
	DD	FLAT:?ExitInstance@CWinAppEx@@UAEHXZ
	DD	FLAT:?ProcessWndProcException@CWinApp@@UAEJPAVCException@@PBUtagMSG@@@Z
	DD	FLAT:?ProcessMessageFilter@CWinThread@@UAEHHPAUtagMSG@@@Z
	DD	FLAT:?GetMainWnd@CWinThread@@UAEPAVCWnd@@XZ
	DD	FLAT:?Delete@CWinThread@@UAEXXZ
	DD	FLAT:?GetProfileIntW@CWinApp@@UAEIPB_W0H@Z
	DD	FLAT:?WriteProfileInt@CWinApp@@UAEHPB_W0H@Z
	DD	FLAT:?GetProfileStringW@CWinApp@@UAE?AV?$CStringT@_WV?$StrTraitMFC@_WV?$ChTraitsCRT@_W@ATL@@@@@ATL@@PB_W00@Z
	DD	FLAT:?WriteProfileStringW@CWinApp@@UAEHPB_W00@Z
	DD	FLAT:?GetProfileBinary@CWinApp@@UAEHPB_W0PAPAEPAI@Z
	DD	FLAT:?WriteProfileBinary@CWinApp@@UAEHPB_W0PAEI@Z
	DD	FLAT:?InitLibId@CWinApp@@UAEXXZ
	DD	FLAT:?Register@CWinApp@@UAEHXZ
	DD	FLAT:?Unregister@CWinApp@@UAEHXZ
	DD	FLAT:?OpenDocumentFile@CWinApp@@UAEPAVCDocument@@PB_WH@Z
	DD	FLAT:?OpenDocumentFile@CWinApp@@UAEPAVCDocument@@PB_W@Z
	DD	FLAT:?AddToRecentFileList@CWinApp@@UAEXPB_W@Z
	DD	FLAT:?InitApplication@CWinApp@@UAEHXZ
	DD	FLAT:?SaveAllModified@CWinApp@@UAEHXZ
	DD	FLAT:?DoMessageBox@CWinApp@@UAEHPB_WII@Z
	DD	FLAT:?DoWaitCursor@CWinApp@@UAEXH@Z
	DD	FLAT:?OnDDECommand@CWinApp@@UAEHPA_W@Z
	DD	FLAT:?WinHelpW@CWinApp@@UAEXKI@Z
	DD	FLAT:?HtmlHelpW@CWinApp@@UAEXKI@Z
	DD	FLAT:?WinHelpInternal@CWinApp@@UAEXKI@Z
	DD	FLAT:?RegisterWithRestartManager@CWinApp@@UAEJPB_WKP6GKPAX@Z1KK@Z
	DD	FLAT:?RegisterWithRestartManager@CWinApp@@UAEJHABV?$CStringT@_WV?$StrTraitMFC@_WV?$ChTraitsCRT@_W@ATL@@@@@ATL@@@Z
	DD	FLAT:?ApplicationRecoveryCallback@CWinApp@@UAEKPAX@Z
	DD	FLAT:?SupportsRestartManager@CWinApp@@UBEHXZ
	DD	FLAT:?SupportsApplicationRecovery@CWinApp@@UBEHXZ
	DD	FLAT:?SupportsAutosaveAtRestart@CWinApp@@UBEHXZ
	DD	FLAT:?SupportsAutosaveAtInterval@CWinApp@@UBEHXZ
	DD	FLAT:?ReopenPreviousFilesAtRestart@CWinApp@@UBEHXZ
	DD	FLAT:?RestoreAutosavedFilesAtRestart@CWinApp@@UBEHXZ
	DD	FLAT:?GetApplicationRestartFlags@CWinApp@@UAEKXZ
	DD	FLAT:?GetApplicationRecoveryParameter@CWinApp@@UAEPAXXZ
	DD	FLAT:?GetApplicationRecoveryPingInterval@CWinApp@@UAEKXZ
	DD	FLAT:?GetDataRecoveryHandler@CWinApp@@UAEPAVCDataRecoveryHandler@@XZ
	DD	FLAT:?IsTaskbarInteractionEnabled@CWinApp@@UAEHXZ
	DD	FLAT:?RestartInstance@CWinApp@@UAEHXZ
	DD	FLAT:?LoadAppLangResourceDLL@CWinApp@@UAEPAUHINSTANCE__@@XZ
	DD	FLAT:?LoadSysPolicies@CWinApp@@UAEHXZ
	DD	FLAT:?LoadState@CWinAppEx@@UAEHPB_WPAVCFrameImpl@@@Z
	DD	FLAT:?CleanState@CWinAppEx@@UAEHPB_W@Z
	DD	FLAT:?SaveState@CWinAppEx@@UAEHPB_WPAVCFrameImpl@@@Z
	DD	FLAT:?OnViewDoubleClick@CWinAppEx@@UAEHPAVCWnd@@H@Z
	DD	FLAT:?ShowPopupMenu@CWinAppEx@@UAEHIABVCPoint@@PAVCWnd@@@Z
	DD	FLAT:?OnAppContextHelp@CWinAppEx@@UAEXPAVCWnd@@QBK@Z
	DD	FLAT:?OnWorkspaceIdle@CWinAppEx@@UAEHPAVCWnd@@@Z
	DD	FLAT:?OnClosingMainFrame@CWinAppEx@@MAEXPAVCFrameImpl@@@Z
	DD	FLAT:?PreLoadState@CWinAppEx@@MAEXXZ
	DD	FLAT:?LoadCustomState@CWinAppEx@@MAEXXZ
	DD	FLAT:?PreSaveState@CWinAppEx@@MAEXXZ
	DD	FLAT:?SaveCustomState@CWinAppEx@@MAEXXZ
	DD	FLAT:?LoadWindowPlacement@CWinAppEx@@MAEHAAVCRect@@AAH1@Z
	DD	FLAT:?StoreWindowPlacement@CWinAppEx@@MAEHABVCRect@@HH@Z
	DD	FLAT:?ReloadWindowPlacement@CWinAppEx@@MAEHPAVCFrameWnd@@@Z
; Function compile flags: /Odtp /RTCsu /ZI
CONST	ENDS
;	COMDAT ??0CDviceCtrlDlgApp@@QAE@XZ
_TEXT	SEGMENT
_this$ = -8						; size = 4
??0CDviceCtrlDlgApp@@QAE@XZ PROC			; CDviceCtrlDlgApp::CDviceCtrlDlgApp, COMDAT
; _this$ = ecx

  00000	55		 push	 ebp
  00001	8b ec		 mov	 ebp, esp
  00003	81 ec cc 00 00
	00		 sub	 esp, 204		; 000000ccH
  00009	53		 push	 ebx
  0000a	56		 push	 esi
  0000b	57		 push	 edi
  0000c	51		 push	 ecx
  0000d	8d bd 34 ff ff
	ff		 lea	 edi, DWORD PTR [ebp-204]
  00013	b9 33 00 00 00	 mov	 ecx, 51			; 00000033H
  00018	b8 cc cc cc cc	 mov	 eax, -858993460		; ccccccccH
  0001d	f3 ab		 rep stosd
  0001f	59		 pop	 ecx
  00020	89 4d f8	 mov	 DWORD PTR _this$[ebp], ecx
  00023	6a 01		 push	 1
  00025	8b 4d f8	 mov	 ecx, DWORD PTR _this$[ebp]
  00028	e8 00 00 00 00	 call	 ??0CWinAppEx@@QAE@H@Z	; CWinAppEx::CWinAppEx
  0002d	8b 45 f8	 mov	 eax, DWORD PTR _this$[ebp]
  00030	c7 00 00 00 00
	00		 mov	 DWORD PTR [eax], OFFSET ??_7CDviceCtrlDlgApp@@6B@

  00036	8b 45 f8	 mov	 eax, DWORD PTR _this$[ebp]
  00039	5f		 pop	 edi
  0003a	5e		 pop	 esi
  0003b	5b		 pop	 ebx
  0003c	81 c4 cc 00 00
	00		 add	 esp, 204		; 000000ccH
  00042	3b ec		 cmp	 ebp, esp
  00044	e8 00 00 00 00	 call	 __RTC_CheckEsp
  00049	8b e5		 mov	 esp, ebp
  0004b	5d		 pop	 ebp
  0004c	c3		 ret	 0
??0CDviceCtrlDlgApp@@QAE@XZ ENDP			; CDviceCtrlDlgApp::CDviceCtrlDlgApp
_TEXT	ENDS
PUBLIC	??1CDviceCtrlDlgApp@@UAE@XZ			; CDviceCtrlDlgApp::~CDviceCtrlDlgApp
EXTRN	??3CObject@@SGXPAX@Z:PROC			; CObject::operator delete
; Function compile flags: /Odtp /RTCsu /ZI
;	COMDAT ??_GCDviceCtrlDlgApp@@UAEPAXI@Z
_TEXT	SEGMENT
_this$ = -8						; size = 4
___flags$ = 8						; size = 4
??_GCDviceCtrlDlgApp@@UAEPAXI@Z PROC			; CDviceCtrlDlgApp::`scalar deleting destructor', COMDAT
; _this$ = ecx
  00000	55		 push	 ebp
  00001	8b ec		 mov	 ebp, esp
  00003	81 ec cc 00 00
	00		 sub	 esp, 204		; 000000ccH
  00009	53		 push	 ebx
  0000a	56		 push	 esi
  0000b	57		 push	 edi
  0000c	51		 push	 ecx
  0000d	8d bd 34 ff ff
	ff		 lea	 edi, DWORD PTR [ebp-204]
  00013	b9 33 00 00 00	 mov	 ecx, 51			; 00000033H
  00018	b8 cc cc cc cc	 mov	 eax, -858993460		; ccccccccH
  0001d	f3 ab		 rep stosd
  0001f	59		 pop	 ecx
  00020	89 4d f8	 mov	 DWORD PTR _this$[ebp], ecx
  00023	8b 4d f8	 mov	 ecx, DWORD PTR _this$[ebp]
  00026	e8 00 00 00 00	 call	 ??1CDviceCtrlDlgApp@@UAE@XZ
  0002b	8b 45 08	 mov	 eax, DWORD PTR ___flags$[ebp]
  0002e	83 e0 01	 and	 eax, 1
  00031	74 09		 je	 SHORT $LN1@scalar
  00033	8b 45 f8	 mov	 eax, DWORD PTR _this$[ebp]
  00036	50		 push	 eax
  00037	e8 00 00 00 00	 call	 ??3CObject@@SGXPAX@Z	; CObject::operator delete
$LN1@scalar:
  0003c	8b 45 f8	 mov	 eax, DWORD PTR _this$[ebp]
  0003f	5f		 pop	 edi
  00040	5e		 pop	 esi
  00041	5b		 pop	 ebx
  00042	81 c4 cc 00 00
	00		 add	 esp, 204		; 000000ccH
  00048	3b ec		 cmp	 ebp, esp
  0004a	e8 00 00 00 00	 call	 __RTC_CheckEsp
  0004f	8b e5		 mov	 esp, ebp
  00051	5d		 pop	 ebp
  00052	c2 04 00	 ret	 4
??_GCDviceCtrlDlgApp@@UAEPAXI@Z ENDP			; CDviceCtrlDlgApp::`scalar deleting destructor'
_TEXT	ENDS
EXTRN	??1CWinAppEx@@UAE@XZ:PROC			; CWinAppEx::~CWinAppEx
; Function compile flags: /Odtp /RTCsu /ZI
;	COMDAT ??1CDviceCtrlDlgApp@@UAE@XZ
_TEXT	SEGMENT
_this$ = -8						; size = 4
??1CDviceCtrlDlgApp@@UAE@XZ PROC			; CDviceCtrlDlgApp::~CDviceCtrlDlgApp, COMDAT
; _this$ = ecx
  00000	55		 push	 ebp
  00001	8b ec		 mov	 ebp, esp
  00003	81 ec cc 00 00
	00		 sub	 esp, 204		; 000000ccH
  00009	53		 push	 ebx
  0000a	56		 push	 esi
  0000b	57		 push	 edi
  0000c	51		 push	 ecx
  0000d	8d bd 34 ff ff
	ff		 lea	 edi, DWORD PTR [ebp-204]
  00013	b9 33 00 00 00	 mov	 ecx, 51			; 00000033H
  00018	b8 cc cc cc cc	 mov	 eax, -858993460		; ccccccccH
  0001d	f3 ab		 rep stosd
  0001f	59		 pop	 ecx
  00020	89 4d f8	 mov	 DWORD PTR _this$[ebp], ecx
  00023	8b 4d f8	 mov	 ecx, DWORD PTR _this$[ebp]
  00026	e8 00 00 00 00	 call	 ??1CWinAppEx@@UAE@XZ	; CWinAppEx::~CWinAppEx
  0002b	5f		 pop	 edi
  0002c	5e		 pop	 esi
  0002d	5b		 pop	 ebx
  0002e	81 c4 cc 00 00
	00		 add	 esp, 204		; 000000ccH
  00034	3b ec		 cmp	 ebp, esp
  00036	e8 00 00 00 00	 call	 __RTC_CheckEsp
  0003b	8b e5		 mov	 esp, ebp
  0003d	5d		 pop	 ebp
  0003e	c3		 ret	 0
??1CDviceCtrlDlgApp@@UAE@XZ ENDP			; CDviceCtrlDlgApp::~CDviceCtrlDlgApp
_TEXT	ENDS
PUBLIC	??1CDviceCtrlDlgDlg@@UAE@XZ			; CDviceCtrlDlgDlg::~CDviceCtrlDlgDlg
PUBLIC	??_C@_19OPBLLBOM@?$IL?$LOY?$AHd?MO?2?$AA?$AA@	; `string'
PUBLIC	__$ArrayPad$
EXTRN	?DoModal@CDialog@@UAEHXZ:PROC			; CDialog::DoModal
EXTRN	??0CDviceCtrlDlgDlg@@QAE@PAVCWnd@@@Z:PROC	; CDviceCtrlDlgDlg::CDviceCtrlDlgDlg
EXTRN	?SetRegistryKey@CWinApp@@IAEXPB_W@Z:PROC	; CWinApp::SetRegistryKey
EXTRN	?AfxEnableControlContainer@@YAXPAVCOccManager@@@Z:PROC ; AfxEnableControlContainer
EXTRN	?InitInstance@CWinApp@@UAEHXZ:PROC		; CWinApp::InitInstance
EXTRN	__imp__InitCommonControlsEx@4:PROC
EXTRN	___security_cookie:DWORD
EXTRN	___CxxFrameHandler3:PROC
EXTRN	@__security_check_cookie@4:PROC
EXTRN	@_RTC_CheckStackVars@8:PROC
;	COMDAT ??_C@_19OPBLLBOM@?$IL?$LOY?$AHd?MO?2?$AA?$AA@
CONST	SEGMENT
??_C@_19OPBLLBOM@?$IL?$LOY?$AHd?MO?2?$AA?$AA@ DB 0beH, 08bH, 07H, 'Y', 0cdH
	DB	'd\O', 00H, 00H				; `string'
CONST	ENDS
;	COMDAT xdata$x
xdata$x	SEGMENT
__unwindtable$?InitInstance@CDviceCtrlDlgApp@@UAEHXZ DD 0ffffffffH
	DD	FLAT:__unwindfunclet$?InitInstance@CDviceCtrlDlgApp@@UAEHXZ$0
__ehfuncinfo$?InitInstance@CDviceCtrlDlgApp@@UAEHXZ DD 019930522H
	DD	01H
	DD	FLAT:__unwindtable$?InitInstance@CDviceCtrlDlgApp@@UAEHXZ
	DD	2 DUP(00H)
	DD	2 DUP(00H)
	DD	00H
	DD	01H
; Function compile flags: /Odtp /RTCsu /ZI
xdata$x	ENDS
;	COMDAT ?InitInstance@CDviceCtrlDlgApp@@UAEHXZ
_TEXT	SEGMENT
$T230829 = -3152					; size = 4
_nResponse$ = -2948					; size = 4
_dlg$ = -2936						; size = 2888
_InitCtrls$ = -40					; size = 8
_this$ = -24						; size = 4
__$ArrayPad$ = -16					; size = 4
__$EHRec$ = -12						; size = 12
?InitInstance@CDviceCtrlDlgApp@@UAEHXZ PROC		; CDviceCtrlDlgApp::InitInstance, COMDAT
; _this$ = ecx

  00000	55		 push	 ebp
  00001	8b ec		 mov	 ebp, esp
  00003	6a ff		 push	 -1
  00005	68 00 00 00 00	 push	 __ehhandler$?InitInstance@CDviceCtrlDlgApp@@UAEHXZ
  0000a	64 a1 00 00 00
	00		 mov	 eax, DWORD PTR fs:0
  00010	50		 push	 eax
  00011	81 ec 48 0c 00
	00		 sub	 esp, 3144		; 00000c48H
  00017	53		 push	 ebx
  00018	56		 push	 esi
  00019	57		 push	 edi
  0001a	51		 push	 ecx
  0001b	8d bd ac f3 ff
	ff		 lea	 edi, DWORD PTR [ebp-3156]
  00021	b9 12 03 00 00	 mov	 ecx, 786		; 00000312H
  00026	b8 cc cc cc cc	 mov	 eax, -858993460		; ccccccccH
  0002b	f3 ab		 rep stosd
  0002d	59		 pop	 ecx
  0002e	a1 00 00 00 00	 mov	 eax, DWORD PTR ___security_cookie
  00033	33 c5		 xor	 eax, ebp
  00035	89 45 f0	 mov	 DWORD PTR __$ArrayPad$[ebp], eax
  00038	50		 push	 eax
  00039	8d 45 f4	 lea	 eax, DWORD PTR __$EHRec$[ebp]
  0003c	64 a3 00 00 00
	00		 mov	 DWORD PTR fs:0, eax
  00042	89 4d e8	 mov	 DWORD PTR _this$[ebp], ecx

  00045	c7 45 d8 08 00
	00 00		 mov	 DWORD PTR _InitCtrls$[ebp], 8

  0004c	c7 45 dc ff 00
	00 00		 mov	 DWORD PTR _InitCtrls$[ebp+4], 255 ; 000000ffH

  00053	8b f4		 mov	 esi, esp
  00055	8d 45 d8	 lea	 eax, DWORD PTR _InitCtrls$[ebp]
  00058	50		 push	 eax
  00059	ff 15 00 00 00
	00		 call	 DWORD PTR __imp__InitCommonControlsEx@4
  0005f	3b f4		 cmp	 esi, esp
  00061	e8 00 00 00 00	 call	 __RTC_CheckEsp

  00066	8b 4d e8	 mov	 ecx, DWORD PTR _this$[ebp]
  00069	e8 00 00 00 00	 call	 ?InitInstance@CWinApp@@UAEHXZ ; CWinApp::InitInstance

  0006e	6a 00		 push	 0
  00070	e8 00 00 00 00	 call	 ?AfxEnableControlContainer@@YAXPAVCOccManager@@@Z ; AfxEnableControlContainer
  00075	83 c4 04	 add	 esp, 4

  00078	68 00 00 00 00	 push	 OFFSET ??_C@_19OPBLLBOM@?$IL?$LOY?$AHd?MO?2?$AA?$AA@
  0007d	8b 4d e8	 mov	 ecx, DWORD PTR _this$[ebp]
  00080	e8 00 00 00 00	 call	 ?SetRegistryKey@CWinApp@@IAEXPB_W@Z ; CWinApp::SetRegistryKey

  00085	6a 00		 push	 0
  00087	8d 8d 88 f4 ff
	ff		 lea	 ecx, DWORD PTR _dlg$[ebp]
  0008d	e8 00 00 00 00	 call	 ??0CDviceCtrlDlgDlg@@QAE@PAVCWnd@@@Z ; CDviceCtrlDlgDlg::CDviceCtrlDlgDlg
  00092	c7 45 fc 00 00
	00 00		 mov	 DWORD PTR __$EHRec$[ebp+8], 0

  00099	8b 45 e8	 mov	 eax, DWORD PTR _this$[ebp]
  0009c	8d 8d 88 f4 ff
	ff		 lea	 ecx, DWORD PTR _dlg$[ebp]
  000a2	89 48 20	 mov	 DWORD PTR [eax+32], ecx

  000a5	8d 8d 88 f4 ff
	ff		 lea	 ecx, DWORD PTR _dlg$[ebp]
  000ab	e8 00 00 00 00	 call	 ?DoModal@CDialog@@UAEHXZ ; CDialog::DoModal
  000b0	89 85 7c f4 ff
	ff		 mov	 DWORD PTR _nResponse$[ebp], eax

  000b6	c7 85 b0 f3 ff
	ff 00 00 00 00	 mov	 DWORD PTR $T230829[ebp], 0
  000c0	c7 45 fc ff ff
	ff ff		 mov	 DWORD PTR __$EHRec$[ebp+8], -1
  000c7	8d 8d 88 f4 ff
	ff		 lea	 ecx, DWORD PTR _dlg$[ebp]
  000cd	e8 00 00 00 00	 call	 ??1CDviceCtrlDlgDlg@@UAE@XZ
  000d2	8b 85 b0 f3 ff
	ff		 mov	 eax, DWORD PTR $T230829[ebp]

  000d8	52		 push	 edx
  000d9	8b cd		 mov	 ecx, ebp
  000db	50		 push	 eax
  000dc	8d 15 00 00 00
	00		 lea	 edx, DWORD PTR $LN11@InitInstan
  000e2	e8 00 00 00 00	 call	 @_RTC_CheckStackVars@8
  000e7	58		 pop	 eax
  000e8	5a		 pop	 edx
  000e9	8b 4d f4	 mov	 ecx, DWORD PTR __$EHRec$[ebp]
  000ec	64 89 0d 00 00
	00 00		 mov	 DWORD PTR fs:0, ecx
  000f3	59		 pop	 ecx
  000f4	5f		 pop	 edi
  000f5	5e		 pop	 esi
  000f6	5b		 pop	 ebx
  000f7	8b 4d f0	 mov	 ecx, DWORD PTR __$ArrayPad$[ebp]
  000fa	33 cd		 xor	 ecx, ebp
  000fc	e8 00 00 00 00	 call	 @__security_check_cookie@4
  00101	81 c4 54 0c 00
	00		 add	 esp, 3156		; 00000c54H
  00107	3b ec		 cmp	 ebp, esp
  00109	e8 00 00 00 00	 call	 __RTC_CheckEsp
  0010e	8b e5		 mov	 esp, ebp
  00110	5d		 pop	 ebp
  00111	c3		 ret	 0
  00112	8b ff		 npad	 2
$LN11@InitInstan:
  00114	02 00 00 00	 DD	 2
  00118	00 00 00 00	 DD	 $LN10@InitInstan
$LN10@InitInstan:
  0011c	d8 ff ff ff	 DD	 -40			; ffffffd8H
  00120	08 00 00 00	 DD	 8
  00124	00 00 00 00	 DD	 $LN7@InitInstan
  00128	88 f4 ff ff	 DD	 -2936			; fffff488H
  0012c	48 0b 00 00	 DD	 2888			; 00000b48H
  00130	00 00 00 00	 DD	 $LN8@InitInstan
$LN8@InitInstan:
  00134	64		 DB	 100			; 00000064H
  00135	6c		 DB	 108			; 0000006cH
  00136	67		 DB	 103			; 00000067H
  00137	00		 DB	 0
$LN7@InitInstan:
  00138	49		 DB	 73			; 00000049H
  00139	6e		 DB	 110			; 0000006eH
  0013a	69		 DB	 105			; 00000069H
  0013b	74		 DB	 116			; 00000074H
  0013c	43		 DB	 67			; 00000043H
  0013d	74		 DB	 116			; 00000074H
  0013e	72		 DB	 114			; 00000072H
  0013f	6c		 DB	 108			; 0000006cH
  00140	73		 DB	 115			; 00000073H
  00141	00		 DB	 0
_TEXT	ENDS
;	COMDAT text$x
text$x	SEGMENT
__unwindfunclet$?InitInstance@CDviceCtrlDlgApp@@UAEHXZ$0:
  00000	8d 8d 88 f4 ff
	ff		 lea	 ecx, DWORD PTR _dlg$[ebp]
  00006	e9 00 00 00 00	 jmp	 ??1CDviceCtrlDlgDlg@@UAE@XZ
__ehhandler$?InitInstance@CDviceCtrlDlgApp@@UAEHXZ:
  0000b	8b 54 24 08	 mov	 edx, DWORD PTR [esp+8]
  0000f	8d 42 0c	 lea	 eax, DWORD PTR [edx+12]
  00012	8b 8a a8 f3 ff
	ff		 mov	 ecx, DWORD PTR [edx-3160]
  00018	33 c8		 xor	 ecx, eax
  0001a	e8 00 00 00 00	 call	 @__security_check_cookie@4
  0001f	8b 4a fc	 mov	 ecx, DWORD PTR [edx-4]
  00022	33 c8		 xor	 ecx, eax
  00024	e8 00 00 00 00	 call	 @__security_check_cookie@4
  00029	b8 00 00 00 00	 mov	 eax, OFFSET __ehfuncinfo$?InitInstance@CDviceCtrlDlgApp@@UAEHXZ
  0002e	e9 00 00 00 00	 jmp	 ___CxxFrameHandler3
text$x	ENDS
?InitInstance@CDviceCtrlDlgApp@@UAEHXZ ENDP		; CDviceCtrlDlgApp::InitInstance
PUBLIC	??1?$CStringT@_WV?$StrTraitMFC@_WV?$ChTraitsCRT@_W@ATL@@@@@ATL@@QAE@XZ ; ATL::CStringT<wchar_t,StrTraitMFC<wchar_t,ATL::ChTraitsCRT<wchar_t> > >::~CStringT<wchar_t,StrTraitMFC<wchar_t,ATL::ChTraitsCRT<wchar_t> > >
PUBLIC	??1?$vector@V?$CStringT@_WV?$StrTraitMFC@_WV?$ChTraitsCRT@_W@ATL@@@@@ATL@@V?$allocator@V?$CStringT@_WV?$StrTraitMFC@_WV?$ChTraitsCRT@_W@ATL@@@@@ATL@@@std@@@std@@QAE@XZ ; std::vector<ATL::CStringT<wchar_t,StrTraitMFC<wchar_t,ATL::ChTraitsCRT<wchar_t> > >,std::allocator<ATL::CStringT<wchar_t,StrTraitMFC<wchar_t,ATL::ChTraitsCRT<wchar_t> > > > >::~vector<ATL::CStringT<wchar_t,StrTraitMFC<wchar_t,ATL::ChTraitsCRT<wchar_t> > >,std::allocator<ATL::CStringT<wchar_t,StrTraitMFC<wchar_t,ATL::ChTraitsCRT<wchar_t> > > > >
EXTRN	??1CDialog@@UAE@XZ:PROC				; CDialog::~CDialog
EXTRN	??1CComPort@LsComm@@UAE@XZ:PROC			; LsComm::CComPort::~CComPort
EXTRN	??1CSliderCtrl@@UAE@XZ:PROC			; CSliderCtrl::~CSliderCtrl
EXTRN	??1CEdit@@UAE@XZ:PROC				; CEdit::~CEdit
EXTRN	??1CStatic@@UAE@XZ:PROC				; CStatic::~CStatic
;	COMDAT xdata$x
xdata$x	SEGMENT
__ehfuncinfo$??1CDviceCtrlDlgDlg@@UAE@XZ DD 019930522H
	DD	06H
	DD	FLAT:__unwindtable$??1CDviceCtrlDlgDlg@@UAE@XZ
	DD	2 DUP(00H)
	DD	2 DUP(00H)
	DD	00H
	DD	01H
__unwindtable$??1CDviceCtrlDlgDlg@@UAE@XZ DD 0ffffffffH
	DD	FLAT:__unwindfunclet$??1CDviceCtrlDlgDlg@@UAE@XZ$0
	DD	00H
	DD	FLAT:__unwindfunclet$??1CDviceCtrlDlgDlg@@UAE@XZ$1
	DD	01H
	DD	FLAT:__unwindfunclet$??1CDviceCtrlDlgDlg@@UAE@XZ$2
	DD	02H
	DD	FLAT:__unwindfunclet$??1CDviceCtrlDlgDlg@@UAE@XZ$3
	DD	03H
	DD	FLAT:__unwindfunclet$??1CDviceCtrlDlgDlg@@UAE@XZ$4
	DD	04H
	DD	FLAT:__unwindfunclet$??1CDviceCtrlDlgDlg@@UAE@XZ$5
; Function compile flags: /Odtp /RTCsu /ZI
xdata$x	ENDS
;	COMDAT ??1CDviceCtrlDlgDlg@@UAE@XZ
_TEXT	SEGMENT
_this$ = -20						; size = 4
__$EHRec$ = -12						; size = 12
??1CDviceCtrlDlgDlg@@UAE@XZ PROC			; CDviceCtrlDlgDlg::~CDviceCtrlDlgDlg, COMDAT
; _this$ = ecx
  00000	55		 push	 ebp
  00001	8b ec		 mov	 ebp, esp
  00003	6a ff		 push	 -1
  00005	68 00 00 00 00	 push	 __ehhandler$??1CDviceCtrlDlgDlg@@UAE@XZ
  0000a	64 a1 00 00 00
	00		 mov	 eax, DWORD PTR fs:0
  00010	50		 push	 eax
  00011	81 ec cc 00 00
	00		 sub	 esp, 204		; 000000ccH
  00017	53		 push	 ebx
  00018	56		 push	 esi
  00019	57		 push	 edi
  0001a	51		 push	 ecx
  0001b	8d bd 28 ff ff
	ff		 lea	 edi, DWORD PTR [ebp-216]
  00021	b9 33 00 00 00	 mov	 ecx, 51			; 00000033H
  00026	b8 cc cc cc cc	 mov	 eax, -858993460		; ccccccccH
  0002b	f3 ab		 rep stosd
  0002d	59		 pop	 ecx
  0002e	a1 00 00 00 00	 mov	 eax, DWORD PTR ___security_cookie
  00033	33 c5		 xor	 eax, ebp
  00035	50		 push	 eax
  00036	8d 45 f4	 lea	 eax, DWORD PTR __$EHRec$[ebp]
  00039	64 a3 00 00 00
	00		 mov	 DWORD PTR fs:0, eax
  0003f	89 4d ec	 mov	 DWORD PTR _this$[ebp], ecx
  00042	c7 45 fc 05 00
	00 00		 mov	 DWORD PTR __$EHRec$[ebp+8], 5
  00049	8b 4d ec	 mov	 ecx, DWORD PTR _this$[ebp]
  0004c	81 c1 18 0b 00
	00		 add	 ecx, 2840		; 00000b18H
  00052	e8 00 00 00 00	 call	 ??1?$vector@V?$CStringT@_WV?$StrTraitMFC@_WV?$ChTraitsCRT@_W@ATL@@@@@ATL@@V?$allocator@V?$CStringT@_WV?$StrTraitMFC@_WV?$ChTraitsCRT@_W@ATL@@@@@ATL@@@std@@@std@@QAE@XZ ; std::vector<ATL::CStringT<wchar_t,StrTraitMFC<wchar_t,ATL::ChTraitsCRT<wchar_t> > >,std::allocator<ATL::CStringT<wchar_t,StrTraitMFC<wchar_t,ATL::ChTraitsCRT<wchar_t> > > > >::~vector<ATL::CStringT<wchar_t,StrTraitMFC<wchar_t,ATL::ChTraitsCRT<wchar_t> > >,std::allocator<ATL::CStringT<wchar_t,StrTraitMFC<wchar_t,ATL::ChTraitsCRT<wchar_t> > > > >
  00057	c6 45 fc 04	 mov	 BYTE PTR __$EHRec$[ebp+8], 4
  0005b	8b 4d ec	 mov	 ecx, DWORD PTR _this$[ebp]
  0005e	81 c1 88 0a 00
	00		 add	 ecx, 2696		; 00000a88H
  00064	e8 00 00 00 00	 call	 ??1CStatic@@UAE@XZ	; CStatic::~CStatic
  00069	c6 45 fc 03	 mov	 BYTE PTR __$EHRec$[ebp+8], 3
  0006d	8b 4d ec	 mov	 ecx, DWORD PTR _this$[ebp]
  00070	81 c1 14 0a 00
	00		 add	 ecx, 2580		; 00000a14H
  00076	e8 00 00 00 00	 call	 ??1CEdit@@UAE@XZ	; CEdit::~CEdit
  0007b	c6 45 fc 02	 mov	 BYTE PTR __$EHRec$[ebp+8], 2
  0007f	8b 4d ec	 mov	 ecx, DWORD PTR _this$[ebp]
  00082	81 c1 9c 09 00
	00		 add	 ecx, 2460		; 0000099cH
  00088	e8 00 00 00 00	 call	 ??1CSliderCtrl@@UAE@XZ	; CSliderCtrl::~CSliderCtrl
  0008d	c6 45 fc 01	 mov	 BYTE PTR __$EHRec$[ebp+8], 1
  00091	8b 4d ec	 mov	 ecx, DWORD PTR _this$[ebp]
  00094	81 c1 98 09 00
	00		 add	 ecx, 2456		; 00000998H
  0009a	e8 00 00 00 00	 call	 ??1?$CStringT@_WV?$StrTraitMFC@_WV?$ChTraitsCRT@_W@ATL@@@@@ATL@@QAE@XZ ; ATL::CStringT<wchar_t,StrTraitMFC<wchar_t,ATL::ChTraitsCRT<wchar_t> > >::~CStringT<wchar_t,StrTraitMFC<wchar_t,ATL::ChTraitsCRT<wchar_t> > >
  0009f	c6 45 fc 00	 mov	 BYTE PTR __$EHRec$[ebp+8], 0
  000a3	8b 4d ec	 mov	 ecx, DWORD PTR _this$[ebp]
  000a6	81 c1 30 01 00
	00		 add	 ecx, 304		; 00000130H
  000ac	e8 00 00 00 00	 call	 ??1CComPort@LsComm@@UAE@XZ ; LsComm::CComPort::~CComPort
  000b1	c7 45 fc ff ff
	ff ff		 mov	 DWORD PTR __$EHRec$[ebp+8], -1
  000b8	8b 4d ec	 mov	 ecx, DWORD PTR _this$[ebp]
  000bb	e8 00 00 00 00	 call	 ??1CDialog@@UAE@XZ	; CDialog::~CDialog
  000c0	8b 4d f4	 mov	 ecx, DWORD PTR __$EHRec$[ebp]
  000c3	64 89 0d 00 00
	00 00		 mov	 DWORD PTR fs:0, ecx
  000ca	59		 pop	 ecx
  000cb	5f		 pop	 edi
  000cc	5e		 pop	 esi
  000cd	5b		 pop	 ebx
  000ce	81 c4 d8 00 00
	00		 add	 esp, 216		; 000000d8H
  000d4	3b ec		 cmp	 ebp, esp
  000d6	e8 00 00 00 00	 call	 __RTC_CheckEsp
  000db	8b e5		 mov	 esp, ebp
  000dd	5d		 pop	 ebp
  000de	c3		 ret	 0
_TEXT	ENDS
;	COMDAT text$x
text$x	SEGMENT
__unwindfunclet$??1CDviceCtrlDlgDlg@@UAE@XZ$0:
  00000	8b 4d ec	 mov	 ecx, DWORD PTR _this$[ebp]
  00003	e9 00 00 00 00	 jmp	 ??1CDialog@@UAE@XZ	; CDialog::~CDialog
__unwindfunclet$??1CDviceCtrlDlgDlg@@UAE@XZ$1:
  00008	8b 4d ec	 mov	 ecx, DWORD PTR _this$[ebp]
  0000b	81 c1 30 01 00
	00		 add	 ecx, 304		; 00000130H
  00011	e9 00 00 00 00	 jmp	 ??1CComPort@LsComm@@UAE@XZ ; LsComm::CComPort::~CComPort
__unwindfunclet$??1CDviceCtrlDlgDlg@@UAE@XZ$2:
  00016	8b 4d ec	 mov	 ecx, DWORD PTR _this$[ebp]
  00019	81 c1 98 09 00
	00		 add	 ecx, 2456		; 00000998H
  0001f	e9 00 00 00 00	 jmp	 ??1?$CStringT@_WV?$StrTraitMFC@_WV?$ChTraitsCRT@_W@ATL@@@@@ATL@@QAE@XZ ; ATL::CStringT<wchar_t,StrTraitMFC<wchar_t,ATL::ChTraitsCRT<wchar_t> > >::~CStringT<wchar_t,StrTraitMFC<wchar_t,ATL::ChTraitsCRT<wchar_t> > >
__unwindfunclet$??1CDviceCtrlDlgDlg@@UAE@XZ$3:
  00024	8b 4d ec	 mov	 ecx, DWORD PTR _this$[ebp]
  00027	81 c1 9c 09 00
	00		 add	 ecx, 2460		; 0000099cH
  0002d	e9 00 00 00 00	 jmp	 ??1CSliderCtrl@@UAE@XZ	; CSliderCtrl::~CSliderCtrl
__unwindfunclet$??1CDviceCtrlDlgDlg@@UAE@XZ$4:
  00032	8b 4d ec	 mov	 ecx, DWORD PTR _this$[ebp]
  00035	81 c1 14 0a 00
	00		 add	 ecx, 2580		; 00000a14H
  0003b	e9 00 00 00 00	 jmp	 ??1CEdit@@UAE@XZ	; CEdit::~CEdit
__unwindfunclet$??1CDviceCtrlDlgDlg@@UAE@XZ$5:
  00040	8b 4d ec	 mov	 ecx, DWORD PTR _this$[ebp]
  00043	81 c1 88 0a 00
	00		 add	 ecx, 2696		; 00000a88H
  00049	e9 00 00 00 00	 jmp	 ??1CStatic@@UAE@XZ	; CStatic::~CStatic
__ehhandler$??1CDviceCtrlDlgDlg@@UAE@XZ:
  0004e	8b 54 24 08	 mov	 edx, DWORD PTR [esp+8]
  00052	8d 42 0c	 lea	 eax, DWORD PTR [edx+12]
  00055	8b 8a 24 ff ff
	ff		 mov	 ecx, DWORD PTR [edx-220]
  0005b	33 c8		 xor	 ecx, eax
  0005d	e8 00 00 00 00	 call	 @__security_check_cookie@4
  00062	b8 00 00 00 00	 mov	 eax, OFFSET __ehfuncinfo$??1CDviceCtrlDlgDlg@@UAE@XZ
  00067	e9 00 00 00 00	 jmp	 ___CxxFrameHandler3
text$x	ENDS
??1CDviceCtrlDlgDlg@@UAE@XZ ENDP			; CDviceCtrlDlgDlg::~CDviceCtrlDlgDlg
PUBLIC	??1?$_Vector_val@V?$CStringT@_WV?$StrTraitMFC@_WV?$ChTraitsCRT@_W@ATL@@@@@ATL@@V?$allocator@V?$CStringT@_WV?$StrTraitMFC@_WV?$ChTraitsCRT@_W@ATL@@@@@ATL@@@std@@@std@@QAE@XZ ; std::_Vector_val<ATL::CStringT<wchar_t,StrTraitMFC<wchar_t,ATL::ChTraitsCRT<wchar_t> > >,std::allocator<ATL::CStringT<wchar_t,StrTraitMFC<wchar_t,ATL::ChTraitsCRT<wchar_t> > > > >::~_Vector_val<ATL::CStringT<wchar_t,StrTraitMFC<wchar_t,ATL::ChTraitsCRT<wchar_t> > >,std::allocator<ATL::CStringT<wchar_t,StrTraitMFC<wchar_t,ATL::ChTraitsCRT<wchar_t> > > > >
PUBLIC	?_Tidy@?$vector@V?$CStringT@_WV?$StrTraitMFC@_WV?$ChTraitsCRT@_W@ATL@@@@@ATL@@V?$allocator@V?$CStringT@_WV?$StrTraitMFC@_WV?$ChTraitsCRT@_W@ATL@@@@@ATL@@@std@@@std@@IAEXXZ ; std::vector<ATL::CStringT<wchar_t,StrTraitMFC<wchar_t,ATL::ChTraitsCRT<wchar_t> > >,std::allocator<ATL::CStringT<wchar_t,StrTraitMFC<wchar_t,ATL::ChTraitsCRT<wchar_t> > > > >::_Tidy
;	COMDAT xdata$x
; File c:\program files\microsoft visual studio 10.0\vc\include\vector
xdata$x	SEGMENT
__unwindtable$??1?$vector@V?$CStringT@_WV?$StrTraitMFC@_WV?$ChTraitsCRT@_W@ATL@@@@@ATL@@V?$allocator@V?$CStringT@_WV?$StrTraitMFC@_WV?$ChTraitsCRT@_W@ATL@@@@@ATL@@@std@@@std@@QAE@XZ DD 0ffffffffH
	DD	FLAT:__unwindfunclet$??1?$vector@V?$CStringT@_WV?$StrTraitMFC@_WV?$ChTraitsCRT@_W@ATL@@@@@ATL@@V?$allocator@V?$CStringT@_WV?$StrTraitMFC@_WV?$ChTraitsCRT@_W@ATL@@@@@ATL@@@std@@@std@@QAE@XZ$0
__ehfuncinfo$??1?$vector@V?$CStringT@_WV?$StrTraitMFC@_WV?$ChTraitsCRT@_W@ATL@@@@@ATL@@V?$allocator@V?$CStringT@_WV?$StrTraitMFC@_WV?$ChTraitsCRT@_W@ATL@@@@@ATL@@@std@@@std@@QAE@XZ DD 019930522H
	DD	01H
	DD	FLAT:__unwindtable$??1?$vector@V?$CStringT@_WV?$StrTraitMFC@_WV?$ChTraitsCRT@_W@ATL@@@@@ATL@@V?$allocator@V?$CStringT@_WV?$StrTraitMFC@_WV?$ChTraitsCRT@_W@ATL@@@@@ATL@@@std@@@std@@QAE@XZ
	DD	2 DUP(00H)
	DD	2 DUP(00H)
	DD	00H
	DD	01H
; Function compile flags: /Odtp /RTCsu /ZI
xdata$x	ENDS
;	COMDAT ??1?$vector@V?$CStringT@_WV?$StrTraitMFC@_WV?$ChTraitsCRT@_W@ATL@@@@@ATL@@V?$allocator@V?$CStringT@_WV?$StrTraitMFC@_WV?$ChTraitsCRT@_W@ATL@@@@@ATL@@@std@@@std@@QAE@XZ
_TEXT	SEGMENT
_this$ = -20						; size = 4
__$EHRec$ = -12						; size = 12
??1?$vector@V?$CStringT@_WV?$StrTraitMFC@_WV?$ChTraitsCRT@_W@ATL@@@@@ATL@@V?$allocator@V?$CStringT@_WV?$StrTraitMFC@_WV?$ChTraitsCRT@_W@ATL@@@@@ATL@@@std@@@std@@QAE@XZ PROC ; std::vector<ATL::CStringT<wchar_t,StrTraitMFC<wchar_t,ATL::ChTraitsCRT<wchar_t> > >,std::allocator<ATL::CStringT<wchar_t,StrTraitMFC<wchar_t,ATL::ChTraitsCRT<wchar_t> > > > >::~vector<ATL::CStringT<wchar_t,StrTraitMFC<wchar_t,ATL::ChTraitsCRT<wchar_t> > >,std::allocator<ATL::CStringT<wchar_t,StrTraitMFC<wchar_t,ATL::ChTraitsCRT<wchar_t> > > > >, COMDAT
; _this$ = ecx

; 704  : 		{	// destroy the object

  00000	55		 push	 ebp
  00001	8b ec		 mov	 ebp, esp
  00003	6a ff		 push	 -1
  00005	68 00 00 00 00	 push	 __ehhandler$??1?$vector@V?$CStringT@_WV?$StrTraitMFC@_WV?$ChTraitsCRT@_W@ATL@@@@@ATL@@V?$allocator@V?$CStringT@_WV?$StrTraitMFC@_WV?$ChTraitsCRT@_W@ATL@@@@@ATL@@@std@@@std@@QAE@XZ
  0000a	64 a1 00 00 00
	00		 mov	 eax, DWORD PTR fs:0
  00010	50		 push	 eax
  00011	81 ec cc 00 00
	00		 sub	 esp, 204		; 000000ccH
  00017	53		 push	 ebx
  00018	56		 push	 esi
  00019	57		 push	 edi
  0001a	51		 push	 ecx
  0001b	8d bd 28 ff ff
	ff		 lea	 edi, DWORD PTR [ebp-216]
  00021	b9 33 00 00 00	 mov	 ecx, 51			; 00000033H
  00026	b8 cc cc cc cc	 mov	 eax, -858993460		; ccccccccH
  0002b	f3 ab		 rep stosd
  0002d	59		 pop	 ecx
  0002e	a1 00 00 00 00	 mov	 eax, DWORD PTR ___security_cookie
  00033	33 c5		 xor	 eax, ebp
  00035	50		 push	 eax
  00036	8d 45 f4	 lea	 eax, DWORD PTR __$EHRec$[ebp]
  00039	64 a3 00 00 00
	00		 mov	 DWORD PTR fs:0, eax
  0003f	89 4d ec	 mov	 DWORD PTR _this$[ebp], ecx
  00042	c7 45 fc 00 00
	00 00		 mov	 DWORD PTR __$EHRec$[ebp+8], 0

; 705  : 		_Tidy();

  00049	8b 4d ec	 mov	 ecx, DWORD PTR _this$[ebp]
  0004c	e8 00 00 00 00	 call	 ?_Tidy@?$vector@V?$CStringT@_WV?$StrTraitMFC@_WV?$ChTraitsCRT@_W@ATL@@@@@ATL@@V?$allocator@V?$CStringT@_WV?$StrTraitMFC@_WV?$ChTraitsCRT@_W@ATL@@@@@ATL@@@std@@@std@@IAEXXZ ; std::vector<ATL::CStringT<wchar_t,StrTraitMFC<wchar_t,ATL::ChTraitsCRT<wchar_t> > >,std::allocator<ATL::CStringT<wchar_t,StrTraitMFC<wchar_t,ATL::ChTraitsCRT<wchar_t> > > > >::_Tidy

; 706  : 		}

  00051	c7 45 fc ff ff
	ff ff		 mov	 DWORD PTR __$EHRec$[ebp+8], -1
  00058	8b 4d ec	 mov	 ecx, DWORD PTR _this$[ebp]
  0005b	e8 00 00 00 00	 call	 ??1?$_Vector_val@V?$CStringT@_WV?$StrTraitMFC@_WV?$ChTraitsCRT@_W@ATL@@@@@ATL@@V?$allocator@V?$CStringT@_WV?$StrTraitMFC@_WV?$ChTraitsCRT@_W@ATL@@@@@ATL@@@std@@@std@@QAE@XZ ; std::_Vector_val<ATL::CStringT<wchar_t,StrTraitMFC<wchar_t,ATL::ChTraitsCRT<wchar_t> > >,std::allocator<ATL::CStringT<wchar_t,StrTraitMFC<wchar_t,ATL::ChTraitsCRT<wchar_t> > > > >::~_Vector_val<ATL::CStringT<wchar_t,StrTraitMFC<wchar_t,ATL::ChTraitsCRT<wchar_t> > >,std::allocator<ATL::CStringT<wchar_t,StrTraitMFC<wchar_t,ATL::ChTraitsCRT<wchar_t> > > > >
  00060	8b 4d f4	 mov	 ecx, DWORD PTR __$EHRec$[ebp]
  00063	64 89 0d 00 00
	00 00		 mov	 DWORD PTR fs:0, ecx
  0006a	59		 pop	 ecx
  0006b	5f		 pop	 edi
  0006c	5e		 pop	 esi
  0006d	5b		 pop	 ebx
  0006e	81 c4 d8 00 00
	00		 add	 esp, 216		; 000000d8H
  00074	3b ec		 cmp	 ebp, esp
  00076	e8 00 00 00 00	 call	 __RTC_CheckEsp
  0007b	8b e5		 mov	 esp, ebp
  0007d	5d		 pop	 ebp
  0007e	c3		 ret	 0
_TEXT	ENDS
;	COMDAT text$x
text$x	SEGMENT
__unwindfunclet$??1?$vector@V?$CStringT@_WV?$StrTraitMFC@_WV?$ChTraitsCRT@_W@ATL@@@@@ATL@@V?$allocator@V?$CStringT@_WV?$StrTraitMFC@_WV?$ChTraitsCRT@_W@ATL@@@@@ATL@@@std@@@std@@QAE@XZ$0:
  00000	8b 4d ec	 mov	 ecx, DWORD PTR _this$[ebp]
  00003	e9 00 00 00 00	 jmp	 ??1?$_Vector_val@V?$CStringT@_WV?$StrTraitMFC@_WV?$ChTraitsCRT@_W@ATL@@@@@ATL@@V?$allocator@V?$CStringT@_WV?$StrTraitMFC@_WV?$ChTraitsCRT@_W@ATL@@@@@ATL@@@std@@@std@@QAE@XZ ; std::_Vector_val<ATL::CStringT<wchar_t,StrTraitMFC<wchar_t,ATL::ChTraitsCRT<wchar_t> > >,std::allocator<ATL::CStringT<wchar_t,StrTraitMFC<wchar_t,ATL::ChTraitsCRT<wchar_t> > > > >::~_Vector_val<ATL::CStringT<wchar_t,StrTraitMFC<wchar_t,ATL::ChTraitsCRT<wchar_t> > >,std::allocator<ATL::CStringT<wchar_t,StrTraitMFC<wchar_t,ATL::ChTraitsCRT<wchar_t> > > > >
__ehhandler$??1?$vector@V?$CStringT@_WV?$StrTraitMFC@_WV?$ChTraitsCRT@_W@ATL@@@@@ATL@@V?$allocator@V?$CStringT@_WV?$StrTraitMFC@_WV?$ChTraitsCRT@_W@ATL@@@@@ATL@@@std@@@std@@QAE@XZ:
  00008	8b 54 24 08	 mov	 edx, DWORD PTR [esp+8]
  0000c	8d 42 0c	 lea	 eax, DWORD PTR [edx+12]
  0000f	8b 8a 24 ff ff
	ff		 mov	 ecx, DWORD PTR [edx-220]
  00015	33 c8		 xor	 ecx, eax
  00017	e8 00 00 00 00	 call	 @__security_check_cookie@4
  0001c	b8 00 00 00 00	 mov	 eax, OFFSET __ehfuncinfo$??1?$vector@V?$CStringT@_WV?$StrTraitMFC@_WV?$ChTraitsCRT@_W@ATL@@@@@ATL@@V?$allocator@V?$CStringT@_WV?$StrTraitMFC@_WV?$ChTraitsCRT@_W@ATL@@@@@ATL@@@std@@@std@@QAE@XZ
  00021	e9 00 00 00 00	 jmp	 ___CxxFrameHandler3
text$x	ENDS
??1?$vector@V?$CStringT@_WV?$StrTraitMFC@_WV?$ChTraitsCRT@_W@ATL@@@@@ATL@@V?$allocator@V?$CStringT@_WV?$StrTraitMFC@_WV?$ChTraitsCRT@_W@ATL@@@@@ATL@@@std@@@std@@QAE@XZ ENDP ; std::vector<ATL::CStringT<wchar_t,StrTraitMFC<wchar_t,ATL::ChTraitsCRT<wchar_t> > >,std::allocator<ATL::CStringT<wchar_t,StrTraitMFC<wchar_t,ATL::ChTraitsCRT<wchar_t> > > > >::~vector<ATL::CStringT<wchar_t,StrTraitMFC<wchar_t,ATL::ChTraitsCRT<wchar_t> > >,std::allocator<ATL::CStringT<wchar_t,StrTraitMFC<wchar_t,ATL::ChTraitsCRT<wchar_t> > > > >
PUBLIC	?deallocate@?$allocator@V?$CStringT@_WV?$StrTraitMFC@_WV?$ChTraitsCRT@_W@ATL@@@@@ATL@@@std@@QAEXPAV?$CStringT@_WV?$StrTraitMFC@_WV?$ChTraitsCRT@_W@ATL@@@@@ATL@@I@Z ; std::allocator<ATL::CStringT<wchar_t,StrTraitMFC<wchar_t,ATL::ChTraitsCRT<wchar_t> > > >::deallocate
PUBLIC	?_Destroy@?$vector@V?$CStringT@_WV?$StrTraitMFC@_WV?$ChTraitsCRT@_W@ATL@@@@@ATL@@V?$allocator@V?$CStringT@_WV?$StrTraitMFC@_WV?$ChTraitsCRT@_W@ATL@@@@@ATL@@@std@@@std@@IAEXPAV?$CStringT@_WV?$StrTraitMFC@_WV?$ChTraitsCRT@_W@ATL@@@@@ATL@@0@Z ; std::vector<ATL::CStringT<wchar_t,StrTraitMFC<wchar_t,ATL::ChTraitsCRT<wchar_t> > >,std::allocator<ATL::CStringT<wchar_t,StrTraitMFC<wchar_t,ATL::ChTraitsCRT<wchar_t> > > > >::_Destroy
PUBLIC	?_Orphan_all@_Container_base12@std@@QAEXXZ	; std::_Container_base12::_Orphan_all
; Function compile flags: /Odtp /RTCsu /ZI
;	COMDAT ?_Tidy@?$vector@V?$CStringT@_WV?$StrTraitMFC@_WV?$ChTraitsCRT@_W@ATL@@@@@ATL@@V?$allocator@V?$CStringT@_WV?$StrTraitMFC@_WV?$ChTraitsCRT@_W@ATL@@@@@ATL@@@std@@@std@@IAEXXZ
_TEXT	SEGMENT
_this$ = -8						; size = 4
?_Tidy@?$vector@V?$CStringT@_WV?$StrTraitMFC@_WV?$ChTraitsCRT@_W@ATL@@@@@ATL@@V?$allocator@V?$CStringT@_WV?$StrTraitMFC@_WV?$ChTraitsCRT@_W@ATL@@@@@ATL@@@std@@@std@@IAEXXZ PROC ; std::vector<ATL::CStringT<wchar_t,StrTraitMFC<wchar_t,ATL::ChTraitsCRT<wchar_t> > >,std::allocator<ATL::CStringT<wchar_t,StrTraitMFC<wchar_t,ATL::ChTraitsCRT<wchar_t> > > > >::_Tidy, COMDAT
; _this$ = ecx

; 1301 : 		{	// free all storage

  00000	55		 push	 ebp
  00001	8b ec		 mov	 ebp, esp
  00003	81 ec cc 00 00
	00		 sub	 esp, 204		; 000000ccH
  00009	53		 push	 ebx
  0000a	56		 push	 esi
  0000b	57		 push	 edi
  0000c	51		 push	 ecx
  0000d	8d bd 34 ff ff
	ff		 lea	 edi, DWORD PTR [ebp-204]
  00013	b9 33 00 00 00	 mov	 ecx, 51			; 00000033H
  00018	b8 cc cc cc cc	 mov	 eax, -858993460		; ccccccccH
  0001d	f3 ab		 rep stosd
  0001f	59		 pop	 ecx
  00020	89 4d f8	 mov	 DWORD PTR _this$[ebp], ecx

; 1302 : 		if (this->_Myfirst != 0)

  00023	8b 45 f8	 mov	 eax, DWORD PTR _this$[ebp]
  00026	83 78 04 00	 cmp	 DWORD PTR [eax+4], 0
  0002a	74 40		 je	 SHORT $LN1@Tidy

; 1303 : 			{	// something to free, destroy and deallocate it
; 1304 : 			this->_Orphan_all();

  0002c	8b 4d f8	 mov	 ecx, DWORD PTR _this$[ebp]
  0002f	e8 00 00 00 00	 call	 ?_Orphan_all@_Container_base12@std@@QAEXXZ ; std::_Container_base12::_Orphan_all

; 1305 : 			_Destroy(this->_Myfirst, this->_Mylast);

  00034	8b 45 f8	 mov	 eax, DWORD PTR _this$[ebp]
  00037	8b 48 08	 mov	 ecx, DWORD PTR [eax+8]
  0003a	51		 push	 ecx
  0003b	8b 55 f8	 mov	 edx, DWORD PTR _this$[ebp]
  0003e	8b 42 04	 mov	 eax, DWORD PTR [edx+4]
  00041	50		 push	 eax
  00042	8b 4d f8	 mov	 ecx, DWORD PTR _this$[ebp]
  00045	e8 00 00 00 00	 call	 ?_Destroy@?$vector@V?$CStringT@_WV?$StrTraitMFC@_WV?$ChTraitsCRT@_W@ATL@@@@@ATL@@V?$allocator@V?$CStringT@_WV?$StrTraitMFC@_WV?$ChTraitsCRT@_W@ATL@@@@@ATL@@@std@@@std@@IAEXPAV?$CStringT@_WV?$StrTraitMFC@_WV?$ChTraitsCRT@_W@ATL@@@@@ATL@@0@Z ; std::vector<ATL::CStringT<wchar_t,StrTraitMFC<wchar_t,ATL::ChTraitsCRT<wchar_t> > >,std::allocator<ATL::CStringT<wchar_t,StrTraitMFC<wchar_t,ATL::ChTraitsCRT<wchar_t> > > > >::_Destroy

; 1306 : 			this->_Alval.deallocate(this->_Myfirst,
; 1307 : 				this->_Myend - this->_Myfirst);

  0004a	8b 45 f8	 mov	 eax, DWORD PTR _this$[ebp]
  0004d	8b 4d f8	 mov	 ecx, DWORD PTR _this$[ebp]
  00050	8b 50 0c	 mov	 edx, DWORD PTR [eax+12]
  00053	2b 51 04	 sub	 edx, DWORD PTR [ecx+4]
  00056	c1 fa 02	 sar	 edx, 2
  00059	52		 push	 edx
  0005a	8b 45 f8	 mov	 eax, DWORD PTR _this$[ebp]
  0005d	8b 48 04	 mov	 ecx, DWORD PTR [eax+4]
  00060	51		 push	 ecx
  00061	8b 4d f8	 mov	 ecx, DWORD PTR _this$[ebp]
  00064	83 c1 10	 add	 ecx, 16			; 00000010H
  00067	e8 00 00 00 00	 call	 ?deallocate@?$allocator@V?$CStringT@_WV?$StrTraitMFC@_WV?$ChTraitsCRT@_W@ATL@@@@@ATL@@@std@@QAEXPAV?$CStringT@_WV?$StrTraitMFC@_WV?$ChTraitsCRT@_W@ATL@@@@@ATL@@I@Z ; std::allocator<ATL::CStringT<wchar_t,StrTraitMFC<wchar_t,ATL::ChTraitsCRT<wchar_t> > > >::deallocate
$LN1@Tidy:

; 1308 : 			}
; 1309 : 		this->_Myfirst = 0;

  0006c	8b 45 f8	 mov	 eax, DWORD PTR _this$[ebp]
  0006f	c7 40 04 00 00
	00 00		 mov	 DWORD PTR [eax+4], 0

; 1310 : 		this->_Mylast = 0;

  00076	8b 45 f8	 mov	 eax, DWORD PTR _this$[ebp]
  00079	c7 40 08 00 00
	00 00		 mov	 DWORD PTR [eax+8], 0

; 1311 : 		this->_Myend = 0;

  00080	8b 45 f8	 mov	 eax, DWORD PTR _this$[ebp]
  00083	c7 40 0c 00 00
	00 00		 mov	 DWORD PTR [eax+12], 0

; 1312 : 		}

  0008a	5f		 pop	 edi
  0008b	5e		 pop	 esi
  0008c	5b		 pop	 ebx
  0008d	81 c4 cc 00 00
	00		 add	 esp, 204		; 000000ccH
  00093	3b ec		 cmp	 ebp, esp
  00095	e8 00 00 00 00	 call	 __RTC_CheckEsp
  0009a	8b e5		 mov	 esp, ebp
  0009c	5d		 pop	 ebp
  0009d	c3		 ret	 0
?_Tidy@?$vector@V?$CStringT@_WV?$StrTraitMFC@_WV?$ChTraitsCRT@_W@ATL@@@@@ATL@@V?$allocator@V?$CStringT@_WV?$StrTraitMFC@_WV?$ChTraitsCRT@_W@ATL@@@@@ATL@@@std@@@std@@IAEXXZ ENDP ; std::vector<ATL::CStringT<wchar_t,StrTraitMFC<wchar_t,ATL::ChTraitsCRT<wchar_t> > >,std::allocator<ATL::CStringT<wchar_t,StrTraitMFC<wchar_t,ATL::ChTraitsCRT<wchar_t> > > > >::_Tidy
_TEXT	ENDS
EXTRN	??1_Lockit@std@@QAE@XZ:PROC			; std::_Lockit::~_Lockit
EXTRN	??0_Lockit@std@@QAE@H@Z:PROC			; std::_Lockit::_Lockit
; Function compile flags: /Odtp /RTCsu /ZI
; File c:\program files\microsoft visual studio 10.0\vc\include\xutility
;	COMDAT ?_Orphan_all@_Container_base12@std@@QAEXXZ
_TEXT	SEGMENT
__Pnext$216531 = -32					; size = 4
__Lock$216530 = -20					; size = 4
_this$ = -8						; size = 4
?_Orphan_all@_Container_base12@std@@QAEXXZ PROC		; std::_Container_base12::_Orphan_all, COMDAT
; _this$ = ecx

; 194  : 	{	// orphan all iterators

  00000	55		 push	 ebp
  00001	8b ec		 mov	 ebp, esp
  00003	81 ec e4 00 00
	00		 sub	 esp, 228		; 000000e4H
  00009	53		 push	 ebx
  0000a	56		 push	 esi
  0000b	57		 push	 edi
  0000c	51		 push	 ecx
  0000d	8d bd 1c ff ff
	ff		 lea	 edi, DWORD PTR [ebp-228]
  00013	b9 39 00 00 00	 mov	 ecx, 57			; 00000039H
  00018	b8 cc cc cc cc	 mov	 eax, -858993460		; ccccccccH
  0001d	f3 ab		 rep stosd
  0001f	59		 pop	 ecx
  00020	89 4d f8	 mov	 DWORD PTR _this$[ebp], ecx

; 195  :  #if _ITERATOR_DEBUG_LEVEL == 2
; 196  : 	if (_Myproxy != 0)

  00023	8b 45 f8	 mov	 eax, DWORD PTR _this$[ebp]
  00026	83 38 00	 cmp	 DWORD PTR [eax], 0
  00029	74 4d		 je	 SHORT $LN5@Orphan_all

; 197  : 		{	// proxy allocated, drain it
; 198  : 		_Lockit _Lock(_LOCK_DEBUG);

  0002b	6a 03		 push	 3
  0002d	8d 4d ec	 lea	 ecx, DWORD PTR __Lock$216530[ebp]
  00030	e8 00 00 00 00	 call	 ??0_Lockit@std@@QAE@H@Z	; std::_Lockit::_Lockit

; 199  : 
; 200  : 		for (_Iterator_base12 **_Pnext = &_Myproxy->_Myfirstiter;

  00035	8b 45 f8	 mov	 eax, DWORD PTR _this$[ebp]
  00038	8b 08		 mov	 ecx, DWORD PTR [eax]
  0003a	83 c1 04	 add	 ecx, 4
  0003d	89 4d e0	 mov	 DWORD PTR __Pnext$216531[ebp], ecx
  00040	eb 0d		 jmp	 SHORT $LN3@Orphan_all
$LN2@Orphan_all:

; 201  : 			*_Pnext != 0; *_Pnext = (*_Pnext)->_Mynextiter)

  00042	8b 45 e0	 mov	 eax, DWORD PTR __Pnext$216531[ebp]
  00045	8b 08		 mov	 ecx, DWORD PTR [eax]
  00047	8b 55 e0	 mov	 edx, DWORD PTR __Pnext$216531[ebp]
  0004a	8b 41 04	 mov	 eax, DWORD PTR [ecx+4]
  0004d	89 02		 mov	 DWORD PTR [edx], eax
$LN3@Orphan_all:
  0004f	8b 45 e0	 mov	 eax, DWORD PTR __Pnext$216531[ebp]
  00052	83 38 00	 cmp	 DWORD PTR [eax], 0
  00055	74 0d		 je	 SHORT $LN1@Orphan_all

; 202  : 			(*_Pnext)->_Myproxy = 0;

  00057	8b 45 e0	 mov	 eax, DWORD PTR __Pnext$216531[ebp]
  0005a	8b 08		 mov	 ecx, DWORD PTR [eax]
  0005c	c7 01 00 00 00
	00		 mov	 DWORD PTR [ecx], 0
  00062	eb de		 jmp	 SHORT $LN2@Orphan_all
$LN1@Orphan_all:

; 203  : 		_Myproxy->_Myfirstiter = 0;

  00064	8b 45 f8	 mov	 eax, DWORD PTR _this$[ebp]
  00067	8b 08		 mov	 ecx, DWORD PTR [eax]
  00069	c7 41 04 00 00
	00 00		 mov	 DWORD PTR [ecx+4], 0

; 204  : 		}

  00070	8d 4d ec	 lea	 ecx, DWORD PTR __Lock$216530[ebp]
  00073	e8 00 00 00 00	 call	 ??1_Lockit@std@@QAE@XZ	; std::_Lockit::~_Lockit
$LN5@Orphan_all:

; 205  :  #endif /* _ITERATOR_DEBUG_LEVEL == 2 */
; 206  : 	}

  00078	52		 push	 edx
  00079	8b cd		 mov	 ecx, ebp
  0007b	50		 push	 eax
  0007c	8d 15 00 00 00
	00		 lea	 edx, DWORD PTR $LN10@Orphan_all
  00082	e8 00 00 00 00	 call	 @_RTC_CheckStackVars@8
  00087	58		 pop	 eax
  00088	5a		 pop	 edx
  00089	5f		 pop	 edi
  0008a	5e		 pop	 esi
  0008b	5b		 pop	 ebx
  0008c	81 c4 e4 00 00
	00		 add	 esp, 228		; 000000e4H
  00092	3b ec		 cmp	 ebp, esp
  00094	e8 00 00 00 00	 call	 __RTC_CheckEsp
  00099	8b e5		 mov	 esp, ebp
  0009b	5d		 pop	 ebp
  0009c	c3		 ret	 0
  0009d	8d 49 00	 npad	 3
$LN10@Orphan_all:
  000a0	01 00 00 00	 DD	 1
  000a4	00 00 00 00	 DD	 $LN9@Orphan_all
$LN9@Orphan_all:
  000a8	ec ff ff ff	 DD	 -20			; ffffffecH
  000ac	04 00 00 00	 DD	 4
  000b0	00 00 00 00	 DD	 $LN8@Orphan_all
$LN8@Orphan_all:
  000b4	5f		 DB	 95			; 0000005fH
  000b5	4c		 DB	 76			; 0000004cH
  000b6	6f		 DB	 111			; 0000006fH
  000b7	63		 DB	 99			; 00000063H
  000b8	6b		 DB	 107			; 0000006bH
  000b9	00		 DB	 0
?_Orphan_all@_Container_base12@std@@QAEXXZ ENDP		; std::_Container_base12::_Orphan_all
_TEXT	ENDS
PUBLIC	??1_Container_base12@std@@QAE@XZ		; std::_Container_base12::~_Container_base12
PUBLIC	?deallocate@?$allocator@U_Container_proxy@std@@@std@@QAEXPAU_Container_proxy@2@I@Z ; std::allocator<std::_Container_proxy>::deallocate
PUBLIC	??$_Dest_val@V?$allocator@U_Container_proxy@std@@@std@@U_Container_proxy@2@@std@@YAXAAV?$allocator@U_Container_proxy@std@@@0@PAU_Container_proxy@0@@Z ; std::_Dest_val<std::allocator<std::_Container_proxy>,std::_Container_proxy>
PUBLIC	??$?0V?$CStringT@_WV?$StrTraitMFC@_WV?$ChTraitsCRT@_W@ATL@@@@@ATL@@@?$allocator@U_Container_proxy@std@@@std@@QAE@ABV?$allocator@V?$CStringT@_WV?$StrTraitMFC@_WV?$ChTraitsCRT@_W@ATL@@@@@ATL@@@1@@Z ; std::allocator<std::_Container_proxy>::allocator<std::_Container_proxy><ATL::CStringT<wchar_t,StrTraitMFC<wchar_t,ATL::ChTraitsCRT<wchar_t> > > >
;	COMDAT xdata$x
; File c:\program files\microsoft visual studio 10.0\vc\include\vector
xdata$x	SEGMENT
__unwindtable$??1?$_Vector_val@V?$CStringT@_WV?$StrTraitMFC@_WV?$ChTraitsCRT@_W@ATL@@@@@ATL@@V?$allocator@V?$CStringT@_WV?$StrTraitMFC@_WV?$ChTraitsCRT@_W@ATL@@@@@ATL@@@std@@@std@@QAE@XZ DD 0ffffffffH
	DD	FLAT:__unwindfunclet$??1?$_Vector_val@V?$CStringT@_WV?$StrTraitMFC@_WV?$ChTraitsCRT@_W@ATL@@@@@ATL@@V?$allocator@V?$CStringT@_WV?$StrTraitMFC@_WV?$ChTraitsCRT@_W@ATL@@@@@ATL@@@std@@@std@@QAE@XZ$0
__ehfuncinfo$??1?$_Vector_val@V?$CStringT@_WV?$StrTraitMFC@_WV?$ChTraitsCRT@_W@ATL@@@@@ATL@@V?$allocator@V?$CStringT@_WV?$StrTraitMFC@_WV?$ChTraitsCRT@_W@ATL@@@@@ATL@@@std@@@std@@QAE@XZ DD 019930522H
	DD	01H
	DD	FLAT:__unwindtable$??1?$_Vector_val@V?$CStringT@_WV?$StrTraitMFC@_WV?$ChTraitsCRT@_W@ATL@@@@@ATL@@V?$allocator@V?$CStringT@_WV?$StrTraitMFC@_WV?$ChTraitsCRT@_W@ATL@@@@@ATL@@@std@@@std@@QAE@XZ
	DD	2 DUP(00H)
	DD	2 DUP(00H)
	DD	00H
	DD	01H
; Function compile flags: /Odtp /RTCsu /ZI
xdata$x	ENDS
;	COMDAT ??1?$_Vector_val@V?$CStringT@_WV?$StrTraitMFC@_WV?$ChTraitsCRT@_W@ATL@@@@@ATL@@V?$allocator@V?$CStringT@_WV?$StrTraitMFC@_WV?$ChTraitsCRT@_W@ATL@@@@@ATL@@@std@@@std@@QAE@XZ
_TEXT	SEGMENT
__Alproxy$ = -29					; size = 1
_this$ = -20						; size = 4
__$EHRec$ = -12						; size = 12
??1?$_Vector_val@V?$CStringT@_WV?$StrTraitMFC@_WV?$ChTraitsCRT@_W@ATL@@@@@ATL@@V?$allocator@V?$CStringT@_WV?$StrTraitMFC@_WV?$ChTraitsCRT@_W@ATL@@@@@ATL@@@std@@@std@@QAE@XZ PROC ; std::_Vector_val<ATL::CStringT<wchar_t,StrTraitMFC<wchar_t,ATL::ChTraitsCRT<wchar_t> > >,std::allocator<ATL::CStringT<wchar_t,StrTraitMFC<wchar_t,ATL::ChTraitsCRT<wchar_t> > > > >::~_Vector_val<ATL::CStringT<wchar_t,StrTraitMFC<wchar_t,ATL::ChTraitsCRT<wchar_t> > >,std::allocator<ATL::CStringT<wchar_t,StrTraitMFC<wchar_t,ATL::ChTraitsCRT<wchar_t> > > > >, COMDAT
; _this$ = ecx

; 452  : 		{	// destroy proxy

  00000	55		 push	 ebp
  00001	8b ec		 mov	 ebp, esp
  00003	6a ff		 push	 -1
  00005	68 00 00 00 00	 push	 __ehhandler$??1?$_Vector_val@V?$CStringT@_WV?$StrTraitMFC@_WV?$ChTraitsCRT@_W@ATL@@@@@ATL@@V?$allocator@V?$CStringT@_WV?$StrTraitMFC@_WV?$ChTraitsCRT@_W@ATL@@@@@ATL@@@std@@@std@@QAE@XZ
  0000a	64 a1 00 00 00
	00		 mov	 eax, DWORD PTR fs:0
  00010	50		 push	 eax
  00011	81 ec d8 00 00
	00		 sub	 esp, 216		; 000000d8H
  00017	53		 push	 ebx
  00018	56		 push	 esi
  00019	57		 push	 edi
  0001a	51		 push	 ecx
  0001b	8d bd 1c ff ff
	ff		 lea	 edi, DWORD PTR [ebp-228]
  00021	b9 36 00 00 00	 mov	 ecx, 54			; 00000036H
  00026	b8 cc cc cc cc	 mov	 eax, -858993460		; ccccccccH
  0002b	f3 ab		 rep stosd
  0002d	59		 pop	 ecx
  0002e	a1 00 00 00 00	 mov	 eax, DWORD PTR ___security_cookie
  00033	33 c5		 xor	 eax, ebp
  00035	50		 push	 eax
  00036	8d 45 f4	 lea	 eax, DWORD PTR __$EHRec$[ebp]
  00039	64 a3 00 00 00
	00		 mov	 DWORD PTR fs:0, eax
  0003f	89 4d ec	 mov	 DWORD PTR _this$[ebp], ecx
  00042	c7 45 fc 00 00
	00 00		 mov	 DWORD PTR __$EHRec$[ebp+8], 0

; 453  : 		typename _Alloc::template rebind<_Container_proxy>::other
; 454  : 			_Alproxy(_Alval);

  00049	8b 45 ec	 mov	 eax, DWORD PTR _this$[ebp]
  0004c	83 c0 10	 add	 eax, 16			; 00000010H
  0004f	50		 push	 eax
  00050	8d 4d e3	 lea	 ecx, DWORD PTR __Alproxy$[ebp]
  00053	e8 00 00 00 00	 call	 ??$?0V?$CStringT@_WV?$StrTraitMFC@_WV?$ChTraitsCRT@_W@ATL@@@@@ATL@@@?$allocator@U_Container_proxy@std@@@std@@QAE@ABV?$allocator@V?$CStringT@_WV?$StrTraitMFC@_WV?$ChTraitsCRT@_W@ATL@@@@@ATL@@@1@@Z ; std::allocator<std::_Container_proxy>::allocator<std::_Container_proxy><ATL::CStringT<wchar_t,StrTraitMFC<wchar_t,ATL::ChTraitsCRT<wchar_t> > > >

; 455  : 		this->_Orphan_all();

  00058	8b 4d ec	 mov	 ecx, DWORD PTR _this$[ebp]
  0005b	e8 00 00 00 00	 call	 ?_Orphan_all@_Container_base12@std@@QAEXXZ ; std::_Container_base12::_Orphan_all

; 456  : 		_Dest_val(_Alproxy, this->_Myproxy);

  00060	8b 45 ec	 mov	 eax, DWORD PTR _this$[ebp]
  00063	8b 08		 mov	 ecx, DWORD PTR [eax]
  00065	51		 push	 ecx
  00066	8d 55 e3	 lea	 edx, DWORD PTR __Alproxy$[ebp]
  00069	52		 push	 edx
  0006a	e8 00 00 00 00	 call	 ??$_Dest_val@V?$allocator@U_Container_proxy@std@@@std@@U_Container_proxy@2@@std@@YAXAAV?$allocator@U_Container_proxy@std@@@0@PAU_Container_proxy@0@@Z ; std::_Dest_val<std::allocator<std::_Container_proxy>,std::_Container_proxy>
  0006f	83 c4 08	 add	 esp, 8

; 457  : 		_Alproxy.deallocate(this->_Myproxy, 1);

  00072	6a 01		 push	 1
  00074	8b 45 ec	 mov	 eax, DWORD PTR _this$[ebp]
  00077	8b 08		 mov	 ecx, DWORD PTR [eax]
  00079	51		 push	 ecx
  0007a	8d 4d e3	 lea	 ecx, DWORD PTR __Alproxy$[ebp]
  0007d	e8 00 00 00 00	 call	 ?deallocate@?$allocator@U_Container_proxy@std@@@std@@QAEXPAU_Container_proxy@2@I@Z ; std::allocator<std::_Container_proxy>::deallocate

; 458  : 		this->_Myproxy = 0;

  00082	8b 45 ec	 mov	 eax, DWORD PTR _this$[ebp]
  00085	c7 00 00 00 00
	00		 mov	 DWORD PTR [eax], 0

; 459  : 		}

  0008b	c7 45 fc ff ff
	ff ff		 mov	 DWORD PTR __$EHRec$[ebp+8], -1
  00092	8b 4d ec	 mov	 ecx, DWORD PTR _this$[ebp]
  00095	e8 00 00 00 00	 call	 ??1_Container_base12@std@@QAE@XZ ; std::_Container_base12::~_Container_base12
  0009a	52		 push	 edx
  0009b	8b cd		 mov	 ecx, ebp
  0009d	50		 push	 eax
  0009e	8d 15 00 00 00
	00		 lea	 edx, DWORD PTR $LN7@Vector_val
  000a4	e8 00 00 00 00	 call	 @_RTC_CheckStackVars@8
  000a9	58		 pop	 eax
  000aa	5a		 pop	 edx
  000ab	8b 4d f4	 mov	 ecx, DWORD PTR __$EHRec$[ebp]
  000ae	64 89 0d 00 00
	00 00		 mov	 DWORD PTR fs:0, ecx
  000b5	59		 pop	 ecx
  000b6	5f		 pop	 edi
  000b7	5e		 pop	 esi
  000b8	5b		 pop	 ebx
  000b9	81 c4 e4 00 00
	00		 add	 esp, 228		; 000000e4H
  000bf	3b ec		 cmp	 ebp, esp
  000c1	e8 00 00 00 00	 call	 __RTC_CheckEsp
  000c6	8b e5		 mov	 esp, ebp
  000c8	5d		 pop	 ebp
  000c9	c3		 ret	 0
  000ca	8b ff		 npad	 2
$LN7@Vector_val:
  000cc	01 00 00 00	 DD	 1
  000d0	00 00 00 00	 DD	 $LN6@Vector_val
$LN6@Vector_val:
  000d4	e3 ff ff ff	 DD	 -29			; ffffffe3H
  000d8	01 00 00 00	 DD	 1
  000dc	00 00 00 00	 DD	 $LN4@Vector_val
$LN4@Vector_val:
  000e0	5f		 DB	 95			; 0000005fH
  000e1	41		 DB	 65			; 00000041H
  000e2	6c		 DB	 108			; 0000006cH
  000e3	70		 DB	 112			; 00000070H
  000e4	72		 DB	 114			; 00000072H
  000e5	6f		 DB	 111			; 0000006fH
  000e6	78		 DB	 120			; 00000078H
  000e7	79		 DB	 121			; 00000079H
  000e8	00		 DB	 0
_TEXT	ENDS
;	COMDAT text$x
text$x	SEGMENT
__unwindfunclet$??1?$_Vector_val@V?$CStringT@_WV?$StrTraitMFC@_WV?$ChTraitsCRT@_W@ATL@@@@@ATL@@V?$allocator@V?$CStringT@_WV?$StrTraitMFC@_WV?$ChTraitsCRT@_W@ATL@@@@@ATL@@@std@@@std@@QAE@XZ$0:
  00000	8b 4d ec	 mov	 ecx, DWORD PTR _this$[ebp]
  00003	e9 00 00 00 00	 jmp	 ??1_Container_base12@std@@QAE@XZ ; std::_Container_base12::~_Container_base12
__ehhandler$??1?$_Vector_val@V?$CStringT@_WV?$StrTraitMFC@_WV?$ChTraitsCRT@_W@ATL@@@@@ATL@@V?$allocator@V?$CStringT@_WV?$StrTraitMFC@_WV?$ChTraitsCRT@_W@ATL@@@@@ATL@@@std@@@std@@QAE@XZ:
  00008	8b 54 24 08	 mov	 edx, DWORD PTR [esp+8]
  0000c	8d 42 0c	 lea	 eax, DWORD PTR [edx+12]
  0000f	8b 8a 18 ff ff
	ff		 mov	 ecx, DWORD PTR [edx-232]
  00015	33 c8		 xor	 ecx, eax
  00017	e8 00 00 00 00	 call	 @__security_check_cookie@4
  0001c	b8 00 00 00 00	 mov	 eax, OFFSET __ehfuncinfo$??1?$_Vector_val@V?$CStringT@_WV?$StrTraitMFC@_WV?$ChTraitsCRT@_W@ATL@@@@@ATL@@V?$allocator@V?$CStringT@_WV?$StrTraitMFC@_WV?$ChTraitsCRT@_W@ATL@@@@@ATL@@@std@@@std@@QAE@XZ
  00021	e9 00 00 00 00	 jmp	 ___CxxFrameHandler3
text$x	ENDS
??1?$_Vector_val@V?$CStringT@_WV?$StrTraitMFC@_WV?$ChTraitsCRT@_W@ATL@@@@@ATL@@V?$allocator@V?$CStringT@_WV?$StrTraitMFC@_WV?$ChTraitsCRT@_W@ATL@@@@@ATL@@@std@@@std@@QAE@XZ ENDP ; std::_Vector_val<ATL::CStringT<wchar_t,StrTraitMFC<wchar_t,ATL::ChTraitsCRT<wchar_t> > >,std::allocator<ATL::CStringT<wchar_t,StrTraitMFC<wchar_t,ATL::ChTraitsCRT<wchar_t> > > > >::~_Vector_val<ATL::CStringT<wchar_t,StrTraitMFC<wchar_t,ATL::ChTraitsCRT<wchar_t> > >,std::allocator<ATL::CStringT<wchar_t,StrTraitMFC<wchar_t,ATL::ChTraitsCRT<wchar_t> > > > >
; Function compile flags: /Odtp /RTCsu /ZI
; File c:\program files\microsoft visual studio 10.0\vc\include\xutility
;	COMDAT ??1_Container_base12@std@@QAE@XZ
_TEXT	SEGMENT
_this$ = -8						; size = 4
??1_Container_base12@std@@QAE@XZ PROC			; std::_Container_base12::~_Container_base12, COMDAT
; _this$ = ecx

; 91   : 		{	// destroy the container

  00000	55		 push	 ebp
  00001	8b ec		 mov	 ebp, esp
  00003	81 ec cc 00 00
	00		 sub	 esp, 204		; 000000ccH
  00009	53		 push	 ebx
  0000a	56		 push	 esi
  0000b	57		 push	 edi
  0000c	51		 push	 ecx
  0000d	8d bd 34 ff ff
	ff		 lea	 edi, DWORD PTR [ebp-204]
  00013	b9 33 00 00 00	 mov	 ecx, 51			; 00000033H
  00018	b8 cc cc cc cc	 mov	 eax, -858993460		; ccccccccH
  0001d	f3 ab		 rep stosd
  0001f	59		 pop	 ecx
  00020	89 4d f8	 mov	 DWORD PTR _this$[ebp], ecx

; 92   : 		_Orphan_all();

  00023	8b 4d f8	 mov	 ecx, DWORD PTR _this$[ebp]
  00026	e8 00 00 00 00	 call	 ?_Orphan_all@_Container_base12@std@@QAEXXZ ; std::_Container_base12::_Orphan_all

; 93   : 		}

  0002b	5f		 pop	 edi
  0002c	5e		 pop	 esi
  0002d	5b		 pop	 ebx
  0002e	81 c4 cc 00 00
	00		 add	 esp, 204		; 000000ccH
  00034	3b ec		 cmp	 ebp, esp
  00036	e8 00 00 00 00	 call	 __RTC_CheckEsp
  0003b	8b e5		 mov	 esp, ebp
  0003d	5d		 pop	 ebp
  0003e	c3		 ret	 0
??1_Container_base12@std@@QAE@XZ ENDP			; std::_Container_base12::~_Container_base12
_TEXT	ENDS
PUBLIC	??$_Destroy_range@V?$allocator@V?$CStringT@_WV?$StrTraitMFC@_WV?$ChTraitsCRT@_W@ATL@@@@@ATL@@@std@@@std@@YAXPAV?$CStringT@_WV?$StrTraitMFC@_WV?$ChTraitsCRT@_W@ATL@@@@@ATL@@0AAV?$allocator@V?$CStringT@_WV?$StrTraitMFC@_WV?$ChTraitsCRT@_W@ATL@@@@@ATL@@@0@@Z ; std::_Destroy_range<std::allocator<ATL::CStringT<wchar_t,StrTraitMFC<wchar_t,ATL::ChTraitsCRT<wchar_t> > > > >
; Function compile flags: /Odtp /RTCsu /ZI
; File c:\program files\microsoft visual studio 10.0\vc\include\vector
;	COMDAT ?_Destroy@?$vector@V?$CStringT@_WV?$StrTraitMFC@_WV?$ChTraitsCRT@_W@ATL@@@@@ATL@@V?$allocator@V?$CStringT@_WV?$StrTraitMFC@_WV?$ChTraitsCRT@_W@ATL@@@@@ATL@@@std@@@std@@IAEXPAV?$CStringT@_WV?$StrTraitMFC@_WV?$ChTraitsCRT@_W@ATL@@@@@ATL@@0@Z
_TEXT	SEGMENT
_this$ = -8						; size = 4
__First$ = 8						; size = 4
__Last$ = 12						; size = 4
?_Destroy@?$vector@V?$CStringT@_WV?$StrTraitMFC@_WV?$ChTraitsCRT@_W@ATL@@@@@ATL@@V?$allocator@V?$CStringT@_WV?$StrTraitMFC@_WV?$ChTraitsCRT@_W@ATL@@@@@ATL@@@std@@@std@@IAEXPAV?$CStringT@_WV?$StrTraitMFC@_WV?$ChTraitsCRT@_W@ATL@@@@@ATL@@0@Z PROC ; std::vector<ATL::CStringT<wchar_t,StrTraitMFC<wchar_t,ATL::ChTraitsCRT<wchar_t> > >,std::allocator<ATL::CStringT<wchar_t,StrTraitMFC<wchar_t,ATL::ChTraitsCRT<wchar_t> > > > >::_Destroy, COMDAT
; _this$ = ecx

; 1269 : 		{	// destroy [_First, _Last) using allocator

  00000	55		 push	 ebp
  00001	8b ec		 mov	 ebp, esp
  00003	81 ec cc 00 00
	00		 sub	 esp, 204		; 000000ccH
  00009	53		 push	 ebx
  0000a	56		 push	 esi
  0000b	57		 push	 edi
  0000c	51		 push	 ecx
  0000d	8d bd 34 ff ff
	ff		 lea	 edi, DWORD PTR [ebp-204]
  00013	b9 33 00 00 00	 mov	 ecx, 51			; 00000033H
  00018	b8 cc cc cc cc	 mov	 eax, -858993460		; ccccccccH
  0001d	f3 ab		 rep stosd
  0001f	59		 pop	 ecx
  00020	89 4d f8	 mov	 DWORD PTR _this$[ebp], ecx

; 1270 : 		_Destroy_range(_First, _Last, this->_Alval);

  00023	8b 45 f8	 mov	 eax, DWORD PTR _this$[ebp]
  00026	83 c0 10	 add	 eax, 16			; 00000010H
  00029	50		 push	 eax
  0002a	8b 4d 0c	 mov	 ecx, DWORD PTR __Last$[ebp]
  0002d	51		 push	 ecx
  0002e	8b 55 08	 mov	 edx, DWORD PTR __First$[ebp]
  00031	52		 push	 edx
  00032	e8 00 00 00 00	 call	 ??$_Destroy_range@V?$allocator@V?$CStringT@_WV?$StrTraitMFC@_WV?$ChTraitsCRT@_W@ATL@@@@@ATL@@@std@@@std@@YAXPAV?$CStringT@_WV?$StrTraitMFC@_WV?$ChTraitsCRT@_W@ATL@@@@@ATL@@0AAV?$allocator@V?$CStringT@_WV?$StrTraitMFC@_WV?$ChTraitsCRT@_W@ATL@@@@@ATL@@@0@@Z ; std::_Destroy_range<std::allocator<ATL::CStringT<wchar_t,StrTraitMFC<wchar_t,ATL::ChTraitsCRT<wchar_t> > > > >
  00037	83 c4 0c	 add	 esp, 12			; 0000000cH

; 1271 : 		}

  0003a	5f		 pop	 edi
  0003b	5e		 pop	 esi
  0003c	5b		 pop	 ebx
  0003d	81 c4 cc 00 00
	00		 add	 esp, 204		; 000000ccH
  00043	3b ec		 cmp	 ebp, esp
  00045	e8 00 00 00 00	 call	 __RTC_CheckEsp
  0004a	8b e5		 mov	 esp, ebp
  0004c	5d		 pop	 ebp
  0004d	c2 08 00	 ret	 8
?_Destroy@?$vector@V?$CStringT@_WV?$StrTraitMFC@_WV?$ChTraitsCRT@_W@ATL@@@@@ATL@@V?$allocator@V?$CStringT@_WV?$StrTraitMFC@_WV?$ChTraitsCRT@_W@ATL@@@@@ATL@@@std@@@std@@IAEXPAV?$CStringT@_WV?$StrTraitMFC@_WV?$ChTraitsCRT@_W@ATL@@@@@ATL@@0@Z ENDP ; std::vector<ATL::CStringT<wchar_t,StrTraitMFC<wchar_t,ATL::ChTraitsCRT<wchar_t> > >,std::allocator<ATL::CStringT<wchar_t,StrTraitMFC<wchar_t,ATL::ChTraitsCRT<wchar_t> > > > >::_Destroy
_TEXT	ENDS
EXTRN	??3@YAXPAX@Z:PROC				; operator delete
; Function compile flags: /Odtp /RTCsu /ZI
; File c:\program files\microsoft visual studio 10.0\vc\include\xmemory
;	COMDAT ?deallocate@?$allocator@V?$CStringT@_WV?$StrTraitMFC@_WV?$ChTraitsCRT@_W@ATL@@@@@ATL@@@std@@QAEXPAV?$CStringT@_WV?$StrTraitMFC@_WV?$ChTraitsCRT@_W@ATL@@@@@ATL@@I@Z
_TEXT	SEGMENT
_this$ = -8						; size = 4
__Ptr$ = 8						; size = 4
___formal$ = 12						; size = 4
?deallocate@?$allocator@V?$CStringT@_WV?$StrTraitMFC@_WV?$ChTraitsCRT@_W@ATL@@@@@ATL@@@std@@QAEXPAV?$CStringT@_WV?$StrTraitMFC@_WV?$ChTraitsCRT@_W@ATL@@@@@ATL@@I@Z PROC ; std::allocator<ATL::CStringT<wchar_t,StrTraitMFC<wchar_t,ATL::ChTraitsCRT<wchar_t> > > >::deallocate, COMDAT
; _this$ = ecx

; 181  : 		{	// deallocate object at _Ptr, ignore size

  00000	55		 push	 ebp
  00001	8b ec		 mov	 ebp, esp
  00003	81 ec cc 00 00
	00		 sub	 esp, 204		; 000000ccH
  00009	53		 push	 ebx
  0000a	56		 push	 esi
  0000b	57		 push	 edi
  0000c	51		 push	 ecx
  0000d	8d bd 34 ff ff
	ff		 lea	 edi, DWORD PTR [ebp-204]
  00013	b9 33 00 00 00	 mov	 ecx, 51			; 00000033H
  00018	b8 cc cc cc cc	 mov	 eax, -858993460		; ccccccccH
  0001d	f3 ab		 rep stosd
  0001f	59		 pop	 ecx
  00020	89 4d f8	 mov	 DWORD PTR _this$[ebp], ecx

; 182  : 		::operator delete(_Ptr);

  00023	8b 45 08	 mov	 eax, DWORD PTR __Ptr$[ebp]
  00026	50		 push	 eax
  00027	e8 00 00 00 00	 call	 ??3@YAXPAX@Z		; operator delete
  0002c	83 c4 04	 add	 esp, 4

; 183  : 		}

  0002f	5f		 pop	 edi
  00030	5e		 pop	 esi
  00031	5b		 pop	 ebx
  00032	81 c4 cc 00 00
	00		 add	 esp, 204		; 000000ccH
  00038	3b ec		 cmp	 ebp, esp
  0003a	e8 00 00 00 00	 call	 __RTC_CheckEsp
  0003f	8b e5		 mov	 esp, ebp
  00041	5d		 pop	 ebp
  00042	c2 08 00	 ret	 8
?deallocate@?$allocator@V?$CStringT@_WV?$StrTraitMFC@_WV?$ChTraitsCRT@_W@ATL@@@@@ATL@@@std@@QAEXPAV?$CStringT@_WV?$StrTraitMFC@_WV?$ChTraitsCRT@_W@ATL@@@@@ATL@@I@Z ENDP ; std::allocator<ATL::CStringT<wchar_t,StrTraitMFC<wchar_t,ATL::ChTraitsCRT<wchar_t> > > >::deallocate
; Function compile flags: /Odtp /RTCsu /ZI
_TEXT	ENDS
;	COMDAT ?deallocate@?$allocator@U_Container_proxy@std@@@std@@QAEXPAU_Container_proxy@2@I@Z
_TEXT	SEGMENT
_this$ = -8						; size = 4
__Ptr$ = 8						; size = 4
___formal$ = 12						; size = 4
?deallocate@?$allocator@U_Container_proxy@std@@@std@@QAEXPAU_Container_proxy@2@I@Z PROC ; std::allocator<std::_Container_proxy>::deallocate, COMDAT
; _this$ = ecx

; 181  : 		{	// deallocate object at _Ptr, ignore size

  00000	55		 push	 ebp
  00001	8b ec		 mov	 ebp, esp
  00003	81 ec cc 00 00
	00		 sub	 esp, 204		; 000000ccH
  00009	53		 push	 ebx
  0000a	56		 push	 esi
  0000b	57		 push	 edi
  0000c	51		 push	 ecx
  0000d	8d bd 34 ff ff
	ff		 lea	 edi, DWORD PTR [ebp-204]
  00013	b9 33 00 00 00	 mov	 ecx, 51			; 00000033H
  00018	b8 cc cc cc cc	 mov	 eax, -858993460		; ccccccccH
  0001d	f3 ab		 rep stosd
  0001f	59		 pop	 ecx
  00020	89 4d f8	 mov	 DWORD PTR _this$[ebp], ecx

; 182  : 		::operator delete(_Ptr);

  00023	8b 45 08	 mov	 eax, DWORD PTR __Ptr$[ebp]
  00026	50		 push	 eax
  00027	e8 00 00 00 00	 call	 ??3@YAXPAX@Z		; operator delete
  0002c	83 c4 04	 add	 esp, 4

; 183  : 		}

  0002f	5f		 pop	 edi
  00030	5e		 pop	 esi
  00031	5b		 pop	 ebx
  00032	81 c4 cc 00 00
	00		 add	 esp, 204		; 000000ccH
  00038	3b ec		 cmp	 ebp, esp
  0003a	e8 00 00 00 00	 call	 __RTC_CheckEsp
  0003f	8b e5		 mov	 esp, ebp
  00041	5d		 pop	 ebp
  00042	c2 08 00	 ret	 8
?deallocate@?$allocator@U_Container_proxy@std@@@std@@QAEXPAU_Container_proxy@2@I@Z ENDP ; std::allocator<std::_Container_proxy>::deallocate
; Function compile flags: /Odtp /RTCsu /ZI
_TEXT	ENDS
;	COMDAT ??$?0V?$CStringT@_WV?$StrTraitMFC@_WV?$ChTraitsCRT@_W@ATL@@@@@ATL@@@?$allocator@U_Container_proxy@std@@@std@@QAE@ABV?$allocator@V?$CStringT@_WV?$StrTraitMFC@_WV?$ChTraitsCRT@_W@ATL@@@@@ATL@@@1@@Z
_TEXT	SEGMENT
_this$ = -8						; size = 4
___formal$ = 8						; size = 4
??$?0V?$CStringT@_WV?$StrTraitMFC@_WV?$ChTraitsCRT@_W@ATL@@@@@ATL@@@?$allocator@U_Container_proxy@std@@@std@@QAE@ABV?$allocator@V?$CStringT@_WV?$StrTraitMFC@_WV?$ChTraitsCRT@_W@ATL@@@@@ATL@@@1@@Z PROC ; std::allocator<std::_Container_proxy>::allocator<std::_Container_proxy><ATL::CStringT<wchar_t,StrTraitMFC<wchar_t,ATL::ChTraitsCRT<wchar_t> > > >, COMDAT
; _this$ = ecx

; 170  : 		_ALLOCATOR(const _ALLOCATOR<_Other>&) _THROW0()

  00000	55		 push	 ebp
  00001	8b ec		 mov	 ebp, esp
  00003	81 ec cc 00 00
	00		 sub	 esp, 204		; 000000ccH
  00009	53		 push	 ebx
  0000a	56		 push	 esi
  0000b	57		 push	 edi
  0000c	51		 push	 ecx
  0000d	8d bd 34 ff ff
	ff		 lea	 edi, DWORD PTR [ebp-204]
  00013	b9 33 00 00 00	 mov	 ecx, 51			; 00000033H
  00018	b8 cc cc cc cc	 mov	 eax, -858993460		; ccccccccH
  0001d	f3 ab		 rep stosd
  0001f	59		 pop	 ecx
  00020	89 4d f8	 mov	 DWORD PTR _this$[ebp], ecx

; 171  : 		{	// construct from a related allocator (do nothing)
; 172  : 		}

  00023	8b 45 f8	 mov	 eax, DWORD PTR _this$[ebp]
  00026	5f		 pop	 edi
  00027	5e		 pop	 esi
  00028	5b		 pop	 ebx
  00029	8b e5		 mov	 esp, ebp
  0002b	5d		 pop	 ebp
  0002c	c2 04 00	 ret	 4
??$?0V?$CStringT@_WV?$StrTraitMFC@_WV?$ChTraitsCRT@_W@ATL@@@@@ATL@@@?$allocator@U_Container_proxy@std@@@std@@QAE@ABV?$allocator@V?$CStringT@_WV?$StrTraitMFC@_WV?$ChTraitsCRT@_W@ATL@@@@@ATL@@@1@@Z ENDP ; std::allocator<std::_Container_proxy>::allocator<std::_Container_proxy><ATL::CStringT<wchar_t,StrTraitMFC<wchar_t,ATL::ChTraitsCRT<wchar_t> > > >
_TEXT	ENDS
PUBLIC	?destroy@?$allocator@U_Container_proxy@std@@@std@@QAEXPAU_Container_proxy@2@@Z ; std::allocator<std::_Container_proxy>::destroy
; Function compile flags: /Odtp /RTCsu /ZI
;	COMDAT ??$_Dest_val@V?$allocator@U_Container_proxy@std@@@std@@U_Container_proxy@2@@std@@YAXAAV?$allocator@U_Container_proxy@std@@@0@PAU_Container_proxy@0@@Z
_TEXT	SEGMENT
__Alval$ = 8						; size = 4
__Pdest$ = 12						; size = 4
??$_Dest_val@V?$allocator@U_Container_proxy@std@@@std@@U_Container_proxy@2@@std@@YAXAAV?$allocator@U_Container_proxy@std@@@0@PAU_Container_proxy@0@@Z PROC ; std::_Dest_val<std::allocator<std::_Container_proxy>,std::_Container_proxy>, COMDAT

; 286  : 	{	// destroy using allocator

  00000	55		 push	 ebp
  00001	8b ec		 mov	 ebp, esp
  00003	81 ec c0 00 00
	00		 sub	 esp, 192		; 000000c0H
  00009	53		 push	 ebx
  0000a	56		 push	 esi
  0000b	57		 push	 edi
  0000c	8d bd 40 ff ff
	ff		 lea	 edi, DWORD PTR [ebp-192]
  00012	b9 30 00 00 00	 mov	 ecx, 48			; 00000030H
  00017	b8 cc cc cc cc	 mov	 eax, -858993460		; ccccccccH
  0001c	f3 ab		 rep stosd

; 287  : 	_Alval.destroy(_Pdest);

  0001e	8b 45 0c	 mov	 eax, DWORD PTR __Pdest$[ebp]
  00021	50		 push	 eax
  00022	8b 4d 08	 mov	 ecx, DWORD PTR __Alval$[ebp]
  00025	e8 00 00 00 00	 call	 ?destroy@?$allocator@U_Container_proxy@std@@@std@@QAEXPAU_Container_proxy@2@@Z ; std::allocator<std::_Container_proxy>::destroy

; 288  : 	}

  0002a	5f		 pop	 edi
  0002b	5e		 pop	 esi
  0002c	5b		 pop	 ebx
  0002d	81 c4 c0 00 00
	00		 add	 esp, 192		; 000000c0H
  00033	3b ec		 cmp	 ebp, esp
  00035	e8 00 00 00 00	 call	 __RTC_CheckEsp
  0003a	8b e5		 mov	 esp, ebp
  0003c	5d		 pop	 ebp
  0003d	c3		 ret	 0
??$_Dest_val@V?$allocator@U_Container_proxy@std@@@std@@U_Container_proxy@2@@std@@YAXAAV?$allocator@U_Container_proxy@std@@@0@PAU_Container_proxy@0@@Z ENDP ; std::_Dest_val<std::allocator<std::_Container_proxy>,std::_Container_proxy>
_TEXT	ENDS
PUBLIC	??$_Destroy_range@V?$allocator@V?$CStringT@_WV?$StrTraitMFC@_WV?$ChTraitsCRT@_W@ATL@@@@@ATL@@@std@@@std@@YAXPAV?$CStringT@_WV?$StrTraitMFC@_WV?$ChTraitsCRT@_W@ATL@@@@@ATL@@0AAV?$allocator@V?$CStringT@_WV?$StrTraitMFC@_WV?$ChTraitsCRT@_W@ATL@@@@@ATL@@@0@U_Nonscalar_ptr_iterator_tag@0@@Z ; std::_Destroy_range<std::allocator<ATL::CStringT<wchar_t,StrTraitMFC<wchar_t,ATL::ChTraitsCRT<wchar_t> > > > >
PUBLIC	??$_Ptr_cat@V?$CStringT@_WV?$StrTraitMFC@_WV?$ChTraitsCRT@_W@ATL@@@@@ATL@@V12@@std@@YA?AU_Nonscalar_ptr_iterator_tag@0@PAV?$CStringT@_WV?$StrTraitMFC@_WV?$ChTraitsCRT@_W@ATL@@@@@ATL@@0@Z ; std::_Ptr_cat<ATL::CStringT<wchar_t,StrTraitMFC<wchar_t,ATL::ChTraitsCRT<wchar_t> > >,ATL::CStringT<wchar_t,StrTraitMFC<wchar_t,ATL::ChTraitsCRT<wchar_t> > > >
; Function compile flags: /Odtp /RTCsu /ZI
;	COMDAT ??$_Destroy_range@V?$allocator@V?$CStringT@_WV?$StrTraitMFC@_WV?$ChTraitsCRT@_W@ATL@@@@@ATL@@@std@@@std@@YAXPAV?$CStringT@_WV?$StrTraitMFC@_WV?$ChTraitsCRT@_W@ATL@@@@@ATL@@0AAV?$allocator@V?$CStringT@_WV?$StrTraitMFC@_WV?$ChTraitsCRT@_W@ATL@@@@@ATL@@@0@@Z
_TEXT	SEGMENT
$T230905 = -197						; size = 1
__First$ = 8						; size = 4
__Last$ = 12						; size = 4
__Al$ = 16						; size = 4
??$_Destroy_range@V?$allocator@V?$CStringT@_WV?$StrTraitMFC@_WV?$ChTraitsCRT@_W@ATL@@@@@ATL@@@std@@@std@@YAXPAV?$CStringT@_WV?$StrTraitMFC@_WV?$ChTraitsCRT@_W@ATL@@@@@ATL@@0AAV?$allocator@V?$CStringT@_WV?$StrTraitMFC@_WV?$ChTraitsCRT@_W@ATL@@@@@ATL@@@0@@Z PROC ; std::_Destroy_range<std::allocator<ATL::CStringT<wchar_t,StrTraitMFC<wchar_t,ATL::ChTraitsCRT<wchar_t> > > > >, COMDAT

; 87   : 	{	// destroy [_First, _Last)

  00000	55		 push	 ebp
  00001	8b ec		 mov	 ebp, esp
  00003	81 ec cc 00 00
	00		 sub	 esp, 204		; 000000ccH
  00009	53		 push	 ebx
  0000a	56		 push	 esi
  0000b	57		 push	 edi
  0000c	8d bd 34 ff ff
	ff		 lea	 edi, DWORD PTR [ebp-204]
  00012	b9 33 00 00 00	 mov	 ecx, 51			; 00000033H
  00017	b8 cc cc cc cc	 mov	 eax, -858993460		; ccccccccH
  0001c	f3 ab		 rep stosd

; 88   : 	_Destroy_range(_First, _Last, _Al, _Ptr_cat(_First, _Last));

  0001e	8b 45 0c	 mov	 eax, DWORD PTR __Last$[ebp]
  00021	50		 push	 eax
  00022	8b 4d 08	 mov	 ecx, DWORD PTR __First$[ebp]
  00025	51		 push	 ecx
  00026	e8 00 00 00 00	 call	 ??$_Ptr_cat@V?$CStringT@_WV?$StrTraitMFC@_WV?$ChTraitsCRT@_W@ATL@@@@@ATL@@V12@@std@@YA?AU_Nonscalar_ptr_iterator_tag@0@PAV?$CStringT@_WV?$StrTraitMFC@_WV?$ChTraitsCRT@_W@ATL@@@@@ATL@@0@Z ; std::_Ptr_cat<ATL::CStringT<wchar_t,StrTraitMFC<wchar_t,ATL::ChTraitsCRT<wchar_t> > >,ATL::CStringT<wchar_t,StrTraitMFC<wchar_t,ATL::ChTraitsCRT<wchar_t> > > >
  0002b	83 c4 08	 add	 esp, 8
  0002e	88 85 3b ff ff
	ff		 mov	 BYTE PTR $T230905[ebp], al
  00034	0f b6 95 3b ff
	ff ff		 movzx	 edx, BYTE PTR $T230905[ebp]
  0003b	52		 push	 edx
  0003c	8b 45 10	 mov	 eax, DWORD PTR __Al$[ebp]
  0003f	50		 push	 eax
  00040	8b 4d 0c	 mov	 ecx, DWORD PTR __Last$[ebp]
  00043	51		 push	 ecx
  00044	8b 55 08	 mov	 edx, DWORD PTR __First$[ebp]
  00047	52		 push	 edx
  00048	e8 00 00 00 00	 call	 ??$_Destroy_range@V?$allocator@V?$CStringT@_WV?$StrTraitMFC@_WV?$ChTraitsCRT@_W@ATL@@@@@ATL@@@std@@@std@@YAXPAV?$CStringT@_WV?$StrTraitMFC@_WV?$ChTraitsCRT@_W@ATL@@@@@ATL@@0AAV?$allocator@V?$CStringT@_WV?$StrTraitMFC@_WV?$ChTraitsCRT@_W@ATL@@@@@ATL@@@0@U_Nonscalar_ptr_iterator_tag@0@@Z ; std::_Destroy_range<std::allocator<ATL::CStringT<wchar_t,StrTraitMFC<wchar_t,ATL::ChTraitsCRT<wchar_t> > > > >
  0004d	83 c4 10	 add	 esp, 16			; 00000010H

; 89   : 	}

  00050	5f		 pop	 edi
  00051	5e		 pop	 esi
  00052	5b		 pop	 ebx
  00053	81 c4 cc 00 00
	00		 add	 esp, 204		; 000000ccH
  00059	3b ec		 cmp	 ebp, esp
  0005b	e8 00 00 00 00	 call	 __RTC_CheckEsp
  00060	8b e5		 mov	 esp, ebp
  00062	5d		 pop	 ebp
  00063	c3		 ret	 0
??$_Destroy_range@V?$allocator@V?$CStringT@_WV?$StrTraitMFC@_WV?$ChTraitsCRT@_W@ATL@@@@@ATL@@@std@@@std@@YAXPAV?$CStringT@_WV?$StrTraitMFC@_WV?$ChTraitsCRT@_W@ATL@@@@@ATL@@0AAV?$allocator@V?$CStringT@_WV?$StrTraitMFC@_WV?$ChTraitsCRT@_W@ATL@@@@@ATL@@@0@@Z ENDP ; std::_Destroy_range<std::allocator<ATL::CStringT<wchar_t,StrTraitMFC<wchar_t,ATL::ChTraitsCRT<wchar_t> > > > >
_TEXT	ENDS
PUBLIC	??$_Destroy@U_Container_proxy@std@@@std@@YAXPAU_Container_proxy@0@@Z ; std::_Destroy<std::_Container_proxy>
; Function compile flags: /Odtp /RTCsu /ZI
;	COMDAT ?destroy@?$allocator@U_Container_proxy@std@@@std@@QAEXPAU_Container_proxy@2@@Z
_TEXT	SEGMENT
_this$ = -8						; size = 4
__Ptr$ = 8						; size = 4
?destroy@?$allocator@U_Container_proxy@std@@@std@@QAEXPAU_Container_proxy@2@@Z PROC ; std::allocator<std::_Container_proxy>::destroy, COMDAT
; _this$ = ecx

; 212  : 		{	// destroy object at _Ptr

  00000	55		 push	 ebp
  00001	8b ec		 mov	 ebp, esp
  00003	81 ec cc 00 00
	00		 sub	 esp, 204		; 000000ccH
  00009	53		 push	 ebx
  0000a	56		 push	 esi
  0000b	57		 push	 edi
  0000c	51		 push	 ecx
  0000d	8d bd 34 ff ff
	ff		 lea	 edi, DWORD PTR [ebp-204]
  00013	b9 33 00 00 00	 mov	 ecx, 51			; 00000033H
  00018	b8 cc cc cc cc	 mov	 eax, -858993460		; ccccccccH
  0001d	f3 ab		 rep stosd
  0001f	59		 pop	 ecx
  00020	89 4d f8	 mov	 DWORD PTR _this$[ebp], ecx

; 213  : 		_Destroy(_Ptr);

  00023	8b 45 08	 mov	 eax, DWORD PTR __Ptr$[ebp]
  00026	50		 push	 eax
  00027	e8 00 00 00 00	 call	 ??$_Destroy@U_Container_proxy@std@@@std@@YAXPAU_Container_proxy@0@@Z ; std::_Destroy<std::_Container_proxy>
  0002c	83 c4 04	 add	 esp, 4

; 214  : 		}

  0002f	5f		 pop	 edi
  00030	5e		 pop	 esi
  00031	5b		 pop	 ebx
  00032	81 c4 cc 00 00
	00		 add	 esp, 204		; 000000ccH
  00038	3b ec		 cmp	 ebp, esp
  0003a	e8 00 00 00 00	 call	 __RTC_CheckEsp
  0003f	8b e5		 mov	 esp, ebp
  00041	5d		 pop	 ebp
  00042	c2 04 00	 ret	 4
?destroy@?$allocator@U_Container_proxy@std@@@std@@QAEXPAU_Container_proxy@2@@Z ENDP ; std::allocator<std::_Container_proxy>::destroy
; Function compile flags: /Odtp /RTCsu /ZI
; File c:\program files\microsoft visual studio 10.0\vc\include\xutility
_TEXT	ENDS
;	COMDAT ??$_Ptr_cat@V?$CStringT@_WV?$StrTraitMFC@_WV?$ChTraitsCRT@_W@ATL@@@@@ATL@@V12@@std@@YA?AU_Nonscalar_ptr_iterator_tag@0@PAV?$CStringT@_WV?$StrTraitMFC@_WV?$ChTraitsCRT@_W@ATL@@@@@ATL@@0@Z
_TEXT	SEGMENT
__Cat$ = -5						; size = 1
___formal$ = 8						; size = 4
___formal$ = 12						; size = 4
??$_Ptr_cat@V?$CStringT@_WV?$StrTraitMFC@_WV?$ChTraitsCRT@_W@ATL@@@@@ATL@@V12@@std@@YA?AU_Nonscalar_ptr_iterator_tag@0@PAV?$CStringT@_WV?$StrTraitMFC@_WV?$ChTraitsCRT@_W@ATL@@@@@ATL@@0@Z PROC ; std::_Ptr_cat<ATL::CStringT<wchar_t,StrTraitMFC<wchar_t,ATL::ChTraitsCRT<wchar_t> > >,ATL::CStringT<wchar_t,StrTraitMFC<wchar_t,ATL::ChTraitsCRT<wchar_t> > > >, COMDAT

; 516  : 	{	// return pointer category from pointers

  00000	55		 push	 ebp
  00001	8b ec		 mov	 ebp, esp
  00003	81 ec cc 00 00
	00		 sub	 esp, 204		; 000000ccH
  00009	53		 push	 ebx
  0000a	56		 push	 esi
  0000b	57		 push	 edi
  0000c	8d bd 34 ff ff
	ff		 lea	 edi, DWORD PTR [ebp-204]
  00012	b9 33 00 00 00	 mov	 ecx, 51			; 00000033H
  00017	b8 cc cc cc cc	 mov	 eax, -858993460		; ccccccccH
  0001c	f3 ab		 rep stosd

; 517  : 	typename _Ptr_cat_helper<_Elem1, _Elem2>::_Type _Cat;
; 518  : 	return (_Cat);

  0001e	8a 45 fb	 mov	 al, BYTE PTR __Cat$[ebp]

; 519  : 	}

  00021	52		 push	 edx
  00022	8b cd		 mov	 ecx, ebp
  00024	50		 push	 eax
  00025	8d 15 00 00 00
	00		 lea	 edx, DWORD PTR $LN5@Ptr_cat
  0002b	e8 00 00 00 00	 call	 @_RTC_CheckStackVars@8
  00030	58		 pop	 eax
  00031	5a		 pop	 edx
  00032	5f		 pop	 edi
  00033	5e		 pop	 esi
  00034	5b		 pop	 ebx
  00035	8b e5		 mov	 esp, ebp
  00037	5d		 pop	 ebp
  00038	c3		 ret	 0
  00039	8d 49 00	 npad	 3
$LN5@Ptr_cat:
  0003c	01 00 00 00	 DD	 1
  00040	00 00 00 00	 DD	 $LN4@Ptr_cat
$LN4@Ptr_cat:
  00044	fb ff ff ff	 DD	 -5			; fffffffbH
  00048	01 00 00 00	 DD	 1
  0004c	00 00 00 00	 DD	 $LN3@Ptr_cat
$LN3@Ptr_cat:
  00050	5f		 DB	 95			; 0000005fH
  00051	43		 DB	 67			; 00000043H
  00052	61		 DB	 97			; 00000061H
  00053	74		 DB	 116			; 00000074H
  00054	00		 DB	 0
??$_Ptr_cat@V?$CStringT@_WV?$StrTraitMFC@_WV?$ChTraitsCRT@_W@ATL@@@@@ATL@@V12@@std@@YA?AU_Nonscalar_ptr_iterator_tag@0@PAV?$CStringT@_WV?$StrTraitMFC@_WV?$ChTraitsCRT@_W@ATL@@@@@ATL@@0@Z ENDP ; std::_Ptr_cat<ATL::CStringT<wchar_t,StrTraitMFC<wchar_t,ATL::ChTraitsCRT<wchar_t> > >,ATL::CStringT<wchar_t,StrTraitMFC<wchar_t,ATL::ChTraitsCRT<wchar_t> > > >
_TEXT	ENDS
PUBLIC	??$_Dest_val@V?$allocator@V?$CStringT@_WV?$StrTraitMFC@_WV?$ChTraitsCRT@_W@ATL@@@@@ATL@@@std@@V?$CStringT@_WV?$StrTraitMFC@_WV?$ChTraitsCRT@_W@ATL@@@@@ATL@@@std@@YAXAAV?$allocator@V?$CStringT@_WV?$StrTraitMFC@_WV?$ChTraitsCRT@_W@ATL@@@@@ATL@@@0@PAV?$CStringT@_WV?$StrTraitMFC@_WV?$ChTraitsCRT@_W@ATL@@@@@ATL@@@Z ; std::_Dest_val<std::allocator<ATL::CStringT<wchar_t,StrTraitMFC<wchar_t,ATL::ChTraitsCRT<wchar_t> > > >,ATL::CStringT<wchar_t,StrTraitMFC<wchar_t,ATL::ChTraitsCRT<wchar_t> > > >
; Function compile flags: /Odtp /RTCsu /ZI
; File c:\program files\microsoft visual studio 10.0\vc\include\xmemory
;	COMDAT ??$_Destroy_range@V?$allocator@V?$CStringT@_WV?$StrTraitMFC@_WV?$ChTraitsCRT@_W@ATL@@@@@ATL@@@std@@@std@@YAXPAV?$CStringT@_WV?$StrTraitMFC@_WV?$ChTraitsCRT@_W@ATL@@@@@ATL@@0AAV?$allocator@V?$CStringT@_WV?$StrTraitMFC@_WV?$ChTraitsCRT@_W@ATL@@@@@ATL@@@0@U_Nonscalar_ptr_iterator_tag@0@@Z
_TEXT	SEGMENT
__First$ = 8						; size = 4
__Last$ = 12						; size = 4
__Al$ = 16						; size = 4
___formal$ = 20						; size = 1
??$_Destroy_range@V?$allocator@V?$CStringT@_WV?$StrTraitMFC@_WV?$ChTraitsCRT@_W@ATL@@@@@ATL@@@std@@@std@@YAXPAV?$CStringT@_WV?$StrTraitMFC@_WV?$ChTraitsCRT@_W@ATL@@@@@ATL@@0AAV?$allocator@V?$CStringT@_WV?$StrTraitMFC@_WV?$ChTraitsCRT@_W@ATL@@@@@ATL@@@0@U_Nonscalar_ptr_iterator_tag@0@@Z PROC ; std::_Destroy_range<std::allocator<ATL::CStringT<wchar_t,StrTraitMFC<wchar_t,ATL::ChTraitsCRT<wchar_t> > > > >, COMDAT

; 95   : 	{	// destroy [_First, _Last), arbitrary type

  00000	55		 push	 ebp
  00001	8b ec		 mov	 ebp, esp
  00003	81 ec c0 00 00
	00		 sub	 esp, 192		; 000000c0H
  00009	53		 push	 ebx
  0000a	56		 push	 esi
  0000b	57		 push	 edi
  0000c	8d bd 40 ff ff
	ff		 lea	 edi, DWORD PTR [ebp-192]
  00012	b9 30 00 00 00	 mov	 ecx, 48			; 00000030H
  00017	b8 cc cc cc cc	 mov	 eax, -858993460		; ccccccccH
  0001c	f3 ab		 rep stosd

; 96   : 	for (; _First != _Last; ++_First)

  0001e	eb 09		 jmp	 SHORT $LN3@Destroy_ra
$LN2@Destroy_ra:
  00020	8b 45 08	 mov	 eax, DWORD PTR __First$[ebp]
  00023	83 c0 04	 add	 eax, 4
  00026	89 45 08	 mov	 DWORD PTR __First$[ebp], eax
$LN3@Destroy_ra:
  00029	8b 45 08	 mov	 eax, DWORD PTR __First$[ebp]
  0002c	3b 45 0c	 cmp	 eax, DWORD PTR __Last$[ebp]
  0002f	74 12		 je	 SHORT $LN4@Destroy_ra

; 97   : 		_Dest_val(_Al, _First);

  00031	8b 45 08	 mov	 eax, DWORD PTR __First$[ebp]
  00034	50		 push	 eax
  00035	8b 4d 10	 mov	 ecx, DWORD PTR __Al$[ebp]
  00038	51		 push	 ecx
  00039	e8 00 00 00 00	 call	 ??$_Dest_val@V?$allocator@V?$CStringT@_WV?$StrTraitMFC@_WV?$ChTraitsCRT@_W@ATL@@@@@ATL@@@std@@V?$CStringT@_WV?$StrTraitMFC@_WV?$ChTraitsCRT@_W@ATL@@@@@ATL@@@std@@YAXAAV?$allocator@V?$CStringT@_WV?$StrTraitMFC@_WV?$ChTraitsCRT@_W@ATL@@@@@ATL@@@0@PAV?$CStringT@_WV?$StrTraitMFC@_WV?$ChTraitsCRT@_W@ATL@@@@@ATL@@@Z ; std::_Dest_val<std::allocator<ATL::CStringT<wchar_t,StrTraitMFC<wchar_t,ATL::ChTraitsCRT<wchar_t> > > >,ATL::CStringT<wchar_t,StrTraitMFC<wchar_t,ATL::ChTraitsCRT<wchar_t> > > >
  0003e	83 c4 08	 add	 esp, 8
  00041	eb dd		 jmp	 SHORT $LN2@Destroy_ra
$LN4@Destroy_ra:

; 98   : 	}

  00043	5f		 pop	 edi
  00044	5e		 pop	 esi
  00045	5b		 pop	 ebx
  00046	81 c4 c0 00 00
	00		 add	 esp, 192		; 000000c0H
  0004c	3b ec		 cmp	 ebp, esp
  0004e	e8 00 00 00 00	 call	 __RTC_CheckEsp
  00053	8b e5		 mov	 esp, ebp
  00055	5d		 pop	 ebp
  00056	c3		 ret	 0
??$_Destroy_range@V?$allocator@V?$CStringT@_WV?$StrTraitMFC@_WV?$ChTraitsCRT@_W@ATL@@@@@ATL@@@std@@@std@@YAXPAV?$CStringT@_WV?$StrTraitMFC@_WV?$ChTraitsCRT@_W@ATL@@@@@ATL@@0AAV?$allocator@V?$CStringT@_WV?$StrTraitMFC@_WV?$ChTraitsCRT@_W@ATL@@@@@ATL@@@0@U_Nonscalar_ptr_iterator_tag@0@@Z ENDP ; std::_Destroy_range<std::allocator<ATL::CStringT<wchar_t,StrTraitMFC<wchar_t,ATL::ChTraitsCRT<wchar_t> > > > >
; Function compile flags: /Odtp /RTCsu /ZI
_TEXT	ENDS
;	COMDAT ??$_Destroy@U_Container_proxy@std@@@std@@YAXPAU_Container_proxy@0@@Z
_TEXT	SEGMENT
__Ptr$ = 8						; size = 4
??$_Destroy@U_Container_proxy@std@@@std@@YAXPAU_Container_proxy@0@@Z PROC ; std::_Destroy<std::_Container_proxy>, COMDAT

; 62   : 	{	// destroy object at _Ptr

  00000	55		 push	 ebp
  00001	8b ec		 mov	 ebp, esp
  00003	81 ec c0 00 00
	00		 sub	 esp, 192		; 000000c0H
  00009	53		 push	 ebx
  0000a	56		 push	 esi
  0000b	57		 push	 edi
  0000c	8d bd 40 ff ff
	ff		 lea	 edi, DWORD PTR [ebp-192]
  00012	b9 30 00 00 00	 mov	 ecx, 48			; 00000030H
  00017	b8 cc cc cc cc	 mov	 eax, -858993460		; ccccccccH
  0001c	f3 ab		 rep stosd

; 63   : 	_Ptr->~_Ty();
; 64   : 	}

  0001e	5f		 pop	 edi
  0001f	5e		 pop	 esi
  00020	5b		 pop	 ebx
  00021	8b e5		 mov	 esp, ebp
  00023	5d		 pop	 ebp
  00024	c3		 ret	 0
??$_Destroy@U_Container_proxy@std@@@std@@YAXPAU_Container_proxy@0@@Z ENDP ; std::_Destroy<std::_Container_proxy>
_TEXT	ENDS
PUBLIC	?destroy@?$allocator@V?$CStringT@_WV?$StrTraitMFC@_WV?$ChTraitsCRT@_W@ATL@@@@@ATL@@@std@@QAEXPAV?$CStringT@_WV?$StrTraitMFC@_WV?$ChTraitsCRT@_W@ATL@@@@@ATL@@@Z ; std::allocator<ATL::CStringT<wchar_t,StrTraitMFC<wchar_t,ATL::ChTraitsCRT<wchar_t> > > >::destroy
; Function compile flags: /Odtp /RTCsu /ZI
;	COMDAT ??$_Dest_val@V?$allocator@V?$CStringT@_WV?$StrTraitMFC@_WV?$ChTraitsCRT@_W@ATL@@@@@ATL@@@std@@V?$CStringT@_WV?$StrTraitMFC@_WV?$ChTraitsCRT@_W@ATL@@@@@ATL@@@std@@YAXAAV?$allocator@V?$CStringT@_WV?$StrTraitMFC@_WV?$ChTraitsCRT@_W@ATL@@@@@ATL@@@0@PAV?$CStringT@_WV?$StrTraitMFC@_WV?$ChTraitsCRT@_W@ATL@@@@@ATL@@@Z
_TEXT	SEGMENT
__Alval$ = 8						; size = 4
__Pdest$ = 12						; size = 4
??$_Dest_val@V?$allocator@V?$CStringT@_WV?$StrTraitMFC@_WV?$ChTraitsCRT@_W@ATL@@@@@ATL@@@std@@V?$CStringT@_WV?$StrTraitMFC@_WV?$ChTraitsCRT@_W@ATL@@@@@ATL@@@std@@YAXAAV?$allocator@V?$CStringT@_WV?$StrTraitMFC@_WV?$ChTraitsCRT@_W@ATL@@@@@ATL@@@0@PAV?$CStringT@_WV?$StrTraitMFC@_WV?$ChTraitsCRT@_W@ATL@@@@@ATL@@@Z PROC ; std::_Dest_val<std::allocator<ATL::CStringT<wchar_t,StrTraitMFC<wchar_t,ATL::ChTraitsCRT<wchar_t> > > >,ATL::CStringT<wchar_t,StrTraitMFC<wchar_t,ATL::ChTraitsCRT<wchar_t> > > >, COMDAT

; 286  : 	{	// destroy using allocator

  00000	55		 push	 ebp
  00001	8b ec		 mov	 ebp, esp
  00003	81 ec c0 00 00
	00		 sub	 esp, 192		; 000000c0H
  00009	53		 push	 ebx
  0000a	56		 push	 esi
  0000b	57		 push	 edi
  0000c	8d bd 40 ff ff
	ff		 lea	 edi, DWORD PTR [ebp-192]
  00012	b9 30 00 00 00	 mov	 ecx, 48			; 00000030H
  00017	b8 cc cc cc cc	 mov	 eax, -858993460		; ccccccccH
  0001c	f3 ab		 rep stosd

; 287  : 	_Alval.destroy(_Pdest);

  0001e	8b 45 0c	 mov	 eax, DWORD PTR __Pdest$[ebp]
  00021	50		 push	 eax
  00022	8b 4d 08	 mov	 ecx, DWORD PTR __Alval$[ebp]
  00025	e8 00 00 00 00	 call	 ?destroy@?$allocator@V?$CStringT@_WV?$StrTraitMFC@_WV?$ChTraitsCRT@_W@ATL@@@@@ATL@@@std@@QAEXPAV?$CStringT@_WV?$StrTraitMFC@_WV?$ChTraitsCRT@_W@ATL@@@@@ATL@@@Z ; std::allocator<ATL::CStringT<wchar_t,StrTraitMFC<wchar_t,ATL::ChTraitsCRT<wchar_t> > > >::destroy

; 288  : 	}

  0002a	5f		 pop	 edi
  0002b	5e		 pop	 esi
  0002c	5b		 pop	 ebx
  0002d	81 c4 c0 00 00
	00		 add	 esp, 192		; 000000c0H
  00033	3b ec		 cmp	 ebp, esp
  00035	e8 00 00 00 00	 call	 __RTC_CheckEsp
  0003a	8b e5		 mov	 esp, ebp
  0003c	5d		 pop	 ebp
  0003d	c3		 ret	 0
??$_Dest_val@V?$allocator@V?$CStringT@_WV?$StrTraitMFC@_WV?$ChTraitsCRT@_W@ATL@@@@@ATL@@@std@@V?$CStringT@_WV?$StrTraitMFC@_WV?$ChTraitsCRT@_W@ATL@@@@@ATL@@@std@@YAXAAV?$allocator@V?$CStringT@_WV?$StrTraitMFC@_WV?$ChTraitsCRT@_W@ATL@@@@@ATL@@@0@PAV?$CStringT@_WV?$StrTraitMFC@_WV?$ChTraitsCRT@_W@ATL@@@@@ATL@@@Z ENDP ; std::_Dest_val<std::allocator<ATL::CStringT<wchar_t,StrTraitMFC<wchar_t,ATL::ChTraitsCRT<wchar_t> > > >,ATL::CStringT<wchar_t,StrTraitMFC<wchar_t,ATL::ChTraitsCRT<wchar_t> > > >
_TEXT	ENDS
PUBLIC	??$_Destroy@V?$CStringT@_WV?$StrTraitMFC@_WV?$ChTraitsCRT@_W@ATL@@@@@ATL@@@std@@YAXPAV?$CStringT@_WV?$StrTraitMFC@_WV?$ChTraitsCRT@_W@ATL@@@@@ATL@@@Z ; std::_Destroy<ATL::CStringT<wchar_t,StrTraitMFC<wchar_t,ATL::ChTraitsCRT<wchar_t> > > >
; Function compile flags: /Odtp /RTCsu /ZI
;	COMDAT ?destroy@?$allocator@V?$CStringT@_WV?$StrTraitMFC@_WV?$ChTraitsCRT@_W@ATL@@@@@ATL@@@std@@QAEXPAV?$CStringT@_WV?$StrTraitMFC@_WV?$ChTraitsCRT@_W@ATL@@@@@ATL@@@Z
_TEXT	SEGMENT
_this$ = -8						; size = 4
__Ptr$ = 8						; size = 4
?destroy@?$allocator@V?$CStringT@_WV?$StrTraitMFC@_WV?$ChTraitsCRT@_W@ATL@@@@@ATL@@@std@@QAEXPAV?$CStringT@_WV?$StrTraitMFC@_WV?$ChTraitsCRT@_W@ATL@@@@@ATL@@@Z PROC ; std::allocator<ATL::CStringT<wchar_t,StrTraitMFC<wchar_t,ATL::ChTraitsCRT<wchar_t> > > >::destroy, COMDAT
; _this$ = ecx

; 212  : 		{	// destroy object at _Ptr

  00000	55		 push	 ebp
  00001	8b ec		 mov	 ebp, esp
  00003	81 ec cc 00 00
	00		 sub	 esp, 204		; 000000ccH
  00009	53		 push	 ebx
  0000a	56		 push	 esi
  0000b	57		 push	 edi
  0000c	51		 push	 ecx
  0000d	8d bd 34 ff ff
	ff		 lea	 edi, DWORD PTR [ebp-204]
  00013	b9 33 00 00 00	 mov	 ecx, 51			; 00000033H
  00018	b8 cc cc cc cc	 mov	 eax, -858993460		; ccccccccH
  0001d	f3 ab		 rep stosd
  0001f	59		 pop	 ecx
  00020	89 4d f8	 mov	 DWORD PTR _this$[ebp], ecx

; 213  : 		_Destroy(_Ptr);

  00023	8b 45 08	 mov	 eax, DWORD PTR __Ptr$[ebp]
  00026	50		 push	 eax
  00027	e8 00 00 00 00	 call	 ??$_Destroy@V?$CStringT@_WV?$StrTraitMFC@_WV?$ChTraitsCRT@_W@ATL@@@@@ATL@@@std@@YAXPAV?$CStringT@_WV?$StrTraitMFC@_WV?$ChTraitsCRT@_W@ATL@@@@@ATL@@@Z ; std::_Destroy<ATL::CStringT<wchar_t,StrTraitMFC<wchar_t,ATL::ChTraitsCRT<wchar_t> > > >
  0002c	83 c4 04	 add	 esp, 4

; 214  : 		}

  0002f	5f		 pop	 edi
  00030	5e		 pop	 esi
  00031	5b		 pop	 ebx
  00032	81 c4 cc 00 00
	00		 add	 esp, 204		; 000000ccH
  00038	3b ec		 cmp	 ebp, esp
  0003a	e8 00 00 00 00	 call	 __RTC_CheckEsp
  0003f	8b e5		 mov	 esp, ebp
  00041	5d		 pop	 ebp
  00042	c2 04 00	 ret	 4
?destroy@?$allocator@V?$CStringT@_WV?$StrTraitMFC@_WV?$ChTraitsCRT@_W@ATL@@@@@ATL@@@std@@QAEXPAV?$CStringT@_WV?$StrTraitMFC@_WV?$ChTraitsCRT@_W@ATL@@@@@ATL@@@Z ENDP ; std::allocator<ATL::CStringT<wchar_t,StrTraitMFC<wchar_t,ATL::ChTraitsCRT<wchar_t> > > >::destroy
_TEXT	ENDS
PUBLIC	??_G?$CStringT@_WV?$StrTraitMFC@_WV?$ChTraitsCRT@_W@ATL@@@@@ATL@@QAEPAXI@Z ; ATL::CStringT<wchar_t,StrTraitMFC<wchar_t,ATL::ChTraitsCRT<wchar_t> > >::`scalar deleting destructor'
; Function compile flags: /Odtp /RTCsu /ZI
;	COMDAT ??$_Destroy@V?$CStringT@_WV?$StrTraitMFC@_WV?$ChTraitsCRT@_W@ATL@@@@@ATL@@@std@@YAXPAV?$CStringT@_WV?$StrTraitMFC@_WV?$ChTraitsCRT@_W@ATL@@@@@ATL@@@Z
_TEXT	SEGMENT
__Ptr$ = 8						; size = 4
??$_Destroy@V?$CStringT@_WV?$StrTraitMFC@_WV?$ChTraitsCRT@_W@ATL@@@@@ATL@@@std@@YAXPAV?$CStringT@_WV?$StrTraitMFC@_WV?$ChTraitsCRT@_W@ATL@@@@@ATL@@@Z PROC ; std::_Destroy<ATL::CStringT<wchar_t,StrTraitMFC<wchar_t,ATL::ChTraitsCRT<wchar_t> > > >, COMDAT

; 62   : 	{	// destroy object at _Ptr

  00000	55		 push	 ebp
  00001	8b ec		 mov	 ebp, esp
  00003	81 ec c0 00 00
	00		 sub	 esp, 192		; 000000c0H
  00009	53		 push	 ebx
  0000a	56		 push	 esi
  0000b	57		 push	 edi
  0000c	8d bd 40 ff ff
	ff		 lea	 edi, DWORD PTR [ebp-192]
  00012	b9 30 00 00 00	 mov	 ecx, 48			; 00000030H
  00017	b8 cc cc cc cc	 mov	 eax, -858993460		; ccccccccH
  0001c	f3 ab		 rep stosd

; 63   : 	_Ptr->~_Ty();

  0001e	6a 00		 push	 0
  00020	8b 4d 08	 mov	 ecx, DWORD PTR __Ptr$[ebp]
  00023	e8 00 00 00 00	 call	 ??_G?$CStringT@_WV?$StrTraitMFC@_WV?$ChTraitsCRT@_W@ATL@@@@@ATL@@QAEPAXI@Z

; 64   : 	}

  00028	5f		 pop	 edi
  00029	5e		 pop	 esi
  0002a	5b		 pop	 ebx
  0002b	81 c4 c0 00 00
	00		 add	 esp, 192		; 000000c0H
  00031	3b ec		 cmp	 ebp, esp
  00033	e8 00 00 00 00	 call	 __RTC_CheckEsp
  00038	8b e5		 mov	 esp, ebp
  0003a	5d		 pop	 ebp
  0003b	c3		 ret	 0
??$_Destroy@V?$CStringT@_WV?$StrTraitMFC@_WV?$ChTraitsCRT@_W@ATL@@@@@ATL@@@std@@YAXPAV?$CStringT@_WV?$StrTraitMFC@_WV?$ChTraitsCRT@_W@ATL@@@@@ATL@@@Z ENDP ; std::_Destroy<ATL::CStringT<wchar_t,StrTraitMFC<wchar_t,ATL::ChTraitsCRT<wchar_t> > > >
; Function compile flags: /Odtp /RTCsu /ZI
_TEXT	ENDS
;	COMDAT ??_G?$CStringT@_WV?$StrTraitMFC@_WV?$ChTraitsCRT@_W@ATL@@@@@ATL@@QAEPAXI@Z
_TEXT	SEGMENT
_this$ = -8						; size = 4
___flags$ = 8						; size = 4
??_G?$CStringT@_WV?$StrTraitMFC@_WV?$ChTraitsCRT@_W@ATL@@@@@ATL@@QAEPAXI@Z PROC ; ATL::CStringT<wchar_t,StrTraitMFC<wchar_t,ATL::ChTraitsCRT<wchar_t> > >::`scalar deleting destructor', COMDAT
; _this$ = ecx
  00000	55		 push	 ebp
  00001	8b ec		 mov	 ebp, esp
  00003	81 ec cc 00 00
	00		 sub	 esp, 204		; 000000ccH
  00009	53		 push	 ebx
  0000a	56		 push	 esi
  0000b	57		 push	 edi
  0000c	51		 push	 ecx
  0000d	8d bd 34 ff ff
	ff		 lea	 edi, DWORD PTR [ebp-204]
  00013	b9 33 00 00 00	 mov	 ecx, 51			; 00000033H
  00018	b8 cc cc cc cc	 mov	 eax, -858993460		; ccccccccH
  0001d	f3 ab		 rep stosd
  0001f	59		 pop	 ecx
  00020	89 4d f8	 mov	 DWORD PTR _this$[ebp], ecx
  00023	8b 4d f8	 mov	 ecx, DWORD PTR _this$[ebp]
  00026	e8 00 00 00 00	 call	 ??1?$CStringT@_WV?$StrTraitMFC@_WV?$ChTraitsCRT@_W@ATL@@@@@ATL@@QAE@XZ ; ATL::CStringT<wchar_t,StrTraitMFC<wchar_t,ATL::ChTraitsCRT<wchar_t> > >::~CStringT<wchar_t,StrTraitMFC<wchar_t,ATL::ChTraitsCRT<wchar_t> > >
  0002b	8b 45 08	 mov	 eax, DWORD PTR ___flags$[ebp]
  0002e	83 e0 01	 and	 eax, 1
  00031	74 0c		 je	 SHORT $LN1@scalar@2
  00033	8b 45 f8	 mov	 eax, DWORD PTR _this$[ebp]
  00036	50		 push	 eax
  00037	e8 00 00 00 00	 call	 ??3@YAXPAX@Z		; operator delete
  0003c	83 c4 04	 add	 esp, 4
$LN1@scalar@2:
  0003f	8b 45 f8	 mov	 eax, DWORD PTR _this$[ebp]
  00042	5f		 pop	 edi
  00043	5e		 pop	 esi
  00044	5b		 pop	 ebx
  00045	81 c4 cc 00 00
	00		 add	 esp, 204		; 000000ccH
  0004b	3b ec		 cmp	 ebp, esp
  0004d	e8 00 00 00 00	 call	 __RTC_CheckEsp
  00052	8b e5		 mov	 esp, ebp
  00054	5d		 pop	 ebp
  00055	c2 04 00	 ret	 4
??_G?$CStringT@_WV?$StrTraitMFC@_WV?$ChTraitsCRT@_W@ATL@@@@@ATL@@QAEPAXI@Z ENDP ; ATL::CStringT<wchar_t,StrTraitMFC<wchar_t,ATL::ChTraitsCRT<wchar_t> > >::`scalar deleting destructor'
; Function compile flags: /Odtp /RTCsu /ZI
; File c:\program files\microsoft visual studio 10.0\vc\atlmfc\include\afxwin.h
_TEXT	ENDS
;	COMDAT ?SupportsRestartManager@CWinApp@@UBEHXZ
_TEXT	SEGMENT
_this$ = -8						; size = 4
?SupportsRestartManager@CWinApp@@UBEHXZ PROC		; CWinApp::SupportsRestartManager, COMDAT
; _this$ = ecx

; 5476 : 	virtual BOOL SupportsRestartManager() const { return m_dwRestartManagerSupportFlags & AFX_RESTART_MANAGER_SUPPORT_RESTART; }

  00000	55		 push	 ebp
  00001	8b ec		 mov	 ebp, esp
  00003	81 ec cc 00 00
	00		 sub	 esp, 204		; 000000ccH
  00009	53		 push	 ebx
  0000a	56		 push	 esi
  0000b	57		 push	 edi
  0000c	51		 push	 ecx
  0000d	8d bd 34 ff ff
	ff		 lea	 edi, DWORD PTR [ebp-204]
  00013	b9 33 00 00 00	 mov	 ecx, 51			; 00000033H
  00018	b8 cc cc cc cc	 mov	 eax, -858993460		; ccccccccH
  0001d	f3 ab		 rep stosd
  0001f	59		 pop	 ecx
  00020	89 4d f8	 mov	 DWORD PTR _this$[ebp], ecx
  00023	8b 45 f8	 mov	 eax, DWORD PTR _this$[ebp]
  00026	8b 80 ac 00 00
	00		 mov	 eax, DWORD PTR [eax+172]
  0002c	83 e0 01	 and	 eax, 1
  0002f	5f		 pop	 edi
  00030	5e		 pop	 esi
  00031	5b		 pop	 ebx
  00032	8b e5		 mov	 esp, ebp
  00034	5d		 pop	 ebp
  00035	c3		 ret	 0
?SupportsRestartManager@CWinApp@@UBEHXZ ENDP		; CWinApp::SupportsRestartManager
; Function compile flags: /Odtp /RTCsu /ZI
_TEXT	ENDS
;	COMDAT ?SupportsApplicationRecovery@CWinApp@@UBEHXZ
_TEXT	SEGMENT
_this$ = -8						; size = 4
?SupportsApplicationRecovery@CWinApp@@UBEHXZ PROC	; CWinApp::SupportsApplicationRecovery, COMDAT
; _this$ = ecx

; 5477 : 	virtual BOOL SupportsApplicationRecovery() const { return m_dwRestartManagerSupportFlags & AFX_RESTART_MANAGER_SUPPORT_RECOVERY; }

  00000	55		 push	 ebp
  00001	8b ec		 mov	 ebp, esp
  00003	81 ec cc 00 00
	00		 sub	 esp, 204		; 000000ccH
  00009	53		 push	 ebx
  0000a	56		 push	 esi
  0000b	57		 push	 edi
  0000c	51		 push	 ecx
  0000d	8d bd 34 ff ff
	ff		 lea	 edi, DWORD PTR [ebp-204]
  00013	b9 33 00 00 00	 mov	 ecx, 51			; 00000033H
  00018	b8 cc cc cc cc	 mov	 eax, -858993460		; ccccccccH
  0001d	f3 ab		 rep stosd
  0001f	59		 pop	 ecx
  00020	89 4d f8	 mov	 DWORD PTR _this$[ebp], ecx
  00023	8b 45 f8	 mov	 eax, DWORD PTR _this$[ebp]
  00026	8b 80 ac 00 00
	00		 mov	 eax, DWORD PTR [eax+172]
  0002c	83 e0 02	 and	 eax, 2
  0002f	5f		 pop	 edi
  00030	5e		 pop	 esi
  00031	5b		 pop	 ebx
  00032	8b e5		 mov	 esp, ebp
  00034	5d		 pop	 ebp
  00035	c3		 ret	 0
?SupportsApplicationRecovery@CWinApp@@UBEHXZ ENDP	; CWinApp::SupportsApplicationRecovery
; Function compile flags: /Odtp /RTCsu /ZI
_TEXT	ENDS
;	COMDAT ?SupportsAutosaveAtRestart@CWinApp@@UBEHXZ
_TEXT	SEGMENT
_this$ = -8						; size = 4
?SupportsAutosaveAtRestart@CWinApp@@UBEHXZ PROC		; CWinApp::SupportsAutosaveAtRestart, COMDAT
; _this$ = ecx

; 5478 : 	virtual BOOL SupportsAutosaveAtRestart() const { return m_dwRestartManagerSupportFlags & AFX_RESTART_MANAGER_AUTOSAVE_AT_RESTART; }

  00000	55		 push	 ebp
  00001	8b ec		 mov	 ebp, esp
  00003	81 ec cc 00 00
	00		 sub	 esp, 204		; 000000ccH
  00009	53		 push	 ebx
  0000a	56		 push	 esi
  0000b	57		 push	 edi
  0000c	51		 push	 ecx
  0000d	8d bd 34 ff ff
	ff		 lea	 edi, DWORD PTR [ebp-204]
  00013	b9 33 00 00 00	 mov	 ecx, 51			; 00000033H
  00018	b8 cc cc cc cc	 mov	 eax, -858993460		; ccccccccH
  0001d	f3 ab		 rep stosd
  0001f	59		 pop	 ecx
  00020	89 4d f8	 mov	 DWORD PTR _this$[ebp], ecx
  00023	8b 45 f8	 mov	 eax, DWORD PTR _this$[ebp]
  00026	8b 80 ac 00 00
	00		 mov	 eax, DWORD PTR [eax+172]
  0002c	83 e0 04	 and	 eax, 4
  0002f	5f		 pop	 edi
  00030	5e		 pop	 esi
  00031	5b		 pop	 ebx
  00032	8b e5		 mov	 esp, ebp
  00034	5d		 pop	 ebp
  00035	c3		 ret	 0
?SupportsAutosaveAtRestart@CWinApp@@UBEHXZ ENDP		; CWinApp::SupportsAutosaveAtRestart
; Function compile flags: /Odtp /RTCsu /ZI
_TEXT	ENDS
;	COMDAT ?SupportsAutosaveAtInterval@CWinApp@@UBEHXZ
_TEXT	SEGMENT
_this$ = -8						; size = 4
?SupportsAutosaveAtInterval@CWinApp@@UBEHXZ PROC	; CWinApp::SupportsAutosaveAtInterval, COMDAT
; _this$ = ecx

; 5479 : 	virtual BOOL SupportsAutosaveAtInterval() const { return m_dwRestartManagerSupportFlags & AFX_RESTART_MANAGER_AUTOSAVE_AT_INTERVAL; }

  00000	55		 push	 ebp
  00001	8b ec		 mov	 ebp, esp
  00003	81 ec cc 00 00
	00		 sub	 esp, 204		; 000000ccH
  00009	53		 push	 ebx
  0000a	56		 push	 esi
  0000b	57		 push	 edi
  0000c	51		 push	 ecx
  0000d	8d bd 34 ff ff
	ff		 lea	 edi, DWORD PTR [ebp-204]
  00013	b9 33 00 00 00	 mov	 ecx, 51			; 00000033H
  00018	b8 cc cc cc cc	 mov	 eax, -858993460		; ccccccccH
  0001d	f3 ab		 rep stosd
  0001f	59		 pop	 ecx
  00020	89 4d f8	 mov	 DWORD PTR _this$[ebp], ecx
  00023	8b 45 f8	 mov	 eax, DWORD PTR _this$[ebp]
  00026	8b 80 ac 00 00
	00		 mov	 eax, DWORD PTR [eax+172]
  0002c	83 e0 08	 and	 eax, 8
  0002f	5f		 pop	 edi
  00030	5e		 pop	 esi
  00031	5b		 pop	 ebx
  00032	8b e5		 mov	 esp, ebp
  00034	5d		 pop	 ebp
  00035	c3		 ret	 0
?SupportsAutosaveAtInterval@CWinApp@@UBEHXZ ENDP	; CWinApp::SupportsAutosaveAtInterval
; Function compile flags: /Odtp /RTCsu /ZI
_TEXT	ENDS
;	COMDAT ?ReopenPreviousFilesAtRestart@CWinApp@@UBEHXZ
_TEXT	SEGMENT
_this$ = -8						; size = 4
?ReopenPreviousFilesAtRestart@CWinApp@@UBEHXZ PROC	; CWinApp::ReopenPreviousFilesAtRestart, COMDAT
; _this$ = ecx

; 5480 : 	virtual BOOL ReopenPreviousFilesAtRestart() const { return m_dwRestartManagerSupportFlags & AFX_RESTART_MANAGER_REOPEN_PREVIOUS_FILES; }

  00000	55		 push	 ebp
  00001	8b ec		 mov	 ebp, esp
  00003	81 ec cc 00 00
	00		 sub	 esp, 204		; 000000ccH
  00009	53		 push	 ebx
  0000a	56		 push	 esi
  0000b	57		 push	 edi
  0000c	51		 push	 ecx
  0000d	8d bd 34 ff ff
	ff		 lea	 edi, DWORD PTR [ebp-204]
  00013	b9 33 00 00 00	 mov	 ecx, 51			; 00000033H
  00018	b8 cc cc cc cc	 mov	 eax, -858993460		; ccccccccH
  0001d	f3 ab		 rep stosd
  0001f	59		 pop	 ecx
  00020	89 4d f8	 mov	 DWORD PTR _this$[ebp], ecx
  00023	8b 45 f8	 mov	 eax, DWORD PTR _this$[ebp]
  00026	8b 80 ac 00 00
	00		 mov	 eax, DWORD PTR [eax+172]
  0002c	83 e0 10	 and	 eax, 16			; 00000010H
  0002f	5f		 pop	 edi
  00030	5e		 pop	 esi
  00031	5b		 pop	 ebx
  00032	8b e5		 mov	 esp, ebp
  00034	5d		 pop	 ebp
  00035	c3		 ret	 0
?ReopenPreviousFilesAtRestart@CWinApp@@UBEHXZ ENDP	; CWinApp::ReopenPreviousFilesAtRestart
; Function compile flags: /Odtp /RTCsu /ZI
_TEXT	ENDS
;	COMDAT ?RestoreAutosavedFilesAtRestart@CWinApp@@UBEHXZ
_TEXT	SEGMENT
_this$ = -8						; size = 4
?RestoreAutosavedFilesAtRestart@CWinApp@@UBEHXZ PROC	; CWinApp::RestoreAutosavedFilesAtRestart, COMDAT
; _this$ = ecx

; 5481 : 	virtual BOOL RestoreAutosavedFilesAtRestart() const { return m_dwRestartManagerSupportFlags & AFX_RESTART_MANAGER_RESTORE_AUTOSAVED_FILES; }

  00000	55		 push	 ebp
  00001	8b ec		 mov	 ebp, esp
  00003	81 ec cc 00 00
	00		 sub	 esp, 204		; 000000ccH
  00009	53		 push	 ebx
  0000a	56		 push	 esi
  0000b	57		 push	 edi
  0000c	51		 push	 ecx
  0000d	8d bd 34 ff ff
	ff		 lea	 edi, DWORD PTR [ebp-204]
  00013	b9 33 00 00 00	 mov	 ecx, 51			; 00000033H
  00018	b8 cc cc cc cc	 mov	 eax, -858993460		; ccccccccH
  0001d	f3 ab		 rep stosd
  0001f	59		 pop	 ecx
  00020	89 4d f8	 mov	 DWORD PTR _this$[ebp], ecx
  00023	8b 45 f8	 mov	 eax, DWORD PTR _this$[ebp]
  00026	8b 80 ac 00 00
	00		 mov	 eax, DWORD PTR [eax+172]
  0002c	83 e0 20	 and	 eax, 32			; 00000020H
  0002f	5f		 pop	 edi
  00030	5e		 pop	 esi
  00031	5b		 pop	 ebx
  00032	8b e5		 mov	 esp, ebp
  00034	5d		 pop	 ebp
  00035	c3		 ret	 0
?RestoreAutosavedFilesAtRestart@CWinApp@@UBEHXZ ENDP	; CWinApp::RestoreAutosavedFilesAtRestart
; Function compile flags: /Odtp /RTCsu /ZI
_TEXT	ENDS
;	COMDAT ?GetApplicationRestartFlags@CWinApp@@UAEKXZ
_TEXT	SEGMENT
_this$ = -8						; size = 4
?GetApplicationRestartFlags@CWinApp@@UAEKXZ PROC	; CWinApp::GetApplicationRestartFlags, COMDAT
; _this$ = ecx

; 5483 : 	virtual DWORD GetApplicationRestartFlags() { return 0; }  // Flags for RegisterApplicationRestart: default is none of RESTART_NO_CRASH/RESTART_NO_HANG/RESTART_NO_PATCH/RESTART_NO_REBOOT

  00000	55		 push	 ebp
  00001	8b ec		 mov	 ebp, esp
  00003	81 ec cc 00 00
	00		 sub	 esp, 204		; 000000ccH
  00009	53		 push	 ebx
  0000a	56		 push	 esi
  0000b	57		 push	 edi
  0000c	51		 push	 ecx
  0000d	8d bd 34 ff ff
	ff		 lea	 edi, DWORD PTR [ebp-204]
  00013	b9 33 00 00 00	 mov	 ecx, 51			; 00000033H
  00018	b8 cc cc cc cc	 mov	 eax, -858993460		; ccccccccH
  0001d	f3 ab		 rep stosd
  0001f	59		 pop	 ecx
  00020	89 4d f8	 mov	 DWORD PTR _this$[ebp], ecx
  00023	33 c0		 xor	 eax, eax
  00025	5f		 pop	 edi
  00026	5e		 pop	 esi
  00027	5b		 pop	 ebx
  00028	8b e5		 mov	 esp, ebp
  0002a	5d		 pop	 ebp
  0002b	c3		 ret	 0
?GetApplicationRestartFlags@CWinApp@@UAEKXZ ENDP	; CWinApp::GetApplicationRestartFlags
; Function compile flags: /Odtp /RTCsu /ZI
_TEXT	ENDS
;	COMDAT ?GetApplicationRecoveryParameter@CWinApp@@UAEPAXXZ
_TEXT	SEGMENT
_this$ = -8						; size = 4
?GetApplicationRecoveryParameter@CWinApp@@UAEPAXXZ PROC	; CWinApp::GetApplicationRecoveryParameter, COMDAT
; _this$ = ecx

; 5484 : 	virtual LPVOID GetApplicationRecoveryParameter() { return NULL; }  // Parameter to be passed along to RegisterApplicationRecoveryCallback

  00000	55		 push	 ebp
  00001	8b ec		 mov	 ebp, esp
  00003	81 ec cc 00 00
	00		 sub	 esp, 204		; 000000ccH
  00009	53		 push	 ebx
  0000a	56		 push	 esi
  0000b	57		 push	 edi
  0000c	51		 push	 ecx
  0000d	8d bd 34 ff ff
	ff		 lea	 edi, DWORD PTR [ebp-204]
  00013	b9 33 00 00 00	 mov	 ecx, 51			; 00000033H
  00018	b8 cc cc cc cc	 mov	 eax, -858993460		; ccccccccH
  0001d	f3 ab		 rep stosd
  0001f	59		 pop	 ecx
  00020	89 4d f8	 mov	 DWORD PTR _this$[ebp], ecx
  00023	33 c0		 xor	 eax, eax
  00025	5f		 pop	 edi
  00026	5e		 pop	 esi
  00027	5b		 pop	 ebx
  00028	8b e5		 mov	 esp, ebp
  0002a	5d		 pop	 ebp
  0002b	c3		 ret	 0
?GetApplicationRecoveryParameter@CWinApp@@UAEPAXXZ ENDP	; CWinApp::GetApplicationRecoveryParameter
; Function compile flags: /Odtp /RTCsu /ZI
_TEXT	ENDS
;	COMDAT ?GetApplicationRecoveryPingInterval@CWinApp@@UAEKXZ
_TEXT	SEGMENT
_this$ = -8						; size = 4
?GetApplicationRecoveryPingInterval@CWinApp@@UAEKXZ PROC ; CWinApp::GetApplicationRecoveryPingInterval, COMDAT
; _this$ = ecx

; 5485 : 	virtual DWORD GetApplicationRecoveryPingInterval() { return RECOVERY_DEFAULT_PING_INTERVAL; }  // Ping interval for RegisterApplicationRecoveryCallback

  00000	55		 push	 ebp
  00001	8b ec		 mov	 ebp, esp
  00003	81 ec cc 00 00
	00		 sub	 esp, 204		; 000000ccH
  00009	53		 push	 ebx
  0000a	56		 push	 esi
  0000b	57		 push	 edi
  0000c	51		 push	 ecx
  0000d	8d bd 34 ff ff
	ff		 lea	 edi, DWORD PTR [ebp-204]
  00013	b9 33 00 00 00	 mov	 ecx, 51			; 00000033H
  00018	b8 cc cc cc cc	 mov	 eax, -858993460		; ccccccccH
  0001d	f3 ab		 rep stosd
  0001f	59		 pop	 ecx
  00020	89 4d f8	 mov	 DWORD PTR _this$[ebp], ecx
  00023	b8 88 13 00 00	 mov	 eax, 5000		; 00001388H
  00028	5f		 pop	 edi
  00029	5e		 pop	 esi
  0002a	5b		 pop	 ebx
  0002b	8b e5		 mov	 esp, ebp
  0002d	5d		 pop	 ebp
  0002e	c3		 ret	 0
?GetApplicationRecoveryPingInterval@CWinApp@@UAEKXZ ENDP ; CWinApp::GetApplicationRecoveryPingInterval
; Function compile flags: /Odtp /RTCsu /ZI
; File c:\program files\microsoft visual studio 10.0\vc\atlmfc\include\afxwinappex.h
_TEXT	ENDS
;	COMDAT ?OnWorkspaceIdle@CWinAppEx@@UAEHPAVCWnd@@@Z
_TEXT	SEGMENT
_this$ = -8						; size = 4
___formal$ = 8						; size = 4
?OnWorkspaceIdle@CWinAppEx@@UAEHPAVCWnd@@@Z PROC	; CWinAppEx::OnWorkspaceIdle, COMDAT
; _this$ = ecx

; 125  : 	virtual BOOL OnWorkspaceIdle(CWnd* /*pWnd*/) { return FALSE; }

  00000	55		 push	 ebp
  00001	8b ec		 mov	 ebp, esp
  00003	81 ec cc 00 00
	00		 sub	 esp, 204		; 000000ccH
  00009	53		 push	 ebx
  0000a	56		 push	 esi
  0000b	57		 push	 edi
  0000c	51		 push	 ecx
  0000d	8d bd 34 ff ff
	ff		 lea	 edi, DWORD PTR [ebp-204]
  00013	b9 33 00 00 00	 mov	 ecx, 51			; 00000033H
  00018	b8 cc cc cc cc	 mov	 eax, -858993460		; ccccccccH
  0001d	f3 ab		 rep stosd
  0001f	59		 pop	 ecx
  00020	89 4d f8	 mov	 DWORD PTR _this$[ebp], ecx
  00023	33 c0		 xor	 eax, eax
  00025	5f		 pop	 edi
  00026	5e		 pop	 esi
  00027	5b		 pop	 ebx
  00028	8b e5		 mov	 esp, ebp
  0002a	5d		 pop	 ebp
  0002b	c2 04 00	 ret	 4
?OnWorkspaceIdle@CWinAppEx@@UAEHPAVCWnd@@@Z ENDP	; CWinAppEx::OnWorkspaceIdle
; Function compile flags: /Odtp /RTCsu /ZI
_TEXT	ENDS
;	COMDAT ?PreLoadState@CWinAppEx@@MAEXXZ
_TEXT	SEGMENT
_this$ = -8						; size = 4
?PreLoadState@CWinAppEx@@MAEXXZ PROC			; CWinAppEx::PreLoadState, COMDAT
; _this$ = ecx

; 136  : 	virtual void PreLoadState() {}    // called before anything is loaded

  00000	55		 push	 ebp
  00001	8b ec		 mov	 ebp, esp
  00003	81 ec cc 00 00
	00		 sub	 esp, 204		; 000000ccH
  00009	53		 push	 ebx
  0000a	56		 push	 esi
  0000b	57		 push	 edi
  0000c	51		 push	 ecx
  0000d	8d bd 34 ff ff
	ff		 lea	 edi, DWORD PTR [ebp-204]
  00013	b9 33 00 00 00	 mov	 ecx, 51			; 00000033H
  00018	b8 cc cc cc cc	 mov	 eax, -858993460		; ccccccccH
  0001d	f3 ab		 rep stosd
  0001f	59		 pop	 ecx
  00020	89 4d f8	 mov	 DWORD PTR _this$[ebp], ecx
  00023	5f		 pop	 edi
  00024	5e		 pop	 esi
  00025	5b		 pop	 ebx
  00026	8b e5		 mov	 esp, ebp
  00028	5d		 pop	 ebp
  00029	c3		 ret	 0
?PreLoadState@CWinAppEx@@MAEXXZ ENDP			; CWinAppEx::PreLoadState
; Function compile flags: /Odtp /RTCsu /ZI
_TEXT	ENDS
;	COMDAT ?LoadCustomState@CWinAppEx@@MAEXXZ
_TEXT	SEGMENT
_this$ = -8						; size = 4
?LoadCustomState@CWinAppEx@@MAEXXZ PROC			; CWinAppEx::LoadCustomState, COMDAT
; _this$ = ecx

; 137  : 	virtual void LoadCustomState() {} // called after everything is loaded

  00000	55		 push	 ebp
  00001	8b ec		 mov	 ebp, esp
  00003	81 ec cc 00 00
	00		 sub	 esp, 204		; 000000ccH
  00009	53		 push	 ebx
  0000a	56		 push	 esi
  0000b	57		 push	 edi
  0000c	51		 push	 ecx
  0000d	8d bd 34 ff ff
	ff		 lea	 edi, DWORD PTR [ebp-204]
  00013	b9 33 00 00 00	 mov	 ecx, 51			; 00000033H
  00018	b8 cc cc cc cc	 mov	 eax, -858993460		; ccccccccH
  0001d	f3 ab		 rep stosd
  0001f	59		 pop	 ecx
  00020	89 4d f8	 mov	 DWORD PTR _this$[ebp], ecx
  00023	5f		 pop	 edi
  00024	5e		 pop	 esi
  00025	5b		 pop	 ebx
  00026	8b e5		 mov	 esp, ebp
  00028	5d		 pop	 ebp
  00029	c3		 ret	 0
?LoadCustomState@CWinAppEx@@MAEXXZ ENDP			; CWinAppEx::LoadCustomState
; Function compile flags: /Odtp /RTCsu /ZI
_TEXT	ENDS
;	COMDAT ?PreSaveState@CWinAppEx@@MAEXXZ
_TEXT	SEGMENT
_this$ = -8						; size = 4
?PreSaveState@CWinAppEx@@MAEXXZ PROC			; CWinAppEx::PreSaveState, COMDAT
; _this$ = ecx

; 138  : 	virtual void PreSaveState() {}    // called before anything is saved

  00000	55		 push	 ebp
  00001	8b ec		 mov	 ebp, esp
  00003	81 ec cc 00 00
	00		 sub	 esp, 204		; 000000ccH
  00009	53		 push	 ebx
  0000a	56		 push	 esi
  0000b	57		 push	 edi
  0000c	51		 push	 ecx
  0000d	8d bd 34 ff ff
	ff		 lea	 edi, DWORD PTR [ebp-204]
  00013	b9 33 00 00 00	 mov	 ecx, 51			; 00000033H
  00018	b8 cc cc cc cc	 mov	 eax, -858993460		; ccccccccH
  0001d	f3 ab		 rep stosd
  0001f	59		 pop	 ecx
  00020	89 4d f8	 mov	 DWORD PTR _this$[ebp], ecx
  00023	5f		 pop	 edi
  00024	5e		 pop	 esi
  00025	5b		 pop	 ebx
  00026	8b e5		 mov	 esp, ebp
  00028	5d		 pop	 ebp
  00029	c3		 ret	 0
?PreSaveState@CWinAppEx@@MAEXXZ ENDP			; CWinAppEx::PreSaveState
; Function compile flags: /Odtp /RTCsu /ZI
_TEXT	ENDS
;	COMDAT ?SaveCustomState@CWinAppEx@@MAEXXZ
_TEXT	SEGMENT
_this$ = -8						; size = 4
?SaveCustomState@CWinAppEx@@MAEXXZ PROC			; CWinAppEx::SaveCustomState, COMDAT
; _this$ = ecx

; 139  : 	virtual void SaveCustomState() {} // called after everything is saved

  00000	55		 push	 ebp
  00001	8b ec		 mov	 ebp, esp
  00003	81 ec cc 00 00
	00		 sub	 esp, 204		; 000000ccH
  00009	53		 push	 ebx
  0000a	56		 push	 esi
  0000b	57		 push	 edi
  0000c	51		 push	 ecx
  0000d	8d bd 34 ff ff
	ff		 lea	 edi, DWORD PTR [ebp-204]
  00013	b9 33 00 00 00	 mov	 ecx, 51			; 00000033H
  00018	b8 cc cc cc cc	 mov	 eax, -858993460		; ccccccccH
  0001d	f3 ab		 rep stosd
  0001f	59		 pop	 ecx
  00020	89 4d f8	 mov	 DWORD PTR _this$[ebp], ecx
  00023	5f		 pop	 edi
  00024	5e		 pop	 esi
  00025	5b		 pop	 ebx
  00026	8b e5		 mov	 esp, ebp
  00028	5d		 pop	 ebp
  00029	c3		 ret	 0
?SaveCustomState@CWinAppEx@@MAEXXZ ENDP			; CWinAppEx::SaveCustomState
_TEXT	ENDS
PUBLIC	??1?$CSimpleStringT@_W$0A@@ATL@@QAE@XZ		; ATL::CSimpleStringT<wchar_t,0>::~CSimpleStringT<wchar_t,0>
; Function compile flags: /Odtp /RTCsu /ZI
; File c:\program files\microsoft visual studio 10.0\vc\atlmfc\include\cstringt.h
;	COMDAT ??1?$CStringT@_WV?$StrTraitMFC@_WV?$ChTraitsCRT@_W@ATL@@@@@ATL@@QAE@XZ
_TEXT	SEGMENT
_this$ = -8						; size = 4
??1?$CStringT@_WV?$StrTraitMFC@_WV?$ChTraitsCRT@_W@ATL@@@@@ATL@@QAE@XZ PROC ; ATL::CStringT<wchar_t,StrTraitMFC<wchar_t,ATL::ChTraitsCRT<wchar_t> > >::~CStringT<wchar_t,StrTraitMFC<wchar_t,ATL::ChTraitsCRT<wchar_t> > >, COMDAT
; _this$ = ecx

; 1212 : 	{

  00000	55		 push	 ebp
  00001	8b ec		 mov	 ebp, esp
  00003	81 ec cc 00 00
	00		 sub	 esp, 204		; 000000ccH
  00009	53		 push	 ebx
  0000a	56		 push	 esi
  0000b	57		 push	 edi
  0000c	51		 push	 ecx
  0000d	8d bd 34 ff ff
	ff		 lea	 edi, DWORD PTR [ebp-204]
  00013	b9 33 00 00 00	 mov	 ecx, 51			; 00000033H
  00018	b8 cc cc cc cc	 mov	 eax, -858993460		; ccccccccH
  0001d	f3 ab		 rep stosd
  0001f	59		 pop	 ecx
  00020	89 4d f8	 mov	 DWORD PTR _this$[ebp], ecx

; 1213 : 	}

  00023	8b 4d f8	 mov	 ecx, DWORD PTR _this$[ebp]
  00026	e8 00 00 00 00	 call	 ??1?$CSimpleStringT@_W$0A@@ATL@@QAE@XZ ; ATL::CSimpleStringT<wchar_t,0>::~CSimpleStringT<wchar_t,0>
  0002b	5f		 pop	 edi
  0002c	5e		 pop	 esi
  0002d	5b		 pop	 ebx
  0002e	81 c4 cc 00 00
	00		 add	 esp, 204		; 000000ccH
  00034	3b ec		 cmp	 ebp, esp
  00036	e8 00 00 00 00	 call	 __RTC_CheckEsp
  0003b	8b e5		 mov	 esp, ebp
  0003d	5d		 pop	 ebp
  0003e	c3		 ret	 0
??1?$CStringT@_WV?$StrTraitMFC@_WV?$ChTraitsCRT@_W@ATL@@@@@ATL@@QAE@XZ ENDP ; ATL::CStringT<wchar_t,StrTraitMFC<wchar_t,ATL::ChTraitsCRT<wchar_t> > >::~CStringT<wchar_t,StrTraitMFC<wchar_t,ATL::ChTraitsCRT<wchar_t> > >
_TEXT	ENDS
PUBLIC	?Release@CStringData@ATL@@QAEXXZ		; ATL::CStringData::Release
PUBLIC	?GetData@?$CSimpleStringT@_W$0A@@ATL@@ABEPAUCStringData@2@XZ ; ATL::CSimpleStringT<wchar_t,0>::GetData
; Function compile flags: /Odtp /RTCsu /ZI
; File c:\program files\microsoft visual studio 10.0\vc\atlmfc\include\atlsimpstr.h
;	COMDAT ??1?$CSimpleStringT@_W$0A@@ATL@@QAE@XZ
_TEXT	SEGMENT
_pData$ = -20						; size = 4
_this$ = -8						; size = 4
??1?$CSimpleStringT@_W$0A@@ATL@@QAE@XZ PROC		; ATL::CSimpleStringT<wchar_t,0>::~CSimpleStringT<wchar_t,0>, COMDAT
; _this$ = ecx

; 286  : 	{

  00000	55		 push	 ebp
  00001	8b ec		 mov	 ebp, esp
  00003	81 ec d8 00 00
	00		 sub	 esp, 216		; 000000d8H
  00009	53		 push	 ebx
  0000a	56		 push	 esi
  0000b	57		 push	 edi
  0000c	51		 push	 ecx
  0000d	8d bd 28 ff ff
	ff		 lea	 edi, DWORD PTR [ebp-216]
  00013	b9 36 00 00 00	 mov	 ecx, 54			; 00000036H
  00018	b8 cc cc cc cc	 mov	 eax, -858993460		; ccccccccH
  0001d	f3 ab		 rep stosd
  0001f	59		 pop	 ecx
  00020	89 4d f8	 mov	 DWORD PTR _this$[ebp], ecx

; 287  : 		CStringData* pData = GetData();

  00023	8b 4d f8	 mov	 ecx, DWORD PTR _this$[ebp]
  00026	e8 00 00 00 00	 call	 ?GetData@?$CSimpleStringT@_W$0A@@ATL@@ABEPAUCStringData@2@XZ ; ATL::CSimpleStringT<wchar_t,0>::GetData
  0002b	89 45 ec	 mov	 DWORD PTR _pData$[ebp], eax

; 288  : 		pData->Release();

  0002e	8b 4d ec	 mov	 ecx, DWORD PTR _pData$[ebp]
  00031	e8 00 00 00 00	 call	 ?Release@CStringData@ATL@@QAEXXZ ; ATL::CStringData::Release

; 289  : 	}

  00036	5f		 pop	 edi
  00037	5e		 pop	 esi
  00038	5b		 pop	 ebx
  00039	81 c4 d8 00 00
	00		 add	 esp, 216		; 000000d8H
  0003f	3b ec		 cmp	 ebp, esp
  00041	e8 00 00 00 00	 call	 __RTC_CheckEsp
  00046	8b e5		 mov	 esp, ebp
  00048	5d		 pop	 ebp
  00049	c3		 ret	 0
??1?$CSimpleStringT@_W$0A@@ATL@@QAE@XZ ENDP		; ATL::CSimpleStringT<wchar_t,0>::~CSimpleStringT<wchar_t,0>
_TEXT	ENDS
PUBLIC	??_C@_1JK@OKOEFEHL@?$AAc?$AA?3?$AA?2?$AAp?$AAr?$AAo?$AAg?$AAr?$AAa?$AAm?$AA?5?$AAf?$AAi?$AAl?$AAe?$AAs?$AA?2?$AAm?$AAi?$AAc?$AAr?$AAo?$AAs?$AAo?$AAf?$AAt?$AA?5?$AAv?$AAi?$AAs?$AAu?$AAa@ ; `string'
PUBLIC	??_C@_1BG@GPELCNED@?$AAn?$AAR?$AAe?$AAf?$AAs?$AA?5?$AA?$CB?$AA?$DN?$AA?5?$AA0?$AA?$AA@ ; `string'
EXTRN	__CrtDbgReportW:PROC
;	COMDAT ??_C@_1JK@OKOEFEHL@?$AAc?$AA?3?$AA?2?$AAp?$AAr?$AAo?$AAg?$AAr?$AAa?$AAm?$AA?5?$AAf?$AAi?$AAl?$AAe?$AAs?$AA?2?$AAm?$AAi?$AAc?$AAr?$AAo?$AAs?$AAo?$AAf?$AAt?$AA?5?$AAv?$AAi?$AAs?$AAu?$AAa@
CONST	SEGMENT
??_C@_1JK@OKOEFEHL@?$AAc?$AA?3?$AA?2?$AAp?$AAr?$AAo?$AAg?$AAr?$AAa?$AAm?$AA?5?$AAf?$AAi?$AAl?$AAe?$AAs?$AA?2?$AAm?$AAi?$AAc?$AAr?$AAo?$AAs?$AAo?$AAf?$AAt?$AA?5?$AAv?$AAi?$AAs?$AAu?$AAa@ DB 'c'
	DB	00H, ':', 00H, '\', 00H, 'p', 00H, 'r', 00H, 'o', 00H, 'g', 00H
	DB	'r', 00H, 'a', 00H, 'm', 00H, ' ', 00H, 'f', 00H, 'i', 00H, 'l'
	DB	00H, 'e', 00H, 's', 00H, '\', 00H, 'm', 00H, 'i', 00H, 'c', 00H
	DB	'r', 00H, 'o', 00H, 's', 00H, 'o', 00H, 'f', 00H, 't', 00H, ' '
	DB	00H, 'v', 00H, 'i', 00H, 's', 00H, 'u', 00H, 'a', 00H, 'l', 00H
	DB	' ', 00H, 's', 00H, 't', 00H, 'u', 00H, 'd', 00H, 'i', 00H, 'o'
	DB	00H, ' ', 00H, '1', 00H, '0', 00H, '.', 00H, '0', 00H, '\', 00H
	DB	'v', 00H, 'c', 00H, '\', 00H, 'a', 00H, 't', 00H, 'l', 00H, 'm'
	DB	00H, 'f', 00H, 'c', 00H, '\', 00H, 'i', 00H, 'n', 00H, 'c', 00H
	DB	'l', 00H, 'u', 00H, 'd', 00H, 'e', 00H, '\', 00H, 'a', 00H, 't'
	DB	00H, 'l', 00H, 's', 00H, 'i', 00H, 'm', 00H, 'p', 00H, 's', 00H
	DB	't', 00H, 'r', 00H, '.', 00H, 'h', 00H, 00H, 00H ; `string'
CONST	ENDS
;	COMDAT ??_C@_1BG@GPELCNED@?$AAn?$AAR?$AAe?$AAf?$AAs?$AA?5?$AA?$CB?$AA?$DN?$AA?5?$AA0?$AA?$AA@
CONST	SEGMENT
??_C@_1BG@GPELCNED@?$AAn?$AAR?$AAe?$AAf?$AAs?$AA?5?$AA?$CB?$AA?$DN?$AA?5?$AA0?$AA?$AA@ DB 'n'
	DB	00H, 'R', 00H, 'e', 00H, 'f', 00H, 's', 00H, ' ', 00H, '!', 00H
	DB	'=', 00H, ' ', 00H, '0', 00H, 00H, 00H	; `string'
; Function compile flags: /Odtp /RTCsu /ZI
CONST	ENDS
;	COMDAT ?Release@CStringData@ATL@@QAEXXZ
_TEXT	SEGMENT
_this$ = -8						; size = 4
?Release@CStringData@ATL@@QAEXXZ PROC			; ATL::CStringData::Release, COMDAT
; _this$ = ecx

; 111  : 	{

  00000	55		 push	 ebp
  00001	8b ec		 mov	 ebp, esp
  00003	81 ec cc 00 00
	00		 sub	 esp, 204		; 000000ccH
  00009	53		 push	 ebx
  0000a	56		 push	 esi
  0000b	57		 push	 edi
  0000c	51		 push	 ecx
  0000d	8d bd 34 ff ff
	ff		 lea	 edi, DWORD PTR [ebp-204]
  00013	b9 33 00 00 00	 mov	 ecx, 51			; 00000033H
  00018	b8 cc cc cc cc	 mov	 eax, -858993460		; ccccccccH
  0001d	f3 ab		 rep stosd
  0001f	59		 pop	 ecx
  00020	89 4d f8	 mov	 DWORD PTR _this$[ebp], ecx

; 112  : 		ATLASSERT( nRefs != 0 );

  00023	8b 45 f8	 mov	 eax, DWORD PTR _this$[ebp]
  00026	83 78 0c 00	 cmp	 DWORD PTR [eax+12], 0
  0002a	75 1e		 jne	 SHORT $LN4@Release
  0002c	68 00 00 00 00	 push	 OFFSET ??_C@_1BG@GPELCNED@?$AAn?$AAR?$AAe?$AAf?$AAs?$AA?5?$AA?$CB?$AA?$DN?$AA?5?$AA0?$AA?$AA@
  00031	6a 00		 push	 0
  00033	6a 70		 push	 112			; 00000070H
  00035	68 00 00 00 00	 push	 OFFSET ??_C@_1JK@OKOEFEHL@?$AAc?$AA?3?$AA?2?$AAp?$AAr?$AAo?$AAg?$AAr?$AAa?$AAm?$AA?5?$AAf?$AAi?$AAl?$AAe?$AAs?$AA?2?$AAm?$AAi?$AAc?$AAr?$AAo?$AAs?$AAo?$AAf?$AAt?$AA?5?$AAv?$AAi?$AAs?$AAu?$AAa@
  0003a	6a 02		 push	 2
  0003c	e8 00 00 00 00	 call	 __CrtDbgReportW
  00041	83 c4 14	 add	 esp, 20			; 00000014H
  00044	83 f8 01	 cmp	 eax, 1
  00047	75 01		 jne	 SHORT $LN4@Release
  00049	cc		 int	 3
$LN4@Release:

; 113  : 
; 114  : 		if( _AtlInterlockedDecrement( &nRefs ) <= 0 )

  0004a	8b 45 f8	 mov	 eax, DWORD PTR _this$[ebp]
  0004d	83 c0 0c	 add	 eax, 12			; 0000000cH
  00050	83 c9 ff	 or	 ecx, -1
  00053	f0 0f c1 08	 lock	  xadd	 DWORD PTR [eax], ecx
  00057	49		 dec	 ecx
  00058	85 c9		 test	 ecx, ecx
  0005a	7f 1e		 jg	 SHORT $LN2@Release

; 115  : 		{
; 116  : 			pStringMgr->Free( this );

  0005c	8b f4		 mov	 esi, esp
  0005e	8b 45 f8	 mov	 eax, DWORD PTR _this$[ebp]
  00061	50		 push	 eax
  00062	8b 4d f8	 mov	 ecx, DWORD PTR _this$[ebp]
  00065	8b 11		 mov	 edx, DWORD PTR [ecx]
  00067	8b 45 f8	 mov	 eax, DWORD PTR _this$[ebp]
  0006a	8b 08		 mov	 ecx, DWORD PTR [eax]
  0006c	8b 12		 mov	 edx, DWORD PTR [edx]
  0006e	8b 42 04	 mov	 eax, DWORD PTR [edx+4]
  00071	ff d0		 call	 eax
  00073	3b f4		 cmp	 esi, esp
  00075	e8 00 00 00 00	 call	 __RTC_CheckEsp
$LN2@Release:

; 117  : 		}
; 118  : 	}

  0007a	5f		 pop	 edi
  0007b	5e		 pop	 esi
  0007c	5b		 pop	 ebx
  0007d	81 c4 cc 00 00
	00		 add	 esp, 204		; 000000ccH
  00083	3b ec		 cmp	 ebp, esp
  00085	e8 00 00 00 00	 call	 __RTC_CheckEsp
  0008a	8b e5		 mov	 esp, ebp
  0008c	5d		 pop	 ebp
  0008d	c3		 ret	 0
?Release@CStringData@ATL@@QAEXXZ ENDP			; ATL::CStringData::Release
; Function compile flags: /Odtp /RTCsu /ZI
_TEXT	ENDS
;	COMDAT ?GetData@?$CSimpleStringT@_W$0A@@ATL@@ABEPAUCStringData@2@XZ
_TEXT	SEGMENT
_this$ = -8						; size = 4
?GetData@?$CSimpleStringT@_W$0A@@ATL@@ABEPAUCStringData@2@XZ PROC ; ATL::CSimpleStringT<wchar_t,0>::GetData, COMDAT
; _this$ = ecx

; 822  : 	{

  00000	55		 push	 ebp
  00001	8b ec		 mov	 ebp, esp
  00003	81 ec cc 00 00
	00		 sub	 esp, 204		; 000000ccH
  00009	53		 push	 ebx
  0000a	56		 push	 esi
  0000b	57		 push	 edi
  0000c	51		 push	 ecx
  0000d	8d bd 34 ff ff
	ff		 lea	 edi, DWORD PTR [ebp-204]
  00013	b9 33 00 00 00	 mov	 ecx, 51			; 00000033H
  00018	b8 cc cc cc cc	 mov	 eax, -858993460		; ccccccccH
  0001d	f3 ab		 rep stosd
  0001f	59		 pop	 ecx
  00020	89 4d f8	 mov	 DWORD PTR _this$[ebp], ecx

; 823  : 		return( reinterpret_cast< CStringData* >( m_pszData )-1 );

  00023	8b 45 f8	 mov	 eax, DWORD PTR _this$[ebp]
  00026	8b 00		 mov	 eax, DWORD PTR [eax]
  00028	83 e8 10	 sub	 eax, 16			; 00000010H

; 824  : 	}

  0002b	5f		 pop	 edi
  0002c	5e		 pop	 esi
  0002d	5b		 pop	 ebx
  0002e	8b e5		 mov	 esp, ebp
  00030	5d		 pop	 ebp
  00031	c3		 ret	 0
?GetData@?$CSimpleStringT@_W$0A@@ATL@@ABEPAUCStringData@2@XZ ENDP ; ATL::CSimpleStringT<wchar_t,0>::GetData
_TEXT	ENDS
PUBLIC	??_C@_1BA@FDGHOEJM@N?$AL?$ICrSaQIn?$JA?$IM?$AD?$IC?$IC?$AA?$AA@ ; `string'
PUBLIC	??_C@_1BA@PNAPHFAN@N?6?$ICrSaQIn?$JA?$IM?$AD?$IC?$IC?$AA?$AA@ ; `string'
PUBLIC	??_C@_1O@PJHKGIMH@N?$ALv?$HNpo?$HL?$LB?$IM?$AD?$IC?$IC?$AA?$AA@ ; `string'
PUBLIC	??_C@_1O@GEHFIJLB@N?6v?$HNpo?$HL?$LB?$IM?$AD?$IC?$IC?$AA?$AA@ ; `string'
PUBLIC	??_C@_1O@KJGOGIJF@?$FO?$JFg?$HPb?$KM?$INwh?$MAmK?$AA?$AA@ ; `string'
PUBLIC	??_C@_1O@KHGDJIGO@Y?$CJg?$HPy?$LL_?$AAh?$MAmK?$AA?$AA@ ; `string'
PUBLIC	??_C@_1O@GMGEDNBE@Y?$CJg?$HPR0OMh?$MAmK?$AA?$AA@ ; `string'
PUBLIC	??_C@_1BA@KGEKPKOC@?$AAU?$AAS?$AABR0OMh?$MAmK?$AA?$AA@ ; `string'
PUBLIC	??_C@_1O@HOAOAMGL@v?xg?3u5n?$JAQs?$JF?m?$AA?$AA@ ; `string'
PUBLIC	??_C@_1O@CHAOEBHI@v?xg?3u5n?$JAbS_?$AA?$AA?$AA@	; `string'
PUBLIC	??_C@_1O@KHCFJLPD@v?xg?3c?7?$JF?4_9?$INw?$AA?$AA@ ; `string'
PUBLIC	??_C@_1O@HFIOPOOE@v?xg?3c?7?$JF?4c?7N?$AL?$AA?$AA@ ; `string'
PUBLIC	??_C@_1M@DBMLJONM@c?$ACg?3?$JF?4_9?$INw?$AA?$AA@ ; `string'
PUBLIC	??_C@_1M@ODGAPLML@c?$ACg?3?$JF?4c?7N?$AL?$AA?$AA@ ; `string'
PUBLIC	??_C@_19NNMIJBFF@?$JH?$AN?2?$BE_9?$INw?$AA?$AA@	; `string'
PUBLIC	??_C@_19PGDPEEC@?$JH?$AN?2?$BEc?7N?$AL?$AA?$AA@	; `string'
PUBLIC	??_C@_19OALIHFCC@T9?2?$BI?$HO?Sg_?$AA?$AA@	; `string'
PUBLIC	??_C@_19JEGEKDHO@T9?2?$BI_?$AAY?K?$AA?$AA@	; `string'
PUBLIC	??_C@_19CDLPOHMH@h7g?3e?$DO_?$AA?$AA?$AA@	; `string'
PUBLIC	??_C@_19JKLDNACP@h7g?3V?z?$FL?$JK?$AA?$AA@	; `string'
PUBLIC	??_C@_1BE@LMBKONAN@v?xg?3?$AAU?$AAS?$AABu5n?$JAQs?$JF?m?$AA?$AA@ ; `string'
PUBLIC	??_C@_1BE@OFBKKABO@v?xg?3?$AAU?$AAS?$AABu5n?$JAbS_?$AA?$AA?$AA@ ; `string'
PUBLIC	??_C@_1BA@IEEJPODI@?$HO?$KC?$ICr?2Oepcn?$IL?$PLS?V?$AA?$AA@ ; `string'
PUBLIC	??_C@_1BA@LIJFDNLJ@?$HO?$KC?$ICr?2OmK?$IL?U_?$AAY?K?$AA?$AA@ ; `string'
PUBLIC	??_C@_1BA@EFFKHEAF@?$HO?$PP?$ICr?2Oepcn?$IL?$PLS?V?$AA?$AA@ ; `string'
PUBLIC	??_C@_1BA@HJIGLHIE@?$HO?$PP?$ICr?2OmK?$IL?U_?$AAY?K?$AA?$AA@ ; `string'
PUBLIC	??_C@_1BA@PKBBHNBK@?$IE?$NN?$ICr?2Oepcn?$IL?$PLS?V?$AA?$AA@ ; `string'
PUBLIC	??_C@_1BA@MGMNLOJL@?$IE?$NN?$ICr?2OmK?$IL?U_?$AAY?K?$AA?$AA@ ; `string'
PUBLIC	??_C@_1BE@KMDEMM@?$HO?$KC?$ICrc?$AHy?3poepcn?$IL?$PLS?V?$AA?$AA@ ; `string'
PUBLIC	??_C@_1BE@DMHAPHEN@?$HO?$KC?$ICrc?$AHy?3pomK?$IL?U_?$AAY?K?$AA?$AA@ ; `string'
PUBLIC	??_C@_1BC@MDJCOJAO@?$IA?LQI?$JI?$JM?$ICrepcn?$IL?$PLS?V?$AA?$AA@ ; `string'
PUBLIC	??_C@_1BC@PBEGKINI@?$IA?LQI?$JI?$JM?$ICrh?$MAmK_?$AAY?K?$AA?$AA@ ; `string'
PUBLIC	??_C@_1BE@JPFOGIDE@?$AAL?$AAE?$AAD?$JI?$JM?$ICrepcn?$IL?$PLS?V?$AA?$AA@ ; `string'
PUBLIC	??_C@_1BE@KNIKCJOC@?$AAL?$AAE?$AAD?$JI?$JM?$ICrh?$MAmK_?$AAY?K?$AA?$AA@ ; `string'
PUBLIC	??_C@_15NFBIKKCF@Y?$ANOM?$AA?$AA@		; `string'
PUBLIC	??_C@_19JMEJALJK@R0OMh?$MAmK?$AA?$AA@		; `string'
PUBLIC	??_C@_1M@OKPJEHOC@?$IJ?F?$JI?$JBz?oS?c?$AA4?$AA?$AA@ ; `string'
PUBLIC	??_C@_1M@HHCOHPFL@?$IJ?F?$JI?$JBz?oS?c?$AA3?$AA?$AA@ ; `string'
PUBLIC	??_C@_1M@MPJCBIDO@?$IJ?F?$JI?$JBz?oS?c?$AA2?$AA?$AA@ ; `string'
PUBLIC	??_C@_1M@NNCHLHNA@?$IJ?F?$JI?$JBz?oS?c?$AA1?$AA?$AA@ ; `string'
PUBLIC	??_C@_1BE@PKPMFLBC@_?$AA?$HL?$LBl?$BER?$KI?$JG?$AAQs?$AAO?$AAL?$AAD?$AA?$AA@ ; `string'
PUBLIC	??_C@_1BE@CPEALOBL@_?$AA?$HL?$LBl?$BER?$KI?$JG?$AA_?$AA?$AAO?$AAL?$AAD?$AA?$AA@ ; `string'
PUBLIC	??_C@_1BE@OOKFLHG@Qs?$HL?$LBl?$BER?$KI?$JG?$AAQs?$AAO?$AAL?$AAD?$AA?$AA@ ; `string'
PUBLIC	??_C@_1BE@NLFGLOHP@Qs?$HL?$LBl?$BER?$KI?$JG?$AA_?$AA?$AAO?$AAL?$AAD?$AA?$AA@ ; `string'
PUBLIC	??_C@_19KEPOBHFJ@x?AW?3P?2kb?$AA?$AA@		; `string'
PUBLIC	??_C@_19IDGIAJBL@x?AW?3e?K?$IPl?$AA?$AA@	; `string'
PUBLIC	??_C@_1M@MLALJFKF@u5g?3?$AA4T?$AO?$JA?$AA?$AA?$AA@ ; `string'
PUBLIC	??_C@_1M@CLKIMCBC@u5g?3?$AA4RM?$IP?$NL?$AA?$AA@	; `string'
PUBLIC	??_C@_1M@MBMOJMLM@u5g?3?$AA3T?$AO?$JA?$AA?$AA?$AA@ ; `string'
PUBLIC	??_C@_1M@CBGNMLAL@u5g?3?$AA3RM?$IP?$NL?$AA?$AA@	; `string'
PUBLIC	??_C@_1M@NGEJMCC@u5g?3?$AA2T?$AO?$JA?$AA?$AA?$AA@ ; `string'
PUBLIC	??_C@_1M@ONMHMLJF@u5g?3?$AA2RM?$IP?$NL?$AA?$AA@	; `string'
PUBLIC	??_C@_1M@IDOLJLMB@u5g?3?$AA1T?$AO?$JA?$AA?$AA?$AA@ ; `string'
PUBLIC	??_C@_1M@GDEIMMHG@u5g?3?$AA1RM?$IP?$NL?$AA?$AA@	; `string'
PUBLIC	??_C@_1BA@OHPAPOKM@z?oS?c?$AA4r?$LG?$GA?$ABh?$MAmK?$AA?$AA@ ; `string'
PUBLIC	??_C@_1BA@JDGIBHCD@z?oS?c?$AA3r?$LG?$GA?$ABh?$MAmK?$AA?$AA@ ; `string'
PUBLIC	??_C@_1BA@IMNFLEM@z?oS?c?$AA2r?$LG?$GA?$ABh?$MAmK?$AA?$AA@ ; `string'
PUBLIC	??_C@_1BA@HPFDIJLM@z?oS?c?$AA1r?$LG?$GA?$ABh?$MAmK?$AA?$AA@ ; `string'
PUBLIC	??_C@_1M@KICGEGCK@?$IP?TV?$NO?$JF?4_9?$INw?$AA?$AA@ ; `string'
PUBLIC	??_C@_1M@HKINCDDN@?$IP?TV?$NO?$JF?4c?7N?$AL?$AA?$AA@ ; `string'
PUBLIC	??_C@_1M@PAECBFKK@?$ID?$NMSU?$JF?4_9?$INw?$AA?$AA@ ; `string'
PUBLIC	??_C@_1M@CCOJHALN@?$ID?$NMSU?$JF?4c?7N?$AL?$AA?$AA@ ; `string'
PUBLIC	??_C@_1M@NDLNAAPP@N?$DL?$JIu?$JF?4_9?$INw?$AA?$AA@ ; `string'
PUBLIC	??_C@_1M@BBGGFOI@N?$DL?$JIu?$JF?4c?7N?$AL?$AA?$AA@ ; `string'
PUBLIC	??_C@_1O@KGBEOHII@?$IJ?fdx?$JF?4?$AA5_9?$INw?$AA?$AA@ ; `string'
PUBLIC	??_C@_1O@HELPICJP@?$IJ?fdx?$JF?4?$AA5c?7N?$AL?$AA?$AA@ ; `string'
PUBLIC	??_C@_1O@GKLOOHBG@?$IJ?fdx?$JF?4?$AA4_9?$INw?$AA?$AA@ ; `string'
PUBLIC	??_C@_1O@LIBFICAB@?$IJ?fdx?$JF?4?$AA4c?7N?$AL?$AA?$AA@ ; `string'
PUBLIC	??_C@_1M@LIDIPIIJ@?$AAM?$AAI?$AAC?$IM?$AD?$IC?$IC?$AA?$AA@ ; `string'
PUBLIC	??_C@_1BE@LCPCPGGH@?$AAE?$AAA?$AAR?$AA?9?$AAM?$AAI?$AAC?$IM?$AD?$IC?$IC?$AA?$AA@ ; `string'
PUBLIC	??_C@_1BA@LBFGKPOK@?$AAE?$AAA?$AAR?$AA?9?$AAR?$IM?$AD?$IC?$IC?$AA?$AA@ ; `string'
PUBLIC	??_C@_1BA@NIGHIMPD@?$AAE?$AAA?$AAR?$AA?9?$AAL?$IM?$AD?$IC?$IC?$AA?$AA@ ; `string'
PUBLIC	??_C@_1M@JBILBOF@?$AAV?$AAI?$AAB?$IM?$AD?$IC?$IC?$AA?$AA@ ; `string'
PUBLIC	??_C@_1O@LPIEAEEG@?$AAS?$AAP?$AAK?$AA2?$IM?$AD?$IC?$IC?$AA?$AA@ ; `string'
PUBLIC	??_C@_1O@DBALADKF@?$AAS?$AAP?$AAK?$AA1?$IM?$AD?$IC?$IC?$AA?$AA@ ; `string'
PUBLIC	??_C@_1M@NMIIGKIK@?$AAR?$AAE?$AAC?$IM?$AD?$IC?$IC?$AA?$AA@ ; `string'
PUBLIC	??_C@_1O@IMJJJDFH@?$JH?s?$JI?$JB?$JA?$BK?$JASR?$AHcb?$AA?$AA@ ; `string'
PUBLIC	??_C@_1BG@EGNBCKPN@?$HO?$KC?$ICr?$AAL?$AAE?$AADpor?$LG?$GA?$ABg?e?$IL?b?$AA?$AA@ ; `string'
PUBLIC	??_C@_1BG@NHKCJCLL@?$HO?$PP?$ICr?$AAL?$AAE?$AADpor?$LG?$GA?$ABg?e?$IL?b?$AA?$AA@ ; `string'
PUBLIC	??_C@_1O@DIEEJPHG@?$IA3g?3r?$LG?$GA?$ABg?e?$IL?b?$AA?$AA@ ; `string'
PUBLIC	??_C@_1BI@LEJMMEH@c?7?$JF?4pomK?$IL?US?$ILg?$HPr?$LG?$GA?$ABg?e?$IL?b?$AA?$AA@ ; `string'
PUBLIC	??_C@_1O@JPFCJEFO@S?$ILg?$HPr?$LG?$GA?$ABg?e?$IL?b?$AA?$AA@ ; `string'
PUBLIC	??_C@_1BI@HLEGENHB@RM?$HPndDP?OY4QIn?$JAr?$LG?$GA?$ABg?e?$IL?b?$AA?$AA@ ; `string'
PUBLIC	??_C@_1BA@JPAAFEIE@s?$KPX?$IDQIr?$LG?$GA?$ABg?e?$IL?b?$AA?$AA@ ; `string'
PUBLIC	??_C@_1BA@HAJCONNC@v?$HNu?$DL?$JHbr?$LG?$GA?$ABg?e?$IL?b?$AA?$AA@ ; `string'
PUBLIC	??_C@_1BC@JOILPBBA@?$IJ?fdx?$JF?4?$AA4r?$LG?$GA?$ABg?e?$IL?b?$AA?$AA@ ; `string'
PUBLIC	??_C@_1BC@OKBDBIJP@?$IJ?fdx?$JF?4?$AA3r?$LG?$GA?$ABg?e?$IL?b?$AA?$AA@ ; `string'
PUBLIC	??_C@_1BC@HBLGFEPA@?$IJ?fdx?$JF?4?$AA2r?$LG?$GA?$ABg?e?$IL?b?$AA?$AA@ ; `string'
PUBLIC	??_C@_1BC@GCIIGAA@?$IJ?fdx?$JF?4?$AA1r?$LG?$GA?$ABg?e?$IL?b?$AA?$AA@ ; `string'
PUBLIC	??_C@_1BI@OIEOGMJG@T?$AO?$HPndDP?OY4QIn?$JAr?$LG?$GA?$ABg?e?$IL?b?$AA?$AA@ ; `string'
PUBLIC	??_C@_1BC@BCKLCEHE@?$JH?s?$JB?O?$AA?9?$JF?4r?$LG?$GA?$ABg?e?$IL?b?$AA?$AA@ ; `string'
PUBLIC	??_C@_1BC@OKGJGPMC@?$JH?s?$JB?O?$AA?$CL?$JF?4r?$LG?$GA?$ABg?e?$IL?b?$AA?$AA@ ; `string'
PUBLIC	??_C@_1BA@DGGBIAA@u5n?$JA?$JF?4r?$LG?$GA?$ABg?e?$IL?b?$AA?$AA@ ; `string'
PUBLIC	??_C@_1O@MKFMBCPN@?$HO?$KC?$ICr?$AAL?$AAE?$AADpm?$AA?$AA@ ; `string'
PUBLIC	??_C@_1O@IAFBJLIP@?$HO?$KC?$ICr?$AAL?$AAE?$AADN?$KO?$AA?$AA@ ; `string'
PUBLIC	??_C@_1O@FKKNKJDL@?$HO?$PP?$ICr?$AAL?$AAE?$AADpm?$AA?$AA@ ; `string'
PUBLIC	??_C@_1O@BAKACAEJ@?$HO?$PP?$ICr?$AAL?$AAE?$AADN?$KO?$AA?$AA@ ; `string'
PUBLIC	??_C@_19ENAAFLHD@?$IA3g?3b?TQ?z?$AA?$AA@	; `string'
PUBLIC	??_C@_19EDBKGACM@?$IA3g?3c?RQe?$AA?$AA@		; `string'
PUBLIC	??_C@_19MEJAKFF@?$JB?MR?$JL_9?$INw?$AA?$AA@	; `string'
PUBLIC	??_C@_19NOOCGPEC@?$JB?MR?$JLc?7N?$AL?$AA?$AA@	; `string'
PUBLIC	??_C@_19OAAHAMNF@S?$ILg?$HPb?$KM?$INw?$AA?$AA@	; `string'
PUBLIC	??_C@_19KLIIFOKD@S?$ILg?$HPN?$ALS?$IL?$AA?$AA@	; `string'
PUBLIC	??_C@_1BA@BHLMEMCP@v?$HNpo?$HL?$LBQIn?$JAQs?$JF?m?$AA?$AA@ ; `string'
PUBLIC	??_C@_1BA@EOLMABDM@v?$HNpo?$HL?$LBQIn?$JAbS_?$AA?$AA?$AA@ ; `string'
PUBLIC	??_C@_1M@MOFPAIKO@?$AAO?$AAT?$AAGY?$ANOM?$AA?$AA@ ; `string'
PUBLIC	??_C@_1M@OBMKFJKA@?$AAO?$AAT?$AAGh?$MAmK?$AA?$AA@ ; `string'
PUBLIC	??_C@_1O@CBLEGKIA@_?$AA?$HL?$LBl?$BER?$KI?$JG?$AAQs?$AA?$AA@ ; `string'
PUBLIC	??_C@_15JBEKIAI@_?$AA?$HL?$LB?$AA?$AA@		; `string'
PUBLIC	??_C@_1O@ENFMPAKO@Qs?$HL?$LBl?$BER?$KI?$JG?$AAQs?$AA?$AA@ ; `string'
PUBLIC	??_C@_15DLJCGJAG@Qs?$HL?$LB?$AA?$AA@		; `string'
PUBLIC	??_C@_1O@GAHLOOAP@?$IJ?fdx?$JF?4?$AA3_9?$INw?$AA?$AA@ ; `string'
PUBLIC	??_C@_1O@LCNAILBI@?$IJ?fdx?$JF?4?$AA3c?7N?$AL?$AA?$AA@ ; `string'
PUBLIC	??_C@_1O@KMNBOOJB@?$IJ?fdx?$JF?4?$AA2_9?$INw?$AA?$AA@ ; `string'
PUBLIC	??_C@_1O@HOHKILIG@?$IJ?fdx?$JF?4?$AA2c?7N?$AL?$AA?$AA@ ; `string'
PUBLIC	??_C@_1O@CCFOOJHC@?$IJ?fdx?$JF?4?$AA1_9?$INw?$AA?$AA@ ; `string'
PUBLIC	??_C@_1O@PAPFIMGF@?$IJ?fdx?$JF?4?$AA1c?7N?$AL?$AA?$AA@ ; `string'
PUBLIC	??_C@_1O@BDFPHKDC@?$ICrSaQIn?$JAQs?$JF?m?$AA?$AA@ ; `string'
PUBLIC	??_C@_1O@EKFPDHCB@?$ICrSaQIn?$JAbS_?$AA?$AA?$AA@ ; `string'
PUBLIC	??_C@_1M@PHAPILPM@?$JH?s?$JB?O?$AA?9_9?$INw?$AA?$AA@ ; `string'
PUBLIC	??_C@_1M@CFKEOOOL@?$JH?s?$JB?O?$AA?9c?7N?$AL?$AA?$AA@ ; `string'
PUBLIC	??_C@_1M@DBGAICHL@?$JH?s?$JB?O?$AA?$CL_9?$INw?$AA?$AA@ ; `string'
PUBLIC	??_C@_1M@ODMLOHGM@?$JH?s?$JB?O?$AA?$CLc?7N?$AL?$AA?$AA@ ; `string'
PUBLIC	??_C@_1M@FOAGDJM@u5n?$JA?$JF?4_9?$INw?$AA?$AA@	; `string'
PUBLIC	??_C@_1M@NHELAGIL@u5n?$JA?$JF?4c?7N?$AL?$AA?$AA@ ; `string'
PUBLIC	??_C@_1O@HAJLIGNE@T?$AO?$JF?jQIpoh?$MAmK?$AA?$AA@ ; `string'
PUBLIC	??_C@_1O@ONKGILCD@RM?$JF?jQIpoh?$MAmK?$AA?$AA@	; `string'
PUBLIC	??_C@_19JDHNBCEO@u5mAh?$MAmK?$AA?$AA@		; `string'
PUBLIC	??_C@_19CKIIAGBC@X?p?$JH?sh?$MAmK?$AA?$AA@	; `string'
PUBLIC	??_C@_1BE@IKIGOIGL@z?oS?c?$AA7?$IP?$JDQer?$LG?$GA?$ABg?e?$IL?b?$AA?$AA@ ; `string'
PUBLIC	??_C@_1BE@CEOOHJPK@z?oS?c?$AA6?$IP?$JDQer?$LG?$GA?$ABg?e?$IL?b?$AA?$AA@ ; `string'
PUBLIC	??_C@_1BM@NIJBIKPO@?$AAE?$AAa?$AAr?$AA?9?$AAL?$IP?$JDQez?oS?cr?$LG?$GA?$ABg?e?$IL?b?$AA?$AA@ ; `string'
PUBLIC	??_C@_1BM@CBKPGKLM@?$AAE?$AAa?$AAr?$AA?9?$AAR?$IP?$JDQez?oS?cr?$LG?$GA?$ABg?e?$IL?b?$AA?$AA@ ; `string'
PUBLIC	??_C@_1BC@HKMBLFKL@c?1?$FLP?$IP?$JDQer?$LG?$GA?$ABg?e?$IL?b?$AA?$AA@ ; `string'
PUBLIC	??_C@_1BI@LKHEBPFA@?$AAS?$AAP?$AAK?$IP?$JDQez?oS?cr?$LG?$GA?$ABg?e?$IL?b?$AA?$AA@ ; `string'
PUBLIC	??_C@_1BK@OHGADHML@?$AAC?$AAa?$AAl?$AAl?$IP?$JDQez?oS?cr?$LG?$GA?$ABg?e?$IL?b?$AA?$AA@ ; `string'
PUBLIC	??_C@_1BA@OHKOBPDP@z?oS?c?$AA7?$IP?$JDQeQs?$JF?m?$AA?$AA@ ; `string'
PUBLIC	??_C@_1BA@LOKOFCCM@z?oS?c?$AA7?$IP?$JDQebS_?$AA?$AA?$AA@ ; `string'
PUBLIC	??_C@_1BA@HMALFDFA@z?oS?c?$AA6?$IP?$JDQeQs?$JF?m?$AA?$AA@ ; `string'
PUBLIC	??_C@_1BA@CFALBOED@z?oS?c?$AA6?$IP?$JDQebS_?$AA?$AA?$AA@ ; `string'
PUBLIC	??_C@_1BK@KOBEEECE@?$AAE?$AAa?$AAr?$AA?9?$AAL?$IP?$JDQeQs?$JF?m?$AAO?$AAL?$AAD?$AA?$AA@ ; `string'
PUBLIC	??_C@_1BK@OIFILNNG@?$AAE?$AAa?$AAr?$AA?9?$AAL?$IP?$JDQebS_?$AA?$AAO?$AAL?$AAD?$AA?$AA@ ; `string'
PUBLIC	??_C@_1BK@JJJKAKLF@?$AAE?$AAa?$AAr?$AA?9?$AAR?$IP?$JDQeQs?$JF?m?$AAO?$AAL?$AAD?$AA?$AA@ ; `string'
PUBLIC	??_C@_1BK@NPNGPDEH@?$AAE?$AAa?$AAr?$AA?9?$AAR?$IP?$JDQebS_?$AA?$AAO?$AAL?$AAD?$AA?$AA@ ; `string'
PUBLIC	??_C@_1BE@FEPEMCEE@c?1?$FLP?$IP?$JDQeQs?$JF?m?$AAO?$AAL?$AAD?$AA?$AA@ ; `string'
PUBLIC	??_C@_1BE@BCLIDLLG@c?1?$FLP?$IP?$JDQebS_?$AA?$AAO?$AAL?$AAD?$AA?$AA@ ; `string'
PUBLIC	??_C@_1BG@POKHNMIG@?$AAS?$AAP?$AAK?$IP?$JDQeQs?$JF?m?$AAO?$AAL?$AAD?$AA?$AA@ ; `string'
PUBLIC	??_C@_1BG@LIOLCFHE@?$AAS?$AAP?$AAK?$IP?$JDQebS_?$AA?$AAO?$AAL?$AAD?$AA?$AA@ ; `string'
PUBLIC	??_C@_1BI@NOPEOLLA@?$AAC?$AAA?$AAL?$AAL?$IP?$JDQeQs?$JF?m?$AAO?$AAL?$AAD?$AA?$AA@ ; `string'
PUBLIC	??_C@_1BI@JILIBCEC@?$AAC?$AAA?$AAL?$AAL?$IP?$JDQebS_?$AA?$AAO?$AAL?$AAD?$AA?$AA@ ; `string'
PUBLIC	??_C@_1BE@EAPMLJIB@z?oS?c?$AA3?$IP?$JDQ?zr?$LG?$GA?$ABg?e?$IL?b?$AA?$AA@ ; `string'
PUBLIC	??_C@_1BI@JFIGEOA@?$AAM?$AAI?$AAC?$IP?$JDQ?zz?oS?cr?$LG?$GA?$ABg?e?$IL?b?$AA?$AA@ ; `string'
PUBLIC	??_C@_1CA@NHFOFAEC@?$AAE?$AAa?$AAr?$AA?9?$AAM?$AAI?$AAC?$IP?$JDQ?zz?oS?cr?$LG?$GA?$ABg?e?$IL?b?$AA?$AA@ ; `string'
PUBLIC	??_C@_1BA@BCAIICBN@z?oS?c?$AA3?$IP?$JDQ?zQs?$JF?m?$AA?$AA@ ; `string'
PUBLIC	??_C@_1BA@ELAIMPAO@z?oS?c?$AA3?$IP?$JDQ?zbS_?$AA?$AA?$AA@ ; `string'
PUBLIC	??_C@_1BG@CAJMGFOC@?$AAM?$AAI?$AAC?$IP?$JDQ?zQs?$JF?m?$AAO?$AAL?$AAD?$AA?$AA@ ; `string'
PUBLIC	??_C@_1BG@GGNAJMBA@?$AAM?$AAI?$AAC?$IP?$JDQ?zbS_?$AA?$AAO?$AAL?$AAD?$AA?$AA@ ; `string'
PUBLIC	??_C@_1BO@DHAJJEBC@?$AAE?$AAa?$AAr?$AA?9?$AAM?$AAI?$AAC?$IP?$JDQ?zQs?$JF?m?$AAO?$AAL?$AAD?$AA?$AA@ ; `string'
PUBLIC	??_C@_1BO@HBEFGNOA@?$AAE?$AAa?$AAr?$AA?9?$AAM?$AAI?$AAC?$IP?$JDQ?zbS_?$AA?$AAO?$AAL?$AAD?$AA?$AA@ ; `string'
PUBLIC	??_C@_1O@JFCOMPKO@Qs?$JF?mO?aS?wN?$KHu?$BP?$AA?$AA@ ; `string'
PUBLIC	??_C@_1M@PACLNHIB@?$AA1?$AA0?$AAK?$AAH?$AAz?$AA?$AA@ ; `string'
PUBLIC	??_C@_19BNBMILH@?$AA5?$AAK?$AAH?$AAz?$AA?$AA@	; `string'
PUBLIC	??_C@_19IDKGIMN@?$AA1?$AAK?$AAH?$AAz?$AA?$AA@	; `string'
PUBLIC	??_C@_1BC@IMLEBOJD@g?e?$IL?bS?o?$IM?$ADu5n?$JAr?$LG?$GA?$AB?$AA?$AA@ ; `string'
PUBLIC	??_C@_1M@OAEHLIIE@?$AA5?$AAVu5n?$JAQs?$AA?$AA@	; `string'
PUBLIC	??_C@_1M@JDFDJKPM@?$AA5?$AAVu5n?$JA_?$AA?$AA?$AA@ ; `string'
PUBLIC	??_C@_19GMDECDPE@u5S?$IL?$IM?$ADet?$AA?$AA@	; `string'
PUBLIC	??_C@_19JCNDCNPG@Q?$JJQeepcn?$AA?$AA@		; `string'
PUBLIC	??0?$CStringT@_WV?$StrTraitMFC@_WV?$ChTraitsCRT@_W@ATL@@@@@ATL@@QAE@PB_W@Z ; ATL::CStringT<wchar_t,StrTraitMFC<wchar_t,ATL::ChTraitsCRT<wchar_t> > >::CStringT<wchar_t,StrTraitMFC<wchar_t,ATL::ChTraitsCRT<wchar_t> > >
PUBLIC	??_C@_19DAEIJEEB@?$IL?$PLQ?zepcn?$AA?$AA@	; `string'
EXTRN	_atexit:PROC
;	COMDAT ??_C@_1BA@FDGHOEJM@N?$AL?$ICrSaQIn?$JA?$IM?$AD?$IC?$IC?$AA?$AA@
; File e:\cz\vs\dvicectrldlg_new_signal_1\serialcommand.h
CONST	SEGMENT
??_C@_1BA@FDGHOEJM@N?$AL?$ICrSaQIn?$JA?$IM?$AD?$IC?$IC?$AA?$AA@ DB 0bH, 'N'
	DB	'r', 082H, 'aSIQ', 090H, 'n', 03H, 08cH, 082H, 082H, 00H, 00H ; `string'
CONST	ENDS
;	COMDAT ??_C@_1BA@PNAPHFAN@N?6?$ICrSaQIn?$JA?$IM?$AD?$IC?$IC?$AA?$AA@
CONST	SEGMENT
??_C@_1BA@PNAPHFAN@N?6?$ICrSaQIn?$JA?$IM?$AD?$IC?$IC?$AA?$AA@ DB 0aH, 'Nr'
	DB	082H, 'aSIQ', 090H, 'n', 03H, 08cH, 082H, 082H, 00H, 00H ; `string'
CONST	ENDS
;	COMDAT ??_C@_1O@PJHKGIMH@N?$ALv?$HNpo?$HL?$LB?$IM?$AD?$IC?$IC?$AA?$AA@
CONST	SEGMENT
??_C@_1O@PJHKGIMH@N?$ALv?$HNpo?$HL?$LB?$IM?$AD?$IC?$IC?$AA?$AA@ DB 0bH, 'N'
	DB	'}vop', 0b1H, '{', 03H, 08cH, 082H, 082H, 00H, 00H ; `string'
CONST	ENDS
;	COMDAT ??_C@_1O@GEHFIJLB@N?6v?$HNpo?$HL?$LB?$IM?$AD?$IC?$IC?$AA?$AA@
CONST	SEGMENT
??_C@_1O@GEHFIJLB@N?6v?$HNpo?$HL?$LB?$IM?$AD?$IC?$IC?$AA?$AA@ DB 0aH, 'N}'
	DB	'vop', 0b1H, '{', 03H, 08cH, 082H, 082H, 00H, 00H ; `string'
CONST	ENDS
;	COMDAT ??_C@_1O@KJGOGIJF@?$FO?$JFg?$HPb?$KM?$INwh?$MAmK?$AA?$AA@
CONST	SEGMENT
??_C@_1O@KJGOGIJF@?$FO?$JFg?$HPb?$KM?$INwh?$MAmK?$AA?$AA@ DB 095H, '^', 07fH
	DB	'g', 0acH, 'bw', 08dH, 0c0H, 'hKm', 00H, 00H	; `string'
CONST	ENDS
;	COMDAT ??_C@_1O@KHGDJIGO@Y?$CJg?$HPy?$LL_?$AAh?$MAmK?$AA?$AA@
CONST	SEGMENT
??_C@_1O@KHGDJIGO@Y?$CJg?$HPy?$LL_?$AAh?$MAmK?$AA?$AA@ DB ')Y', 07fH, 'g', 0bbH
	DB	'y', 00H, '_', 0c0H, 'hKm', 00H, 00H		; `string'
CONST	ENDS
;	COMDAT ??_C@_1O@GMGEDNBE@Y?$CJg?$HPR0OMh?$MAmK?$AA?$AA@
CONST	SEGMENT
??_C@_1O@GMGEDNBE@Y?$CJg?$HPR0OMh?$MAmK?$AA?$AA@ DB ')Y', 07fH, 'g0RMO', 0c0H
	DB	'hKm', 00H, 00H				; `string'
CONST	ENDS
;	COMDAT ??_C@_1BA@KGEKPKOC@?$AAU?$AAS?$AABR0OMh?$MAmK?$AA?$AA@
CONST	SEGMENT
??_C@_1BA@KGEKPKOC@?$AAU?$AAS?$AABR0OMh?$MAmK?$AA?$AA@ DB 'U', 00H, 'S', 00H
	DB	'B', 00H, '0RMO', 0c0H, 'hKm', 00H, 00H	; `string'
CONST	ENDS
;	COMDAT ??_C@_1O@HOAOAMGL@v?xg?3u5n?$JAQs?$JF?m?$AA?$AA@
CONST	SEGMENT
??_C@_1O@HOAOAMGL@v?xg?3u5n?$JAQs?$JF?m?$AA?$AA@ DB 0f8H, 'v:g5u', 090H, 'n'
	DB	'sQ', 0edH, 095H, 00H, 00H			; `string'
CONST	ENDS
;	COMDAT ??_C@_1O@CHAOEBHI@v?xg?3u5n?$JAbS_?$AA?$AA?$AA@
CONST	SEGMENT
??_C@_1O@CHAOEBHI@v?xg?3u5n?$JAbS_?$AA?$AA?$AA@ DB 0f8H, 'v:g5u', 090H, 'n'
	DB	'Sb', 00H, '_', 00H, 00H			; `string'
CONST	ENDS
;	COMDAT ??_C@_1O@KHCFJLPD@v?xg?3c?7?$JF?4_9?$INw?$AA?$AA@
CONST	SEGMENT
??_C@_1O@KHCFJLPD@v?xg?3c?7?$JF?4_9?$INw?$AA?$AA@ DB 0f8H, 'v:g', 09H, 'c'
	DB	'.', 095H, '9_w', 08dH, 00H, 00H		; `string'
CONST	ENDS
;	COMDAT ??_C@_1O@HFIOPOOE@v?xg?3c?7?$JF?4c?7N?$AL?$AA?$AA@
CONST	SEGMENT
??_C@_1O@HFIOPOOE@v?xg?3c?7?$JF?4c?7N?$AL?$AA?$AA@ DB 0f8H, 'v:g', 09H, 'c'
	DB	'.', 095H, 09H, 'c', 0bH, 'N', 00H, 00H	; `string'
CONST	ENDS
;	COMDAT ??_C@_1M@DBMLJONM@c?$ACg?3?$JF?4_9?$INw?$AA?$AA@
CONST	SEGMENT
??_C@_1M@DBMLJONM@c?$ACg?3?$JF?4_9?$INw?$AA?$AA@ DB 02H, 'c:g.', 095H, '9'
	DB	'_w', 08dH, 00H, 00H				; `string'
CONST	ENDS
;	COMDAT ??_C@_1M@ODGAPLML@c?$ACg?3?$JF?4c?7N?$AL?$AA?$AA@
CONST	SEGMENT
??_C@_1M@ODGAPLML@c?$ACg?3?$JF?4c?7N?$AL?$AA?$AA@ DB 02H, 'c:g.', 095H, 09H
	DB	'c', 0bH, 'N', 00H, 00H			; `string'
CONST	ENDS
;	COMDAT ??_C@_19NNMIJBFF@?$JH?$AN?2?$BE_9?$INw?$AA?$AA@
CONST	SEGMENT
??_C@_19NNMIJBFF@?$JH?$AN?2?$BE_9?$INw?$AA?$AA@ DB 0dH, 097H, 014H, '\9_w'
	DB	08dH, 00H, 00H				; `string'
CONST	ENDS
;	COMDAT ??_C@_19PGDPEEC@?$JH?$AN?2?$BEc?7N?$AL?$AA?$AA@
CONST	SEGMENT
??_C@_19PGDPEEC@?$JH?$AN?2?$BEc?7N?$AL?$AA?$AA@ DB 0dH, 097H, 014H, '\', 09H
	DB	'c', 0bH, 'N', 00H, 00H			; `string'
CONST	ENDS
;	COMDAT ??_C@_19OALIHFCC@T9?2?$BI?$HO?Sg_?$AA?$AA@
CONST	SEGMENT
??_C@_19OALIHFCC@T9?2?$BI?$HO?Sg_?$AA?$AA@ DB '9T', 018H, '\', 0d3H, '~_g'
	DB	00H, 00H					; `string'
CONST	ENDS
;	COMDAT ??_C@_19JEGEKDHO@T9?2?$BI_?$AAY?K?$AA?$AA@
CONST	SEGMENT
??_C@_19JEGEKDHO@T9?2?$BI_?$AAY?K?$AA?$AA@ DB '9T', 018H, '\', 00H, '_', 0cbH
	DB	'Y', 00H, 00H				; `string'
CONST	ENDS
;	COMDAT ??_C@_19CDLPOHMH@h7g?3e?$DO_?$AA?$AA?$AA@
CONST	SEGMENT
??_C@_19CDLPOHMH@h7g?3e?$DO_?$AA?$AA?$AA@ DB '7h:g>e', 00H, '_', 00H, 00H ; `string'
CONST	ENDS
;	COMDAT ??_C@_19JKLDNACP@h7g?3V?z?$FL?$JK?$AA?$AA@
CONST	SEGMENT
??_C@_19JKLDNACP@h7g?3V?z?$FL?$JK?$AA?$AA@ DB '7h:g', 0faH, 'V', 09aH, '['
	DB	00H, 00H					; `string'
CONST	ENDS
;	COMDAT ??_C@_1BE@LMBKONAN@v?xg?3?$AAU?$AAS?$AABu5n?$JAQs?$JF?m?$AA?$AA@
CONST	SEGMENT
??_C@_1BE@LMBKONAN@v?xg?3?$AAU?$AAS?$AABu5n?$JAQs?$JF?m?$AA?$AA@ DB 0f8H, 'v'
	DB	':gU', 00H, 'S', 00H, 'B', 00H, '5u', 090H, 'nsQ', 0edH, 095H, 00H
	DB	00H						; `string'
CONST	ENDS
;	COMDAT ??_C@_1BE@OFBKKABO@v?xg?3?$AAU?$AAS?$AABu5n?$JAbS_?$AA?$AA?$AA@
CONST	SEGMENT
??_C@_1BE@OFBKKABO@v?xg?3?$AAU?$AAS?$AABu5n?$JAbS_?$AA?$AA?$AA@ DB 0f8H, 'v'
	DB	':gU', 00H, 'S', 00H, 'B', 00H, '5u', 090H, 'nSb', 00H, '_', 00H
	DB	00H						; `string'
CONST	ENDS
;	COMDAT ??_C@_1BA@IEEJPODI@?$HO?$KC?$ICr?2Oepcn?$IL?$PLS?V?$AA?$AA@
CONST	SEGMENT
??_C@_1BA@IEEJPODI@?$HO?$KC?$ICr?2Oepcn?$IL?$PLS?V?$AA?$AA@ DB 0a2H, '~r', 082H
	DB	'O\penc', 0fbH, 08bH, 0d6H, 'S', 00H, 00H	; `string'
CONST	ENDS
;	COMDAT ??_C@_1BA@LIJFDNLJ@?$HO?$KC?$ICr?2OmK?$IL?U_?$AAY?K?$AA?$AA@
CONST	SEGMENT
??_C@_1BA@LIJFDNLJ@?$HO?$KC?$ICr?2OmK?$IL?U_?$AAY?K?$AA?$AA@ DB 0a2H, '~r'
	DB	082H, 'O\Km', 0d5H, 08bH, 00H, '_', 0cbH, 'Y', 00H, 00H ; `string'
CONST	ENDS
;	COMDAT ??_C@_1BA@EFFKHEAF@?$HO?$PP?$ICr?2Oepcn?$IL?$PLS?V?$AA?$AA@
CONST	SEGMENT
??_C@_1BA@EFFKHEAF@?$HO?$PP?$ICr?2Oepcn?$IL?$PLS?V?$AA?$AA@ DB 0ffH, '~r', 082H
	DB	'O\penc', 0fbH, 08bH, 0d6H, 'S', 00H, 00H	; `string'
CONST	ENDS
;	COMDAT ??_C@_1BA@HJIGLHIE@?$HO?$PP?$ICr?2OmK?$IL?U_?$AAY?K?$AA?$AA@
CONST	SEGMENT
??_C@_1BA@HJIGLHIE@?$HO?$PP?$ICr?2OmK?$IL?U_?$AAY?K?$AA?$AA@ DB 0ffH, '~r'
	DB	082H, 'O\Km', 0d5H, 08bH, 00H, '_', 0cbH, 'Y', 00H, 00H ; `string'
CONST	ENDS
;	COMDAT ??_C@_1BA@PKBBHNBK@?$IE?$NN?$ICr?2Oepcn?$IL?$PLS?V?$AA?$AA@
CONST	SEGMENT
??_C@_1BA@PKBBHNBK@?$IE?$NN?$ICr?2Oepcn?$IL?$PLS?V?$AA?$AA@ DB 0ddH, 084H
	DB	'r', 082H, 'O\penc', 0fbH, 08bH, 0d6H, 'S', 00H, 00H ; `string'
CONST	ENDS
;	COMDAT ??_C@_1BA@MGMNLOJL@?$IE?$NN?$ICr?2OmK?$IL?U_?$AAY?K?$AA?$AA@
CONST	SEGMENT
??_C@_1BA@MGMNLOJL@?$IE?$NN?$ICr?2OmK?$IL?U_?$AAY?K?$AA?$AA@ DB 0ddH, 084H
	DB	'r', 082H, 'O\Km', 0d5H, 08bH, 00H, '_', 0cbH, 'Y', 00H, 00H ; `string'
CONST	ENDS
;	COMDAT ??_C@_1BE@KMDEMM@?$HO?$KC?$ICrc?$AHy?3poepcn?$IL?$PLS?V?$AA?$AA@
CONST	SEGMENT
??_C@_1BE@KMDEMM@?$HO?$KC?$ICrc?$AHy?3poepcn?$IL?$PLS?V?$AA?$AA@ DB 0a2H, '~'
	DB	'r', 082H, 07H, 'c:yoppenc', 0fbH, 08bH, 0d6H, 'S', 00H, 00H ; `string'
CONST	ENDS
;	COMDAT ??_C@_1BE@DMHAPHEN@?$HO?$KC?$ICrc?$AHy?3pomK?$IL?U_?$AAY?K?$AA?$AA@
CONST	SEGMENT
??_C@_1BE@DMHAPHEN@?$HO?$KC?$ICrc?$AHy?3pomK?$IL?U_?$AAY?K?$AA?$AA@ DB 0a2H
	DB	'~r', 082H, 07H, 'c:yopKm', 0d5H, 08bH, 00H, '_', 0cbH, 'Y', 00H
	DB	00H						; `string'
CONST	ENDS
;	COMDAT ??_C@_1BC@MDJCOJAO@?$IA?LQI?$JI?$JM?$ICrepcn?$IL?$PLS?V?$AA?$AA@
CONST	SEGMENT
??_C@_1BC@MDJCOJAO@?$IA?LQI?$JI?$JM?$ICrepcn?$IL?$PLS?V?$AA?$AA@ DB 0ccH, 080H
	DB	'IQ', 09cH, 098H, 'r', 082H, 'penc', 0fbH, 08bH, 0d6H, 'S', 00H
	DB	00H						; `string'
CONST	ENDS
;	COMDAT ??_C@_1BC@PBEGKINI@?$IA?LQI?$JI?$JM?$ICrh?$MAmK_?$AAY?K?$AA?$AA@
CONST	SEGMENT
??_C@_1BC@PBEGKINI@?$IA?LQI?$JI?$JM?$ICrh?$MAmK_?$AAY?K?$AA?$AA@ DB 0ccH, 080H
	DB	'IQ', 09cH, 098H, 'r', 082H, 0c0H, 'hKm', 00H, '_', 0cbH, 'Y', 00H
	DB	00H						; `string'
CONST	ENDS
;	COMDAT ??_C@_1BE@JPFOGIDE@?$AAL?$AAE?$AAD?$JI?$JM?$ICrepcn?$IL?$PLS?V?$AA?$AA@
CONST	SEGMENT
??_C@_1BE@JPFOGIDE@?$AAL?$AAE?$AAD?$JI?$JM?$ICrepcn?$IL?$PLS?V?$AA?$AA@ DB 'L'
	DB	00H, 'E', 00H, 'D', 00H, 09cH, 098H, 'r', 082H, 'penc', 0fbH, 08bH
	DB	0d6H, 'S', 00H, 00H				; `string'
CONST	ENDS
;	COMDAT ??_C@_1BE@KNIKCJOC@?$AAL?$AAE?$AAD?$JI?$JM?$ICrh?$MAmK_?$AAY?K?$AA?$AA@
CONST	SEGMENT
??_C@_1BE@KNIKCJOC@?$AAL?$AAE?$AAD?$JI?$JM?$ICrh?$MAmK_?$AAY?K?$AA?$AA@ DB 'L'
	DB	00H, 'E', 00H, 'D', 00H, 09cH, 098H, 'r', 082H, 0c0H, 'hKm', 00H
	DB	'_', 0cbH, 'Y', 00H, 00H			; `string'
CONST	ENDS
;	COMDAT ??_C@_15NFBIKKCF@Y?$ANOM?$AA?$AA@
CONST	SEGMENT
??_C@_15NFBIKKCF@Y?$ANOM?$AA?$AA@ DB 0dH, 'YMO', 00H, 00H ; `string'
CONST	ENDS
;	COMDAT ??_C@_19JMEJALJK@R0OMh?$MAmK?$AA?$AA@
CONST	SEGMENT
??_C@_19JMEJALJK@R0OMh?$MAmK?$AA?$AA@ DB '0RMO', 0c0H, 'hKm', 00H, 00H ; `string'
CONST	ENDS
;	COMDAT ??_C@_1M@OKPJEHOC@?$IJ?F?$JI?$JBz?oS?c?$AA4?$AA?$AA@
CONST	SEGMENT
??_C@_1M@OKPJEHOC@?$IJ?F?$JI?$JBz?oS?c?$AA4?$AA?$AA@ DB 0c6H, 089H, 091H, 098H
	DB	0efH, 'z', 0e3H, 'S4', 00H, 00H, 00H		; `string'
CONST	ENDS
;	COMDAT ??_C@_1M@HHCOHPFL@?$IJ?F?$JI?$JBz?oS?c?$AA3?$AA?$AA@
CONST	SEGMENT
??_C@_1M@HHCOHPFL@?$IJ?F?$JI?$JBz?oS?c?$AA3?$AA?$AA@ DB 0c6H, 089H, 091H, 098H
	DB	0efH, 'z', 0e3H, 'S3', 00H, 00H, 00H		; `string'
CONST	ENDS
;	COMDAT ??_C@_1M@MPJCBIDO@?$IJ?F?$JI?$JBz?oS?c?$AA2?$AA?$AA@
CONST	SEGMENT
??_C@_1M@MPJCBIDO@?$IJ?F?$JI?$JBz?oS?c?$AA2?$AA?$AA@ DB 0c6H, 089H, 091H, 098H
	DB	0efH, 'z', 0e3H, 'S2', 00H, 00H, 00H		; `string'
CONST	ENDS
;	COMDAT ??_C@_1M@NNCHLHNA@?$IJ?F?$JI?$JBz?oS?c?$AA1?$AA?$AA@
CONST	SEGMENT
??_C@_1M@NNCHLHNA@?$IJ?F?$JI?$JBz?oS?c?$AA1?$AA?$AA@ DB 0c6H, 089H, 091H, 098H
	DB	0efH, 'z', 0e3H, 'S1', 00H, 00H, 00H		; `string'
CONST	ENDS
;	COMDAT ??_C@_1BE@PKPMFLBC@_?$AA?$HL?$LBl?$BER?$KI?$JG?$AAQs?$AAO?$AAL?$AAD?$AA?$AA@
CONST	SEGMENT
??_C@_1BE@PKPMFLBC@_?$AA?$HL?$LBl?$BER?$KI?$JG?$AAQs?$AAO?$AAL?$AAD?$AA?$AA@ DB 00H
	DB	'_', 0b1H, '{', 014H, 'l', 0a8H, 'R', 00H, 096H, 'sQO', 00H, 'L'
	DB	00H, 'D', 00H, 00H, 00H			; `string'
CONST	ENDS
;	COMDAT ??_C@_1BE@CPEALOBL@_?$AA?$HL?$LBl?$BER?$KI?$JG?$AA_?$AA?$AAO?$AAL?$AAD?$AA?$AA@
CONST	SEGMENT
??_C@_1BE@CPEALOBL@_?$AA?$HL?$LBl?$BER?$KI?$JG?$AA_?$AA?$AAO?$AAL?$AAD?$AA?$AA@ DB 00H
	DB	'_', 0b1H, '{', 014H, 'l', 0a8H, 'R', 00H, 096H, 00H, '_O', 00H
	DB	'L', 00H, 'D', 00H, 00H, 00H			; `string'
CONST	ENDS
;	COMDAT ??_C@_1BE@OOKFLHG@Qs?$HL?$LBl?$BER?$KI?$JG?$AAQs?$AAO?$AAL?$AAD?$AA?$AA@
CONST	SEGMENT
??_C@_1BE@OOKFLHG@Qs?$HL?$LBl?$BER?$KI?$JG?$AAQs?$AAO?$AAL?$AAD?$AA?$AA@ DB 's'
	DB	'Q', 0b1H, '{', 014H, 'l', 0a8H, 'R', 00H, 096H, 'sQO', 00H, 'L'
	DB	00H, 'D', 00H, 00H, 00H			; `string'
CONST	ENDS
;	COMDAT ??_C@_1BE@NLFGLOHP@Qs?$HL?$LBl?$BER?$KI?$JG?$AA_?$AA?$AAO?$AAL?$AAD?$AA?$AA@
CONST	SEGMENT
??_C@_1BE@NLFGLOHP@Qs?$HL?$LBl?$BER?$KI?$JG?$AA_?$AA?$AAO?$AAL?$AAD?$AA?$AA@ DB 's'
	DB	'Q', 0b1H, '{', 014H, 'l', 0a8H, 'R', 00H, 096H, 00H, '_O', 00H
	DB	'L', 00H, 'D', 00H, 00H, 00H			; `string'
CONST	ENDS
;	COMDAT ??_C@_19KEPOBHFJ@x?AW?3P?2kb?$AA?$AA@
CONST	SEGMENT
??_C@_19KEPOBHFJ@x?AW?3P?2kb?$AA?$AA@ DB 0c1H, 'x:W\Pbk', 00H, 00H ; `string'
CONST	ENDS
;	COMDAT ??_C@_19IDGIAJBL@x?AW?3e?K?$IPl?$AA?$AA@
CONST	SEGMENT
??_C@_19IDGIAJBL@x?AW?3e?K?$IPl?$AA?$AA@ DB 0c1H, 'x:W', 0cbH, 'el', 08fH
	DB	00H, 00H					; `string'
CONST	ENDS
;	COMDAT ??_C@_1M@MLALJFKF@u5g?3?$AA4T?$AO?$JA?$AA?$AA?$AA@
CONST	SEGMENT
??_C@_1M@MLALJFKF@u5g?3?$AA4T?$AO?$JA?$AA?$AA?$AA@ DB '5u:g4', 00H, 0eH, 'T'
	DB	00H, 090H, 00H, 00H				; `string'
CONST	ENDS
;	COMDAT ??_C@_1M@CLKIMCBC@u5g?3?$AA4RM?$IP?$NL?$AA?$AA@
CONST	SEGMENT
??_C@_1M@CLKIMCBC@u5g?3?$AA4RM?$IP?$NL?$AA?$AA@ DB '5u:g4', 00H, 'MR', 0dbH
	DB	08fH, 00H, 00H				; `string'
CONST	ENDS
;	COMDAT ??_C@_1M@MBMOJMLM@u5g?3?$AA3T?$AO?$JA?$AA?$AA?$AA@
CONST	SEGMENT
??_C@_1M@MBMOJMLM@u5g?3?$AA3T?$AO?$JA?$AA?$AA?$AA@ DB '5u:g3', 00H, 0eH, 'T'
	DB	00H, 090H, 00H, 00H				; `string'
CONST	ENDS
;	COMDAT ??_C@_1M@CBGNMLAL@u5g?3?$AA3RM?$IP?$NL?$AA?$AA@
CONST	SEGMENT
??_C@_1M@CBGNMLAL@u5g?3?$AA3RM?$IP?$NL?$AA?$AA@ DB '5u:g3', 00H, 'MR', 0dbH
	DB	08fH, 00H, 00H				; `string'
CONST	ENDS
;	COMDAT ??_C@_1M@NGEJMCC@u5g?3?$AA2T?$AO?$JA?$AA?$AA?$AA@
CONST	SEGMENT
??_C@_1M@NGEJMCC@u5g?3?$AA2T?$AO?$JA?$AA?$AA?$AA@ DB '5u:g2', 00H, 0eH, 'T'
	DB	00H, 090H, 00H, 00H				; `string'
CONST	ENDS
;	COMDAT ??_C@_1M@ONMHMLJF@u5g?3?$AA2RM?$IP?$NL?$AA?$AA@
CONST	SEGMENT
??_C@_1M@ONMHMLJF@u5g?3?$AA2RM?$IP?$NL?$AA?$AA@ DB '5u:g2', 00H, 'MR', 0dbH
	DB	08fH, 00H, 00H				; `string'
CONST	ENDS
;	COMDAT ??_C@_1M@IDOLJLMB@u5g?3?$AA1T?$AO?$JA?$AA?$AA?$AA@
CONST	SEGMENT
??_C@_1M@IDOLJLMB@u5g?3?$AA1T?$AO?$JA?$AA?$AA?$AA@ DB '5u:g1', 00H, 0eH, 'T'
	DB	00H, 090H, 00H, 00H				; `string'
CONST	ENDS
;	COMDAT ??_C@_1M@GDEIMMHG@u5g?3?$AA1RM?$IP?$NL?$AA?$AA@
CONST	SEGMENT
??_C@_1M@GDEIMMHG@u5g?3?$AA1RM?$IP?$NL?$AA?$AA@ DB '5u:g1', 00H, 'MR', 0dbH
	DB	08fH, 00H, 00H				; `string'
CONST	ENDS
;	COMDAT ??_C@_1BA@OHPAPOKM@z?oS?c?$AA4r?$LG?$GA?$ABh?$MAmK?$AA?$AA@
CONST	SEGMENT
??_C@_1BA@OHPAPOKM@z?oS?c?$AA4r?$LG?$GA?$ABh?$MAmK?$AA?$AA@ DB 0efH, 'z', 0e3H
	DB	'S4', 00H, 0b6H, 'r', 01H, '`', 0c0H, 'hKm', 00H, 00H ; `string'
CONST	ENDS
;	COMDAT ??_C@_1BA@JDGIBHCD@z?oS?c?$AA3r?$LG?$GA?$ABh?$MAmK?$AA?$AA@
CONST	SEGMENT
??_C@_1BA@JDGIBHCD@z?oS?c?$AA3r?$LG?$GA?$ABh?$MAmK?$AA?$AA@ DB 0efH, 'z', 0e3H
	DB	'S3', 00H, 0b6H, 'r', 01H, '`', 0c0H, 'hKm', 00H, 00H ; `string'
CONST	ENDS
;	COMDAT ??_C@_1BA@IMNFLEM@z?oS?c?$AA2r?$LG?$GA?$ABh?$MAmK?$AA?$AA@
CONST	SEGMENT
??_C@_1BA@IMNFLEM@z?oS?c?$AA2r?$LG?$GA?$ABh?$MAmK?$AA?$AA@ DB 0efH, 'z', 0e3H
	DB	'S2', 00H, 0b6H, 'r', 01H, '`', 0c0H, 'hKm', 00H, 00H ; `string'
CONST	ENDS
;	COMDAT ??_C@_1BA@HPFDIJLM@z?oS?c?$AA1r?$LG?$GA?$ABh?$MAmK?$AA?$AA@
CONST	SEGMENT
??_C@_1BA@HPFDIJLM@z?oS?c?$AA1r?$LG?$GA?$ABh?$MAmK?$AA?$AA@ DB 0efH, 'z', 0e3H
	DB	'S1', 00H, 0b6H, 'r', 01H, '`', 0c0H, 'hKm', 00H, 00H ; `string'
CONST	ENDS
;	COMDAT ??_C@_1M@KICGEGCK@?$IP?TV?$NO?$JF?4_9?$INw?$AA?$AA@
CONST	SEGMENT
??_C@_1M@KICGEGCK@?$IP?TV?$NO?$JF?4_9?$INw?$AA?$AA@ DB 0d4H, 08fH, 0deH, 'V'
	DB	'.', 095H, '9_w', 08dH, 00H, 00H		; `string'
CONST	ENDS
;	COMDAT ??_C@_1M@HKINCDDN@?$IP?TV?$NO?$JF?4c?7N?$AL?$AA?$AA@
CONST	SEGMENT
??_C@_1M@HKINCDDN@?$IP?TV?$NO?$JF?4c?7N?$AL?$AA?$AA@ DB 0d4H, 08fH, 0deH, 'V'
	DB	'.', 095H, 09H, 'c', 0bH, 'N', 00H, 00H	; `string'
CONST	ENDS
;	COMDAT ??_C@_1M@PAECBFKK@?$ID?$NMSU?$JF?4_9?$INw?$AA?$AA@
CONST	SEGMENT
??_C@_1M@PAECBFKK@?$ID?$NMSU?$JF?4_9?$INw?$AA?$AA@ DB 0dcH, 083H, 'US.', 095H
	DB	'9_w', 08dH, 00H, 00H			; `string'
CONST	ENDS
;	COMDAT ??_C@_1M@CCOJHALN@?$ID?$NMSU?$JF?4c?7N?$AL?$AA?$AA@
CONST	SEGMENT
??_C@_1M@CCOJHALN@?$ID?$NMSU?$JF?4c?7N?$AL?$AA?$AA@ DB 0dcH, 083H, 'US.', 095H
	DB	09H, 'c', 0bH, 'N', 00H, 00H			; `string'
CONST	ENDS
;	COMDAT ??_C@_1M@NDLNAAPP@N?$DL?$JIu?$JF?4_9?$INw?$AA?$AA@
CONST	SEGMENT
??_C@_1M@NDLNAAPP@N?$DL?$JIu?$JF?4_9?$INw?$AA?$AA@ DB ';Nu', 098H, '.', 095H
	DB	'9_w', 08dH, 00H, 00H			; `string'
CONST	ENDS
;	COMDAT ??_C@_1M@BBGGFOI@N?$DL?$JIu?$JF?4c?7N?$AL?$AA?$AA@
CONST	SEGMENT
??_C@_1M@BBGGFOI@N?$DL?$JIu?$JF?4c?7N?$AL?$AA?$AA@ DB ';Nu', 098H, '.', 095H
	DB	09H, 'c', 0bH, 'N', 00H, 00H			; `string'
CONST	ENDS
;	COMDAT ??_C@_1O@KGBEOHII@?$IJ?fdx?$JF?4?$AA5_9?$INw?$AA?$AA@
CONST	SEGMENT
??_C@_1O@KGBEOHII@?$IJ?fdx?$JF?4?$AA5_9?$INw?$AA?$AA@ DB 0e6H, 089H, 'xd.'
	DB	095H, '5', 00H, '9_w', 08dH, 00H, 00H	; `string'
CONST	ENDS
;	COMDAT ??_C@_1O@HELPICJP@?$IJ?fdx?$JF?4?$AA5c?7N?$AL?$AA?$AA@
CONST	SEGMENT
??_C@_1O@HELPICJP@?$IJ?fdx?$JF?4?$AA5c?7N?$AL?$AA?$AA@ DB 0e6H, 089H, 'xd'
	DB	'.', 095H, '5', 00H, 09H, 'c', 0bH, 'N', 00H, 00H ; `string'
CONST	ENDS
;	COMDAT ??_C@_1O@GKLOOHBG@?$IJ?fdx?$JF?4?$AA4_9?$INw?$AA?$AA@
CONST	SEGMENT
??_C@_1O@GKLOOHBG@?$IJ?fdx?$JF?4?$AA4_9?$INw?$AA?$AA@ DB 0e6H, 089H, 'xd.'
	DB	095H, '4', 00H, '9_w', 08dH, 00H, 00H	; `string'
CONST	ENDS
;	COMDAT ??_C@_1O@LIBFICAB@?$IJ?fdx?$JF?4?$AA4c?7N?$AL?$AA?$AA@
CONST	SEGMENT
??_C@_1O@LIBFICAB@?$IJ?fdx?$JF?4?$AA4c?7N?$AL?$AA?$AA@ DB 0e6H, 089H, 'xd'
	DB	'.', 095H, '4', 00H, 09H, 'c', 0bH, 'N', 00H, 00H ; `string'
CONST	ENDS
;	COMDAT ??_C@_1M@LIDIPIIJ@?$AAM?$AAI?$AAC?$IM?$AD?$IC?$IC?$AA?$AA@
CONST	SEGMENT
??_C@_1M@LIDIPIIJ@?$AAM?$AAI?$AAC?$IM?$AD?$IC?$IC?$AA?$AA@ DB 'M', 00H, 'I'
	DB	00H, 'C', 00H, 03H, 08cH, 082H, 082H, 00H, 00H ; `string'
CONST	ENDS
;	COMDAT ??_C@_1BE@LCPCPGGH@?$AAE?$AAA?$AAR?$AA?9?$AAM?$AAI?$AAC?$IM?$AD?$IC?$IC?$AA?$AA@
CONST	SEGMENT
??_C@_1BE@LCPCPGGH@?$AAE?$AAA?$AAR?$AA?9?$AAM?$AAI?$AAC?$IM?$AD?$IC?$IC?$AA?$AA@ DB 'E'
	DB	00H, 'A', 00H, 'R', 00H, '-', 00H, 'M', 00H, 'I', 00H, 'C', 00H
	DB	03H, 08cH, 082H, 082H, 00H, 00H		; `string'
CONST	ENDS
;	COMDAT ??_C@_1BA@LBFGKPOK@?$AAE?$AAA?$AAR?$AA?9?$AAR?$IM?$AD?$IC?$IC?$AA?$AA@
CONST	SEGMENT
??_C@_1BA@LBFGKPOK@?$AAE?$AAA?$AAR?$AA?9?$AAR?$IM?$AD?$IC?$IC?$AA?$AA@ DB 'E'
	DB	00H, 'A', 00H, 'R', 00H, '-', 00H, 'R', 00H, 03H, 08cH, 082H, 082H
	DB	00H, 00H					; `string'
CONST	ENDS
;	COMDAT ??_C@_1BA@NIGHIMPD@?$AAE?$AAA?$AAR?$AA?9?$AAL?$IM?$AD?$IC?$IC?$AA?$AA@
CONST	SEGMENT
??_C@_1BA@NIGHIMPD@?$AAE?$AAA?$AAR?$AA?9?$AAL?$IM?$AD?$IC?$IC?$AA?$AA@ DB 'E'
	DB	00H, 'A', 00H, 'R', 00H, '-', 00H, 'L', 00H, 03H, 08cH, 082H, 082H
	DB	00H, 00H					; `string'
CONST	ENDS
;	COMDAT ??_C@_1M@JBILBOF@?$AAV?$AAI?$AAB?$IM?$AD?$IC?$IC?$AA?$AA@
CONST	SEGMENT
??_C@_1M@JBILBOF@?$AAV?$AAI?$AAB?$IM?$AD?$IC?$IC?$AA?$AA@ DB 'V', 00H, 'I'
	DB	00H, 'B', 00H, 03H, 08cH, 082H, 082H, 00H, 00H ; `string'
CONST	ENDS
;	COMDAT ??_C@_1O@LPIEAEEG@?$AAS?$AAP?$AAK?$AA2?$IM?$AD?$IC?$IC?$AA?$AA@
CONST	SEGMENT
??_C@_1O@LPIEAEEG@?$AAS?$AAP?$AAK?$AA2?$IM?$AD?$IC?$IC?$AA?$AA@ DB 'S', 00H
	DB	'P', 00H, 'K', 00H, '2', 00H, 03H, 08cH, 082H, 082H, 00H, 00H ; `string'
CONST	ENDS
;	COMDAT ??_C@_1O@DBALADKF@?$AAS?$AAP?$AAK?$AA1?$IM?$AD?$IC?$IC?$AA?$AA@
CONST	SEGMENT
??_C@_1O@DBALADKF@?$AAS?$AAP?$AAK?$AA1?$IM?$AD?$IC?$IC?$AA?$AA@ DB 'S', 00H
	DB	'P', 00H, 'K', 00H, '1', 00H, 03H, 08cH, 082H, 082H, 00H, 00H ; `string'
CONST	ENDS
;	COMDAT ??_C@_1M@NMIIGKIK@?$AAR?$AAE?$AAC?$IM?$AD?$IC?$IC?$AA?$AA@
CONST	SEGMENT
??_C@_1M@NMIIGKIK@?$AAR?$AAE?$AAC?$IM?$AD?$IC?$IC?$AA?$AA@ DB 'R', 00H, 'E'
	DB	00H, 'C', 00H, 03H, 08cH, 082H, 082H, 00H, 00H ; `string'
CONST	ENDS
;	COMDAT ??_C@_1O@IMJJJDFH@?$JH?s?$JI?$JB?$JA?$BK?$JASR?$AHcb?$AA?$AA@
CONST	SEGMENT
??_C@_1O@IMJJJDFH@?$JH?s?$JI?$JB?$JA?$BK?$JASR?$AHcb?$AA?$AA@ DB 0f3H, 097H
	DB	091H, 098H, 01aH, 090H, 'S', 090H, 07H, 'Rbc', 00H, 00H ; `string'
CONST	ENDS
;	COMDAT ??_C@_1BG@EGNBCKPN@?$HO?$KC?$ICr?$AAL?$AAE?$AADpor?$LG?$GA?$ABg?e?$IL?b?$AA?$AA@
CONST	SEGMENT
??_C@_1BG@EGNBCKPN@?$HO?$KC?$ICr?$AAL?$AAE?$AADpor?$LG?$GA?$ABg?e?$IL?b?$AA?$AA@ DB 0a2H
	DB	'~r', 082H, 'L', 00H, 'E', 00H, 'D', 00H, 'op', 0b6H, 'r', 01H
	DB	'`', 0e5H, 'g', 0e2H, 08bH, 00H, 00H		; `string'
CONST	ENDS
;	COMDAT ??_C@_1BG@NHKCJCLL@?$HO?$PP?$ICr?$AAL?$AAE?$AADpor?$LG?$GA?$ABg?e?$IL?b?$AA?$AA@
CONST	SEGMENT
??_C@_1BG@NHKCJCLL@?$HO?$PP?$ICr?$AAL?$AAE?$AADpor?$LG?$GA?$ABg?e?$IL?b?$AA?$AA@ DB 0ffH
	DB	'~r', 082H, 'L', 00H, 'E', 00H, 'D', 00H, 'op', 0b6H, 'r', 01H
	DB	'`', 0e5H, 'g', 0e2H, 08bH, 00H, 00H		; `string'
CONST	ENDS
;	COMDAT ??_C@_1O@DIEEJPHG@?$IA3g?3r?$LG?$GA?$ABg?e?$IL?b?$AA?$AA@
CONST	SEGMENT
??_C@_1O@DIEEJPHG@?$IA3g?3r?$LG?$GA?$ABg?e?$IL?b?$AA?$AA@ DB '3', 080H, ':'
	DB	'g', 0b6H, 'r', 01H, '`', 0e5H, 'g', 0e2H, 08bH, 00H, 00H ; `string'
CONST	ENDS
;	COMDAT ??_C@_1BI@LEJMMEH@c?7?$JF?4pomK?$IL?US?$ILg?$HPr?$LG?$GA?$ABg?e?$IL?b?$AA?$AA@
CONST	SEGMENT
??_C@_1BI@LEJMMEH@c?7?$JF?4pomK?$IL?US?$ILg?$HPr?$LG?$GA?$ABg?e?$IL?b?$AA?$AA@ DB 09H
	DB	'c.', 095H, 'opKm', 0d5H, 08bH, 08bH, 'S', 07fH, 'g', 0b6H, 'r'
	DB	01H, '`', 0e5H, 'g', 0e2H, 08bH, 00H, 00H	; `string'
CONST	ENDS
;	COMDAT ??_C@_1O@JPFCJEFO@S?$ILg?$HPr?$LG?$GA?$ABg?e?$IL?b?$AA?$AA@
CONST	SEGMENT
??_C@_1O@JPFCJEFO@S?$ILg?$HPr?$LG?$GA?$ABg?e?$IL?b?$AA?$AA@ DB 08bH, 'S', 07fH
	DB	'g', 0b6H, 'r', 01H, '`', 0e5H, 'g', 0e2H, 08bH, 00H, 00H ; `string'
CONST	ENDS
;	COMDAT ??_C@_1BI@HLEGENHB@RM?$HPndDP?OY4QIn?$JAr?$LG?$GA?$ABg?e?$IL?b?$AA?$AA@
CONST	SEGMENT
??_C@_1BI@HLEGENHB@RM?$HPndDP?OY4QIn?$JAr?$LG?$GA?$ABg?e?$IL?b?$AA?$AA@ DB 'M'
	DB	'Rn', 07fH, 'Dd', 0cfH, 'P4YIQ', 090H, 'n', 0b6H, 'r', 01H, '`'
	DB	0e5H, 'g', 0e2H, 08bH, 00H, 00H		; `string'
CONST	ENDS
;	COMDAT ??_C@_1BA@JPAAFEIE@s?$KPX?$IDQIr?$LG?$GA?$ABg?e?$IL?b?$AA?$AA@
CONST	SEGMENT
??_C@_1BA@JPAAFEIE@s?$KPX?$IDQIr?$LG?$GA?$ABg?e?$IL?b?$AA?$AA@ DB 0afH, 's'
	DB	083H, 'XIQ', 0b6H, 'r', 01H, '`', 0e5H, 'g', 0e2H, 08bH, 00H, 00H ; `string'
CONST	ENDS
;	COMDAT ??_C@_1BA@HAJCONNC@v?$HNu?$DL?$JHbr?$LG?$GA?$ABg?e?$IL?b?$AA?$AA@
CONST	SEGMENT
??_C@_1BA@HAJCONNC@v?$HNu?$DL?$JHbr?$LG?$GA?$ABg?e?$IL?b?$AA?$AA@ DB '}v;'
	DB	'ub', 097H, 0b6H, 'r', 01H, '`', 0e5H, 'g', 0e2H, 08bH, 00H, 00H ; `string'
CONST	ENDS
;	COMDAT ??_C@_1BC@JOILPBBA@?$IJ?fdx?$JF?4?$AA4r?$LG?$GA?$ABg?e?$IL?b?$AA?$AA@
CONST	SEGMENT
??_C@_1BC@JOILPBBA@?$IJ?fdx?$JF?4?$AA4r?$LG?$GA?$ABg?e?$IL?b?$AA?$AA@ DB 0e6H
	DB	089H, 'xd.', 095H, '4', 00H, 0b6H, 'r', 01H, '`', 0e5H, 'g', 0e2H
	DB	08bH, 00H, 00H				; `string'
CONST	ENDS
;	COMDAT ??_C@_1BC@OKBDBIJP@?$IJ?fdx?$JF?4?$AA3r?$LG?$GA?$ABg?e?$IL?b?$AA?$AA@
CONST	SEGMENT
??_C@_1BC@OKBDBIJP@?$IJ?fdx?$JF?4?$AA3r?$LG?$GA?$ABg?e?$IL?b?$AA?$AA@ DB 0e6H
	DB	089H, 'xd.', 095H, '3', 00H, 0b6H, 'r', 01H, '`', 0e5H, 'g', 0e2H
	DB	08bH, 00H, 00H				; `string'
CONST	ENDS
;	COMDAT ??_C@_1BC@HBLGFEPA@?$IJ?fdx?$JF?4?$AA2r?$LG?$GA?$ABg?e?$IL?b?$AA?$AA@
CONST	SEGMENT
??_C@_1BC@HBLGFEPA@?$IJ?fdx?$JF?4?$AA2r?$LG?$GA?$ABg?e?$IL?b?$AA?$AA@ DB 0e6H
	DB	089H, 'xd.', 095H, '2', 00H, 0b6H, 'r', 01H, '`', 0e5H, 'g', 0e2H
	DB	08bH, 00H, 00H				; `string'
CONST	ENDS
;	COMDAT ??_C@_1BC@GCIIGAA@?$IJ?fdx?$JF?4?$AA1r?$LG?$GA?$ABg?e?$IL?b?$AA?$AA@
CONST	SEGMENT
??_C@_1BC@GCIIGAA@?$IJ?fdx?$JF?4?$AA1r?$LG?$GA?$ABg?e?$IL?b?$AA?$AA@ DB 0e6H
	DB	089H, 'xd.', 095H, '1', 00H, 0b6H, 'r', 01H, '`', 0e5H, 'g', 0e2H
	DB	08bH, 00H, 00H				; `string'
CONST	ENDS
;	COMDAT ??_C@_1BI@OIEOGMJG@T?$AO?$HPndDP?OY4QIn?$JAr?$LG?$GA?$ABg?e?$IL?b?$AA?$AA@
CONST	SEGMENT
??_C@_1BI@OIEOGMJG@T?$AO?$HPndDP?OY4QIn?$JAr?$LG?$GA?$ABg?e?$IL?b?$AA?$AA@ DB 0eH
	DB	'Tn', 07fH, 'Dd', 0cfH, 'P4YIQ', 090H, 'n', 0b6H, 'r', 01H, '`'
	DB	0e5H, 'g', 0e2H, 08bH, 00H, 00H		; `string'
CONST	ENDS
;	COMDAT ??_C@_1BC@BCKLCEHE@?$JH?s?$JB?O?$AA?9?$JF?4r?$LG?$GA?$ABg?e?$IL?b?$AA?$AA@
CONST	SEGMENT
??_C@_1BC@BCKLCEHE@?$JH?s?$JB?O?$AA?9?$JF?4r?$LG?$GA?$ABg?e?$IL?b?$AA?$AA@ DB 0f3H
	DB	097H, 0cfH, 091H, '-', 00H, '.', 095H, 0b6H, 'r', 01H, '`', 0e5H
	DB	'g', 0e2H, 08bH, 00H, 00H			; `string'
CONST	ENDS
;	COMDAT ??_C@_1BC@OKGJGPMC@?$JH?s?$JB?O?$AA?$CL?$JF?4r?$LG?$GA?$ABg?e?$IL?b?$AA?$AA@
CONST	SEGMENT
??_C@_1BC@OKGJGPMC@?$JH?s?$JB?O?$AA?$CL?$JF?4r?$LG?$GA?$ABg?e?$IL?b?$AA?$AA@ DB 0f3H
	DB	097H, 0cfH, 091H, '+', 00H, '.', 095H, 0b6H, 'r', 01H, '`', 0e5H
	DB	'g', 0e2H, 08bH, 00H, 00H			; `string'
CONST	ENDS
;	COMDAT ??_C@_1BA@DGGBIAA@u5n?$JA?$JF?4r?$LG?$GA?$ABg?e?$IL?b?$AA?$AA@
CONST	SEGMENT
??_C@_1BA@DGGBIAA@u5n?$JA?$JF?4r?$LG?$GA?$ABg?e?$IL?b?$AA?$AA@ DB '5u', 090H
	DB	'n.', 095H, 0b6H, 'r', 01H, '`', 0e5H, 'g', 0e2H, 08bH, 00H, 00H ; `string'
CONST	ENDS
;	COMDAT ??_C@_1O@MKFMBCPN@?$HO?$KC?$ICr?$AAL?$AAE?$AADpm?$AA?$AA@
CONST	SEGMENT
??_C@_1O@MKFMBCPN@?$HO?$KC?$ICr?$AAL?$AAE?$AADpm?$AA?$AA@ DB 0a2H, '~r', 082H
	DB	'L', 00H, 'E', 00H, 'D', 00H, 'mp', 00H, 00H	; `string'
CONST	ENDS
;	COMDAT ??_C@_1O@IAFBJLIP@?$HO?$KC?$ICr?$AAL?$AAE?$AADN?$KO?$AA?$AA@
CONST	SEGMENT
??_C@_1O@IAFBJLIP@?$HO?$KC?$ICr?$AAL?$AAE?$AADN?$KO?$AA?$AA@ DB 0a2H, '~r'
	DB	082H, 'L', 00H, 'E', 00H, 'D', 00H, 0aeH, 'N', 00H, 00H ; `string'
CONST	ENDS
;	COMDAT ??_C@_1O@FKKNKJDL@?$HO?$PP?$ICr?$AAL?$AAE?$AADpm?$AA?$AA@
CONST	SEGMENT
??_C@_1O@FKKNKJDL@?$HO?$PP?$ICr?$AAL?$AAE?$AADpm?$AA?$AA@ DB 0ffH, '~r', 082H
	DB	'L', 00H, 'E', 00H, 'D', 00H, 'mp', 00H, 00H	; `string'
CONST	ENDS
;	COMDAT ??_C@_1O@BAKACAEJ@?$HO?$PP?$ICr?$AAL?$AAE?$AADN?$KO?$AA?$AA@
CONST	SEGMENT
??_C@_1O@BAKACAEJ@?$HO?$PP?$ICr?$AAL?$AAE?$AADN?$KO?$AA?$AA@ DB 0ffH, '~r'
	DB	082H, 'L', 00H, 'E', 00H, 'D', 00H, 0aeH, 'N', 00H, 00H ; `string'
CONST	ENDS
;	COMDAT ??_C@_19ENAAFLHD@?$IA3g?3b?TQ?z?$AA?$AA@
CONST	SEGMENT
??_C@_19ENAAFLHD@?$IA3g?3b?TQ?z?$AA?$AA@ DB '3', 080H, ':g', 0d4H, 'b', 0faH
	DB	'Q', 00H, 00H				; `string'
CONST	ENDS
;	COMDAT ??_C@_19EDBKGACM@?$IA3g?3c?RQe?$AA?$AA@
CONST	SEGMENT
??_C@_19EDBKGACM@?$IA3g?3c?RQe?$AA?$AA@ DB '3', 080H, ':g', 0d2H, 'ceQ', 00H
	DB	00H						; `string'
CONST	ENDS
;	COMDAT ??_C@_19MEJAKFF@?$JB?MR?$JL_9?$INw?$AA?$AA@
CONST	SEGMENT
??_C@_19MEJAKFF@?$JB?MR?$JL_9?$INw?$AA?$AA@ DB 0cdH, 091H, 09bH, 'R9_w', 08dH
	DB	00H, 00H					; `string'
CONST	ENDS
;	COMDAT ??_C@_19NOOCGPEC@?$JB?MR?$JLc?7N?$AL?$AA?$AA@
CONST	SEGMENT
??_C@_19NOOCGPEC@?$JB?MR?$JLc?7N?$AL?$AA?$AA@ DB 0cdH, 091H, 09bH, 'R', 09H
	DB	'c', 0bH, 'N', 00H, 00H			; `string'
CONST	ENDS
;	COMDAT ??_C@_19OAAHAMNF@S?$ILg?$HPb?$KM?$INw?$AA?$AA@
CONST	SEGMENT
??_C@_19OAAHAMNF@S?$ILg?$HPb?$KM?$INw?$AA?$AA@ DB 08bH, 'S', 07fH, 'g', 0acH
	DB	'bw', 08dH, 00H, 00H				; `string'
CONST	ENDS
;	COMDAT ??_C@_19KLIIFOKD@S?$ILg?$HPN?$ALS?$IL?$AA?$AA@
CONST	SEGMENT
??_C@_19KLIIFOKD@S?$ILg?$HPN?$ALS?$IL?$AA?$AA@ DB 08bH, 'S', 07fH, 'g', 0bH
	DB	'N', 08bH, 'S', 00H, 00H			; `string'
CONST	ENDS
;	COMDAT ??_C@_1BA@BHLMEMCP@v?$HNpo?$HL?$LBQIn?$JAQs?$JF?m?$AA?$AA@
CONST	SEGMENT
??_C@_1BA@BHLMEMCP@v?$HNpo?$HL?$LBQIn?$JAQs?$JF?m?$AA?$AA@ DB '}vop', 0b1H
	DB	'{IQ', 090H, 'nsQ', 0edH, 095H, 00H, 00H	; `string'
CONST	ENDS
;	COMDAT ??_C@_1BA@EOLMABDM@v?$HNpo?$HL?$LBQIn?$JAbS_?$AA?$AA?$AA@
CONST	SEGMENT
??_C@_1BA@EOLMABDM@v?$HNpo?$HL?$LBQIn?$JAbS_?$AA?$AA?$AA@ DB '}vop', 0b1H
	DB	'{IQ', 090H, 'nSb', 00H, '_', 00H, 00H	; `string'
CONST	ENDS
;	COMDAT ??_C@_1M@MOFPAIKO@?$AAO?$AAT?$AAGY?$ANOM?$AA?$AA@
CONST	SEGMENT
??_C@_1M@MOFPAIKO@?$AAO?$AAT?$AAGY?$ANOM?$AA?$AA@ DB 'O', 00H, 'T', 00H, 'G'
	DB	00H, 0dH, 'YMO', 00H, 00H			; `string'
CONST	ENDS
;	COMDAT ??_C@_1M@OBMKFJKA@?$AAO?$AAT?$AAGh?$MAmK?$AA?$AA@
CONST	SEGMENT
??_C@_1M@OBMKFJKA@?$AAO?$AAT?$AAGh?$MAmK?$AA?$AA@ DB 'O', 00H, 'T', 00H, 'G'
	DB	00H, 0c0H, 'hKm', 00H, 00H			; `string'
CONST	ENDS
;	COMDAT ??_C@_1O@CBLEGKIA@_?$AA?$HL?$LBl?$BER?$KI?$JG?$AAQs?$AA?$AA@
CONST	SEGMENT
??_C@_1O@CBLEGKIA@_?$AA?$HL?$LBl?$BER?$KI?$JG?$AAQs?$AA?$AA@ DB 00H, '_', 0b1H
	DB	'{', 014H, 'l', 0a8H, 'R', 00H, 096H, 'sQ', 00H, 00H ; `string'
CONST	ENDS
;	COMDAT ??_C@_15JBEKIAI@_?$AA?$HL?$LB?$AA?$AA@
CONST	SEGMENT
??_C@_15JBEKIAI@_?$AA?$HL?$LB?$AA?$AA@ DB 00H, '_', 0b1H, '{', 00H, 00H ; `string'
CONST	ENDS
;	COMDAT ??_C@_1O@ENFMPAKO@Qs?$HL?$LBl?$BER?$KI?$JG?$AAQs?$AA?$AA@
CONST	SEGMENT
??_C@_1O@ENFMPAKO@Qs?$HL?$LBl?$BER?$KI?$JG?$AAQs?$AA?$AA@ DB 'sQ', 0b1H, '{'
	DB	014H, 'l', 0a8H, 'R', 00H, 096H, 'sQ', 00H, 00H ; `string'
CONST	ENDS
;	COMDAT ??_C@_15DLJCGJAG@Qs?$HL?$LB?$AA?$AA@
CONST	SEGMENT
??_C@_15DLJCGJAG@Qs?$HL?$LB?$AA?$AA@ DB 'sQ', 0b1H, '{', 00H, 00H ; `string'
CONST	ENDS
;	COMDAT ??_C@_1O@GAHLOOAP@?$IJ?fdx?$JF?4?$AA3_9?$INw?$AA?$AA@
CONST	SEGMENT
??_C@_1O@GAHLOOAP@?$IJ?fdx?$JF?4?$AA3_9?$INw?$AA?$AA@ DB 0e6H, 089H, 'xd.'
	DB	095H, '3', 00H, '9_w', 08dH, 00H, 00H	; `string'
CONST	ENDS
;	COMDAT ??_C@_1O@LCNAILBI@?$IJ?fdx?$JF?4?$AA3c?7N?$AL?$AA?$AA@
CONST	SEGMENT
??_C@_1O@LCNAILBI@?$IJ?fdx?$JF?4?$AA3c?7N?$AL?$AA?$AA@ DB 0e6H, 089H, 'xd'
	DB	'.', 095H, '3', 00H, 09H, 'c', 0bH, 'N', 00H, 00H ; `string'
CONST	ENDS
;	COMDAT ??_C@_1O@KMNBOOJB@?$IJ?fdx?$JF?4?$AA2_9?$INw?$AA?$AA@
CONST	SEGMENT
??_C@_1O@KMNBOOJB@?$IJ?fdx?$JF?4?$AA2_9?$INw?$AA?$AA@ DB 0e6H, 089H, 'xd.'
	DB	095H, '2', 00H, '9_w', 08dH, 00H, 00H	; `string'
CONST	ENDS
;	COMDAT ??_C@_1O@HOHKILIG@?$IJ?fdx?$JF?4?$AA2c?7N?$AL?$AA?$AA@
CONST	SEGMENT
??_C@_1O@HOHKILIG@?$IJ?fdx?$JF?4?$AA2c?7N?$AL?$AA?$AA@ DB 0e6H, 089H, 'xd'
	DB	'.', 095H, '2', 00H, 09H, 'c', 0bH, 'N', 00H, 00H ; `string'
CONST	ENDS
;	COMDAT ??_C@_1O@CCFOOJHC@?$IJ?fdx?$JF?4?$AA1_9?$INw?$AA?$AA@
CONST	SEGMENT
??_C@_1O@CCFOOJHC@?$IJ?fdx?$JF?4?$AA1_9?$INw?$AA?$AA@ DB 0e6H, 089H, 'xd.'
	DB	095H, '1', 00H, '9_w', 08dH, 00H, 00H	; `string'
CONST	ENDS
;	COMDAT ??_C@_1O@PAPFIMGF@?$IJ?fdx?$JF?4?$AA1c?7N?$AL?$AA?$AA@
CONST	SEGMENT
??_C@_1O@PAPFIMGF@?$IJ?fdx?$JF?4?$AA1c?7N?$AL?$AA?$AA@ DB 0e6H, 089H, 'xd'
	DB	'.', 095H, '1', 00H, 09H, 'c', 0bH, 'N', 00H, 00H ; `string'
CONST	ENDS
;	COMDAT ??_C@_1O@BDFPHKDC@?$ICrSaQIn?$JAQs?$JF?m?$AA?$AA@
CONST	SEGMENT
??_C@_1O@BDFPHKDC@?$ICrSaQIn?$JAQs?$JF?m?$AA?$AA@ DB 'r', 082H, 'aSIQ', 090H
	DB	'nsQ', 0edH, 095H, 00H, 00H			; `string'
CONST	ENDS
;	COMDAT ??_C@_1O@EKFPDHCB@?$ICrSaQIn?$JAbS_?$AA?$AA?$AA@
CONST	SEGMENT
??_C@_1O@EKFPDHCB@?$ICrSaQIn?$JAbS_?$AA?$AA?$AA@ DB 'r', 082H, 'aSIQ', 090H
	DB	'nSb', 00H, '_', 00H, 00H			; `string'
CONST	ENDS
;	COMDAT ??_C@_1M@PHAPILPM@?$JH?s?$JB?O?$AA?9_9?$INw?$AA?$AA@
CONST	SEGMENT
??_C@_1M@PHAPILPM@?$JH?s?$JB?O?$AA?9_9?$INw?$AA?$AA@ DB 0f3H, 097H, 0cfH, 091H
	DB	'-', 00H, '9_w', 08dH, 00H, 00H		; `string'
CONST	ENDS
;	COMDAT ??_C@_1M@CFKEOOOL@?$JH?s?$JB?O?$AA?9c?7N?$AL?$AA?$AA@
CONST	SEGMENT
??_C@_1M@CFKEOOOL@?$JH?s?$JB?O?$AA?9c?7N?$AL?$AA?$AA@ DB 0f3H, 097H, 0cfH
	DB	091H, '-', 00H, 09H, 'c', 0bH, 'N', 00H, 00H	; `string'
CONST	ENDS
;	COMDAT ??_C@_1M@DBGAICHL@?$JH?s?$JB?O?$AA?$CL_9?$INw?$AA?$AA@
CONST	SEGMENT
??_C@_1M@DBGAICHL@?$JH?s?$JB?O?$AA?$CL_9?$INw?$AA?$AA@ DB 0f3H, 097H, 0cfH
	DB	091H, '+', 00H, '9_w', 08dH, 00H, 00H	; `string'
CONST	ENDS
;	COMDAT ??_C@_1M@ODMLOHGM@?$JH?s?$JB?O?$AA?$CLc?7N?$AL?$AA?$AA@
CONST	SEGMENT
??_C@_1M@ODMLOHGM@?$JH?s?$JB?O?$AA?$CLc?7N?$AL?$AA?$AA@ DB 0f3H, 097H, 0cfH
	DB	091H, '+', 00H, 09H, 'c', 0bH, 'N', 00H, 00H	; `string'
CONST	ENDS
;	COMDAT ??_C@_1M@FOAGDJM@u5n?$JA?$JF?4_9?$INw?$AA?$AA@
CONST	SEGMENT
??_C@_1M@FOAGDJM@u5n?$JA?$JF?4_9?$INw?$AA?$AA@ DB '5u', 090H, 'n.', 095H, '9'
	DB	'_w', 08dH, 00H, 00H				; `string'
CONST	ENDS
;	COMDAT ??_C@_1M@NHELAGIL@u5n?$JA?$JF?4c?7N?$AL?$AA?$AA@
CONST	SEGMENT
??_C@_1M@NHELAGIL@u5n?$JA?$JF?4c?7N?$AL?$AA?$AA@ DB '5u', 090H, 'n.', 095H
	DB	09H, 'c', 0bH, 'N', 00H, 00H			; `string'
CONST	ENDS
;	COMDAT ??_C@_1O@HAJLIGNE@T?$AO?$JF?jQIpoh?$MAmK?$AA?$AA@
CONST	SEGMENT
??_C@_1O@HAJLIGNE@T?$AO?$JF?jQIpoh?$MAmK?$AA?$AA@ DB 0eH, 'T', 0eaH, 095H
	DB	'IQop', 0c0H, 'hKm', 00H, 00H		; `string'
CONST	ENDS
;	COMDAT ??_C@_1O@ONKGILCD@RM?$JF?jQIpoh?$MAmK?$AA?$AA@
CONST	SEGMENT
??_C@_1O@ONKGILCD@RM?$JF?jQIpoh?$MAmK?$AA?$AA@ DB 'MR', 0eaH, 095H, 'IQop'
	DB	0c0H, 'hKm', 00H, 00H			; `string'
CONST	ENDS
;	COMDAT ??_C@_19JDHNBCEO@u5mAh?$MAmK?$AA?$AA@
CONST	SEGMENT
??_C@_19JDHNBCEO@u5mAh?$MAmK?$AA?$AA@ DB '5uAm', 0c0H, 'hKm', 00H, 00H ; `string'
CONST	ENDS
;	COMDAT ??_C@_19CKIIAGBC@X?p?$JH?sh?$MAmK?$AA?$AA@
CONST	SEGMENT
??_C@_19CKIIAGBC@X?p?$JH?sh?$MAmK?$AA?$AA@ DB 0f0H, 'X', 0f3H, 097H, 0c0H
	DB	'hKm', 00H, 00H				; `string'
CONST	ENDS
;	COMDAT ??_C@_1BE@IKIGOIGL@z?oS?c?$AA7?$IP?$JDQer?$LG?$GA?$ABg?e?$IL?b?$AA?$AA@
CONST	SEGMENT
??_C@_1BE@IKIGOIGL@z?oS?c?$AA7?$IP?$JDQer?$LG?$GA?$ABg?e?$IL?b?$AA?$AA@ DB 0efH
	DB	'z', 0e3H, 'S7', 00H, 093H, 08fH, 'eQ', 0b6H, 'r', 01H, '`', 0e5H
	DB	'g', 0e2H, 08bH, 00H, 00H			; `string'
CONST	ENDS
;	COMDAT ??_C@_1BE@CEOOHJPK@z?oS?c?$AA6?$IP?$JDQer?$LG?$GA?$ABg?e?$IL?b?$AA?$AA@
CONST	SEGMENT
??_C@_1BE@CEOOHJPK@z?oS?c?$AA6?$IP?$JDQer?$LG?$GA?$ABg?e?$IL?b?$AA?$AA@ DB 0efH
	DB	'z', 0e3H, 'S6', 00H, 093H, 08fH, 'eQ', 0b6H, 'r', 01H, '`', 0e5H
	DB	'g', 0e2H, 08bH, 00H, 00H			; `string'
CONST	ENDS
;	COMDAT ??_C@_1BM@NIJBIKPO@?$AAE?$AAa?$AAr?$AA?9?$AAL?$IP?$JDQez?oS?cr?$LG?$GA?$ABg?e?$IL?b?$AA?$AA@
CONST	SEGMENT
??_C@_1BM@NIJBIKPO@?$AAE?$AAa?$AAr?$AA?9?$AAL?$IP?$JDQez?oS?cr?$LG?$GA?$ABg?e?$IL?b?$AA?$AA@ DB 'E'
	DB	00H, 'a', 00H, 'r', 00H, '-', 00H, 'L', 00H, 093H, 08fH, 'eQ', 0efH
	DB	'z', 0e3H, 'S', 0b6H, 'r', 01H, '`', 0e5H, 'g', 0e2H, 08bH, 00H
	DB	00H						; `string'
CONST	ENDS
;	COMDAT ??_C@_1BM@CBKPGKLM@?$AAE?$AAa?$AAr?$AA?9?$AAR?$IP?$JDQez?oS?cr?$LG?$GA?$ABg?e?$IL?b?$AA?$AA@
CONST	SEGMENT
??_C@_1BM@CBKPGKLM@?$AAE?$AAa?$AAr?$AA?9?$AAR?$IP?$JDQez?oS?cr?$LG?$GA?$ABg?e?$IL?b?$AA?$AA@ DB 'E'
	DB	00H, 'a', 00H, 'r', 00H, '-', 00H, 'R', 00H, 093H, 08fH, 'eQ', 0efH
	DB	'z', 0e3H, 'S', 0b6H, 'r', 01H, '`', 0e5H, 'g', 0e2H, 08bH, 00H
	DB	00H						; `string'
CONST	ENDS
;	COMDAT ??_C@_1BC@HKMBLFKL@c?1?$FLP?$IP?$JDQer?$LG?$GA?$ABg?e?$IL?b?$AA?$AA@
CONST	SEGMENT
??_C@_1BC@HKMBLFKL@c?1?$FLP?$IP?$JDQer?$LG?$GA?$ABg?e?$IL?b?$AA?$AA@ DB '/'
	DB	'cP[', 093H, 08fH, 'eQ', 0b6H, 'r', 01H, '`', 0e5H, 'g', 0e2H, 08bH
	DB	00H, 00H					; `string'
CONST	ENDS
;	COMDAT ??_C@_1BI@LKHEBPFA@?$AAS?$AAP?$AAK?$IP?$JDQez?oS?cr?$LG?$GA?$ABg?e?$IL?b?$AA?$AA@
CONST	SEGMENT
??_C@_1BI@LKHEBPFA@?$AAS?$AAP?$AAK?$IP?$JDQez?oS?cr?$LG?$GA?$ABg?e?$IL?b?$AA?$AA@ DB 'S'
	DB	00H, 'P', 00H, 'K', 00H, 093H, 08fH, 'eQ', 0efH, 'z', 0e3H, 'S'
	DB	0b6H, 'r', 01H, '`', 0e5H, 'g', 0e2H, 08bH, 00H, 00H ; `string'
CONST	ENDS
;	COMDAT ??_C@_1BK@OHGADHML@?$AAC?$AAa?$AAl?$AAl?$IP?$JDQez?oS?cr?$LG?$GA?$ABg?e?$IL?b?$AA?$AA@
CONST	SEGMENT
??_C@_1BK@OHGADHML@?$AAC?$AAa?$AAl?$AAl?$IP?$JDQez?oS?cr?$LG?$GA?$ABg?e?$IL?b?$AA?$AA@ DB 'C'
	DB	00H, 'a', 00H, 'l', 00H, 'l', 00H, 093H, 08fH, 'eQ', 0efH, 'z', 0e3H
	DB	'S', 0b6H, 'r', 01H, '`', 0e5H, 'g', 0e2H, 08bH, 00H, 00H ; `string'
CONST	ENDS
;	COMDAT ??_C@_1BA@OHKOBPDP@z?oS?c?$AA7?$IP?$JDQeQs?$JF?m?$AA?$AA@
CONST	SEGMENT
??_C@_1BA@OHKOBPDP@z?oS?c?$AA7?$IP?$JDQeQs?$JF?m?$AA?$AA@ DB 0efH, 'z', 0e3H
	DB	'S7', 00H, 093H, 08fH, 'eQsQ', 0edH, 095H, 00H, 00H ; `string'
CONST	ENDS
;	COMDAT ??_C@_1BA@LOKOFCCM@z?oS?c?$AA7?$IP?$JDQebS_?$AA?$AA?$AA@
CONST	SEGMENT
??_C@_1BA@LOKOFCCM@z?oS?c?$AA7?$IP?$JDQebS_?$AA?$AA?$AA@ DB 0efH, 'z', 0e3H
	DB	'S7', 00H, 093H, 08fH, 'eQSb', 00H, '_', 00H, 00H ; `string'
CONST	ENDS
;	COMDAT ??_C@_1BA@HMALFDFA@z?oS?c?$AA6?$IP?$JDQeQs?$JF?m?$AA?$AA@
CONST	SEGMENT
??_C@_1BA@HMALFDFA@z?oS?c?$AA6?$IP?$JDQeQs?$JF?m?$AA?$AA@ DB 0efH, 'z', 0e3H
	DB	'S6', 00H, 093H, 08fH, 'eQsQ', 0edH, 095H, 00H, 00H ; `string'
CONST	ENDS
;	COMDAT ??_C@_1BA@CFALBOED@z?oS?c?$AA6?$IP?$JDQebS_?$AA?$AA?$AA@
CONST	SEGMENT
??_C@_1BA@CFALBOED@z?oS?c?$AA6?$IP?$JDQebS_?$AA?$AA?$AA@ DB 0efH, 'z', 0e3H
	DB	'S6', 00H, 093H, 08fH, 'eQSb', 00H, '_', 00H, 00H ; `string'
CONST	ENDS
;	COMDAT ??_C@_1BK@KOBEEECE@?$AAE?$AAa?$AAr?$AA?9?$AAL?$IP?$JDQeQs?$JF?m?$AAO?$AAL?$AAD?$AA?$AA@
CONST	SEGMENT
??_C@_1BK@KOBEEECE@?$AAE?$AAa?$AAr?$AA?9?$AAL?$IP?$JDQeQs?$JF?m?$AAO?$AAL?$AAD?$AA?$AA@ DB 'E'
	DB	00H, 'a', 00H, 'r', 00H, '-', 00H, 'L', 00H, 093H, 08fH, 'eQsQ'
	DB	0edH, 095H, 'O', 00H, 'L', 00H, 'D', 00H, 00H, 00H ; `string'
CONST	ENDS
;	COMDAT ??_C@_1BK@OIFILNNG@?$AAE?$AAa?$AAr?$AA?9?$AAL?$IP?$JDQebS_?$AA?$AAO?$AAL?$AAD?$AA?$AA@
CONST	SEGMENT
??_C@_1BK@OIFILNNG@?$AAE?$AAa?$AAr?$AA?9?$AAL?$IP?$JDQebS_?$AA?$AAO?$AAL?$AAD?$AA?$AA@ DB 'E'
	DB	00H, 'a', 00H, 'r', 00H, '-', 00H, 'L', 00H, 093H, 08fH, 'eQSb'
	DB	00H, '_O', 00H, 'L', 00H, 'D', 00H, 00H, 00H	; `string'
CONST	ENDS
;	COMDAT ??_C@_1BK@JJJKAKLF@?$AAE?$AAa?$AAr?$AA?9?$AAR?$IP?$JDQeQs?$JF?m?$AAO?$AAL?$AAD?$AA?$AA@
CONST	SEGMENT
??_C@_1BK@JJJKAKLF@?$AAE?$AAa?$AAr?$AA?9?$AAR?$IP?$JDQeQs?$JF?m?$AAO?$AAL?$AAD?$AA?$AA@ DB 'E'
	DB	00H, 'a', 00H, 'r', 00H, '-', 00H, 'R', 00H, 093H, 08fH, 'eQsQ'
	DB	0edH, 095H, 'O', 00H, 'L', 00H, 'D', 00H, 00H, 00H ; `string'
CONST	ENDS
;	COMDAT ??_C@_1BK@NPNGPDEH@?$AAE?$AAa?$AAr?$AA?9?$AAR?$IP?$JDQebS_?$AA?$AAO?$AAL?$AAD?$AA?$AA@
CONST	SEGMENT
??_C@_1BK@NPNGPDEH@?$AAE?$AAa?$AAr?$AA?9?$AAR?$IP?$JDQebS_?$AA?$AAO?$AAL?$AAD?$AA?$AA@ DB 'E'
	DB	00H, 'a', 00H, 'r', 00H, '-', 00H, 'R', 00H, 093H, 08fH, 'eQSb'
	DB	00H, '_O', 00H, 'L', 00H, 'D', 00H, 00H, 00H	; `string'
CONST	ENDS
;	COMDAT ??_C@_1BE@FEPEMCEE@c?1?$FLP?$IP?$JDQeQs?$JF?m?$AAO?$AAL?$AAD?$AA?$AA@
CONST	SEGMENT
??_C@_1BE@FEPEMCEE@c?1?$FLP?$IP?$JDQeQs?$JF?m?$AAO?$AAL?$AAD?$AA?$AA@ DB '/'
	DB	'cP[', 093H, 08fH, 'eQsQ', 0edH, 095H, 'O', 00H, 'L', 00H, 'D', 00H
	DB	00H, 00H					; `string'
CONST	ENDS
;	COMDAT ??_C@_1BE@BCLIDLLG@c?1?$FLP?$IP?$JDQebS_?$AA?$AAO?$AAL?$AAD?$AA?$AA@
CONST	SEGMENT
??_C@_1BE@BCLIDLLG@c?1?$FLP?$IP?$JDQebS_?$AA?$AAO?$AAL?$AAD?$AA?$AA@ DB '/'
	DB	'cP[', 093H, 08fH, 'eQSb', 00H, '_O', 00H, 'L', 00H, 'D', 00H, 00H
	DB	00H						; `string'
CONST	ENDS
;	COMDAT ??_C@_1BG@POKHNMIG@?$AAS?$AAP?$AAK?$IP?$JDQeQs?$JF?m?$AAO?$AAL?$AAD?$AA?$AA@
CONST	SEGMENT
??_C@_1BG@POKHNMIG@?$AAS?$AAP?$AAK?$IP?$JDQeQs?$JF?m?$AAO?$AAL?$AAD?$AA?$AA@ DB 'S'
	DB	00H, 'P', 00H, 'K', 00H, 093H, 08fH, 'eQsQ', 0edH, 095H, 'O', 00H
	DB	'L', 00H, 'D', 00H, 00H, 00H			; `string'
CONST	ENDS
;	COMDAT ??_C@_1BG@LIOLCFHE@?$AAS?$AAP?$AAK?$IP?$JDQebS_?$AA?$AAO?$AAL?$AAD?$AA?$AA@
CONST	SEGMENT
??_C@_1BG@LIOLCFHE@?$AAS?$AAP?$AAK?$IP?$JDQebS_?$AA?$AAO?$AAL?$AAD?$AA?$AA@ DB 'S'
	DB	00H, 'P', 00H, 'K', 00H, 093H, 08fH, 'eQSb', 00H, '_O', 00H, 'L'
	DB	00H, 'D', 00H, 00H, 00H			; `string'
CONST	ENDS
;	COMDAT ??_C@_1BI@NOPEOLLA@?$AAC?$AAA?$AAL?$AAL?$IP?$JDQeQs?$JF?m?$AAO?$AAL?$AAD?$AA?$AA@
CONST	SEGMENT
??_C@_1BI@NOPEOLLA@?$AAC?$AAA?$AAL?$AAL?$IP?$JDQeQs?$JF?m?$AAO?$AAL?$AAD?$AA?$AA@ DB 'C'
	DB	00H, 'A', 00H, 'L', 00H, 'L', 00H, 093H, 08fH, 'eQsQ', 0edH, 095H
	DB	'O', 00H, 'L', 00H, 'D', 00H, 00H, 00H	; `string'
CONST	ENDS
;	COMDAT ??_C@_1BI@JILIBCEC@?$AAC?$AAA?$AAL?$AAL?$IP?$JDQebS_?$AA?$AAO?$AAL?$AAD?$AA?$AA@
CONST	SEGMENT
??_C@_1BI@JILIBCEC@?$AAC?$AAA?$AAL?$AAL?$IP?$JDQebS_?$AA?$AAO?$AAL?$AAD?$AA?$AA@ DB 'C'
	DB	00H, 'A', 00H, 'L', 00H, 'L', 00H, 093H, 08fH, 'eQSb', 00H, '_'
	DB	'O', 00H, 'L', 00H, 'D', 00H, 00H, 00H	; `string'
CONST	ENDS
;	COMDAT ??_C@_1BE@EAPMLJIB@z?oS?c?$AA3?$IP?$JDQ?zr?$LG?$GA?$ABg?e?$IL?b?$AA?$AA@
CONST	SEGMENT
??_C@_1BE@EAPMLJIB@z?oS?c?$AA3?$IP?$JDQ?zr?$LG?$GA?$ABg?e?$IL?b?$AA?$AA@ DB 0efH
	DB	'z', 0e3H, 'S3', 00H, 093H, 08fH, 0faH, 'Q', 0b6H, 'r', 01H, '`'
	DB	0e5H, 'g', 0e2H, 08bH, 00H, 00H		; `string'
CONST	ENDS
;	COMDAT ??_C@_1BI@JFIGEOA@?$AAM?$AAI?$AAC?$IP?$JDQ?zz?oS?cr?$LG?$GA?$ABg?e?$IL?b?$AA?$AA@
CONST	SEGMENT
??_C@_1BI@JFIGEOA@?$AAM?$AAI?$AAC?$IP?$JDQ?zz?oS?cr?$LG?$GA?$ABg?e?$IL?b?$AA?$AA@ DB 'M'
	DB	00H, 'I', 00H, 'C', 00H, 093H, 08fH, 0faH, 'Q', 0efH, 'z', 0e3H
	DB	'S', 0b6H, 'r', 01H, '`', 0e5H, 'g', 0e2H, 08bH, 00H, 00H ; `string'
CONST	ENDS
;	COMDAT ??_C@_1CA@NHFOFAEC@?$AAE?$AAa?$AAr?$AA?9?$AAM?$AAI?$AAC?$IP?$JDQ?zz?oS?cr?$LG?$GA?$ABg?e?$IL?b?$AA?$AA@
CONST	SEGMENT
??_C@_1CA@NHFOFAEC@?$AAE?$AAa?$AAr?$AA?9?$AAM?$AAI?$AAC?$IP?$JDQ?zz?oS?cr?$LG?$GA?$ABg?e?$IL?b?$AA?$AA@ DB 'E'
	DB	00H, 'a', 00H, 'r', 00H, '-', 00H, 'M', 00H, 'I', 00H, 'C', 00H
	DB	093H, 08fH, 0faH, 'Q', 0efH, 'z', 0e3H, 'S', 0b6H, 'r', 01H, '`'
	DB	0e5H, 'g', 0e2H, 08bH, 00H, 00H		; `string'
CONST	ENDS
;	COMDAT ??_C@_1BA@BCAIICBN@z?oS?c?$AA3?$IP?$JDQ?zQs?$JF?m?$AA?$AA@
CONST	SEGMENT
??_C@_1BA@BCAIICBN@z?oS?c?$AA3?$IP?$JDQ?zQs?$JF?m?$AA?$AA@ DB 0efH, 'z', 0e3H
	DB	'S3', 00H, 093H, 08fH, 0faH, 'QsQ', 0edH, 095H, 00H, 00H ; `string'
CONST	ENDS
;	COMDAT ??_C@_1BA@ELAIMPAO@z?oS?c?$AA3?$IP?$JDQ?zbS_?$AA?$AA?$AA@
CONST	SEGMENT
??_C@_1BA@ELAIMPAO@z?oS?c?$AA3?$IP?$JDQ?zbS_?$AA?$AA?$AA@ DB 0efH, 'z', 0e3H
	DB	'S3', 00H, 093H, 08fH, 0faH, 'QSb', 00H, '_', 00H, 00H ; `string'
CONST	ENDS
;	COMDAT ??_C@_1BG@CAJMGFOC@?$AAM?$AAI?$AAC?$IP?$JDQ?zQs?$JF?m?$AAO?$AAL?$AAD?$AA?$AA@
CONST	SEGMENT
??_C@_1BG@CAJMGFOC@?$AAM?$AAI?$AAC?$IP?$JDQ?zQs?$JF?m?$AAO?$AAL?$AAD?$AA?$AA@ DB 'M'
	DB	00H, 'I', 00H, 'C', 00H, 093H, 08fH, 0faH, 'QsQ', 0edH, 095H, 'O'
	DB	00H, 'L', 00H, 'D', 00H, 00H, 00H		; `string'
CONST	ENDS
;	COMDAT ??_C@_1BG@GGNAJMBA@?$AAM?$AAI?$AAC?$IP?$JDQ?zbS_?$AA?$AAO?$AAL?$AAD?$AA?$AA@
CONST	SEGMENT
??_C@_1BG@GGNAJMBA@?$AAM?$AAI?$AAC?$IP?$JDQ?zbS_?$AA?$AAO?$AAL?$AAD?$AA?$AA@ DB 'M'
	DB	00H, 'I', 00H, 'C', 00H, 093H, 08fH, 0faH, 'QSb', 00H, '_O', 00H
	DB	'L', 00H, 'D', 00H, 00H, 00H			; `string'
CONST	ENDS
;	COMDAT ??_C@_1BO@DHAJJEBC@?$AAE?$AAa?$AAr?$AA?9?$AAM?$AAI?$AAC?$IP?$JDQ?zQs?$JF?m?$AAO?$AAL?$AAD?$AA?$AA@
CONST	SEGMENT
??_C@_1BO@DHAJJEBC@?$AAE?$AAa?$AAr?$AA?9?$AAM?$AAI?$AAC?$IP?$JDQ?zQs?$JF?m?$AAO?$AAL?$AAD?$AA?$AA@ DB 'E'
	DB	00H, 'a', 00H, 'r', 00H, '-', 00H, 'M', 00H, 'I', 00H, 'C', 00H
	DB	093H, 08fH, 0faH, 'QsQ', 0edH, 095H, 'O', 00H, 'L', 00H, 'D', 00H
	DB	00H, 00H					; `string'
CONST	ENDS
;	COMDAT ??_C@_1BO@HBEFGNOA@?$AAE?$AAa?$AAr?$AA?9?$AAM?$AAI?$AAC?$IP?$JDQ?zbS_?$AA?$AAO?$AAL?$AAD?$AA?$AA@
CONST	SEGMENT
??_C@_1BO@HBEFGNOA@?$AAE?$AAa?$AAr?$AA?9?$AAM?$AAI?$AAC?$IP?$JDQ?zbS_?$AA?$AAO?$AAL?$AAD?$AA?$AA@ DB 'E'
	DB	00H, 'a', 00H, 'r', 00H, '-', 00H, 'M', 00H, 'I', 00H, 'C', 00H
	DB	093H, 08fH, 0faH, 'QSb', 00H, '_O', 00H, 'L', 00H, 'D', 00H, 00H
	DB	00H						; `string'
CONST	ENDS
;	COMDAT ??_C@_1O@JFCOMPKO@Qs?$JF?mO?aS?wN?$KHu?$BP?$AA?$AA@
CONST	SEGMENT
??_C@_1O@JFCOMPKO@Qs?$JF?mO?aS?wN?$KHu?$BP?$AA?$AA@ DB 'sQ', 0edH, 095H, 0e1H
	DB	'O', 0f7H, 'S', 0a7H, 'N', 01fH, 'u', 00H, 00H ; `string'
CONST	ENDS
;	COMDAT ??_C@_1M@PACLNHIB@?$AA1?$AA0?$AAK?$AAH?$AAz?$AA?$AA@
CONST	SEGMENT
??_C@_1M@PACLNHIB@?$AA1?$AA0?$AAK?$AAH?$AAz?$AA?$AA@ DB '1', 00H, '0', 00H
	DB	'K', 00H, 'H', 00H, 'z', 00H, 00H, 00H	; `string'
CONST	ENDS
;	COMDAT ??_C@_19BNBMILH@?$AA5?$AAK?$AAH?$AAz?$AA?$AA@
CONST	SEGMENT
??_C@_19BNBMILH@?$AA5?$AAK?$AAH?$AAz?$AA?$AA@ DB '5', 00H, 'K', 00H, 'H', 00H
	DB	'z', 00H, 00H, 00H				; `string'
CONST	ENDS
;	COMDAT ??_C@_19IDKGIMN@?$AA1?$AAK?$AAH?$AAz?$AA?$AA@
CONST	SEGMENT
??_C@_19IDKGIMN@?$AA1?$AAK?$AAH?$AAz?$AA?$AA@ DB '1', 00H, 'K', 00H, 'H', 00H
	DB	'z', 00H, 00H, 00H				; `string'
CONST	ENDS
;	COMDAT ??_C@_1BC@IMLEBOJD@g?e?$IL?bS?o?$IM?$ADu5n?$JAr?$LG?$GA?$AB?$AA?$AA@
CONST	SEGMENT
??_C@_1BC@IMLEBOJD@g?e?$IL?bS?o?$IM?$ADu5n?$JAr?$LG?$GA?$AB?$AA?$AA@ DB 0e5H
	DB	'g', 0e2H, 08bH, 0efH, 'S', 03H, 08cH, '5u', 090H, 'n', 0b6H, 'r'
	DB	01H, '`', 00H, 00H				; `string'
CONST	ENDS
;	COMDAT ??_C@_1M@OAEHLIIE@?$AA5?$AAVu5n?$JAQs?$AA?$AA@
CONST	SEGMENT
??_C@_1M@OAEHLIIE@?$AA5?$AAVu5n?$JAQs?$AA?$AA@ DB '5', 00H, 'V', 00H, '5u'
	DB	090H, 'nsQ', 00H, 00H			; `string'
CONST	ENDS
;	COMDAT ??_C@_1M@JDFDJKPM@?$AA5?$AAVu5n?$JA_?$AA?$AA?$AA@
CONST	SEGMENT
??_C@_1M@JDFDJKPM@?$AA5?$AAVu5n?$JA_?$AA?$AA?$AA@ DB '5', 00H, 'V', 00H, '5'
	DB	'u', 090H, 'n', 00H, '_', 00H, 00H		; `string'
CONST	ENDS
;	COMDAT ??_C@_19GMDECDPE@u5S?$IL?$IM?$ADet?$AA?$AA@
CONST	SEGMENT
??_C@_19GMDECDPE@u5S?$IL?$IM?$ADet?$AA?$AA@ DB '5u', 08bH, 'S', 03H, 08cH
	DB	'te', 00H, 00H				; `string'
CONST	ENDS
;	COMDAT ??_C@_19JCNDCNPG@Q?$JJQeepcn?$AA?$AA@
CONST	SEGMENT
??_C@_19JCNDCNPG@Q?$JJQeepcn?$AA?$AA@ DB 099H, 'QeQpenc', 00H, 00H ; `string'
CONST	ENDS
;	COMDAT ??_C@_19DAEIJEEB@?$IL?$PLQ?zepcn?$AA?$AA@
CONST	SEGMENT
??_C@_19DAEIJEEB@?$IL?$PLQ?zepcn?$AA?$AA@ DB 0fbH, 08bH, 0faH, 'Qpenc', 00H
	DB	00H						; `string'
CONST	ENDS
;	COMDAT xdata$x
xdata$x	SEGMENT
__ehfuncinfo$??__EstrDeviceDescription@@YAXXZ DD 019930522H
	DD	0b2H
	DD	FLAT:__unwindtable$??__EstrDeviceDescription@@YAXXZ
	DD	2 DUP(00H)
	DD	2 DUP(00H)
	DD	00H
	DD	01H
__unwindtable$??__EstrDeviceDescription@@YAXXZ DD 0ffffffffH
	DD	FLAT:__unwindfunclet$??__EstrDeviceDescription@@YAXXZ$0
	DD	00H
	DD	FLAT:__unwindfunclet$??__EstrDeviceDescription@@YAXXZ$1
	DD	01H
	DD	FLAT:__unwindfunclet$??__EstrDeviceDescription@@YAXXZ$2
	DD	02H
	DD	FLAT:__unwindfunclet$??__EstrDeviceDescription@@YAXXZ$3
	DD	03H
	DD	FLAT:__unwindfunclet$??__EstrDeviceDescription@@YAXXZ$4
	DD	04H
	DD	FLAT:__unwindfunclet$??__EstrDeviceDescription@@YAXXZ$5
	DD	05H
	DD	FLAT:__unwindfunclet$??__EstrDeviceDescription@@YAXXZ$6
	DD	06H
	DD	FLAT:__unwindfunclet$??__EstrDeviceDescription@@YAXXZ$7
	DD	07H
	DD	FLAT:__unwindfunclet$??__EstrDeviceDescription@@YAXXZ$8
	DD	08H
	DD	FLAT:__unwindfunclet$??__EstrDeviceDescription@@YAXXZ$9
	DD	09H
	DD	FLAT:__unwindfunclet$??__EstrDeviceDescription@@YAXXZ$10
	DD	0aH
	DD	FLAT:__unwindfunclet$??__EstrDeviceDescription@@YAXXZ$11
	DD	0bH
	DD	FLAT:__unwindfunclet$??__EstrDeviceDescription@@YAXXZ$12
	DD	0cH
	DD	FLAT:__unwindfunclet$??__EstrDeviceDescription@@YAXXZ$13
	DD	0dH
	DD	FLAT:__unwindfunclet$??__EstrDeviceDescription@@YAXXZ$14
	DD	0eH
	DD	FLAT:__unwindfunclet$??__EstrDeviceDescription@@YAXXZ$15
	DD	0fH
	DD	FLAT:__unwindfunclet$??__EstrDeviceDescription@@YAXXZ$16
	DD	010H
	DD	FLAT:__unwindfunclet$??__EstrDeviceDescription@@YAXXZ$17
	DD	011H
	DD	FLAT:__unwindfunclet$??__EstrDeviceDescription@@YAXXZ$18
	DD	012H
	DD	FLAT:__unwindfunclet$??__EstrDeviceDescription@@YAXXZ$19
	DD	013H
	DD	FLAT:__unwindfunclet$??__EstrDeviceDescription@@YAXXZ$20
	DD	014H
	DD	FLAT:__unwindfunclet$??__EstrDeviceDescription@@YAXXZ$21
	DD	015H
	DD	FLAT:__unwindfunclet$??__EstrDeviceDescription@@YAXXZ$22
	DD	016H
	DD	FLAT:__unwindfunclet$??__EstrDeviceDescription@@YAXXZ$23
	DD	017H
	DD	FLAT:__unwindfunclet$??__EstrDeviceDescription@@YAXXZ$24
	DD	018H
	DD	FLAT:__unwindfunclet$??__EstrDeviceDescription@@YAXXZ$25
	DD	019H
	DD	FLAT:__unwindfunclet$??__EstrDeviceDescription@@YAXXZ$26
	DD	01aH
	DD	FLAT:__unwindfunclet$??__EstrDeviceDescription@@YAXXZ$27
	DD	01bH
	DD	FLAT:__unwindfunclet$??__EstrDeviceDescription@@YAXXZ$28
	DD	01cH
	DD	FLAT:__unwindfunclet$??__EstrDeviceDescription@@YAXXZ$29
	DD	01dH
	DD	FLAT:__unwindfunclet$??__EstrDeviceDescription@@YAXXZ$30
	DD	01eH
	DD	FLAT:__unwindfunclet$??__EstrDeviceDescription@@YAXXZ$31
	DD	01fH
	DD	FLAT:__unwindfunclet$??__EstrDeviceDescription@@YAXXZ$32
	DD	020H
	DD	FLAT:__unwindfunclet$??__EstrDeviceDescription@@YAXXZ$33
	DD	021H
	DD	FLAT:__unwindfunclet$??__EstrDeviceDescription@@YAXXZ$34
	DD	022H
	DD	FLAT:__unwindfunclet$??__EstrDeviceDescription@@YAXXZ$35
	DD	023H
	DD	FLAT:__unwindfunclet$??__EstrDeviceDescription@@YAXXZ$36
	DD	024H
	DD	FLAT:__unwindfunclet$??__EstrDeviceDescription@@YAXXZ$37
	DD	025H
	DD	FLAT:__unwindfunclet$??__EstrDeviceDescription@@YAXXZ$38
	DD	026H
	DD	FLAT:__unwindfunclet$??__EstrDeviceDescription@@YAXXZ$39
	DD	027H
	DD	FLAT:__unwindfunclet$??__EstrDeviceDescription@@YAXXZ$40
	DD	028H
	DD	FLAT:__unwindfunclet$??__EstrDeviceDescription@@YAXXZ$41
	DD	029H
	DD	FLAT:__unwindfunclet$??__EstrDeviceDescription@@YAXXZ$42
	DD	02aH
	DD	FLAT:__unwindfunclet$??__EstrDeviceDescription@@YAXXZ$43
	DD	02bH
	DD	FLAT:__unwindfunclet$??__EstrDeviceDescription@@YAXXZ$44
	DD	02cH
	DD	FLAT:__unwindfunclet$??__EstrDeviceDescription@@YAXXZ$45
	DD	02dH
	DD	FLAT:__unwindfunclet$??__EstrDeviceDescription@@YAXXZ$46
	DD	02eH
	DD	FLAT:__unwindfunclet$??__EstrDeviceDescription@@YAXXZ$47
	DD	02fH
	DD	FLAT:__unwindfunclet$??__EstrDeviceDescription@@YAXXZ$48
	DD	030H
	DD	FLAT:__unwindfunclet$??__EstrDeviceDescription@@YAXXZ$49
	DD	031H
	DD	FLAT:__unwindfunclet$??__EstrDeviceDescription@@YAXXZ$50
	DD	032H
	DD	FLAT:__unwindfunclet$??__EstrDeviceDescription@@YAXXZ$51
	DD	033H
	DD	FLAT:__unwindfunclet$??__EstrDeviceDescription@@YAXXZ$52
	DD	034H
	DD	FLAT:__unwindfunclet$??__EstrDeviceDescription@@YAXXZ$53
	DD	035H
	DD	FLAT:__unwindfunclet$??__EstrDeviceDescription@@YAXXZ$54
	DD	036H
	DD	FLAT:__unwindfunclet$??__EstrDeviceDescription@@YAXXZ$55
	DD	037H
	DD	FLAT:__unwindfunclet$??__EstrDeviceDescription@@YAXXZ$56
	DD	038H
	DD	FLAT:__unwindfunclet$??__EstrDeviceDescription@@YAXXZ$57
	DD	039H
	DD	FLAT:__unwindfunclet$??__EstrDeviceDescription@@YAXXZ$58
	DD	03aH
	DD	FLAT:__unwindfunclet$??__EstrDeviceDescription@@YAXXZ$59
	DD	03bH
	DD	FLAT:__unwindfunclet$??__EstrDeviceDescription@@YAXXZ$60
	DD	03cH
	DD	FLAT:__unwindfunclet$??__EstrDeviceDescription@@YAXXZ$61
	DD	03dH
	DD	FLAT:__unwindfunclet$??__EstrDeviceDescription@@YAXXZ$62
	DD	03eH
	DD	FLAT:__unwindfunclet$??__EstrDeviceDescription@@YAXXZ$63
	DD	03fH
	DD	FLAT:__unwindfunclet$??__EstrDeviceDescription@@YAXXZ$64
	DD	040H
	DD	FLAT:__unwindfunclet$??__EstrDeviceDescription@@YAXXZ$65
	DD	041H
	DD	FLAT:__unwindfunclet$??__EstrDeviceDescription@@YAXXZ$66
	DD	042H
	DD	FLAT:__unwindfunclet$??__EstrDeviceDescription@@YAXXZ$67
	DD	043H
	DD	FLAT:__unwindfunclet$??__EstrDeviceDescription@@YAXXZ$68
	DD	044H
	DD	FLAT:__unwindfunclet$??__EstrDeviceDescription@@YAXXZ$69
	DD	045H
	DD	FLAT:__unwindfunclet$??__EstrDeviceDescription@@YAXXZ$70
	DD	046H
	DD	FLAT:__unwindfunclet$??__EstrDeviceDescription@@YAXXZ$71
	DD	047H
	DD	FLAT:__unwindfunclet$??__EstrDeviceDescription@@YAXXZ$72
	DD	048H
	DD	FLAT:__unwindfunclet$??__EstrDeviceDescription@@YAXXZ$73
	DD	049H
	DD	FLAT:__unwindfunclet$??__EstrDeviceDescription@@YAXXZ$74
	DD	04aH
	DD	FLAT:__unwindfunclet$??__EstrDeviceDescription@@YAXXZ$75
	DD	04bH
	DD	FLAT:__unwindfunclet$??__EstrDeviceDescription@@YAXXZ$76
	DD	04cH
	DD	FLAT:__unwindfunclet$??__EstrDeviceDescription@@YAXXZ$77
	DD	04dH
	DD	FLAT:__unwindfunclet$??__EstrDeviceDescription@@YAXXZ$78
	DD	04eH
	DD	FLAT:__unwindfunclet$??__EstrDeviceDescription@@YAXXZ$79
	DD	04fH
	DD	FLAT:__unwindfunclet$??__EstrDeviceDescription@@YAXXZ$80
	DD	050H
	DD	FLAT:__unwindfunclet$??__EstrDeviceDescription@@YAXXZ$81
	DD	051H
	DD	FLAT:__unwindfunclet$??__EstrDeviceDescription@@YAXXZ$82
	DD	052H
	DD	FLAT:__unwindfunclet$??__EstrDeviceDescription@@YAXXZ$83
	DD	053H
	DD	FLAT:__unwindfunclet$??__EstrDeviceDescription@@YAXXZ$84
	DD	054H
	DD	FLAT:__unwindfunclet$??__EstrDeviceDescription@@YAXXZ$85
	DD	055H
	DD	FLAT:__unwindfunclet$??__EstrDeviceDescription@@YAXXZ$86
	DD	056H
	DD	FLAT:__unwindfunclet$??__EstrDeviceDescription@@YAXXZ$87
	DD	057H
	DD	FLAT:__unwindfunclet$??__EstrDeviceDescription@@YAXXZ$88
	DD	058H
	DD	FLAT:__unwindfunclet$??__EstrDeviceDescription@@YAXXZ$89
	DD	059H
	DD	FLAT:__unwindfunclet$??__EstrDeviceDescription@@YAXXZ$90
	DD	05aH
	DD	FLAT:__unwindfunclet$??__EstrDeviceDescription@@YAXXZ$91
	DD	05bH
	DD	FLAT:__unwindfunclet$??__EstrDeviceDescription@@YAXXZ$92
	DD	05cH
	DD	FLAT:__unwindfunclet$??__EstrDeviceDescription@@YAXXZ$93
	DD	05dH
	DD	FLAT:__unwindfunclet$??__EstrDeviceDescription@@YAXXZ$94
	DD	05eH
	DD	FLAT:__unwindfunclet$??__EstrDeviceDescription@@YAXXZ$95
	DD	05fH
	DD	FLAT:__unwindfunclet$??__EstrDeviceDescription@@YAXXZ$96
	DD	060H
	DD	FLAT:__unwindfunclet$??__EstrDeviceDescription@@YAXXZ$97
	DD	061H
	DD	FLAT:__unwindfunclet$??__EstrDeviceDescription@@YAXXZ$98
	DD	062H
	DD	FLAT:__unwindfunclet$??__EstrDeviceDescription@@YAXXZ$99
	DD	063H
	DD	FLAT:__unwindfunclet$??__EstrDeviceDescription@@YAXXZ$100
	DD	064H
	DD	FLAT:__unwindfunclet$??__EstrDeviceDescription@@YAXXZ$101
	DD	065H
	DD	FLAT:__unwindfunclet$??__EstrDeviceDescription@@YAXXZ$102
	DD	066H
	DD	FLAT:__unwindfunclet$??__EstrDeviceDescription@@YAXXZ$103
	DD	067H
	DD	FLAT:__unwindfunclet$??__EstrDeviceDescription@@YAXXZ$104
	DD	068H
	DD	FLAT:__unwindfunclet$??__EstrDeviceDescription@@YAXXZ$105
	DD	069H
	DD	FLAT:__unwindfunclet$??__EstrDeviceDescription@@YAXXZ$106
	DD	06aH
	DD	FLAT:__unwindfunclet$??__EstrDeviceDescription@@YAXXZ$107
	DD	06bH
	DD	FLAT:__unwindfunclet$??__EstrDeviceDescription@@YAXXZ$108
	DD	06cH
	DD	FLAT:__unwindfunclet$??__EstrDeviceDescription@@YAXXZ$109
	DD	06dH
	DD	FLAT:__unwindfunclet$??__EstrDeviceDescription@@YAXXZ$110
	DD	06eH
	DD	FLAT:__unwindfunclet$??__EstrDeviceDescription@@YAXXZ$111
	DD	06fH
	DD	FLAT:__unwindfunclet$??__EstrDeviceDescription@@YAXXZ$112
	DD	070H
	DD	FLAT:__unwindfunclet$??__EstrDeviceDescription@@YAXXZ$113
	DD	071H
	DD	FLAT:__unwindfunclet$??__EstrDeviceDescription@@YAXXZ$114
	DD	072H
	DD	FLAT:__unwindfunclet$??__EstrDeviceDescription@@YAXXZ$115
	DD	073H
	DD	FLAT:__unwindfunclet$??__EstrDeviceDescription@@YAXXZ$116
	DD	074H
	DD	FLAT:__unwindfunclet$??__EstrDeviceDescription@@YAXXZ$117
	DD	075H
	DD	FLAT:__unwindfunclet$??__EstrDeviceDescription@@YAXXZ$118
	DD	076H
	DD	FLAT:__unwindfunclet$??__EstrDeviceDescription@@YAXXZ$119
	DD	077H
	DD	FLAT:__unwindfunclet$??__EstrDeviceDescription@@YAXXZ$120
	DD	078H
	DD	FLAT:__unwindfunclet$??__EstrDeviceDescription@@YAXXZ$121
	DD	079H
	DD	FLAT:__unwindfunclet$??__EstrDeviceDescription@@YAXXZ$122
	DD	07aH
	DD	FLAT:__unwindfunclet$??__EstrDeviceDescription@@YAXXZ$123
	DD	07bH
	DD	FLAT:__unwindfunclet$??__EstrDeviceDescription@@YAXXZ$124
	DD	07cH
	DD	FLAT:__unwindfunclet$??__EstrDeviceDescription@@YAXXZ$125
	DD	07dH
	DD	FLAT:__unwindfunclet$??__EstrDeviceDescription@@YAXXZ$126
	DD	07eH
	DD	FLAT:__unwindfunclet$??__EstrDeviceDescription@@YAXXZ$127
	DD	07fH
	DD	FLAT:__unwindfunclet$??__EstrDeviceDescription@@YAXXZ$128
	DD	080H
	DD	FLAT:__unwindfunclet$??__EstrDeviceDescription@@YAXXZ$129
	DD	081H
	DD	FLAT:__unwindfunclet$??__EstrDeviceDescription@@YAXXZ$130
	DD	082H
	DD	FLAT:__unwindfunclet$??__EstrDeviceDescription@@YAXXZ$131
	DD	083H
	DD	FLAT:__unwindfunclet$??__EstrDeviceDescription@@YAXXZ$132
	DD	084H
	DD	FLAT:__unwindfunclet$??__EstrDeviceDescription@@YAXXZ$133
	DD	085H
	DD	FLAT:__unwindfunclet$??__EstrDeviceDescription@@YAXXZ$134
	DD	086H
	DD	FLAT:__unwindfunclet$??__EstrDeviceDescription@@YAXXZ$135
	DD	087H
	DD	FLAT:__unwindfunclet$??__EstrDeviceDescription@@YAXXZ$136
	DD	088H
	DD	FLAT:__unwindfunclet$??__EstrDeviceDescription@@YAXXZ$137
	DD	089H
	DD	FLAT:__unwindfunclet$??__EstrDeviceDescription@@YAXXZ$138
	DD	08aH
	DD	FLAT:__unwindfunclet$??__EstrDeviceDescription@@YAXXZ$139
	DD	08bH
	DD	FLAT:__unwindfunclet$??__EstrDeviceDescription@@YAXXZ$140
	DD	08cH
	DD	FLAT:__unwindfunclet$??__EstrDeviceDescription@@YAXXZ$141
	DD	08dH
	DD	FLAT:__unwindfunclet$??__EstrDeviceDescription@@YAXXZ$142
	DD	08eH
	DD	FLAT:__unwindfunclet$??__EstrDeviceDescription@@YAXXZ$143
	DD	08fH
	DD	FLAT:__unwindfunclet$??__EstrDeviceDescription@@YAXXZ$144
	DD	090H
	DD	FLAT:__unwindfunclet$??__EstrDeviceDescription@@YAXXZ$145
	DD	091H
	DD	FLAT:__unwindfunclet$??__EstrDeviceDescription@@YAXXZ$146
	DD	092H
	DD	FLAT:__unwindfunclet$??__EstrDeviceDescription@@YAXXZ$147
	DD	093H
	DD	FLAT:__unwindfunclet$??__EstrDeviceDescription@@YAXXZ$148
	DD	094H
	DD	FLAT:__unwindfunclet$??__EstrDeviceDescription@@YAXXZ$149
	DD	095H
	DD	FLAT:__unwindfunclet$??__EstrDeviceDescription@@YAXXZ$150
	DD	096H
	DD	FLAT:__unwindfunclet$??__EstrDeviceDescription@@YAXXZ$151
	DD	097H
	DD	FLAT:__unwindfunclet$??__EstrDeviceDescription@@YAXXZ$152
	DD	098H
	DD	FLAT:__unwindfunclet$??__EstrDeviceDescription@@YAXXZ$153
	DD	099H
	DD	FLAT:__unwindfunclet$??__EstrDeviceDescription@@YAXXZ$154
	DD	09aH
	DD	FLAT:__unwindfunclet$??__EstrDeviceDescription@@YAXXZ$155
	DD	09bH
	DD	FLAT:__unwindfunclet$??__EstrDeviceDescription@@YAXXZ$156
	DD	09cH
	DD	FLAT:__unwindfunclet$??__EstrDeviceDescription@@YAXXZ$157
	DD	09dH
	DD	FLAT:__unwindfunclet$??__EstrDeviceDescription@@YAXXZ$158
	DD	09eH
	DD	FLAT:__unwindfunclet$??__EstrDeviceDescription@@YAXXZ$159
	DD	09fH
	DD	FLAT:__unwindfunclet$??__EstrDeviceDescription@@YAXXZ$160
	DD	0a0H
	DD	FLAT:__unwindfunclet$??__EstrDeviceDescription@@YAXXZ$161
	DD	0a1H
	DD	FLAT:__unwindfunclet$??__EstrDeviceDescription@@YAXXZ$162
	DD	0a2H
	DD	FLAT:__unwindfunclet$??__EstrDeviceDescription@@YAXXZ$163
	DD	0a3H
	DD	FLAT:__unwindfunclet$??__EstrDeviceDescription@@YAXXZ$164
	DD	0a4H
	DD	FLAT:__unwindfunclet$??__EstrDeviceDescription@@YAXXZ$165
	DD	0a5H
	DD	FLAT:__unwindfunclet$??__EstrDeviceDescription@@YAXXZ$166
	DD	0a6H
	DD	FLAT:__unwindfunclet$??__EstrDeviceDescription@@YAXXZ$167
	DD	0a7H
	DD	FLAT:__unwindfunclet$??__EstrDeviceDescription@@YAXXZ$168
	DD	0a8H
	DD	FLAT:__unwindfunclet$??__EstrDeviceDescription@@YAXXZ$169
	DD	0a9H
	DD	FLAT:__unwindfunclet$??__EstrDeviceDescription@@YAXXZ$170
	DD	0aaH
	DD	FLAT:__unwindfunclet$??__EstrDeviceDescription@@YAXXZ$171
	DD	0abH
	DD	FLAT:__unwindfunclet$??__EstrDeviceDescription@@YAXXZ$172
	DD	0acH
	DD	FLAT:__unwindfunclet$??__EstrDeviceDescription@@YAXXZ$173
	DD	0adH
	DD	FLAT:__unwindfunclet$??__EstrDeviceDescription@@YAXXZ$174
	DD	0aeH
	DD	FLAT:__unwindfunclet$??__EstrDeviceDescription@@YAXXZ$175
	DD	0afH
	DD	FLAT:__unwindfunclet$??__EstrDeviceDescription@@YAXXZ$176
	DD	0b0H
	DD	FLAT:__unwindfunclet$??__EstrDeviceDescription@@YAXXZ$177
; Function compile flags: /Odtp /RTCsu /ZI
xdata$x	ENDS
;	COMDAT ??__EstrDeviceDescription@@YAXXZ
text$yc	SEGMENT
__$EHRec$ = -12						; size = 12
??__EstrDeviceDescription@@YAXXZ PROC			; `dynamic initializer for 'strDeviceDescription'', COMDAT

; 218  : {

  00000	55		 push	 ebp
  00001	8b ec		 mov	 ebp, esp
  00003	6a ff		 push	 -1
  00005	68 00 00 00 00	 push	 __ehhandler$??__EstrDeviceDescription@@YAXXZ
  0000a	64 a1 00 00 00
	00		 mov	 eax, DWORD PTR fs:0
  00010	50		 push	 eax
  00011	81 ec c0 00 00
	00		 sub	 esp, 192		; 000000c0H
  00017	53		 push	 ebx
  00018	56		 push	 esi
  00019	57		 push	 edi
  0001a	8d bd 34 ff ff
	ff		 lea	 edi, DWORD PTR [ebp-204]
  00020	b9 30 00 00 00	 mov	 ecx, 48			; 00000030H
  00025	b8 cc cc cc cc	 mov	 eax, -858993460		; ccccccccH
  0002a	f3 ab		 rep stosd
  0002c	a1 00 00 00 00	 mov	 eax, DWORD PTR ___security_cookie
  00031	33 c5		 xor	 eax, ebp
  00033	50		 push	 eax
  00034	8d 45 f4	 lea	 eax, DWORD PTR __$EHRec$[ebp]
  00037	64 a3 00 00 00
	00		 mov	 DWORD PTR fs:0, eax

; 219  : 	_T(""),                // DEV_CMD_READ_DATA

  0003d	68 00 00 00 00	 push	 OFFSET ??_C@_19DAEIJEEB@?$IL?$PLQ?zepcn?$AA?$AA@
  00042	b9 00 00 00 00	 mov	 ecx, OFFSET _strDeviceDescription
  00047	e8 00 00 00 00	 call	 ??0?$CStringT@_WV?$StrTraitMFC@_WV?$ChTraitsCRT@_W@ATL@@@@@ATL@@QAE@PB_W@Z ; ATL::CStringT<wchar_t,StrTraitMFC<wchar_t,ATL::ChTraitsCRT<wchar_t> > >::CStringT<wchar_t,StrTraitMFC<wchar_t,ATL::ChTraitsCRT<wchar_t> > >
  0004c	c7 45 fc 00 00
	00 00		 mov	 DWORD PTR __$EHRec$[ebp+8], 0

; 220  : 	_T(""),

  00053	68 00 00 00 00	 push	 OFFSET ??_C@_19JCNDCNPG@Q?$JJQeepcn?$AA?$AA@
  00058	b9 04 00 00 00	 mov	 ecx, OFFSET _strDeviceDescription+4
  0005d	e8 00 00 00 00	 call	 ??0?$CStringT@_WV?$StrTraitMFC@_WV?$ChTraitsCRT@_W@ATL@@@@@ATL@@QAE@PB_W@Z ; ATL::CStringT<wchar_t,StrTraitMFC<wchar_t,ATL::ChTraitsCRT<wchar_t> > >::CStringT<wchar_t,StrTraitMFC<wchar_t,ATL::ChTraitsCRT<wchar_t> > >
  00062	c6 45 fc 01	 mov	 BYTE PTR __$EHRec$[ebp+8], 1

; 221  : 
; 222  : 	_T(""),

  00066	68 00 00 00 00	 push	 OFFSET ??_C@_19GMDECDPE@u5S?$IL?$IM?$ADet?$AA?$AA@
  0006b	b9 08 00 00 00	 mov	 ecx, OFFSET _strDeviceDescription+8
  00070	e8 00 00 00 00	 call	 ??0?$CStringT@_WV?$StrTraitMFC@_WV?$ChTraitsCRT@_W@ATL@@@@@ATL@@QAE@PB_W@Z ; ATL::CStringT<wchar_t,StrTraitMFC<wchar_t,ATL::ChTraitsCRT<wchar_t> > >::CStringT<wchar_t,StrTraitMFC<wchar_t,ATL::ChTraitsCRT<wchar_t> > >
  00075	c6 45 fc 02	 mov	 BYTE PTR __$EHRec$[ebp+8], 2

; 223  : 	_T("5V"),

  00079	68 00 00 00 00	 push	 OFFSET ??_C@_1M@JDFDJKPM@?$AA5?$AAVu5n?$JA_?$AA?$AA?$AA@
  0007e	b9 0c 00 00 00	 mov	 ecx, OFFSET _strDeviceDescription+12
  00083	e8 00 00 00 00	 call	 ??0?$CStringT@_WV?$StrTraitMFC@_WV?$ChTraitsCRT@_W@ATL@@@@@ATL@@QAE@PB_W@Z ; ATL::CStringT<wchar_t,StrTraitMFC<wchar_t,ATL::ChTraitsCRT<wchar_t> > >::CStringT<wchar_t,StrTraitMFC<wchar_t,ATL::ChTraitsCRT<wchar_t> > >
  00088	c6 45 fc 03	 mov	 BYTE PTR __$EHRec$[ebp+8], 3

; 224  : 	_T("5V"),

  0008c	68 00 00 00 00	 push	 OFFSET ??_C@_1M@OAEHLIIE@?$AA5?$AAVu5n?$JAQs?$AA?$AA@
  00091	b9 10 00 00 00	 mov	 ecx, OFFSET _strDeviceDescription+16
  00096	e8 00 00 00 00	 call	 ??0?$CStringT@_WV?$StrTraitMFC@_WV?$ChTraitsCRT@_W@ATL@@@@@ATL@@QAE@PB_W@Z ; ATL::CStringT<wchar_t,StrTraitMFC<wchar_t,ATL::ChTraitsCRT<wchar_t> > >::CStringT<wchar_t,StrTraitMFC<wchar_t,ATL::ChTraitsCRT<wchar_t> > >
  0009b	c6 45 fc 04	 mov	 BYTE PTR __$EHRec$[ebp+8], 4

; 225  : 	_T(""),

  0009f	68 00 00 00 00	 push	 OFFSET ??_C@_1BC@IMLEBOJD@g?e?$IL?bS?o?$IM?$ADu5n?$JAr?$LG?$GA?$AB?$AA?$AA@
  000a4	b9 14 00 00 00	 mov	 ecx, OFFSET _strDeviceDescription+20
  000a9	e8 00 00 00 00	 call	 ??0?$CStringT@_WV?$StrTraitMFC@_WV?$ChTraitsCRT@_W@ATL@@@@@ATL@@QAE@PB_W@Z ; ATL::CStringT<wchar_t,StrTraitMFC<wchar_t,ATL::ChTraitsCRT<wchar_t> > >::CStringT<wchar_t,StrTraitMFC<wchar_t,ATL::ChTraitsCRT<wchar_t> > >
  000ae	c6 45 fc 05	 mov	 BYTE PTR __$EHRec$[ebp+8], 5

; 226  : 
; 227  : 	_T("1KHz"),

  000b2	68 00 00 00 00	 push	 OFFSET ??_C@_19IDKGIMN@?$AA1?$AAK?$AAH?$AAz?$AA?$AA@
  000b7	b9 18 00 00 00	 mov	 ecx, OFFSET _strDeviceDescription+24
  000bc	e8 00 00 00 00	 call	 ??0?$CStringT@_WV?$StrTraitMFC@_WV?$ChTraitsCRT@_W@ATL@@@@@ATL@@QAE@PB_W@Z ; ATL::CStringT<wchar_t,StrTraitMFC<wchar_t,ATL::ChTraitsCRT<wchar_t> > >::CStringT<wchar_t,StrTraitMFC<wchar_t,ATL::ChTraitsCRT<wchar_t> > >
  000c1	c6 45 fc 06	 mov	 BYTE PTR __$EHRec$[ebp+8], 6

; 228  : 	_T("5KHz"),

  000c5	68 00 00 00 00	 push	 OFFSET ??_C@_19BNBMILH@?$AA5?$AAK?$AAH?$AAz?$AA?$AA@
  000ca	b9 1c 00 00 00	 mov	 ecx, OFFSET _strDeviceDescription+28
  000cf	e8 00 00 00 00	 call	 ??0?$CStringT@_WV?$StrTraitMFC@_WV?$ChTraitsCRT@_W@ATL@@@@@ATL@@QAE@PB_W@Z ; ATL::CStringT<wchar_t,StrTraitMFC<wchar_t,ATL::ChTraitsCRT<wchar_t> > >::CStringT<wchar_t,StrTraitMFC<wchar_t,ATL::ChTraitsCRT<wchar_t> > >
  000d4	c6 45 fc 07	 mov	 BYTE PTR __$EHRec$[ebp+8], 7

; 229  : 	_T("10KHz"),

  000d8	68 00 00 00 00	 push	 OFFSET ??_C@_1M@PACLNHIB@?$AA1?$AA0?$AAK?$AAH?$AAz?$AA?$AA@
  000dd	b9 20 00 00 00	 mov	 ecx, OFFSET _strDeviceDescription+32
  000e2	e8 00 00 00 00	 call	 ??0?$CStringT@_WV?$StrTraitMFC@_WV?$ChTraitsCRT@_W@ATL@@@@@ATL@@QAE@PB_W@Z ; ATL::CStringT<wchar_t,StrTraitMFC<wchar_t,ATL::ChTraitsCRT<wchar_t> > >::CStringT<wchar_t,StrTraitMFC<wchar_t,ATL::ChTraitsCRT<wchar_t> > >
  000e7	c6 45 fc 08	 mov	 BYTE PTR __$EHRec$[ebp+8], 8

; 230  : 	_T(""),

  000eb	68 00 00 00 00	 push	 OFFSET ??_C@_1O@JFCOMPKO@Qs?$JF?mO?aS?wN?$KHu?$BP?$AA?$AA@
  000f0	b9 24 00 00 00	 mov	 ecx, OFFSET _strDeviceDescription+36
  000f5	e8 00 00 00 00	 call	 ??0?$CStringT@_WV?$StrTraitMFC@_WV?$ChTraitsCRT@_W@ATL@@@@@ATL@@QAE@PB_W@Z ; ATL::CStringT<wchar_t,StrTraitMFC<wchar_t,ATL::ChTraitsCRT<wchar_t> > >::CStringT<wchar_t,StrTraitMFC<wchar_t,ATL::ChTraitsCRT<wchar_t> > >
  000fa	c6 45 fc 09	 mov	 BYTE PTR __$EHRec$[ebp+8], 9

; 231  : 
; 232  : 	_T("Ear-MICOLD"),

  000fe	68 00 00 00 00	 push	 OFFSET ??_C@_1BO@HBEFGNOA@?$AAE?$AAa?$AAr?$AA?9?$AAM?$AAI?$AAC?$IP?$JDQ?zbS_?$AA?$AAO?$AAL?$AAD?$AA?$AA@
  00103	b9 28 00 00 00	 mov	 ecx, OFFSET _strDeviceDescription+40
  00108	e8 00 00 00 00	 call	 ??0?$CStringT@_WV?$StrTraitMFC@_WV?$ChTraitsCRT@_W@ATL@@@@@ATL@@QAE@PB_W@Z ; ATL::CStringT<wchar_t,StrTraitMFC<wchar_t,ATL::ChTraitsCRT<wchar_t> > >::CStringT<wchar_t,StrTraitMFC<wchar_t,ATL::ChTraitsCRT<wchar_t> > >
  0010d	c6 45 fc 0a	 mov	 BYTE PTR __$EHRec$[ebp+8], 10 ; 0000000aH

; 233  : 	_T("Ear-MICOLD"),

  00111	68 00 00 00 00	 push	 OFFSET ??_C@_1BO@DHAJJEBC@?$AAE?$AAa?$AAr?$AA?9?$AAM?$AAI?$AAC?$IP?$JDQ?zQs?$JF?m?$AAO?$AAL?$AAD?$AA?$AA@
  00116	b9 2c 00 00 00	 mov	 ecx, OFFSET _strDeviceDescription+44
  0011b	e8 00 00 00 00	 call	 ??0?$CStringT@_WV?$StrTraitMFC@_WV?$ChTraitsCRT@_W@ATL@@@@@ATL@@QAE@PB_W@Z ; ATL::CStringT<wchar_t,StrTraitMFC<wchar_t,ATL::ChTraitsCRT<wchar_t> > >::CStringT<wchar_t,StrTraitMFC<wchar_t,ATL::ChTraitsCRT<wchar_t> > >
  00120	c6 45 fc 0b	 mov	 BYTE PTR __$EHRec$[ebp+8], 11 ; 0000000bH

; 234  : 	_T("MICOLD"),

  00124	68 00 00 00 00	 push	 OFFSET ??_C@_1BG@GGNAJMBA@?$AAM?$AAI?$AAC?$IP?$JDQ?zbS_?$AA?$AAO?$AAL?$AAD?$AA?$AA@
  00129	b9 30 00 00 00	 mov	 ecx, OFFSET _strDeviceDescription+48
  0012e	e8 00 00 00 00	 call	 ??0?$CStringT@_WV?$StrTraitMFC@_WV?$ChTraitsCRT@_W@ATL@@@@@ATL@@QAE@PB_W@Z ; ATL::CStringT<wchar_t,StrTraitMFC<wchar_t,ATL::ChTraitsCRT<wchar_t> > >::CStringT<wchar_t,StrTraitMFC<wchar_t,ATL::ChTraitsCRT<wchar_t> > >
  00133	c6 45 fc 0c	 mov	 BYTE PTR __$EHRec$[ebp+8], 12 ; 0000000cH

; 235  : 	_T("MICOLD"),

  00137	68 00 00 00 00	 push	 OFFSET ??_C@_1BG@CAJMGFOC@?$AAM?$AAI?$AAC?$IP?$JDQ?zQs?$JF?m?$AAO?$AAL?$AAD?$AA?$AA@
  0013c	b9 34 00 00 00	 mov	 ecx, OFFSET _strDeviceDescription+52
  00141	e8 00 00 00 00	 call	 ??0?$CStringT@_WV?$StrTraitMFC@_WV?$ChTraitsCRT@_W@ATL@@@@@ATL@@QAE@PB_W@Z ; ATL::CStringT<wchar_t,StrTraitMFC<wchar_t,ATL::ChTraitsCRT<wchar_t> > >::CStringT<wchar_t,StrTraitMFC<wchar_t,ATL::ChTraitsCRT<wchar_t> > >
  00146	c6 45 fc 0d	 mov	 BYTE PTR __$EHRec$[ebp+8], 13 ; 0000000dH

; 236  : 	_T("3"),

  0014a	68 00 00 00 00	 push	 OFFSET ??_C@_1BA@ELAIMPAO@z?oS?c?$AA3?$IP?$JDQ?zbS_?$AA?$AA?$AA@
  0014f	b9 38 00 00 00	 mov	 ecx, OFFSET _strDeviceDescription+56
  00154	e8 00 00 00 00	 call	 ??0?$CStringT@_WV?$StrTraitMFC@_WV?$ChTraitsCRT@_W@ATL@@@@@ATL@@QAE@PB_W@Z ; ATL::CStringT<wchar_t,StrTraitMFC<wchar_t,ATL::ChTraitsCRT<wchar_t> > >::CStringT<wchar_t,StrTraitMFC<wchar_t,ATL::ChTraitsCRT<wchar_t> > >
  00159	c6 45 fc 0e	 mov	 BYTE PTR __$EHRec$[ebp+8], 14 ; 0000000eH

; 237  : 	_T("3"),

  0015d	68 00 00 00 00	 push	 OFFSET ??_C@_1BA@BCAIICBN@z?oS?c?$AA3?$IP?$JDQ?zQs?$JF?m?$AA?$AA@
  00162	b9 3c 00 00 00	 mov	 ecx, OFFSET _strDeviceDescription+60
  00167	e8 00 00 00 00	 call	 ??0?$CStringT@_WV?$StrTraitMFC@_WV?$ChTraitsCRT@_W@ATL@@@@@ATL@@QAE@PB_W@Z ; ATL::CStringT<wchar_t,StrTraitMFC<wchar_t,ATL::ChTraitsCRT<wchar_t> > >::CStringT<wchar_t,StrTraitMFC<wchar_t,ATL::ChTraitsCRT<wchar_t> > >
  0016c	c6 45 fc 0f	 mov	 BYTE PTR __$EHRec$[ebp+8], 15 ; 0000000fH

; 238  : 	_T("Ear-MIC"),

  00170	68 00 00 00 00	 push	 OFFSET ??_C@_1CA@NHFOFAEC@?$AAE?$AAa?$AAr?$AA?9?$AAM?$AAI?$AAC?$IP?$JDQ?zz?oS?cr?$LG?$GA?$ABg?e?$IL?b?$AA?$AA@
  00175	b9 40 00 00 00	 mov	 ecx, OFFSET _strDeviceDescription+64
  0017a	e8 00 00 00 00	 call	 ??0?$CStringT@_WV?$StrTraitMFC@_WV?$ChTraitsCRT@_W@ATL@@@@@ATL@@QAE@PB_W@Z ; ATL::CStringT<wchar_t,StrTraitMFC<wchar_t,ATL::ChTraitsCRT<wchar_t> > >::CStringT<wchar_t,StrTraitMFC<wchar_t,ATL::ChTraitsCRT<wchar_t> > >
  0017f	c6 45 fc 10	 mov	 BYTE PTR __$EHRec$[ebp+8], 16 ; 00000010H

; 239  : 	_T("MIC"),

  00183	68 00 00 00 00	 push	 OFFSET ??_C@_1BI@JFIGEOA@?$AAM?$AAI?$AAC?$IP?$JDQ?zz?oS?cr?$LG?$GA?$ABg?e?$IL?b?$AA?$AA@
  00188	b9 44 00 00 00	 mov	 ecx, OFFSET _strDeviceDescription+68
  0018d	e8 00 00 00 00	 call	 ??0?$CStringT@_WV?$StrTraitMFC@_WV?$ChTraitsCRT@_W@ATL@@@@@ATL@@QAE@PB_W@Z ; ATL::CStringT<wchar_t,StrTraitMFC<wchar_t,ATL::ChTraitsCRT<wchar_t> > >::CStringT<wchar_t,StrTraitMFC<wchar_t,ATL::ChTraitsCRT<wchar_t> > >
  00192	c6 45 fc 11	 mov	 BYTE PTR __$EHRec$[ebp+8], 17 ; 00000011H

; 240  : 	_T("3"),

  00196	68 00 00 00 00	 push	 OFFSET ??_C@_1BE@EAPMLJIB@z?oS?c?$AA3?$IP?$JDQ?zr?$LG?$GA?$ABg?e?$IL?b?$AA?$AA@
  0019b	b9 48 00 00 00	 mov	 ecx, OFFSET _strDeviceDescription+72
  001a0	e8 00 00 00 00	 call	 ??0?$CStringT@_WV?$StrTraitMFC@_WV?$ChTraitsCRT@_W@ATL@@@@@ATL@@QAE@PB_W@Z ; ATL::CStringT<wchar_t,StrTraitMFC<wchar_t,ATL::ChTraitsCRT<wchar_t> > >::CStringT<wchar_t,StrTraitMFC<wchar_t,ATL::ChTraitsCRT<wchar_t> > >
  001a5	c6 45 fc 12	 mov	 BYTE PTR __$EHRec$[ebp+8], 18 ; 00000012H

; 241  : 
; 242  : 	_T("CALLOLD"),	//OLD

  001a9	68 00 00 00 00	 push	 OFFSET ??_C@_1BI@JILIBCEC@?$AAC?$AAA?$AAL?$AAL?$IP?$JDQebS_?$AA?$AAO?$AAL?$AAD?$AA?$AA@
  001ae	b9 4c 00 00 00	 mov	 ecx, OFFSET _strDeviceDescription+76
  001b3	e8 00 00 00 00	 call	 ??0?$CStringT@_WV?$StrTraitMFC@_WV?$ChTraitsCRT@_W@ATL@@@@@ATL@@QAE@PB_W@Z ; ATL::CStringT<wchar_t,StrTraitMFC<wchar_t,ATL::ChTraitsCRT<wchar_t> > >::CStringT<wchar_t,StrTraitMFC<wchar_t,ATL::ChTraitsCRT<wchar_t> > >
  001b8	c6 45 fc 13	 mov	 BYTE PTR __$EHRec$[ebp+8], 19 ; 00000013H

; 243  : 	_T("CALLOLD"),

  001bc	68 00 00 00 00	 push	 OFFSET ??_C@_1BI@NOPEOLLA@?$AAC?$AAA?$AAL?$AAL?$IP?$JDQeQs?$JF?m?$AAO?$AAL?$AAD?$AA?$AA@
  001c1	b9 50 00 00 00	 mov	 ecx, OFFSET _strDeviceDescription+80
  001c6	e8 00 00 00 00	 call	 ??0?$CStringT@_WV?$StrTraitMFC@_WV?$ChTraitsCRT@_W@ATL@@@@@ATL@@QAE@PB_W@Z ; ATL::CStringT<wchar_t,StrTraitMFC<wchar_t,ATL::ChTraitsCRT<wchar_t> > >::CStringT<wchar_t,StrTraitMFC<wchar_t,ATL::ChTraitsCRT<wchar_t> > >
  001cb	c6 45 fc 14	 mov	 BYTE PTR __$EHRec$[ebp+8], 20 ; 00000014H

; 244  : 	_T("SPKOLD"),

  001cf	68 00 00 00 00	 push	 OFFSET ??_C@_1BG@LIOLCFHE@?$AAS?$AAP?$AAK?$IP?$JDQebS_?$AA?$AAO?$AAL?$AAD?$AA?$AA@
  001d4	b9 54 00 00 00	 mov	 ecx, OFFSET _strDeviceDescription+84
  001d9	e8 00 00 00 00	 call	 ??0?$CStringT@_WV?$StrTraitMFC@_WV?$ChTraitsCRT@_W@ATL@@@@@ATL@@QAE@PB_W@Z ; ATL::CStringT<wchar_t,StrTraitMFC<wchar_t,ATL::ChTraitsCRT<wchar_t> > >::CStringT<wchar_t,StrTraitMFC<wchar_t,ATL::ChTraitsCRT<wchar_t> > >
  001de	c6 45 fc 15	 mov	 BYTE PTR __$EHRec$[ebp+8], 21 ; 00000015H

; 245  : 	_T("SPKOLD"),

  001e2	68 00 00 00 00	 push	 OFFSET ??_C@_1BG@POKHNMIG@?$AAS?$AAP?$AAK?$IP?$JDQeQs?$JF?m?$AAO?$AAL?$AAD?$AA?$AA@
  001e7	b9 58 00 00 00	 mov	 ecx, OFFSET _strDeviceDescription+88
  001ec	e8 00 00 00 00	 call	 ??0?$CStringT@_WV?$StrTraitMFC@_WV?$ChTraitsCRT@_W@ATL@@@@@ATL@@QAE@PB_W@Z ; ATL::CStringT<wchar_t,StrTraitMFC<wchar_t,ATL::ChTraitsCRT<wchar_t> > >::CStringT<wchar_t,StrTraitMFC<wchar_t,ATL::ChTraitsCRT<wchar_t> > >
  001f1	c6 45 fc 16	 mov	 BYTE PTR __$EHRec$[ebp+8], 22 ; 00000016H

; 246  : 	_T("OLD"),

  001f5	68 00 00 00 00	 push	 OFFSET ??_C@_1BE@BCLIDLLG@c?1?$FLP?$IP?$JDQebS_?$AA?$AAO?$AAL?$AAD?$AA?$AA@
  001fa	b9 5c 00 00 00	 mov	 ecx, OFFSET _strDeviceDescription+92
  001ff	e8 00 00 00 00	 call	 ??0?$CStringT@_WV?$StrTraitMFC@_WV?$ChTraitsCRT@_W@ATL@@@@@ATL@@QAE@PB_W@Z ; ATL::CStringT<wchar_t,StrTraitMFC<wchar_t,ATL::ChTraitsCRT<wchar_t> > >::CStringT<wchar_t,StrTraitMFC<wchar_t,ATL::ChTraitsCRT<wchar_t> > >
  00204	c6 45 fc 17	 mov	 BYTE PTR __$EHRec$[ebp+8], 23 ; 00000017H

; 247  : 	_T("OLD"),

  00208	68 00 00 00 00	 push	 OFFSET ??_C@_1BE@FEPEMCEE@c?1?$FLP?$IP?$JDQeQs?$JF?m?$AAO?$AAL?$AAD?$AA?$AA@
  0020d	b9 60 00 00 00	 mov	 ecx, OFFSET _strDeviceDescription+96
  00212	e8 00 00 00 00	 call	 ??0?$CStringT@_WV?$StrTraitMFC@_WV?$ChTraitsCRT@_W@ATL@@@@@ATL@@QAE@PB_W@Z ; ATL::CStringT<wchar_t,StrTraitMFC<wchar_t,ATL::ChTraitsCRT<wchar_t> > >::CStringT<wchar_t,StrTraitMFC<wchar_t,ATL::ChTraitsCRT<wchar_t> > >
  00217	c6 45 fc 18	 mov	 BYTE PTR __$EHRec$[ebp+8], 24 ; 00000018H

; 248  : 	_T("Ear-ROLD"),

  0021b	68 00 00 00 00	 push	 OFFSET ??_C@_1BK@NPNGPDEH@?$AAE?$AAa?$AAr?$AA?9?$AAR?$IP?$JDQebS_?$AA?$AAO?$AAL?$AAD?$AA?$AA@
  00220	b9 64 00 00 00	 mov	 ecx, OFFSET _strDeviceDescription+100
  00225	e8 00 00 00 00	 call	 ??0?$CStringT@_WV?$StrTraitMFC@_WV?$ChTraitsCRT@_W@ATL@@@@@ATL@@QAE@PB_W@Z ; ATL::CStringT<wchar_t,StrTraitMFC<wchar_t,ATL::ChTraitsCRT<wchar_t> > >::CStringT<wchar_t,StrTraitMFC<wchar_t,ATL::ChTraitsCRT<wchar_t> > >
  0022a	c6 45 fc 19	 mov	 BYTE PTR __$EHRec$[ebp+8], 25 ; 00000019H

; 249  : 	_T("Ear-ROLD"),

  0022e	68 00 00 00 00	 push	 OFFSET ??_C@_1BK@JJJKAKLF@?$AAE?$AAa?$AAr?$AA?9?$AAR?$IP?$JDQeQs?$JF?m?$AAO?$AAL?$AAD?$AA?$AA@
  00233	b9 68 00 00 00	 mov	 ecx, OFFSET _strDeviceDescription+104
  00238	e8 00 00 00 00	 call	 ??0?$CStringT@_WV?$StrTraitMFC@_WV?$ChTraitsCRT@_W@ATL@@@@@ATL@@QAE@PB_W@Z ; ATL::CStringT<wchar_t,StrTraitMFC<wchar_t,ATL::ChTraitsCRT<wchar_t> > >::CStringT<wchar_t,StrTraitMFC<wchar_t,ATL::ChTraitsCRT<wchar_t> > >
  0023d	c6 45 fc 1a	 mov	 BYTE PTR __$EHRec$[ebp+8], 26 ; 0000001aH

; 250  : 	_T("Ear-LOLD"),

  00241	68 00 00 00 00	 push	 OFFSET ??_C@_1BK@OIFILNNG@?$AAE?$AAa?$AAr?$AA?9?$AAL?$IP?$JDQebS_?$AA?$AAO?$AAL?$AAD?$AA?$AA@
  00246	b9 6c 00 00 00	 mov	 ecx, OFFSET _strDeviceDescription+108
  0024b	e8 00 00 00 00	 call	 ??0?$CStringT@_WV?$StrTraitMFC@_WV?$ChTraitsCRT@_W@ATL@@@@@ATL@@QAE@PB_W@Z ; ATL::CStringT<wchar_t,StrTraitMFC<wchar_t,ATL::ChTraitsCRT<wchar_t> > >::CStringT<wchar_t,StrTraitMFC<wchar_t,ATL::ChTraitsCRT<wchar_t> > >
  00250	c6 45 fc 1b	 mov	 BYTE PTR __$EHRec$[ebp+8], 27 ; 0000001bH

; 251  : 	_T("Ear-LOLD"),

  00254	68 00 00 00 00	 push	 OFFSET ??_C@_1BK@KOBEEECE@?$AAE?$AAa?$AAr?$AA?9?$AAL?$IP?$JDQeQs?$JF?m?$AAO?$AAL?$AAD?$AA?$AA@
  00259	b9 70 00 00 00	 mov	 ecx, OFFSET _strDeviceDescription+112
  0025e	e8 00 00 00 00	 call	 ??0?$CStringT@_WV?$StrTraitMFC@_WV?$ChTraitsCRT@_W@ATL@@@@@ATL@@QAE@PB_W@Z ; ATL::CStringT<wchar_t,StrTraitMFC<wchar_t,ATL::ChTraitsCRT<wchar_t> > >::CStringT<wchar_t,StrTraitMFC<wchar_t,ATL::ChTraitsCRT<wchar_t> > >
  00263	c6 45 fc 1c	 mov	 BYTE PTR __$EHRec$[ebp+8], 28 ; 0000001cH

; 252  : 	_T("6"),

  00267	68 00 00 00 00	 push	 OFFSET ??_C@_1BA@CFALBOED@z?oS?c?$AA6?$IP?$JDQebS_?$AA?$AA?$AA@
  0026c	b9 74 00 00 00	 mov	 ecx, OFFSET _strDeviceDescription+116
  00271	e8 00 00 00 00	 call	 ??0?$CStringT@_WV?$StrTraitMFC@_WV?$ChTraitsCRT@_W@ATL@@@@@ATL@@QAE@PB_W@Z ; ATL::CStringT<wchar_t,StrTraitMFC<wchar_t,ATL::ChTraitsCRT<wchar_t> > >::CStringT<wchar_t,StrTraitMFC<wchar_t,ATL::ChTraitsCRT<wchar_t> > >
  00276	c6 45 fc 1d	 mov	 BYTE PTR __$EHRec$[ebp+8], 29 ; 0000001dH

; 253  : 	_T("6"),

  0027a	68 00 00 00 00	 push	 OFFSET ??_C@_1BA@HMALFDFA@z?oS?c?$AA6?$IP?$JDQeQs?$JF?m?$AA?$AA@
