; Listing generated by Microsoft (R) Optimizing Compiler Version 16.00.30319.01 

	TITLE	E:\cz\VS\DviceCtrlDlg_new_signal_1\serialport.cpp
	.686P
	.XMM
	include listing.inc
	.model	flat

INCLUDELIB LIBCMTD
INCLUDELIB OLDNAMES

PUBLIC	??_C@_0M@BBDDNIGA@CSerialPort?$AA@		; `string'
PUBLIC	??_C@_0BB@IOBDGEEK@CSerialException?$AA@	; `string'
PUBLIC	?classCSerialException@CSerialException@@2UCRuntimeClass@@B ; CSerialException::classCSerialException
PUBLIC	?classCSerialPort@CSerialPort@@2UCRuntimeClass@@B ; CSerialPort::classCSerialPort
EXTRN	?classCObject@CObject@@2UCRuntimeClass@@B:BYTE	; CObject::classCObject
EXTRN	?classCException@CException@@2UCRuntimeClass@@B:BYTE ; CException::classCException
;	COMDAT ?classCSerialPort@CSerialPort@@2UCRuntimeClass@@B
CONST	SEGMENT
?classCSerialPort@CSerialPort@@2UCRuntimeClass@@B DD FLAT:??_C@_0M@BBDDNIGA@CSerialPort?$AA@ ; CSerialPort::classCSerialPort
	DD	018H
	DD	0ffffH
	DD	00H
	DD	FLAT:?classCObject@CObject@@2UCRuntimeClass@@B
	DD	00H
	DD	00H
CONST	ENDS
;	COMDAT ??_C@_0M@BBDDNIGA@CSerialPort?$AA@
CONST	SEGMENT
??_C@_0M@BBDDNIGA@CSerialPort?$AA@ DB 'CSerialPort', 00H ; `string'
CONST	ENDS
;	COMDAT ?classCSerialException@CSerialException@@2UCRuntimeClass@@B
CONST	SEGMENT
?classCSerialException@CSerialException@@2UCRuntimeClass@@B DD FLAT:??_C@_0BB@IOBDGEEK@CSerialException?$AA@ ; CSerialException::classCSerialException
	DD	010H
	DD	0ffffH
	DD	00H
	DD	FLAT:?classCException@CException@@2UCRuntimeClass@@B
	DD	00H
	DD	00H
CONST	ENDS
;	COMDAT ??_C@_0BB@IOBDGEEK@CSerialException?$AA@
CONST	SEGMENT
??_C@_0BB@IOBDGEEK@CSerialException?$AA@ DB 'CSerialException', 00H ; `string'
CONST	ENDS
_DATA	SEGMENT
_THIS_FILE DB	'e:\cz\vs\dvicectrldlg_new_signal_1\serialport.cpp', 00H
_DATA	ENDS
PUBLIC	??_C@_08KENEPFL@CancelIo?$AA@			; `string'
PUBLIC	?__LINE__Var@?1???0_SERIAL_PORT_DATA@@QAE@XZ@4JA ; `_SERIAL_PORT_DATA::_SERIAL_PORT_DATA'::`2'::__LINE__Var
PUBLIC	??_C@_1BK@DBDEIDLH@?$AAK?$AAE?$AAR?$AAN?$AAE?$AAL?$AA3?$AA2?$AA?4?$AAD?$AAL?$AAL?$AA?$AA@ ; `string'
PUBLIC	??0_SERIAL_PORT_DATA@@QAE@XZ			; _SERIAL_PORT_DATA::_SERIAL_PORT_DATA
EXTRN	__imp__GetProcAddress@8:PROC
EXTRN	?AfxAssertFailedLine@@YGHPBDH@Z:PROC		; AfxAssertFailedLine
EXTRN	__imp__LoadLibraryW@4:PROC
EXTRN	__RTC_CheckEsp:PROC
EXTRN	__RTC_Shutdown:PROC
EXTRN	__RTC_InitBase:PROC
;	COMDAT ??_C@_08KENEPFL@CancelIo?$AA@
; File e:\cz\vs\dvicectrldlg_new_signal_1\serialport.cpp
CONST	SEGMENT
??_C@_08KENEPFL@CancelIo?$AA@ DB 'CancelIo', 00H	; `string'
CONST	ENDS
;	COMDAT ?__LINE__Var@?1???0_SERIAL_PORT_DATA@@QAE@XZ@4JA
_DATA	SEGMENT
?__LINE__Var@?1???0_SERIAL_PORT_DATA@@QAE@XZ@4JA DD 062H ; `_SERIAL_PORT_DATA::_SERIAL_PORT_DATA'::`2'::__LINE__Var
_DATA	ENDS
;	COMDAT ??_C@_1BK@DBDEIDLH@?$AAK?$AAE?$AAR?$AAN?$AAE?$AAL?$AA3?$AA2?$AA?4?$AAD?$AAL?$AAL?$AA?$AA@
CONST	SEGMENT
??_C@_1BK@DBDEIDLH@?$AAK?$AAE?$AAR?$AAN?$AAE?$AAL?$AA3?$AA2?$AA?4?$AAD?$AAL?$AAL?$AA?$AA@ DB 'K'
	DB	00H, 'E', 00H, 'R', 00H, 'N', 00H, 'E', 00H, 'L', 00H, '3', 00H
	DB	'2', 00H, '.', 00H, 'D', 00H, 'L', 00H, 'L', 00H, 00H, 00H ; `string'
CONST	ENDS
;	COMDAT rtc$TMZ
rtc$TMZ	SEGMENT
__RTC_Shutdown.rtc$TMZ DD FLAT:__RTC_Shutdown
rtc$TMZ	ENDS
;	COMDAT rtc$IMZ
rtc$IMZ	SEGMENT
__RTC_InitBase.rtc$IMZ DD FLAT:__RTC_InitBase
; Function compile flags: /Odtp /RTCsu /ZI
rtc$IMZ	ENDS
;	COMDAT ??0_SERIAL_PORT_DATA@@QAE@XZ
_TEXT	SEGMENT
_this$ = -8						; size = 4
??0_SERIAL_PORT_DATA@@QAE@XZ PROC			; _SERIAL_PORT_DATA::_SERIAL_PORT_DATA, COMDAT
; _this$ = ecx

; 98   : {

  00000	55		 push	 ebp
  00001	8b ec		 mov	 ebp, esp
  00003	81 ec cc 00 00
	00		 sub	 esp, 204		; 000000ccH
  00009	53		 push	 ebx
  0000a	56		 push	 esi
  0000b	57		 push	 edi
  0000c	51		 push	 ecx
  0000d	8d bd 34 ff ff
	ff		 lea	 edi, DWORD PTR [ebp-204]
  00013	b9 33 00 00 00	 mov	 ecx, 51			; 00000033H
  00018	b8 cc cc cc cc	 mov	 eax, -858993460		; ccccccccH
  0001d	f3 ab		 rep stosd
  0001f	59		 pop	 ecx
  00020	89 4d f8	 mov	 DWORD PTR _this$[ebp], ecx

; 99   :   m_hKernel32 = LoadLibrary(_T("KERNEL32.DLL"));

  00023	8b f4		 mov	 esi, esp
  00025	68 00 00 00 00	 push	 OFFSET ??_C@_1BK@DBDEIDLH@?$AAK?$AAE?$AAR?$AAN?$AAE?$AAL?$AA3?$AA2?$AA?4?$AAD?$AAL?$AAL?$AA?$AA@
  0002a	ff 15 00 00 00
	00		 call	 DWORD PTR __imp__LoadLibraryW@4
  00030	3b f4		 cmp	 esi, esp
  00032	e8 00 00 00 00	 call	 __RTC_CheckEsp
  00037	8b 4d f8	 mov	 ecx, DWORD PTR _this$[ebp]
  0003a	89 01		 mov	 DWORD PTR [ecx], eax

; 100  :   VERIFY(m_hKernel32 != NULL);

  0003c	8b 45 f8	 mov	 eax, DWORD PTR _this$[ebp]
  0003f	83 38 00	 cmp	 DWORD PTR [eax], 0
  00042	75 19		 jne	 SHORT $LN3@SERIAL_POR
  00044	8b 0d 00 00 00
	00		 mov	 ecx, DWORD PTR ?__LINE__Var@?1???0_SERIAL_PORT_DATA@@QAE@XZ@4JA
  0004a	83 c1 02	 add	 ecx, 2
  0004d	51		 push	 ecx
  0004e	68 00 00 00 00	 push	 OFFSET _THIS_FILE
  00053	e8 00 00 00 00	 call	 ?AfxAssertFailedLine@@YGHPBDH@Z ; AfxAssertFailedLine
  00058	85 c0		 test	 eax, eax
  0005a	74 01		 je	 SHORT $LN3@SERIAL_POR
  0005c	cc		 int	 3
$LN3@SERIAL_POR:

; 101  :   m_lpfnCancelIo = (LPCANCELIO) GetProcAddress(m_hKernel32, "CancelIo");

  0005d	8b f4		 mov	 esi, esp
  0005f	68 00 00 00 00	 push	 OFFSET ??_C@_08KENEPFL@CancelIo?$AA@
  00064	8b 45 f8	 mov	 eax, DWORD PTR _this$[ebp]
  00067	8b 08		 mov	 ecx, DWORD PTR [eax]
  00069	51		 push	 ecx
  0006a	ff 15 00 00 00
	00		 call	 DWORD PTR __imp__GetProcAddress@8
  00070	3b f4		 cmp	 esi, esp
  00072	e8 00 00 00 00	 call	 __RTC_CheckEsp
  00077	8b 55 f8	 mov	 edx, DWORD PTR _this$[ebp]
  0007a	89 42 04	 mov	 DWORD PTR [edx+4], eax

; 102  : }

  0007d	8b 45 f8	 mov	 eax, DWORD PTR _this$[ebp]
  00080	5f		 pop	 edi
  00081	5e		 pop	 esi
  00082	5b		 pop	 ebx
  00083	81 c4 cc 00 00
	00		 add	 esp, 204		; 000000ccH
  00089	3b ec		 cmp	 ebp, esp
  0008b	e8 00 00 00 00	 call	 __RTC_CheckEsp
  00090	8b e5		 mov	 esp, ebp
  00092	5d		 pop	 ebp
  00093	c3		 ret	 0
??0_SERIAL_PORT_DATA@@QAE@XZ ENDP			; _SERIAL_PORT_DATA::_SERIAL_PORT_DATA
_TEXT	ENDS
PUBLIC	??1_SERIAL_PORT_DATA@@QAE@XZ			; _SERIAL_PORT_DATA::~_SERIAL_PORT_DATA
EXTRN	__imp__FreeLibrary@4:PROC
; Function compile flags: /Odtp /RTCsu /ZI
;	COMDAT ??1_SERIAL_PORT_DATA@@QAE@XZ
_TEXT	SEGMENT
_this$ = -8						; size = 4
??1_SERIAL_PORT_DATA@@QAE@XZ PROC			; _SERIAL_PORT_DATA::~_SERIAL_PORT_DATA, COMDAT
; _this$ = ecx

; 105  : {

  00000	55		 push	 ebp
  00001	8b ec		 mov	 ebp, esp
  00003	81 ec cc 00 00
	00		 sub	 esp, 204		; 000000ccH
  00009	53		 push	 ebx
  0000a	56		 push	 esi
  0000b	57		 push	 edi
  0000c	51		 push	 ecx
  0000d	8d bd 34 ff ff
	ff		 lea	 edi, DWORD PTR [ebp-204]
  00013	b9 33 00 00 00	 mov	 ecx, 51			; 00000033H
  00018	b8 cc cc cc cc	 mov	 eax, -858993460		; ccccccccH
  0001d	f3 ab		 rep stosd
  0001f	59		 pop	 ecx
  00020	89 4d f8	 mov	 DWORD PTR _this$[ebp], ecx

; 106  :   FreeLibrary(m_hKernel32);

  00023	8b f4		 mov	 esi, esp
  00025	8b 45 f8	 mov	 eax, DWORD PTR _this$[ebp]
  00028	8b 08		 mov	 ecx, DWORD PTR [eax]
  0002a	51		 push	 ecx
  0002b	ff 15 00 00 00
	00		 call	 DWORD PTR __imp__FreeLibrary@4
  00031	3b f4		 cmp	 esi, esp
  00033	e8 00 00 00 00	 call	 __RTC_CheckEsp

; 107  :   m_hKernel32 = NULL;

  00038	8b 45 f8	 mov	 eax, DWORD PTR _this$[ebp]
  0003b	c7 00 00 00 00
	00		 mov	 DWORD PTR [eax], 0

; 108  : }

  00041	5f		 pop	 edi
  00042	5e		 pop	 esi
  00043	5b		 pop	 ebx
  00044	81 c4 cc 00 00
	00		 add	 esp, 204		; 000000ccH
  0004a	3b ec		 cmp	 ebp, esp
  0004c	e8 00 00 00 00	 call	 __RTC_CheckEsp
  00051	8b e5		 mov	 esp, ebp
  00053	5d		 pop	 ebp
  00054	c3		 ret	 0
??1_SERIAL_PORT_DATA@@QAE@XZ ENDP			; _SERIAL_PORT_DATA::~_SERIAL_PORT_DATA
_TEXT	ENDS
PUBLIC	??RCTraceFileAndLineInfo@ATL@@QBAXPB_WZZ	; ATL::CTraceFileAndLineInfo::operator()
PUBLIC	??0CTraceFileAndLineInfo@ATL@@QAE@PBDH@Z	; ATL::CTraceFileAndLineInfo::CTraceFileAndLineInfo
PUBLIC	??_C@_0DC@PACLAOLH@e?3?2cz?2vs?2dvicectrldlg_new_signal@ ; `string'
PUBLIC	?__LINE__Var@?1??AfxThrowSerialException@@YAXK@Z@4JA ; `AfxThrowSerialException'::`2'::__LINE__Var
PUBLIC	??_C@_1GC@HPKDEEFP@?$AAW?$AAa?$AAr?$AAn?$AAi?$AAn?$AAg?$AA?3?$AA?5?$AAt?$AAh?$AAr?$AAo?$AAw?$AAi?$AAn?$AAg?$AA?5?$AAC?$AAS?$AAe?$AAr?$AAi?$AAa?$AAl?$AAE?$AAx?$AAc?$AAe?$AAp?$AAt?$AAi@ ; `string'
PUBLIC	?AfxThrowSerialException@@YAXK@Z		; AfxThrowSerialException
EXTRN	__imp__GetLastError@0:PROC
;	COMDAT ??_C@_0DC@PACLAOLH@e?3?2cz?2vs?2dvicectrldlg_new_signal@
CONST	SEGMENT
??_C@_0DC@PACLAOLH@e?3?2cz?2vs?2dvicectrldlg_new_signal@ DB 'e:\cz\vs\dvi'
	DB	'cectrldlg_new_signal_1\serialport.cpp', 00H	; `string'
CONST	ENDS
;	COMDAT ?__LINE__Var@?1??AfxThrowSerialException@@YAXK@Z@4JA
_DATA	SEGMENT
?__LINE__Var@?1??AfxThrowSerialException@@YAXK@Z@4JA DD 079H ; `AfxThrowSerialException'::`2'::__LINE__Var
_DATA	ENDS
;	COMDAT ??_C@_1GC@HPKDEEFP@?$AAW?$AAa?$AAr?$AAn?$AAi?$AAn?$AAg?$AA?3?$AA?5?$AAt?$AAh?$AAr?$AAo?$AAw?$AAi?$AAn?$AAg?$AA?5?$AAC?$AAS?$AAe?$AAr?$AAi?$AAa?$AAl?$AAE?$AAx?$AAc?$AAe?$AAp?$AAt?$AAi@
CONST	SEGMENT
??_C@_1GC@HPKDEEFP@?$AAW?$AAa?$AAr?$AAn?$AAi?$AAn?$AAg?$AA?3?$AA?5?$AAt?$AAh?$AAr?$AAo?$AAw?$AAi?$AAn?$AAg?$AA?5?$AAC?$AAS?$AAe?$AAr?$AAi?$AAa?$AAl?$AAE?$AAx?$AAc?$AAe?$AAp?$AAt?$AAi@ DB 'W'
	DB	00H, 'a', 00H, 'r', 00H, 'n', 00H, 'i', 00H, 'n', 00H, 'g', 00H
	DB	':', 00H, ' ', 00H, 't', 00H, 'h', 00H, 'r', 00H, 'o', 00H, 'w'
	DB	00H, 'i', 00H, 'n', 00H, 'g', 00H, ' ', 00H, 'C', 00H, 'S', 00H
	DB	'e', 00H, 'r', 00H, 'i', 00H, 'a', 00H, 'l', 00H, 'E', 00H, 'x'
	DB	00H, 'c', 00H, 'e', 00H, 'p', 00H, 't', 00H, 'i', 00H, 'o', 00H
	DB	'n', 00H, ' ', 00H, 'f', 00H, 'o', 00H, 'r', 00H, ' ', 00H, 'e'
	DB	00H, 'r', 00H, 'r', 00H, 'o', 00H, 'r', 00H, ' ', 00H, '%', 00H
	DB	'd', 00H, 0aH, 00H, 00H, 00H			; `string'
; Function compile flags: /Odtp /RTCsu /ZI
CONST	ENDS
;	COMDAT ?AfxThrowSerialException@@YAXK@Z
_TEXT	SEGMENT
$T211973 = -204						; size = 8
_dwError$ = 8						; size = 4
?AfxThrowSerialException@@YAXK@Z PROC			; AfxThrowSerialException, COMDAT

; 121  : {

  00000	55		 push	 ebp
  00001	8b ec		 mov	 ebp, esp
  00003	81 ec d0 00 00
	00		 sub	 esp, 208		; 000000d0H
  00009	53		 push	 ebx
  0000a	56		 push	 esi
  0000b	57		 push	 edi
  0000c	8d bd 30 ff ff
	ff		 lea	 edi, DWORD PTR [ebp-208]
  00012	b9 34 00 00 00	 mov	 ecx, 52			; 00000034H
  00017	b8 cc cc cc cc	 mov	 eax, -858993460		; ccccccccH
  0001c	f3 ab		 rep stosd

; 122  : 	if (dwError == 0)

  0001e	83 7d 08 00	 cmp	 DWORD PTR _dwError$[ebp], 0
  00022	75 12		 jne	 SHORT $LN1@AfxThrowSe

; 123  : 	{
; 124  : 		dwError = ::GetLastError();

  00024	8b f4		 mov	 esi, esp
  00026	ff 15 00 00 00
	00		 call	 DWORD PTR __imp__GetLastError@0
  0002c	3b f4		 cmp	 esi, esp
  0002e	e8 00 00 00 00	 call	 __RTC_CheckEsp
  00033	89 45 08	 mov	 DWORD PTR _dwError$[ebp], eax
$LN1@AfxThrowSe:

; 125  : 	}
; 126  : 
; 127  : //	CSerialException* pException = new CSerialException(dwError);
; 128  : 
; 129  : 	TRACE(_T("Warning: throwing CSerialException for error %d\n"), dwError);

  00036	8b 45 08	 mov	 eax, DWORD PTR _dwError$[ebp]
  00039	50		 push	 eax
  0003a	68 00 00 00 00	 push	 OFFSET ??_C@_1GC@HPKDEEFP@?$AAW?$AAa?$AAr?$AAn?$AAi?$AAn?$AAg?$AA?3?$AA?5?$AAt?$AAh?$AAr?$AAo?$AAw?$AAi?$AAn?$AAg?$AA?5?$AAC?$AAS?$AAe?$AAr?$AAi?$AAa?$AAl?$AAE?$AAx?$AAc?$AAe?$AAp?$AAt?$AAi@
  0003f	8b 0d 00 00 00
	00		 mov	 ecx, DWORD PTR ?__LINE__Var@?1??AfxThrowSerialException@@YAXK@Z@4JA
  00045	83 c1 08	 add	 ecx, 8
  00048	51		 push	 ecx
  00049	68 00 00 00 00	 push	 OFFSET ??_C@_0DC@PACLAOLH@e?3?2cz?2vs?2dvicectrldlg_new_signal@
  0004e	8d 8d 34 ff ff
	ff		 lea	 ecx, DWORD PTR $T211973[ebp]
  00054	e8 00 00 00 00	 call	 ??0CTraceFileAndLineInfo@ATL@@QAE@PBDH@Z ; ATL::CTraceFileAndLineInfo::CTraceFileAndLineInfo
  00059	50		 push	 eax
  0005a	e8 00 00 00 00	 call	 ??RCTraceFileAndLineInfo@ATL@@QBAXPB_WZZ ; ATL::CTraceFileAndLineInfo::operator()
  0005f	83 c4 0c	 add	 esp, 12			; 0000000cH

; 130  : // 	THROW(pException);
; 131  : }

  00062	5f		 pop	 edi
  00063	5e		 pop	 esi
  00064	5b		 pop	 ebx
  00065	81 c4 d0 00 00
	00		 add	 esp, 208		; 000000d0H
  0006b	3b ec		 cmp	 ebp, esp
  0006d	e8 00 00 00 00	 call	 __RTC_CheckEsp
  00072	8b e5		 mov	 esp, ebp
  00074	5d		 pop	 ebp
  00075	c3		 ret	 0
?AfxThrowSerialException@@YAXK@Z ENDP			; AfxThrowSerialException
_TEXT	ENDS
PUBLIC	?__LINE__Var@?1??GetErrorMessage@CSerialException@@UAEHPA_WIPAI@Z@4JA ; `CSerialException::GetErrorMessage'::`2'::__LINE__Var
PUBLIC	?GetErrorMessage@CSerialException@@UAEHPA_WIPAI@Z ; CSerialException::GetErrorMessage
EXTRN	__imp__LocalFree@4:PROC
EXTRN	__imp__lstrcpynW@12:PROC
EXTRN	__imp__FormatMessageW@28:PROC
EXTRN	?AfxIsValidString@@YGHPB_WH@Z:PROC		; AfxIsValidString
EXTRN	@_RTC_CheckStackVars@8:PROC
;	COMDAT ?__LINE__Var@?1??GetErrorMessage@CSerialException@@UAEHPA_WIPAI@Z@4JA
_DATA	SEGMENT
?__LINE__Var@?1??GetErrorMessage@CSerialException@@UAEHPA_WIPAI@Z@4JA DD 086H ; `CSerialException::GetErrorMessage'::`2'::__LINE__Var
; Function compile flags: /Odtp /RTCsu /ZI
_DATA	ENDS
;	COMDAT ?GetErrorMessage@CSerialException@@UAEHPA_WIPAI@Z
_TEXT	SEGMENT
_bRet$ = -32						; size = 4
_lpBuffer$ = -20					; size = 4
_this$ = -8						; size = 4
_pstrError$ = 8						; size = 4
_nMaxError$ = 12					; size = 4
_pnHelpContext$ = 16					; size = 4
?GetErrorMessage@CSerialException@@UAEHPA_WIPAI@Z PROC	; CSerialException::GetErrorMessage, COMDAT
; _this$ = ecx

; 134  : {

  00000	55		 push	 ebp
  00001	8b ec		 mov	 ebp, esp
  00003	81 ec e4 00 00
	00		 sub	 esp, 228		; 000000e4H
  00009	53		 push	 ebx
  0000a	56		 push	 esi
  0000b	57		 push	 edi
  0000c	51		 push	 ecx
  0000d	8d bd 1c ff ff
	ff		 lea	 edi, DWORD PTR [ebp-228]
  00013	b9 39 00 00 00	 mov	 ecx, 57			; 00000039H
  00018	b8 cc cc cc cc	 mov	 eax, -858993460		; ccccccccH
  0001d	f3 ab		 rep stosd
  0001f	59		 pop	 ecx
  00020	89 4d f8	 mov	 DWORD PTR _this$[ebp], ecx

; 135  : 	ASSERT(pstrError != NULL && AfxIsValidString(pstrError, nMaxError));

  00023	83 7d 08 00	 cmp	 DWORD PTR _pstrError$[ebp], 0
  00027	74 11		 je	 SHORT $LN6@GetErrorMe
  00029	8b 45 0c	 mov	 eax, DWORD PTR _nMaxError$[ebp]
  0002c	50		 push	 eax
  0002d	8b 4d 08	 mov	 ecx, DWORD PTR _pstrError$[ebp]
  00030	51		 push	 ecx
  00031	e8 00 00 00 00	 call	 ?AfxIsValidString@@YGHPB_WH@Z ; AfxIsValidString
  00036	85 c0		 test	 eax, eax
  00038	75 19		 jne	 SHORT $LN7@GetErrorMe
$LN6@GetErrorMe:
  0003a	8b 15 00 00 00
	00		 mov	 edx, DWORD PTR ?__LINE__Var@?1??GetErrorMessage@CSerialException@@UAEHPA_WIPAI@Z@4JA
  00040	83 c2 01	 add	 edx, 1
  00043	52		 push	 edx
  00044	68 00 00 00 00	 push	 OFFSET _THIS_FILE
  00049	e8 00 00 00 00	 call	 ?AfxAssertFailedLine@@YGHPBDH@Z ; AfxAssertFailedLine
  0004e	85 c0		 test	 eax, eax
  00050	74 01		 je	 SHORT $LN7@GetErrorMe
  00052	cc		 int	 3
$LN7@GetErrorMe:

; 136  : 
; 137  : 	if (pnHelpContext != NULL)

  00053	83 7d 10 00	 cmp	 DWORD PTR _pnHelpContext$[ebp], 0
  00057	74 09		 je	 SHORT $LN3@GetErrorMe

; 138  : 		*pnHelpContext = 0;

  00059	8b 45 10	 mov	 eax, DWORD PTR _pnHelpContext$[ebp]
  0005c	c7 00 00 00 00
	00		 mov	 DWORD PTR [eax], 0
$LN3@GetErrorMe:

; 139  : 
; 140  : 	LPTSTR lpBuffer;
; 141  : 	BOOL bRet = FormatMessage(FORMAT_MESSAGE_ALLOCATE_BUFFER | FORMAT_MESSAGE_FROM_SYSTEM,
; 142  : 			                      NULL,  m_dwError, MAKELANGID(LANG_NEUTRAL, SUBLANG_SYS_DEFAULT),
; 143  : 			                      (LPTSTR) &lpBuffer, 0, NULL);

  00062	8b f4		 mov	 esi, esp
  00064	6a 00		 push	 0
  00066	6a 00		 push	 0
  00068	8d 45 ec	 lea	 eax, DWORD PTR _lpBuffer$[ebp]
  0006b	50		 push	 eax
  0006c	68 00 08 00 00	 push	 2048			; 00000800H
  00071	8b 4d f8	 mov	 ecx, DWORD PTR _this$[ebp]
  00074	8b 51 0c	 mov	 edx, DWORD PTR [ecx+12]
  00077	52		 push	 edx
  00078	6a 00		 push	 0
  0007a	68 00 11 00 00	 push	 4352			; 00001100H
  0007f	ff 15 00 00 00
	00		 call	 DWORD PTR __imp__FormatMessageW@28
  00085	3b f4		 cmp	 esi, esp
  00087	e8 00 00 00 00	 call	 __RTC_CheckEsp
  0008c	89 45 e0	 mov	 DWORD PTR _bRet$[ebp], eax

; 144  : 
; 145  : 	if (bRet == FALSE)

  0008f	83 7d e0 00	 cmp	 DWORD PTR _bRet$[ebp], 0
  00093	75 0a		 jne	 SHORT $LN2@GetErrorMe

; 146  : 		*pstrError = '\0';

  00095	33 c0		 xor	 eax, eax
  00097	8b 4d 08	 mov	 ecx, DWORD PTR _pstrError$[ebp]
  0009a	66 89 01	 mov	 WORD PTR [ecx], ax

; 147  : 	else

  0009d	eb 35		 jmp	 SHORT $LN1@GetErrorMe
$LN2@GetErrorMe:

; 148  : 	{
; 149  : 		lstrcpyn(pstrError, lpBuffer, nMaxError);

  0009f	8b f4		 mov	 esi, esp
  000a1	8b 45 0c	 mov	 eax, DWORD PTR _nMaxError$[ebp]
  000a4	50		 push	 eax
  000a5	8b 4d ec	 mov	 ecx, DWORD PTR _lpBuffer$[ebp]
  000a8	51		 push	 ecx
  000a9	8b 55 08	 mov	 edx, DWORD PTR _pstrError$[ebp]
  000ac	52		 push	 edx
  000ad	ff 15 00 00 00
	00		 call	 DWORD PTR __imp__lstrcpynW@12
  000b3	3b f4		 cmp	 esi, esp
  000b5	e8 00 00 00 00	 call	 __RTC_CheckEsp

; 150  : 		bRet = TRUE;

  000ba	c7 45 e0 01 00
	00 00		 mov	 DWORD PTR _bRet$[ebp], 1

; 151  : 
; 152  : 		LocalFree(lpBuffer);

  000c1	8b f4		 mov	 esi, esp
  000c3	8b 45 ec	 mov	 eax, DWORD PTR _lpBuffer$[ebp]
  000c6	50		 push	 eax
  000c7	ff 15 00 00 00
	00		 call	 DWORD PTR __imp__LocalFree@4
  000cd	3b f4		 cmp	 esi, esp
  000cf	e8 00 00 00 00	 call	 __RTC_CheckEsp
$LN1@GetErrorMe:

; 153  : 	}
; 154  : 
; 155  : 	return bRet;

  000d4	8b 45 e0	 mov	 eax, DWORD PTR _bRet$[ebp]

; 156  : }

  000d7	52		 push	 edx
  000d8	8b cd		 mov	 ecx, ebp
  000da	50		 push	 eax
  000db	8d 15 00 00 00
	00		 lea	 edx, DWORD PTR $LN10@GetErrorMe
  000e1	e8 00 00 00 00	 call	 @_RTC_CheckStackVars@8
  000e6	58		 pop	 eax
  000e7	5a		 pop	 edx
  000e8	5f		 pop	 edi
  000e9	5e		 pop	 esi
  000ea	5b		 pop	 ebx
  000eb	81 c4 e4 00 00
	00		 add	 esp, 228		; 000000e4H
  000f1	3b ec		 cmp	 ebp, esp
  000f3	e8 00 00 00 00	 call	 __RTC_CheckEsp
  000f8	8b e5		 mov	 esp, ebp
  000fa	5d		 pop	 ebp
  000fb	c2 0c 00	 ret	 12			; 0000000cH
  000fe	8b ff		 npad	 2
$LN10@GetErrorMe:
  00100	01 00 00 00	 DD	 1
  00104	00 00 00 00	 DD	 $LN9@GetErrorMe
$LN9@GetErrorMe:
  00108	ec ff ff ff	 DD	 -20			; ffffffecH
  0010c	04 00 00 00	 DD	 4
  00110	00 00 00 00	 DD	 $LN8@GetErrorMe
$LN8@GetErrorMe:
  00114	6c		 DB	 108			; 0000006cH
  00115	70		 DB	 112			; 00000070H
  00116	42		 DB	 66			; 00000042H
  00117	75		 DB	 117			; 00000075H
  00118	66		 DB	 102			; 00000066H
  00119	66		 DB	 102			; 00000066H
  0011a	65		 DB	 101			; 00000065H
  0011b	72		 DB	 114			; 00000072H
  0011c	00		 DB	 0
?GetErrorMessage@CSerialException@@UAEHPA_WIPAI@Z ENDP	; CSerialException::GetErrorMessage
_TEXT	ENDS
PUBLIC	??1?$CStringT@_WV?$StrTraitMFC@_WV?$ChTraitsCRT@_W@ATL@@@@@ATL@@QAE@XZ ; ATL::CStringT<wchar_t,StrTraitMFC<wchar_t,ATL::ChTraitsCRT<wchar_t> > >::~CStringT<wchar_t,StrTraitMFC<wchar_t,ATL::ChTraitsCRT<wchar_t> > >
PUBLIC	??0?$CStringT@_WV?$StrTraitMFC@_WV?$ChTraitsCRT@_W@ATL@@@@@ATL@@QAE@ABV01@@Z ; ATL::CStringT<wchar_t,StrTraitMFC<wchar_t,ATL::ChTraitsCRT<wchar_t> > >::CStringT<wchar_t,StrTraitMFC<wchar_t,ATL::ChTraitsCRT<wchar_t> > >
PUBLIC	?ReleaseBuffer@?$CSimpleStringT@_W$0A@@ATL@@QAEXH@Z ; ATL::CSimpleStringT<wchar_t,0>::ReleaseBuffer
PUBLIC	?GetBuffer@?$CSimpleStringT@_W$0A@@ATL@@QAEPA_WH@Z ; ATL::CSimpleStringT<wchar_t,0>::GetBuffer
PUBLIC	??0?$CStringT@_WV?$StrTraitMFC@_WV?$ChTraitsCRT@_W@ATL@@@@@ATL@@QAE@XZ ; ATL::CStringT<wchar_t,StrTraitMFC<wchar_t,ATL::ChTraitsCRT<wchar_t> > >::CStringT<wchar_t,StrTraitMFC<wchar_t,ATL::ChTraitsCRT<wchar_t> > >
PUBLIC	?GetErrorMessage@CSerialException@@QAE?AV?$CStringT@_WV?$StrTraitMFC@_WV?$ChTraitsCRT@_W@ATL@@@@@ATL@@XZ ; CSerialException::GetErrorMessage
EXTRN	___security_cookie:DWORD
EXTRN	___CxxFrameHandler3:PROC
EXTRN	@__security_check_cookie@4:PROC
;	COMDAT xdata$x
xdata$x	SEGMENT
__unwindtable$?GetErrorMessage@CSerialException@@QAE?AV?$CStringT@_WV?$StrTraitMFC@_WV?$ChTraitsCRT@_W@ATL@@@@@ATL@@XZ DD 0ffffffffH
	DD	FLAT:__unwindfunclet$?GetErrorMessage@CSerialException@@QAE?AV?$CStringT@_WV?$StrTraitMFC@_WV?$ChTraitsCRT@_W@ATL@@@@@ATL@@XZ$0
__ehfuncinfo$?GetErrorMessage@CSerialException@@QAE?AV?$CStringT@_WV?$StrTraitMFC@_WV?$ChTraitsCRT@_W@ATL@@@@@ATL@@XZ DD 019930522H
	DD	01H
	DD	FLAT:__unwindtable$?GetErrorMessage@CSerialException@@QAE?AV?$CStringT@_WV?$StrTraitMFC@_WV?$ChTraitsCRT@_W@ATL@@@@@ATL@@XZ
	DD	2 DUP(00H)
	DD	2 DUP(00H)
	DD	00H
	DD	01H
; Function compile flags: /Odtp /RTCsu /ZI
xdata$x	ENDS
;	COMDAT ?GetErrorMessage@CSerialException@@QAE?AV?$CStringT@_WV?$StrTraitMFC@_WV?$ChTraitsCRT@_W@ATL@@@@@ATL@@XZ
_TEXT	SEGMENT
$T211986 = -248						; size = 4
_pstrError$ = -44					; size = 4
_rVal$ = -32						; size = 4
_this$ = -20						; size = 4
__$EHRec$ = -12						; size = 12
___$ReturnUdt$ = 8					; size = 4
?GetErrorMessage@CSerialException@@QAE?AV?$CStringT@_WV?$StrTraitMFC@_WV?$ChTraitsCRT@_W@ATL@@@@@ATL@@XZ PROC ; CSerialException::GetErrorMessage, COMDAT
; _this$ = ecx

; 159  : {

  00000	55		 push	 ebp
  00001	8b ec		 mov	 ebp, esp
  00003	6a ff		 push	 -1
  00005	68 00 00 00 00	 push	 __ehhandler$?GetErrorMessage@CSerialException@@QAE?AV?$CStringT@_WV?$StrTraitMFC@_WV?$ChTraitsCRT@_W@ATL@@@@@ATL@@XZ
  0000a	64 a1 00 00 00
	00		 mov	 eax, DWORD PTR fs:0
  00010	50		 push	 eax
  00011	81 ec f0 00 00
	00		 sub	 esp, 240		; 000000f0H
  00017	53		 push	 ebx
  00018	56		 push	 esi
  00019	57		 push	 edi
  0001a	51		 push	 ecx
  0001b	8d bd 04 ff ff
	ff		 lea	 edi, DWORD PTR [ebp-252]
  00021	b9 3c 00 00 00	 mov	 ecx, 60			; 0000003cH
  00026	b8 cc cc cc cc	 mov	 eax, -858993460		; ccccccccH
  0002b	f3 ab		 rep stosd
  0002d	59		 pop	 ecx
  0002e	a1 00 00 00 00	 mov	 eax, DWORD PTR ___security_cookie
  00033	33 c5		 xor	 eax, ebp
  00035	50		 push	 eax
  00036	8d 45 f4	 lea	 eax, DWORD PTR __$EHRec$[ebp]
  00039	64 a3 00 00 00
	00		 mov	 DWORD PTR fs:0, eax
  0003f	89 4d ec	 mov	 DWORD PTR _this$[ebp], ecx
  00042	c7 85 08 ff ff
	ff 00 00 00 00	 mov	 DWORD PTR $T211986[ebp], 0

; 160  :   CString rVal;

  0004c	8d 4d e0	 lea	 ecx, DWORD PTR _rVal$[ebp]
  0004f	e8 00 00 00 00	 call	 ??0?$CStringT@_WV?$StrTraitMFC@_WV?$ChTraitsCRT@_W@ATL@@@@@ATL@@QAE@XZ ; ATL::CStringT<wchar_t,StrTraitMFC<wchar_t,ATL::ChTraitsCRT<wchar_t> > >::CStringT<wchar_t,StrTraitMFC<wchar_t,ATL::ChTraitsCRT<wchar_t> > >
  00054	c7 45 fc 00 00
	00 00		 mov	 DWORD PTR __$EHRec$[ebp+8], 0

; 161  :   LPTSTR pstrError = rVal.GetBuffer(4096);

  0005b	68 00 10 00 00	 push	 4096			; 00001000H
  00060	8d 4d e0	 lea	 ecx, DWORD PTR _rVal$[ebp]
  00063	e8 00 00 00 00	 call	 ?GetBuffer@?$CSimpleStringT@_W$0A@@ATL@@QAEPA_WH@Z ; ATL::CSimpleStringT<wchar_t,0>::GetBuffer
  00068	89 45 d4	 mov	 DWORD PTR _pstrError$[ebp], eax

; 162  :   GetErrorMessage(pstrError, 4096, NULL);

  0006b	8b f4		 mov	 esi, esp
  0006d	6a 00		 push	 0
  0006f	68 00 10 00 00	 push	 4096			; 00001000H
  00074	8b 45 d4	 mov	 eax, DWORD PTR _pstrError$[ebp]
  00077	50		 push	 eax
  00078	8b 4d ec	 mov	 ecx, DWORD PTR _this$[ebp]
  0007b	8b 11		 mov	 edx, DWORD PTR [ecx]
  0007d	8b 4d ec	 mov	 ecx, DWORD PTR _this$[ebp]
  00080	8b 42 14	 mov	 eax, DWORD PTR [edx+20]
  00083	ff d0		 call	 eax
  00085	3b f4		 cmp	 esi, esp
  00087	e8 00 00 00 00	 call	 __RTC_CheckEsp

; 163  :   rVal.ReleaseBuffer();

  0008c	6a ff		 push	 -1
  0008e	8d 4d e0	 lea	 ecx, DWORD PTR _rVal$[ebp]
  00091	e8 00 00 00 00	 call	 ?ReleaseBuffer@?$CSimpleStringT@_W$0A@@ATL@@QAEXH@Z ; ATL::CSimpleStringT<wchar_t,0>::ReleaseBuffer

; 164  :   return rVal;

  00096	8d 45 e0	 lea	 eax, DWORD PTR _rVal$[ebp]
  00099	50		 push	 eax
  0009a	8b 4d 08	 mov	 ecx, DWORD PTR ___$ReturnUdt$[ebp]
  0009d	e8 00 00 00 00	 call	 ??0?$CStringT@_WV?$StrTraitMFC@_WV?$ChTraitsCRT@_W@ATL@@@@@ATL@@QAE@ABV01@@Z ; ATL::CStringT<wchar_t,StrTraitMFC<wchar_t,ATL::ChTraitsCRT<wchar_t> > >::CStringT<wchar_t,StrTraitMFC<wchar_t,ATL::ChTraitsCRT<wchar_t> > >
  000a2	8b 8d 08 ff ff
	ff		 mov	 ecx, DWORD PTR $T211986[ebp]
  000a8	83 c9 01	 or	 ecx, 1
  000ab	89 8d 08 ff ff
	ff		 mov	 DWORD PTR $T211986[ebp], ecx
  000b1	c7 45 fc ff ff
	ff ff		 mov	 DWORD PTR __$EHRec$[ebp+8], -1
  000b8	8d 4d e0	 lea	 ecx, DWORD PTR _rVal$[ebp]
  000bb	e8 00 00 00 00	 call	 ??1?$CStringT@_WV?$StrTraitMFC@_WV?$ChTraitsCRT@_W@ATL@@@@@ATL@@QAE@XZ ; ATL::CStringT<wchar_t,StrTraitMFC<wchar_t,ATL::ChTraitsCRT<wchar_t> > >::~CStringT<wchar_t,StrTraitMFC<wchar_t,ATL::ChTraitsCRT<wchar_t> > >
  000c0	8b 45 08	 mov	 eax, DWORD PTR ___$ReturnUdt$[ebp]

; 165  : }

  000c3	52		 push	 edx
  000c4	8b cd		 mov	 ecx, ebp
  000c6	50		 push	 eax
  000c7	8d 15 00 00 00
	00		 lea	 edx, DWORD PTR $LN9@GetErrorMe@2
  000cd	e8 00 00 00 00	 call	 @_RTC_CheckStackVars@8
  000d2	58		 pop	 eax
  000d3	5a		 pop	 edx
  000d4	8b 4d f4	 mov	 ecx, DWORD PTR __$EHRec$[ebp]
  000d7	64 89 0d 00 00
	00 00		 mov	 DWORD PTR fs:0, ecx
  000de	59		 pop	 ecx
  000df	5f		 pop	 edi
  000e0	5e		 pop	 esi
  000e1	5b		 pop	 ebx
  000e2	81 c4 fc 00 00
	00		 add	 esp, 252		; 000000fcH
  000e8	3b ec		 cmp	 ebp, esp
  000ea	e8 00 00 00 00	 call	 __RTC_CheckEsp
  000ef	8b e5		 mov	 esp, ebp
  000f1	5d		 pop	 ebp
  000f2	c2 04 00	 ret	 4
  000f5	8d 49 00	 npad	 3
$LN9@GetErrorMe@2:
  000f8	01 00 00 00	 DD	 1
  000fc	00 00 00 00	 DD	 $LN8@GetErrorMe@2
$LN8@GetErrorMe@2:
  00100	e0 ff ff ff	 DD	 -32			; ffffffe0H
  00104	04 00 00 00	 DD	 4
  00108	00 00 00 00	 DD	 $LN6@GetErrorMe@2
$LN6@GetErrorMe@2:
  0010c	72		 DB	 114			; 00000072H
  0010d	56		 DB	 86			; 00000056H
  0010e	61		 DB	 97			; 00000061H
  0010f	6c		 DB	 108			; 0000006cH
  00110	00		 DB	 0
_TEXT	ENDS
;	COMDAT text$x
text$x	SEGMENT
__unwindfunclet$?GetErrorMessage@CSerialException@@QAE?AV?$CStringT@_WV?$StrTraitMFC@_WV?$ChTraitsCRT@_W@ATL@@@@@ATL@@XZ$0:
  00000	8d 4d e0	 lea	 ecx, DWORD PTR _rVal$[ebp]
  00003	e9 00 00 00 00	 jmp	 ??1?$CStringT@_WV?$StrTraitMFC@_WV?$ChTraitsCRT@_W@ATL@@@@@ATL@@QAE@XZ ; ATL::CStringT<wchar_t,StrTraitMFC<wchar_t,ATL::ChTraitsCRT<wchar_t> > >::~CStringT<wchar_t,StrTraitMFC<wchar_t,ATL::ChTraitsCRT<wchar_t> > >
__ehhandler$?GetErrorMessage@CSerialException@@QAE?AV?$CStringT@_WV?$StrTraitMFC@_WV?$ChTraitsCRT@_W@ATL@@@@@ATL@@XZ:
  00008	8b 54 24 08	 mov	 edx, DWORD PTR [esp+8]
  0000c	8d 42 0c	 lea	 eax, DWORD PTR [edx+12]
  0000f	8b 8a 00 ff ff
	ff		 mov	 ecx, DWORD PTR [edx-256]
  00015	33 c8		 xor	 ecx, eax
  00017	e8 00 00 00 00	 call	 @__security_check_cookie@4
  0001c	b8 00 00 00 00	 mov	 eax, OFFSET __ehfuncinfo$?GetErrorMessage@CSerialException@@QAE?AV?$CStringT@_WV?$StrTraitMFC@_WV?$ChTraitsCRT@_W@ATL@@@@@ATL@@XZ
  00021	e9 00 00 00 00	 jmp	 ___CxxFrameHandler3
text$x	ENDS
?GetErrorMessage@CSerialException@@QAE?AV?$CStringT@_WV?$StrTraitMFC@_WV?$ChTraitsCRT@_W@ATL@@@@@ATL@@XZ ENDP ; CSerialException::GetErrorMessage
PUBLIC	??_7CSerialException@@6B@			; CSerialException::`vftable'
PUBLIC	??0CSerialException@@QAE@K@Z			; CSerialException::CSerialException
PUBLIC	??_R4CSerialException@@6B@			; CSerialException::`RTTI Complete Object Locator'
PUBLIC	??_R0?AVCSerialException@@@8			; CSerialException `RTTI Type Descriptor'
PUBLIC	??_R3CSerialException@@8			; CSerialException::`RTTI Class Hierarchy Descriptor'
PUBLIC	??_R2CSerialException@@8			; CSerialException::`RTTI Base Class Array'
PUBLIC	??_R1A@?0A@EA@CSerialException@@8		; CSerialException::`RTTI Base Class Descriptor at (0,-1,0,64)'
PUBLIC	??_R1A@?0A@EA@CException@@8			; CException::`RTTI Base Class Descriptor at (0,-1,0,64)'
PUBLIC	??_R0?AVCException@@@8				; CException `RTTI Type Descriptor'
PUBLIC	??_R3CException@@8				; CException::`RTTI Class Hierarchy Descriptor'
PUBLIC	??_R2CException@@8				; CException::`RTTI Base Class Array'
PUBLIC	??_R1A@?0A@EA@CObject@@8			; CObject::`RTTI Base Class Descriptor at (0,-1,0,64)'
PUBLIC	??_R0?AVCObject@@@8				; CObject `RTTI Type Descriptor'
PUBLIC	??_R3CObject@@8					; CObject::`RTTI Class Hierarchy Descriptor'
PUBLIC	??_R2CObject@@8					; CObject::`RTTI Base Class Array'
PUBLIC	?GetRuntimeClass@CSerialException@@UBEPAUCRuntimeClass@@XZ ; CSerialException::GetRuntimeClass
PUBLIC	?Dump@CSerialException@@UBEXAAVCDumpContext@@@Z	; CSerialException::Dump
EXTRN	??0CException@@QAE@XZ:PROC			; CException::CException
EXTRN	??_7type_info@@6B@:QWORD			; type_info::`vftable'
EXTRN	??_ECSerialException@@UAEPAXI@Z:PROC		; CSerialException::`vector deleting destructor'
EXTRN	?Serialize@CObject@@UAEXAAVCArchive@@@Z:PROC	; CObject::Serialize
EXTRN	?AssertValid@CObject@@UBEXXZ:PROC		; CObject::AssertValid
EXTRN	?GetErrorMessage@CException@@UBEHPA_WIPAI@Z:PROC ; CException::GetErrorMessage
EXTRN	?ReportError@CException@@UAEHII@Z:PROC		; CException::ReportError
;	COMDAT ??_R2CObject@@8
rdata$r	SEGMENT
??_R2CObject@@8 DD FLAT:??_R1A@?0A@EA@CObject@@8	; CObject::`RTTI Base Class Array'
rdata$r	ENDS
;	COMDAT ??_R3CObject@@8
rdata$r	SEGMENT
??_R3CObject@@8 DD 00H					; CObject::`RTTI Class Hierarchy Descriptor'
	DD	00H
	DD	01H
	DD	FLAT:??_R2CObject@@8
rdata$r	ENDS
;	COMDAT ??_R0?AVCObject@@@8
_DATA	SEGMENT
??_R0?AVCObject@@@8 DD FLAT:??_7type_info@@6B@		; CObject `RTTI Type Descriptor'
	DD	00H
	DB	'.?AVCObject@@', 00H
_DATA	ENDS
;	COMDAT ??_R1A@?0A@EA@CObject@@8
rdata$r	SEGMENT
??_R1A@?0A@EA@CObject@@8 DD FLAT:??_R0?AVCObject@@@8	; CObject::`RTTI Base Class Descriptor at (0,-1,0,64)'
	DD	00H
	DD	00H
	DD	0ffffffffH
	DD	00H
	DD	040H
	DD	FLAT:??_R3CObject@@8
rdata$r	ENDS
;	COMDAT ??_R2CException@@8
rdata$r	SEGMENT
??_R2CException@@8 DD FLAT:??_R1A@?0A@EA@CException@@8	; CException::`RTTI Base Class Array'
	DD	FLAT:??_R1A@?0A@EA@CObject@@8
rdata$r	ENDS
;	COMDAT ??_R3CException@@8
rdata$r	SEGMENT
??_R3CException@@8 DD 00H				; CException::`RTTI Class Hierarchy Descriptor'
	DD	00H
	DD	02H
	DD	FLAT:??_R2CException@@8
rdata$r	ENDS
;	COMDAT ??_R0?AVCException@@@8
_DATA	SEGMENT
??_R0?AVCException@@@8 DD FLAT:??_7type_info@@6B@	; CException `RTTI Type Descriptor'
	DD	00H
	DB	'.?AVCException@@', 00H
_DATA	ENDS
;	COMDAT ??_R1A@?0A@EA@CException@@8
rdata$r	SEGMENT
??_R1A@?0A@EA@CException@@8 DD FLAT:??_R0?AVCException@@@8 ; CException::`RTTI Base Class Descriptor at (0,-1,0,64)'
	DD	01H
	DD	00H
	DD	0ffffffffH
	DD	00H
	DD	040H
	DD	FLAT:??_R3CException@@8
rdata$r	ENDS
;	COMDAT ??_R1A@?0A@EA@CSerialException@@8
rdata$r	SEGMENT
??_R1A@?0A@EA@CSerialException@@8 DD FLAT:??_R0?AVCSerialException@@@8 ; CSerialException::`RTTI Base Class Descriptor at (0,-1,0,64)'
	DD	02H
	DD	00H
	DD	0ffffffffH
	DD	00H
	DD	040H
	DD	FLAT:??_R3CSerialException@@8
rdata$r	ENDS
;	COMDAT ??_R2CSerialException@@8
rdata$r	SEGMENT
??_R2CSerialException@@8 DD FLAT:??_R1A@?0A@EA@CSerialException@@8 ; CSerialException::`RTTI Base Class Array'
	DD	FLAT:??_R1A@?0A@EA@CException@@8
	DD	FLAT:??_R1A@?0A@EA@CObject@@8
rdata$r	ENDS
;	COMDAT ??_R3CSerialException@@8
rdata$r	SEGMENT
??_R3CSerialException@@8 DD 00H				; CSerialException::`RTTI Class Hierarchy Descriptor'
	DD	00H
	DD	03H
	DD	FLAT:??_R2CSerialException@@8
rdata$r	ENDS
;	COMDAT ??_R0?AVCSerialException@@@8
_DATA	SEGMENT
??_R0?AVCSerialException@@@8 DD FLAT:??_7type_info@@6B@	; CSerialException `RTTI Type Descriptor'
	DD	00H
	DB	'.?AVCSerialException@@', 00H
_DATA	ENDS
;	COMDAT ??_R4CSerialException@@6B@
rdata$r	SEGMENT
??_R4CSerialException@@6B@ DD 00H			; CSerialException::`RTTI Complete Object Locator'
	DD	00H
	DD	00H
	DD	FLAT:??_R0?AVCSerialException@@@8
	DD	FLAT:??_R3CSerialException@@8
rdata$r	ENDS
;	COMDAT ??_7CSerialException@@6B@
CONST	SEGMENT
??_7CSerialException@@6B@ DD FLAT:??_R4CSerialException@@6B@ ; CSerialException::`vftable'
	DD	FLAT:?GetRuntimeClass@CSerialException@@UBEPAUCRuntimeClass@@XZ
	DD	FLAT:??_ECSerialException@@UAEPAXI@Z
	DD	FLAT:?Serialize@CObject@@UAEXAAVCArchive@@@Z
	DD	FLAT:?AssertValid@CObject@@UBEXXZ
	DD	FLAT:?Dump@CSerialException@@UBEXAAVCDumpContext@@@Z
	DD	FLAT:?GetErrorMessage@CSerialException@@UAEHPA_WIPAI@Z
	DD	FLAT:?GetErrorMessage@CException@@UBEHPA_WIPAI@Z
	DD	FLAT:?ReportError@CException@@UAEHII@Z
; Function compile flags: /Odtp /RTCsu /ZI
CONST	ENDS
;	COMDAT ??0CSerialException@@QAE@K@Z
_TEXT	SEGMENT
_this$ = -8						; size = 4
_dwError$ = 8						; size = 4
??0CSerialException@@QAE@K@Z PROC			; CSerialException::CSerialException, COMDAT
; _this$ = ecx

; 168  : {

  00000	55		 push	 ebp
  00001	8b ec		 mov	 ebp, esp
  00003	81 ec cc 00 00
	00		 sub	 esp, 204		; 000000ccH
  00009	53		 push	 ebx
  0000a	56		 push	 esi
  0000b	57		 push	 edi
  0000c	51		 push	 ecx
  0000d	8d bd 34 ff ff
	ff		 lea	 edi, DWORD PTR [ebp-204]
  00013	b9 33 00 00 00	 mov	 ecx, 51			; 00000033H
  00018	b8 cc cc cc cc	 mov	 eax, -858993460		; ccccccccH
  0001d	f3 ab		 rep stosd
  0001f	59		 pop	 ecx
  00020	89 4d f8	 mov	 DWORD PTR _this$[ebp], ecx
  00023	8b 4d f8	 mov	 ecx, DWORD PTR _this$[ebp]
  00026	e8 00 00 00 00	 call	 ??0CException@@QAE@XZ	; CException::CException
  0002b	8b 45 f8	 mov	 eax, DWORD PTR _this$[ebp]
  0002e	c7 00 00 00 00
	00		 mov	 DWORD PTR [eax], OFFSET ??_7CSerialException@@6B@

; 169  : 	m_dwError = dwError;

  00034	8b 45 f8	 mov	 eax, DWORD PTR _this$[ebp]
  00037	8b 4d 08	 mov	 ecx, DWORD PTR _dwError$[ebp]
  0003a	89 48 0c	 mov	 DWORD PTR [eax+12], ecx

; 170  : }

  0003d	8b 45 f8	 mov	 eax, DWORD PTR _this$[ebp]
  00040	5f		 pop	 edi
  00041	5e		 pop	 esi
  00042	5b		 pop	 ebx
  00043	81 c4 cc 00 00
	00		 add	 esp, 204		; 000000ccH
  00049	3b ec		 cmp	 ebp, esp
  0004b	e8 00 00 00 00	 call	 __RTC_CheckEsp
  00050	8b e5		 mov	 esp, ebp
  00052	5d		 pop	 ebp
  00053	c2 04 00	 ret	 4
??0CSerialException@@QAE@K@Z ENDP			; CSerialException::CSerialException
_TEXT	ENDS
PUBLIC	??1CSerialException@@UAE@XZ			; CSerialException::~CSerialException
EXTRN	??3CException@@SGXPAX@Z:PROC			; CException::operator delete
; Function compile flags: /Odtp /RTCsu /ZI
;	COMDAT ??_GCSerialException@@UAEPAXI@Z
_TEXT	SEGMENT
_this$ = -8						; size = 4
___flags$ = 8						; size = 4
??_GCSerialException@@UAEPAXI@Z PROC			; CSerialException::`scalar deleting destructor', COMDAT
; _this$ = ecx
  00000	55		 push	 ebp
  00001	8b ec		 mov	 ebp, esp
  00003	81 ec cc 00 00
	00		 sub	 esp, 204		; 000000ccH
  00009	53		 push	 ebx
  0000a	56		 push	 esi
  0000b	57		 push	 edi
  0000c	51		 push	 ecx
  0000d	8d bd 34 ff ff
	ff		 lea	 edi, DWORD PTR [ebp-204]
  00013	b9 33 00 00 00	 mov	 ecx, 51			; 00000033H
  00018	b8 cc cc cc cc	 mov	 eax, -858993460		; ccccccccH
  0001d	f3 ab		 rep stosd
  0001f	59		 pop	 ecx
  00020	89 4d f8	 mov	 DWORD PTR _this$[ebp], ecx
  00023	8b 4d f8	 mov	 ecx, DWORD PTR _this$[ebp]
  00026	e8 00 00 00 00	 call	 ??1CSerialException@@UAE@XZ ; CSerialException::~CSerialException
  0002b	8b 45 08	 mov	 eax, DWORD PTR ___flags$[ebp]
  0002e	83 e0 01	 and	 eax, 1
  00031	74 09		 je	 SHORT $LN1@scalar
  00033	8b 45 f8	 mov	 eax, DWORD PTR _this$[ebp]
  00036	50		 push	 eax
  00037	e8 00 00 00 00	 call	 ??3CException@@SGXPAX@Z	; CException::operator delete
$LN1@scalar:
  0003c	8b 45 f8	 mov	 eax, DWORD PTR _this$[ebp]
  0003f	5f		 pop	 edi
  00040	5e		 pop	 esi
  00041	5b		 pop	 ebx
  00042	81 c4 cc 00 00
	00		 add	 esp, 204		; 000000ccH
  00048	3b ec		 cmp	 ebp, esp
  0004a	e8 00 00 00 00	 call	 __RTC_CheckEsp
  0004f	8b e5		 mov	 esp, ebp
  00051	5d		 pop	 ebp
  00052	c2 04 00	 ret	 4
??_GCSerialException@@UAEPAXI@Z ENDP			; CSerialException::`scalar deleting destructor'
_TEXT	ENDS
EXTRN	??1CException@@UAE@XZ:PROC			; CException::~CException
; Function compile flags: /Odtp /RTCsu /ZI
;	COMDAT ??1CSerialException@@UAE@XZ
_TEXT	SEGMENT
_this$ = -8						; size = 4
??1CSerialException@@UAE@XZ PROC			; CSerialException::~CSerialException, COMDAT
; _this$ = ecx

; 173  : {

  00000	55		 push	 ebp
  00001	8b ec		 mov	 ebp, esp
  00003	81 ec cc 00 00
	00		 sub	 esp, 204		; 000000ccH
  00009	53		 push	 ebx
  0000a	56		 push	 esi
  0000b	57		 push	 edi
  0000c	51		 push	 ecx
  0000d	8d bd 34 ff ff
	ff		 lea	 edi, DWORD PTR [ebp-204]
  00013	b9 33 00 00 00	 mov	 ecx, 51			; 00000033H
  00018	b8 cc cc cc cc	 mov	 eax, -858993460		; ccccccccH
  0001d	f3 ab		 rep stosd
  0001f	59		 pop	 ecx
  00020	89 4d f8	 mov	 DWORD PTR _this$[ebp], ecx
  00023	8b 45 f8	 mov	 eax, DWORD PTR _this$[ebp]
  00026	c7 00 00 00 00
	00		 mov	 DWORD PTR [eax], OFFSET ??_7CSerialException@@6B@

; 174  : }

  0002c	8b 4d f8	 mov	 ecx, DWORD PTR _this$[ebp]
  0002f	e8 00 00 00 00	 call	 ??1CException@@UAE@XZ	; CException::~CException
  00034	5f		 pop	 edi
  00035	5e		 pop	 esi
  00036	5b		 pop	 ebx
  00037	81 c4 cc 00 00
	00		 add	 esp, 204		; 000000ccH
  0003d	3b ec		 cmp	 ebp, esp
  0003f	e8 00 00 00 00	 call	 __RTC_CheckEsp
  00044	8b e5		 mov	 esp, ebp
  00046	5d		 pop	 ebp
  00047	c3		 ret	 0
??1CSerialException@@UAE@XZ ENDP			; CSerialException::~CSerialException
; Function compile flags: /Odtp /RTCsu /ZI
_TEXT	ENDS
;	COMDAT ?GetRuntimeClass@CSerialException@@UBEPAUCRuntimeClass@@XZ
_TEXT	SEGMENT
_this$ = -8						; size = 4
?GetRuntimeClass@CSerialException@@UBEPAUCRuntimeClass@@XZ PROC ; CSerialException::GetRuntimeClass, COMDAT
; _this$ = ecx

; 176  : IMPLEMENT_DYNAMIC(CSerialException, CException)

  00000	55		 push	 ebp
  00001	8b ec		 mov	 ebp, esp
  00003	81 ec cc 00 00
	00		 sub	 esp, 204		; 000000ccH
  00009	53		 push	 ebx
  0000a	56		 push	 esi
  0000b	57		 push	 edi
  0000c	51		 push	 ecx
  0000d	8d bd 34 ff ff
	ff		 lea	 edi, DWORD PTR [ebp-204]
  00013	b9 33 00 00 00	 mov	 ecx, 51			; 00000033H
  00018	b8 cc cc cc cc	 mov	 eax, -858993460		; ccccccccH
  0001d	f3 ab		 rep stosd
  0001f	59		 pop	 ecx
  00020	89 4d f8	 mov	 DWORD PTR _this$[ebp], ecx
  00023	b8 00 00 00 00	 mov	 eax, OFFSET ?classCSerialException@CSerialException@@2UCRuntimeClass@@B ; CSerialException::classCSerialException
  00028	5f		 pop	 edi
  00029	5e		 pop	 esi
  0002a	5b		 pop	 ebx
  0002b	8b e5		 mov	 esp, ebp
  0002d	5d		 pop	 ebp
  0002e	c3		 ret	 0
?GetRuntimeClass@CSerialException@@UBEPAUCRuntimeClass@@XZ ENDP ; CSerialException::GetRuntimeClass
_TEXT	ENDS
PUBLIC	??_C@_0N@GBBBFPKD@m_dwError?5?$DN?5?$AA@	; `string'
EXTRN	??6CDumpContext@@QAEAAV0@K@Z:PROC		; CDumpContext::operator<<
EXTRN	??6CDumpContext@@QAEAAV0@PBD@Z:PROC		; CDumpContext::operator<<
EXTRN	?Dump@CObject@@UBEXAAVCDumpContext@@@Z:PROC	; CObject::Dump
;	COMDAT ??_C@_0N@GBBBFPKD@m_dwError?5?$DN?5?$AA@
CONST	SEGMENT
??_C@_0N@GBBBFPKD@m_dwError?5?$DN?5?$AA@ DB 'm_dwError = ', 00H ; `string'
; Function compile flags: /Odtp /RTCsu /ZI
CONST	ENDS
;	COMDAT ?Dump@CSerialException@@UBEXAAVCDumpContext@@@Z
_TEXT	SEGMENT
_this$ = -8						; size = 4
_dc$ = 8						; size = 4
?Dump@CSerialException@@UBEXAAVCDumpContext@@@Z PROC	; CSerialException::Dump, COMDAT
; _this$ = ecx

; 180  : {

  00000	55		 push	 ebp
  00001	8b ec		 mov	 ebp, esp
  00003	81 ec cc 00 00
	00		 sub	 esp, 204		; 000000ccH
  00009	53		 push	 ebx
  0000a	56		 push	 esi
  0000b	57		 push	 edi
  0000c	51		 push	 ecx
  0000d	8d bd 34 ff ff
	ff		 lea	 edi, DWORD PTR [ebp-204]
  00013	b9 33 00 00 00	 mov	 ecx, 51			; 00000033H
  00018	b8 cc cc cc cc	 mov	 eax, -858993460		; ccccccccH
  0001d	f3 ab		 rep stosd
  0001f	59		 pop	 ecx
  00020	89 4d f8	 mov	 DWORD PTR _this$[ebp], ecx

; 181  : 	CObject::Dump(dc);

  00023	8b 45 08	 mov	 eax, DWORD PTR _dc$[ebp]
  00026	50		 push	 eax
  00027	8b 4d f8	 mov	 ecx, DWORD PTR _this$[ebp]
  0002a	e8 00 00 00 00	 call	 ?Dump@CObject@@UBEXAAVCDumpContext@@@Z ; CObject::Dump

; 182  : 
; 183  : 	dc << "m_dwError = " << m_dwError;

  0002f	8b 45 f8	 mov	 eax, DWORD PTR _this$[ebp]
  00032	8b 48 0c	 mov	 ecx, DWORD PTR [eax+12]
  00035	51		 push	 ecx
  00036	68 00 00 00 00	 push	 OFFSET ??_C@_0N@GBBBFPKD@m_dwError?5?$DN?5?$AA@
  0003b	8b 4d 08	 mov	 ecx, DWORD PTR _dc$[ebp]
  0003e	e8 00 00 00 00	 call	 ??6CDumpContext@@QAEAAV0@PBD@Z ; CDumpContext::operator<<
  00043	8b c8		 mov	 ecx, eax
  00045	e8 00 00 00 00	 call	 ??6CDumpContext@@QAEAAV0@K@Z ; CDumpContext::operator<<

; 184  : }

  0004a	5f		 pop	 edi
  0004b	5e		 pop	 esi
  0004c	5b		 pop	 ebx
  0004d	81 c4 cc 00 00
	00		 add	 esp, 204		; 000000ccH
  00053	3b ec		 cmp	 ebp, esp
  00055	e8 00 00 00 00	 call	 __RTC_CheckEsp
  0005a	8b e5		 mov	 esp, ebp
  0005c	5d		 pop	 ebp
  0005d	c2 04 00	 ret	 4
?Dump@CSerialException@@UBEXAAVCDumpContext@@@Z ENDP	; CSerialException::Dump
_TEXT	ENDS
PUBLIC	??_7CSerialPort@@6B@				; CSerialPort::`vftable'
PUBLIC	??0CSerialPort@@QAE@XZ				; CSerialPort::CSerialPort
PUBLIC	??_R4CSerialPort@@6B@				; CSerialPort::`RTTI Complete Object Locator'
PUBLIC	??_R0?AVCSerialPort@@@8				; CSerialPort `RTTI Type Descriptor'
PUBLIC	??_R3CSerialPort@@8				; CSerialPort::`RTTI Class Hierarchy Descriptor'
PUBLIC	??_R2CSerialPort@@8				; CSerialPort::`RTTI Base Class Array'
PUBLIC	??_R1A@?0A@EA@CSerialPort@@8			; CSerialPort::`RTTI Base Class Descriptor at (0,-1,0,64)'
PUBLIC	?GetRuntimeClass@CSerialPort@@UBEPAUCRuntimeClass@@XZ ; CSerialPort::GetRuntimeClass
PUBLIC	?Dump@CSerialPort@@UBEXAAVCDumpContext@@@Z	; CSerialPort::Dump
PUBLIC	?OnCompletion@CSerialPort@@UAEXKKPAU_OVERLAPPED@@@Z ; CSerialPort::OnCompletion
EXTRN	??0CObject@@IAE@XZ:PROC				; CObject::CObject
EXTRN	??_ECSerialPort@@UAEPAXI@Z:PROC			; CSerialPort::`vector deleting destructor'
;	COMDAT ??_R1A@?0A@EA@CSerialPort@@8
rdata$r	SEGMENT
??_R1A@?0A@EA@CSerialPort@@8 DD FLAT:??_R0?AVCSerialPort@@@8 ; CSerialPort::`RTTI Base Class Descriptor at (0,-1,0,64)'
	DD	01H
	DD	00H
	DD	0ffffffffH
	DD	00H
	DD	040H
	DD	FLAT:??_R3CSerialPort@@8
rdata$r	ENDS
;	COMDAT ??_R2CSerialPort@@8
rdata$r	SEGMENT
??_R2CSerialPort@@8 DD FLAT:??_R1A@?0A@EA@CSerialPort@@8 ; CSerialPort::`RTTI Base Class Array'
	DD	FLAT:??_R1A@?0A@EA@CObject@@8
rdata$r	ENDS
;	COMDAT ??_R3CSerialPort@@8
rdata$r	SEGMENT
??_R3CSerialPort@@8 DD 00H				; CSerialPort::`RTTI Class Hierarchy Descriptor'
	DD	00H
	DD	02H
	DD	FLAT:??_R2CSerialPort@@8
rdata$r	ENDS
;	COMDAT ??_R0?AVCSerialPort@@@8
_DATA	SEGMENT
??_R0?AVCSerialPort@@@8 DD FLAT:??_7type_info@@6B@	; CSerialPort `RTTI Type Descriptor'
	DD	00H
	DB	'.?AVCSerialPort@@', 00H
_DATA	ENDS
;	COMDAT ??_R4CSerialPort@@6B@
rdata$r	SEGMENT
??_R4CSerialPort@@6B@ DD 00H				; CSerialPort::`RTTI Complete Object Locator'
	DD	00H
	DD	00H
	DD	FLAT:??_R0?AVCSerialPort@@@8
	DD	FLAT:??_R3CSerialPort@@8
rdata$r	ENDS
;	COMDAT ??_7CSerialPort@@6B@
CONST	SEGMENT
??_7CSerialPort@@6B@ DD FLAT:??_R4CSerialPort@@6B@	; CSerialPort::`vftable'
	DD	FLAT:?GetRuntimeClass@CSerialPort@@UBEPAUCRuntimeClass@@XZ
	DD	FLAT:??_ECSerialPort@@UAEPAXI@Z
	DD	FLAT:?Serialize@CObject@@UAEXAAVCArchive@@@Z
	DD	FLAT:?AssertValid@CObject@@UBEXXZ
	DD	FLAT:?Dump@CSerialPort@@UBEXAAVCDumpContext@@@Z
	DD	FLAT:?OnCompletion@CSerialPort@@UAEXKKPAU_OVERLAPPED@@@Z
; Function compile flags: /Odtp /RTCsu /ZI
CONST	ENDS
;	COMDAT ??0CSerialPort@@QAE@XZ
_TEXT	SEGMENT
_this$ = -8						; size = 4
??0CSerialPort@@QAE@XZ PROC				; CSerialPort::CSerialPort, COMDAT
; _this$ = ecx

; 194  : {

  00000	55		 push	 ebp
  00001	8b ec		 mov	 ebp, esp
  00003	81 ec cc 00 00
	00		 sub	 esp, 204		; 000000ccH
  00009	53		 push	 ebx
  0000a	56		 push	 esi
  0000b	57		 push	 edi
  0000c	51		 push	 ecx
  0000d	8d bd 34 ff ff
	ff		 lea	 edi, DWORD PTR [ebp-204]
  00013	b9 33 00 00 00	 mov	 ecx, 51			; 00000033H
  00018	b8 cc cc cc cc	 mov	 eax, -858993460		; ccccccccH
  0001d	f3 ab		 rep stosd
  0001f	59		 pop	 ecx
  00020	89 4d f8	 mov	 DWORD PTR _this$[ebp], ecx
  00023	8b 4d f8	 mov	 ecx, DWORD PTR _this$[ebp]
  00026	e8 00 00 00 00	 call	 ??0CObject@@IAE@XZ	; CObject::CObject
  0002b	8b 45 f8	 mov	 eax, DWORD PTR _this$[ebp]
  0002e	c7 00 00 00 00
	00		 mov	 DWORD PTR [eax], OFFSET ??_7CSerialPort@@6B@

; 195  :   m_hComm = INVALID_HANDLE_VALUE;

  00034	8b 45 f8	 mov	 eax, DWORD PTR _this$[ebp]
  00037	c7 40 04 ff ff
	ff ff		 mov	 DWORD PTR [eax+4], -1

; 196  :   m_bOverlapped = FALSE;

  0003e	8b 45 f8	 mov	 eax, DWORD PTR _this$[ebp]
  00041	c7 40 08 00 00
	00 00		 mov	 DWORD PTR [eax+8], 0

; 197  :   m_hEvent = NULL;

  00048	8b 45 f8	 mov	 eax, DWORD PTR _this$[ebp]
  0004b	c7 40 0c 00 00
	00 00		 mov	 DWORD PTR [eax+12], 0

; 198  : }

  00052	8b 45 f8	 mov	 eax, DWORD PTR _this$[ebp]
  00055	5f		 pop	 edi
  00056	5e		 pop	 esi
  00057	5b		 pop	 ebx
  00058	81 c4 cc 00 00
	00		 add	 esp, 204		; 000000ccH
  0005e	3b ec		 cmp	 ebp, esp
  00060	e8 00 00 00 00	 call	 __RTC_CheckEsp
  00065	8b e5		 mov	 esp, ebp
  00067	5d		 pop	 ebp
  00068	c3		 ret	 0
??0CSerialPort@@QAE@XZ ENDP				; CSerialPort::CSerialPort
_TEXT	ENDS
PUBLIC	??1CSerialPort@@UAE@XZ				; CSerialPort::~CSerialPort
EXTRN	??3CObject@@SGXPAX@Z:PROC			; CObject::operator delete
; Function compile flags: /Odtp /RTCsu /ZI
;	COMDAT ??_GCSerialPort@@UAEPAXI@Z
_TEXT	SEGMENT
_this$ = -8						; size = 4
___flags$ = 8						; size = 4
??_GCSerialPort@@UAEPAXI@Z PROC				; CSerialPort::`scalar deleting destructor', COMDAT
; _this$ = ecx
  00000	55		 push	 ebp
  00001	8b ec		 mov	 ebp, esp
  00003	81 ec cc 00 00
	00		 sub	 esp, 204		; 000000ccH
  00009	53		 push	 ebx
  0000a	56		 push	 esi
  0000b	57		 push	 edi
  0000c	51		 push	 ecx
  0000d	8d bd 34 ff ff
	ff		 lea	 edi, DWORD PTR [ebp-204]
  00013	b9 33 00 00 00	 mov	 ecx, 51			; 00000033H
  00018	b8 cc cc cc cc	 mov	 eax, -858993460		; ccccccccH
  0001d	f3 ab		 rep stosd
  0001f	59		 pop	 ecx
  00020	89 4d f8	 mov	 DWORD PTR _this$[ebp], ecx
  00023	8b 4d f8	 mov	 ecx, DWORD PTR _this$[ebp]
  00026	e8 00 00 00 00	 call	 ??1CSerialPort@@UAE@XZ	; CSerialPort::~CSerialPort
  0002b	8b 45 08	 mov	 eax, DWORD PTR ___flags$[ebp]
  0002e	83 e0 01	 and	 eax, 1
  00031	74 09		 je	 SHORT $LN1@scalar@2
  00033	8b 45 f8	 mov	 eax, DWORD PTR _this$[ebp]
  00036	50		 push	 eax
  00037	e8 00 00 00 00	 call	 ??3CObject@@SGXPAX@Z	; CObject::operator delete
$LN1@scalar@2:
  0003c	8b 45 f8	 mov	 eax, DWORD PTR _this$[ebp]
  0003f	5f		 pop	 edi
  00040	5e		 pop	 esi
  00041	5b		 pop	 ebx
  00042	81 c4 cc 00 00
	00		 add	 esp, 204		; 000000ccH
  00048	3b ec		 cmp	 ebp, esp
  0004a	e8 00 00 00 00	 call	 __RTC_CheckEsp
  0004f	8b e5		 mov	 esp, ebp
  00051	5d		 pop	 ebp
  00052	c2 04 00	 ret	 4
??_GCSerialPort@@UAEPAXI@Z ENDP				; CSerialPort::`scalar deleting destructor'
_TEXT	ENDS
PUBLIC	?Close@CSerialPort@@QAEXXZ			; CSerialPort::Close
EXTRN	??1CObject@@UAE@XZ:PROC				; CObject::~CObject
EXTRN	__imp__CloseHandle@4:PROC
;	COMDAT xdata$x
xdata$x	SEGMENT
__unwindtable$??1CSerialPort@@UAE@XZ DD 0ffffffffH
	DD	FLAT:__unwindfunclet$??1CSerialPort@@UAE@XZ$0
__ehfuncinfo$??1CSerialPort@@UAE@XZ DD 019930522H
	DD	01H
	DD	FLAT:__unwindtable$??1CSerialPort@@UAE@XZ
	DD	2 DUP(00H)
	DD	2 DUP(00H)
	DD	00H
	DD	01H
; Function compile flags: /Odtp /RTCsu /ZI
xdata$x	ENDS
;	COMDAT ??1CSerialPort@@UAE@XZ
_TEXT	SEGMENT
_this$ = -20						; size = 4
__$EHRec$ = -12						; size = 12
??1CSerialPort@@UAE@XZ PROC				; CSerialPort::~CSerialPort, COMDAT
; _this$ = ecx

; 201  : {

  00000	55		 push	 ebp
  00001	8b ec		 mov	 ebp, esp
  00003	6a ff		 push	 -1
  00005	68 00 00 00 00	 push	 __ehhandler$??1CSerialPort@@UAE@XZ
  0000a	64 a1 00 00 00
	00		 mov	 eax, DWORD PTR fs:0
  00010	50		 push	 eax
  00011	81 ec cc 00 00
	00		 sub	 esp, 204		; 000000ccH
  00017	53		 push	 ebx
  00018	56		 push	 esi
  00019	57		 push	 edi
  0001a	51		 push	 ecx
  0001b	8d bd 28 ff ff
	ff		 lea	 edi, DWORD PTR [ebp-216]
  00021	b9 33 00 00 00	 mov	 ecx, 51			; 00000033H
  00026	b8 cc cc cc cc	 mov	 eax, -858993460		; ccccccccH
  0002b	f3 ab		 rep stosd
  0002d	59		 pop	 ecx
  0002e	a1 00 00 00 00	 mov	 eax, DWORD PTR ___security_cookie
  00033	33 c5		 xor	 eax, ebp
  00035	50		 push	 eax
  00036	8d 45 f4	 lea	 eax, DWORD PTR __$EHRec$[ebp]
  00039	64 a3 00 00 00
	00		 mov	 DWORD PTR fs:0, eax
  0003f	89 4d ec	 mov	 DWORD PTR _this$[ebp], ecx
  00042	8b 45 ec	 mov	 eax, DWORD PTR _this$[ebp]
  00045	c7 00 00 00 00
	00		 mov	 DWORD PTR [eax], OFFSET ??_7CSerialPort@@6B@
  0004b	c7 45 fc 00 00
	00 00		 mov	 DWORD PTR __$EHRec$[ebp+8], 0

; 202  :   Close();

  00052	8b 4d ec	 mov	 ecx, DWORD PTR _this$[ebp]
  00055	e8 00 00 00 00	 call	 ?Close@CSerialPort@@QAEXXZ ; CSerialPort::Close

; 203  :   if (m_hComm)

  0005a	8b 45 ec	 mov	 eax, DWORD PTR _this$[ebp]
  0005d	83 78 04 00	 cmp	 DWORD PTR [eax+4], 0
  00061	74 20		 je	 SHORT $LN2@CSerialPor

; 204  :   {
; 205  : 	  CloseHandle(m_hComm);

  00063	8b f4		 mov	 esi, esp
  00065	8b 45 ec	 mov	 eax, DWORD PTR _this$[ebp]
  00068	8b 48 04	 mov	 ecx, DWORD PTR [eax+4]
  0006b	51		 push	 ecx
  0006c	ff 15 00 00 00
	00		 call	 DWORD PTR __imp__CloseHandle@4
  00072	3b f4		 cmp	 esi, esp
  00074	e8 00 00 00 00	 call	 __RTC_CheckEsp

; 206  : 	  m_hComm = NULL;

  00079	8b 45 ec	 mov	 eax, DWORD PTR _this$[ebp]
  0007c	c7 40 04 00 00
	00 00		 mov	 DWORD PTR [eax+4], 0
$LN2@CSerialPor:

; 207  :   }
; 208  : }

  00083	c7 45 fc ff ff
	ff ff		 mov	 DWORD PTR __$EHRec$[ebp+8], -1
  0008a	8b 4d ec	 mov	 ecx, DWORD PTR _this$[ebp]
  0008d	e8 00 00 00 00	 call	 ??1CObject@@UAE@XZ	; CObject::~CObject
  00092	8b 4d f4	 mov	 ecx, DWORD PTR __$EHRec$[ebp]
  00095	64 89 0d 00 00
	00 00		 mov	 DWORD PTR fs:0, ecx
  0009c	59		 pop	 ecx
  0009d	5f		 pop	 edi
  0009e	5e		 pop	 esi
  0009f	5b		 pop	 ebx
  000a0	81 c4 d8 00 00
	00		 add	 esp, 216		; 000000d8H
  000a6	3b ec		 cmp	 ebp, esp
  000a8	e8 00 00 00 00	 call	 __RTC_CheckEsp
  000ad	8b e5		 mov	 esp, ebp
  000af	5d		 pop	 ebp
  000b0	c3		 ret	 0
_TEXT	ENDS
;	COMDAT text$x
text$x	SEGMENT
__unwindfunclet$??1CSerialPort@@UAE@XZ$0:
  00000	8b 4d ec	 mov	 ecx, DWORD PTR _this$[ebp]
  00003	e9 00 00 00 00	 jmp	 ??1CObject@@UAE@XZ	; CObject::~CObject
__ehhandler$??1CSerialPort@@UAE@XZ:
  00008	8b 54 24 08	 mov	 edx, DWORD PTR [esp+8]
  0000c	8d 42 0c	 lea	 eax, DWORD PTR [edx+12]
  0000f	8b 8a 24 ff ff
	ff		 mov	 ecx, DWORD PTR [edx-220]
  00015	33 c8		 xor	 ecx, eax
  00017	e8 00 00 00 00	 call	 @__security_check_cookie@4
  0001c	b8 00 00 00 00	 mov	 eax, OFFSET __ehfuncinfo$??1CSerialPort@@UAE@XZ
  00021	e9 00 00 00 00	 jmp	 ___CxxFrameHandler3
text$x	ENDS
??1CSerialPort@@UAE@XZ ENDP				; CSerialPort::~CSerialPort
; Function compile flags: /Odtp /RTCsu /ZI
;	COMDAT ?GetRuntimeClass@CSerialPort@@UBEPAUCRuntimeClass@@XZ
_TEXT	SEGMENT
_this$ = -8						; size = 4
?GetRuntimeClass@CSerialPort@@UBEPAUCRuntimeClass@@XZ PROC ; CSerialPort::GetRuntimeClass, COMDAT
; _this$ = ecx

; 210  : IMPLEMENT_DYNAMIC(CSerialPort, CObject)

  00000	55		 push	 ebp
  00001	8b ec		 mov	 ebp, esp
  00003	81 ec cc 00 00
	00		 sub	 esp, 204		; 000000ccH
  00009	53		 push	 ebx
  0000a	56		 push	 esi
  0000b	57		 push	 edi
  0000c	51		 push	 ecx
  0000d	8d bd 34 ff ff
	ff		 lea	 edi, DWORD PTR [ebp-204]
  00013	b9 33 00 00 00	 mov	 ecx, 51			; 00000033H
  00018	b8 cc cc cc cc	 mov	 eax, -858993460		; ccccccccH
  0001d	f3 ab		 rep stosd
  0001f	59		 pop	 ecx
  00020	89 4d f8	 mov	 DWORD PTR _this$[ebp], ecx
  00023	b8 00 00 00 00	 mov	 eax, OFFSET ?classCSerialPort@CSerialPort@@2UCRuntimeClass@@B ; CSerialPort::classCSerialPort
  00028	5f		 pop	 edi
  00029	5e		 pop	 esi
  0002a	5b		 pop	 ebx
  0002b	8b e5		 mov	 esp, ebp
  0002d	5d		 pop	 ebp
  0002e	c3		 ret	 0
?GetRuntimeClass@CSerialPort@@UBEPAUCRuntimeClass@@XZ ENDP ; CSerialPort::GetRuntimeClass
_TEXT	ENDS
PUBLIC	??_C@_1CC@JPENPCBB@?$AAm?$AA_?$AAb?$AAO?$AAv?$AAe?$AAr?$AAl?$AAa?$AAp?$AAp?$AAe?$AAd?$AA?5?$AA?$DN?$AA?5?$AA?$AA@ ; `string'
PUBLIC	??_C@_1BG@BAENHBHP@?$AAm?$AA_?$AAh?$AAC?$AAo?$AAm?$AAm?$AA?5?$AA?$DN?$AA?5?$AA?$AA@ ; `string'
PUBLIC	??_C@_13LBAGMAIH@?$AA?6?$AA?$AA@		; `string'
EXTRN	??6CDumpContext@@QAEAAV0@H@Z:PROC		; CDumpContext::operator<<
EXTRN	??6CDumpContext@@QAEAAV0@PBX@Z:PROC		; CDumpContext::operator<<
EXTRN	??6CDumpContext@@QAEAAV0@PB_W@Z:PROC		; CDumpContext::operator<<
;	COMDAT ??_C@_1CC@JPENPCBB@?$AAm?$AA_?$AAb?$AAO?$AAv?$AAe?$AAr?$AAl?$AAa?$AAp?$AAp?$AAe?$AAd?$AA?5?$AA?$DN?$AA?5?$AA?$AA@
CONST	SEGMENT
??_C@_1CC@JPENPCBB@?$AAm?$AA_?$AAb?$AAO?$AAv?$AAe?$AAr?$AAl?$AAa?$AAp?$AAp?$AAe?$AAd?$AA?5?$AA?$DN?$AA?5?$AA?$AA@ DB 'm'
	DB	00H, '_', 00H, 'b', 00H, 'O', 00H, 'v', 00H, 'e', 00H, 'r', 00H
	DB	'l', 00H, 'a', 00H, 'p', 00H, 'p', 00H, 'e', 00H, 'd', 00H, ' '
	DB	00H, '=', 00H, ' ', 00H, 00H, 00H		; `string'
CONST	ENDS
;	COMDAT ??_C@_1BG@BAENHBHP@?$AAm?$AA_?$AAh?$AAC?$AAo?$AAm?$AAm?$AA?5?$AA?$DN?$AA?5?$AA?$AA@
CONST	SEGMENT
??_C@_1BG@BAENHBHP@?$AAm?$AA_?$AAh?$AAC?$AAo?$AAm?$AAm?$AA?5?$AA?$DN?$AA?5?$AA?$AA@ DB 'm'
	DB	00H, '_', 00H, 'h', 00H, 'C', 00H, 'o', 00H, 'm', 00H, 'm', 00H
	DB	' ', 00H, '=', 00H, ' ', 00H, 00H, 00H	; `string'
CONST	ENDS
;	COMDAT ??_C@_13LBAGMAIH@?$AA?6?$AA?$AA@
CONST	SEGMENT
??_C@_13LBAGMAIH@?$AA?6?$AA?$AA@ DB 0aH, 00H, 00H, 00H	; `string'
; Function compile flags: /Odtp /RTCsu /ZI
CONST	ENDS
;	COMDAT ?Dump@CSerialPort@@UBEXAAVCDumpContext@@@Z
_TEXT	SEGMENT
_this$ = -8						; size = 4
_dc$ = 8						; size = 4
?Dump@CSerialPort@@UBEXAAVCDumpContext@@@Z PROC		; CSerialPort::Dump, COMDAT
; _this$ = ecx

; 214  : {

  00000	55		 push	 ebp
  00001	8b ec		 mov	 ebp, esp
  00003	81 ec cc 00 00
	00		 sub	 esp, 204		; 000000ccH
  00009	53		 push	 ebx
  0000a	56		 push	 esi
  0000b	57		 push	 edi
  0000c	51		 push	 ecx
  0000d	8d bd 34 ff ff
	ff		 lea	 edi, DWORD PTR [ebp-204]
  00013	b9 33 00 00 00	 mov	 ecx, 51			; 00000033H
  00018	b8 cc cc cc cc	 mov	 eax, -858993460		; ccccccccH
  0001d	f3 ab		 rep stosd
  0001f	59		 pop	 ecx
  00020	89 4d f8	 mov	 DWORD PTR _this$[ebp], ecx

; 215  : 	CObject::Dump(dc);

  00023	8b 45 08	 mov	 eax, DWORD PTR _dc$[ebp]
  00026	50		 push	 eax
  00027	8b 4d f8	 mov	 ecx, DWORD PTR _this$[ebp]
  0002a	e8 00 00 00 00	 call	 ?Dump@CObject@@UBEXAAVCDumpContext@@@Z ; CObject::Dump

; 216  : 
; 217  : 	dc << _T("m_hComm = ") << m_hComm << _T("\n");

  0002f	68 00 00 00 00	 push	 OFFSET ??_C@_13LBAGMAIH@?$AA?6?$AA?$AA@
  00034	8b 45 f8	 mov	 eax, DWORD PTR _this$[ebp]
  00037	8b 48 04	 mov	 ecx, DWORD PTR [eax+4]
  0003a	51		 push	 ecx
  0003b	68 00 00 00 00	 push	 OFFSET ??_C@_1BG@BAENHBHP@?$AAm?$AA_?$AAh?$AAC?$AAo?$AAm?$AAm?$AA?5?$AA?$DN?$AA?5?$AA?$AA@
  00040	8b 4d 08	 mov	 ecx, DWORD PTR _dc$[ebp]
  00043	e8 00 00 00 00	 call	 ??6CDumpContext@@QAEAAV0@PB_W@Z ; CDumpContext::operator<<
  00048	8b c8		 mov	 ecx, eax
  0004a	e8 00 00 00 00	 call	 ??6CDumpContext@@QAEAAV0@PBX@Z ; CDumpContext::operator<<
  0004f	8b c8		 mov	 ecx, eax
  00051	e8 00 00 00 00	 call	 ??6CDumpContext@@QAEAAV0@PB_W@Z ; CDumpContext::operator<<

; 218  :   dc << _T("m_bOverlapped = ") << m_bOverlapped;

  00056	8b 45 f8	 mov	 eax, DWORD PTR _this$[ebp]
  00059	8b 48 08	 mov	 ecx, DWORD PTR [eax+8]
  0005c	51		 push	 ecx
  0005d	68 00 00 00 00	 push	 OFFSET ??_C@_1CC@JPENPCBB@?$AAm?$AA_?$AAb?$AAO?$AAv?$AAe?$AAr?$AAl?$AAa?$AAp?$AAp?$AAe?$AAd?$AA?5?$AA?$DN?$AA?5?$AA?$AA@
  00062	8b 4d 08	 mov	 ecx, DWORD PTR _dc$[ebp]
  00065	e8 00 00 00 00	 call	 ??6CDumpContext@@QAEAAV0@PB_W@Z ; CDumpContext::operator<<
  0006a	8b c8		 mov	 ecx, eax
  0006c	e8 00 00 00 00	 call	 ??6CDumpContext@@QAEAAV0@H@Z ; CDumpContext::operator<<

; 219  : }

  00071	5f		 pop	 edi
  00072	5e		 pop	 esi
  00073	5b		 pop	 ebx
  00074	81 c4 cc 00 00
	00		 add	 esp, 204		; 000000ccH
  0007a	3b ec		 cmp	 ebp, esp
  0007c	e8 00 00 00 00	 call	 __RTC_CheckEsp
  00081	8b e5		 mov	 esp, ebp
  00083	5d		 pop	 ebp
  00084	c2 04 00	 ret	 4
?Dump@CSerialPort@@UBEXAAVCDumpContext@@@Z ENDP		; CSerialPort::Dump
_TEXT	ENDS
PUBLIC	?SetState@CSerialPort@@QAEXAAU_DCB@@@Z		; CSerialPort::SetState
PUBLIC	?GetState@CSerialPort@@QAEXAAU_DCB@@@Z		; CSerialPort::GetState
PUBLIC	??_C@_1EO@OMEHBJJJ@?$AAF?$AAa?$AAi?$AAl?$AAe?$AAd?$AA?5?$AAi?$AAn?$AA?5?$AAc?$AAa?$AAl?$AAl?$AA?5?$AAt?$AAo?$AA?5?$AAC?$AAr?$AAe?$AAa?$AAt?$AAe?$AAE?$AAv?$AAe?$AAn?$AAt?$AA?5?$AAi?$AAn@ ; `string'
PUBLIC	??_C@_1EE@EHNNJM@?$AAF?$AAa?$AAi?$AAl?$AAe?$AAd?$AA?5?$AAt?$AAo?$AA?5?$AAo?$AAp?$AAe?$AAn?$AA?5?$AAu?$AAp?$AA?5?$AAt?$AAh?$AAe?$AA?5?$AAc?$AAo?$AAm?$AAm?$AAs?$AA?5?$AAp?$AAo?$AAr?$AAt@ ; `string'
PUBLIC	??B?$CSimpleStringT@_W$0A@@ATL@@QBEPB_WXZ	; ATL::CSimpleStringT<wchar_t,0>::operator wchar_t const *
PUBLIC	?Format@?$CStringT@_WV?$StrTraitMFC@_WV?$ChTraitsCRT@_W@ATL@@@@@ATL@@QAAXPB_WZZ ; ATL::CStringT<wchar_t,StrTraitMFC<wchar_t,ATL::ChTraitsCRT<wchar_t> > >::Format
PUBLIC	??_C@_1BE@DNEHMKHO@?$AA?2?$AA?2?$AA?4?$AA?2?$AAC?$AAO?$AAM?$AA?$CF?$AAd?$AA?$AA@ ; `string'
PUBLIC	?__LINE__Var@?1??Open@CSerialPort@@QAEXHKW4Parity@2@EW4StopBits@2@W4FlowControl@2@H@Z@4JA ; `CSerialPort::Open'::`2'::__LINE__Var
PUBLIC	__$ArrayPad$
PUBLIC	?Open@CSerialPort@@QAEXHKW4Parity@1@EW4StopBits@1@W4FlowControl@1@H@Z ; CSerialPort::Open
EXTRN	__imp__CreateEventW@16:PROC
EXTRN	__imp__CreateFileW@28:PROC
;	COMDAT ??_C@_1EO@OMEHBJJJ@?$AAF?$AAa?$AAi?$AAl?$AAe?$AAd?$AA?5?$AAi?$AAn?$AA?5?$AAc?$AAa?$AAl?$AAl?$AA?5?$AAt?$AAo?$AA?5?$AAC?$AAr?$AAe?$AAa?$AAt?$AAe?$AAE?$AAv?$AAe?$AAn?$AAt?$AA?5?$AAi?$AAn@
CONST	SEGMENT
??_C@_1EO@OMEHBJJJ@?$AAF?$AAa?$AAi?$AAl?$AAe?$AAd?$AA?5?$AAi?$AAn?$AA?5?$AAc?$AAa?$AAl?$AAl?$AA?5?$AAt?$AAo?$AA?5?$AAC?$AAr?$AAe?$AAa?$AAt?$AAe?$AAE?$AAv?$AAe?$AAn?$AAt?$AA?5?$AAi?$AAn@ DB 'F'
	DB	00H, 'a', 00H, 'i', 00H, 'l', 00H, 'e', 00H, 'd', 00H, ' ', 00H
	DB	'i', 00H, 'n', 00H, ' ', 00H, 'c', 00H, 'a', 00H, 'l', 00H, 'l'
	DB	00H, ' ', 00H, 't', 00H, 'o', 00H, ' ', 00H, 'C', 00H, 'r', 00H
	DB	'e', 00H, 'a', 00H, 't', 00H, 'e', 00H, 'E', 00H, 'v', 00H, 'e'
	DB	00H, 'n', 00H, 't', 00H, ' ', 00H, 'i', 00H, 'n', 00H, ' ', 00H
	DB	'O', 00H, 'p', 00H, 'e', 00H, 'n', 00H, 0aH, 00H, 00H, 00H ; `string'
CONST	ENDS
;	COMDAT ??_C@_1EE@EHNNJM@?$AAF?$AAa?$AAi?$AAl?$AAe?$AAd?$AA?5?$AAt?$AAo?$AA?5?$AAo?$AAp?$AAe?$AAn?$AA?5?$AAu?$AAp?$AA?5?$AAt?$AAh?$AAe?$AA?5?$AAc?$AAo?$AAm?$AAm?$AAs?$AA?5?$AAp?$AAo?$AAr?$AAt@
CONST	SEGMENT
??_C@_1EE@EHNNJM@?$AAF?$AAa?$AAi?$AAl?$AAe?$AAd?$AA?5?$AAt?$AAo?$AA?5?$AAo?$AAp?$AAe?$AAn?$AA?5?$AAu?$AAp?$AA?5?$AAt?$AAh?$AAe?$AA?5?$AAc?$AAo?$AAm?$AAm?$AAs?$AA?5?$AAp?$AAo?$AAr?$AAt@ DB 'F'
	DB	00H, 'a', 00H, 'i', 00H, 'l', 00H, 'e', 00H, 'd', 00H, ' ', 00H
	DB	't', 00H, 'o', 00H, ' ', 00H, 'o', 00H, 'p', 00H, 'e', 00H, 'n'
	DB	00H, ' ', 00H, 'u', 00H, 'p', 00H, ' ', 00H, 't', 00H, 'h', 00H
	DB	'e', 00H, ' ', 00H, 'c', 00H, 'o', 00H, 'm', 00H, 'm', 00H, 's'
	DB	00H, ' ', 00H, 'p', 00H, 'o', 00H, 'r', 00H, 't', 00H, 0aH, 00H
	DB	00H, 00H					; `string'
CONST	ENDS
;	COMDAT ??_C@_1BE@DNEHMKHO@?$AA?2?$AA?2?$AA?4?$AA?2?$AAC?$AAO?$AAM?$AA?$CF?$AAd?$AA?$AA@
CONST	SEGMENT
??_C@_1BE@DNEHMKHO@?$AA?2?$AA?2?$AA?4?$AA?2?$AAC?$AAO?$AAM?$AA?$CF?$AAd?$AA?$AA@ DB '\'
	DB	00H, '\', 00H, '.', 00H, '\', 00H, 'C', 00H, 'O', 00H, 'M', 00H
	DB	'%', 00H, 'd', 00H, 00H, 00H			; `string'
CONST	ENDS
;	COMDAT ?__LINE__Var@?1??Open@CSerialPort@@QAEXHKW4Parity@2@EW4StopBits@2@W4FlowControl@2@H@Z@4JA
_DATA	SEGMENT
?__LINE__Var@?1??Open@CSerialPort@@QAEXHKW4Parity@2@EW4StopBits@2@W4FlowControl@2@H@Z@4JA DD 0dfH ; `CSerialPort::Open'::`2'::__LINE__Var
_DATA	ENDS
;	COMDAT xdata$x
xdata$x	SEGMENT
__unwindtable$?Open@CSerialPort@@QAEXHKW4Parity@1@EW4StopBits@1@W4FlowControl@1@H@Z DD 0ffffffffH
	DD	FLAT:__unwindfunclet$?Open@CSerialPort@@QAEXHKW4Parity@1@EW4StopBits@1@W4FlowControl@1@H@Z$0
__ehfuncinfo$?Open@CSerialPort@@QAEXHKW4Parity@1@EW4StopBits@1@W4FlowControl@1@H@Z DD 019930522H
	DD	01H
	DD	FLAT:__unwindtable$?Open@CSerialPort@@QAEXHKW4Parity@1@EW4StopBits@1@W4FlowControl@1@H@Z
	DD	2 DUP(00H)
	DD	2 DUP(00H)
	DD	00H
	DD	01H
; Function compile flags: /Odtp /RTCsu /ZI
xdata$x	ENDS
;	COMDAT ?Open@CSerialPort@@QAEXHKW4Parity@1@EW4StopBits@1@W4FlowControl@1@H@Z
_TEXT	SEGMENT
tv180 = -316						; size = 4
tv168 = -316						; size = 4
tv159 = -316						; size = 4
$T212037 = -308						; size = 8
$T212038 = -292						; size = 8
_dcb$ = -84						; size = 28
_dwCreateProperty$ = -48				; size = 4
_sPort$ = -36						; size = 4
_this$ = -24						; size = 4
__$ArrayPad$ = -16					; size = 4
__$EHRec$ = -12						; size = 12
_nPort$ = 8						; size = 4
_dwBaud$ = 12						; size = 4
_parity$ = 16						; size = 4
_DataBits$ = 20						; size = 1
_stopbits$ = 24						; size = 4
_fc$ = 28						; size = 4
_bOverlapped$ = 32					; size = 4
?Open@CSerialPort@@QAEXHKW4Parity@1@EW4StopBits@1@W4FlowControl@1@H@Z PROC ; CSerialPort::Open, COMDAT
; _this$ = ecx

; 223  : {

  00000	55		 push	 ebp
  00001	8b ec		 mov	 ebp, esp
  00003	6a ff		 push	 -1
  00005	68 00 00 00 00	 push	 __ehhandler$?Open@CSerialPort@@QAEXHKW4Parity@1@EW4StopBits@1@W4FlowControl@1@H@Z
  0000a	64 a1 00 00 00
	00		 mov	 eax, DWORD PTR fs:0
  00010	50		 push	 eax
  00011	81 ec 30 01 00
	00		 sub	 esp, 304		; 00000130H
  00017	53		 push	 ebx
  00018	56		 push	 esi
  00019	57		 push	 edi
  0001a	51		 push	 ecx
  0001b	8d bd c4 fe ff
	ff		 lea	 edi, DWORD PTR [ebp-316]
  00021	b9 4c 00 00 00	 mov	 ecx, 76			; 0000004cH
  00026	b8 cc cc cc cc	 mov	 eax, -858993460		; ccccccccH
  0002b	f3 ab		 rep stosd
  0002d	59		 pop	 ecx
  0002e	a1 00 00 00 00	 mov	 eax, DWORD PTR ___security_cookie
  00033	33 c5		 xor	 eax, ebp
  00035	89 45 f0	 mov	 DWORD PTR __$ArrayPad$[ebp], eax
  00038	50		 push	 eax
  00039	8d 45 f4	 lea	 eax, DWORD PTR __$EHRec$[ebp]
  0003c	64 a3 00 00 00
	00		 mov	 DWORD PTR fs:0, eax
  00042	89 4d e8	 mov	 DWORD PTR _this$[ebp], ecx

; 224  :   //Validate our parameters
; 225  :   ASSERT(nPort>0 && nPort<=255);

  00045	83 7d 08 00	 cmp	 DWORD PTR _nPort$[ebp], 0
  00049	7e 09		 jle	 SHORT $LN31@Open
  0004b	81 7d 08 ff 00
	00 00		 cmp	 DWORD PTR _nPort$[ebp], 255 ; 000000ffH
  00052	7e 18		 jle	 SHORT $LN32@Open
$LN31@Open:
  00054	a1 00 00 00 00	 mov	 eax, DWORD PTR ?__LINE__Var@?1??Open@CSerialPort@@QAEXHKW4Parity@2@EW4StopBits@2@W4FlowControl@2@H@Z@4JA
  00059	83 c0 02	 add	 eax, 2
  0005c	50		 push	 eax
  0005d	68 00 00 00 00	 push	 OFFSET _THIS_FILE
  00062	e8 00 00 00 00	 call	 ?AfxAssertFailedLine@@YGHPBDH@Z ; AfxAssertFailedLine
  00067	85 c0		 test	 eax, eax
  00069	74 01		 je	 SHORT $LN32@Open
  0006b	cc		 int	 3
$LN32@Open:

; 226  : 
; 227  :   Close(); //In case we are already open

  0006c	8b 4d e8	 mov	 ecx, DWORD PTR _this$[ebp]
  0006f	e8 00 00 00 00	 call	 ?Close@CSerialPort@@QAEXXZ ; CSerialPort::Close

; 228  : 
; 229  :   //Call CreateFile to open up the comms port
; 230  :   CString sPort;

  00074	8d 4d dc	 lea	 ecx, DWORD PTR _sPort$[ebp]
  00077	e8 00 00 00 00	 call	 ??0?$CStringT@_WV?$StrTraitMFC@_WV?$ChTraitsCRT@_W@ATL@@@@@ATL@@QAE@XZ ; ATL::CStringT<wchar_t,StrTraitMFC<wchar_t,ATL::ChTraitsCRT<wchar_t> > >::CStringT<wchar_t,StrTraitMFC<wchar_t,ATL::ChTraitsCRT<wchar_t> > >
  0007c	c7 45 fc 00 00
	00 00		 mov	 DWORD PTR __$EHRec$[ebp+8], 0

; 231  :   sPort.Format(_T("\\\\.\\COM%d"), nPort);

  00083	8b 45 08	 mov	 eax, DWORD PTR _nPort$[ebp]
  00086	50		 push	 eax
  00087	68 00 00 00 00	 push	 OFFSET ??_C@_1BE@DNEHMKHO@?$AA?2?$AA?2?$AA?4?$AA?2?$AAC?$AAO?$AAM?$AA?$CF?$AAd?$AA?$AA@
  0008c	8d 4d dc	 lea	 ecx, DWORD PTR _sPort$[ebp]
  0008f	51		 push	 ecx
  00090	e8 00 00 00 00	 call	 ?Format@?$CStringT@_WV?$StrTraitMFC@_WV?$ChTraitsCRT@_W@ATL@@@@@ATL@@QAAXPB_WZZ ; ATL::CStringT<wchar_t,StrTraitMFC<wchar_t,ATL::ChTraitsCRT<wchar_t> > >::Format
  00095	83 c4 0c	 add	 esp, 12			; 0000000cH

; 232  :   DWORD dwCreateProperty;
; 233  :   if(bOverlapped) 

  00098	83 7d 20 00	 cmp	 DWORD PTR _bOverlapped$[ebp], 0
  0009c	74 09		 je	 SHORT $LN28@Open

; 234  :   {
; 235  :      dwCreateProperty=FILE_ATTRIBUTE_NORMAL | FILE_FLAG_OVERLAPPED;

  0009e	c7 45 d0 80 00
	00 40		 mov	 DWORD PTR _dwCreateProperty$[ebp], 1073741952 ; 40000080H

; 236  :   }
; 237  :   else

  000a5	eb 07		 jmp	 SHORT $LN27@Open
$LN28@Open:

; 238  :   {
; 239  : 	 dwCreateProperty=FILE_ATTRIBUTE_NORMAL;

  000a7	c7 45 d0 80 00
	00 00		 mov	 DWORD PTR _dwCreateProperty$[ebp], 128 ; 00000080H
$LN27@Open:

; 240  :   }
; 241  :   // bOverlapped ? FILE_FLAG_OVERLAPPED : 0
; 242  :   m_hComm = CreateFile(sPort, GENERIC_READ | GENERIC_WRITE, 0, NULL, OPEN_EXISTING,dwCreateProperty, NULL);

  000ae	8b f4		 mov	 esi, esp
  000b0	6a 00		 push	 0
  000b2	8b 45 d0	 mov	 eax, DWORD PTR _dwCreateProperty$[ebp]
  000b5	50		 push	 eax
  000b6	6a 03		 push	 3
  000b8	6a 00		 push	 0
  000ba	6a 00		 push	 0
  000bc	68 00 00 00 c0	 push	 -1073741824		; c0000000H
  000c1	8d 4d dc	 lea	 ecx, DWORD PTR _sPort$[ebp]
  000c4	e8 00 00 00 00	 call	 ??B?$CSimpleStringT@_W$0A@@ATL@@QBEPB_WXZ ; ATL::CSimpleStringT<wchar_t,0>::operator wchar_t const *
  000c9	50		 push	 eax
  000ca	ff 15 00 00 00
	00		 call	 DWORD PTR __imp__CreateFileW@28
  000d0	3b f4		 cmp	 esi, esp
  000d2	e8 00 00 00 00	 call	 __RTC_CheckEsp
  000d7	8b 4d e8	 mov	 ecx, DWORD PTR _this$[ebp]
  000da	89 41 04	 mov	 DWORD PTR [ecx+4], eax

; 243  :   if (m_hComm == INVALID_HANDLE_VALUE)

  000dd	8b 45 e8	 mov	 eax, DWORD PTR _this$[ebp]
  000e0	83 78 04 ff	 cmp	 DWORD PTR [eax+4], -1
  000e4	75 31		 jne	 SHORT $LN26@Open

; 244  :   {
; 245  :     TRACE(_T("Failed to open up the comms port\n"));

  000e6	68 00 00 00 00	 push	 OFFSET ??_C@_1EE@EHNNJM@?$AAF?$AAa?$AAi?$AAl?$AAe?$AAd?$AA?5?$AAt?$AAo?$AA?5?$AAo?$AAp?$AAe?$AAn?$AA?5?$AAu?$AAp?$AA?5?$AAt?$AAh?$AAe?$AA?5?$AAc?$AAo?$AAm?$AAm?$AAs?$AA?5?$AAp?$AAo?$AAr?$AAt@
  000eb	a1 00 00 00 00	 mov	 eax, DWORD PTR ?__LINE__Var@?1??Open@CSerialPort@@QAEXHKW4Parity@2@EW4StopBits@2@W4FlowControl@2@H@Z@4JA
  000f0	83 c0 16	 add	 eax, 22			; 00000016H
  000f3	50		 push	 eax
  000f4	68 00 00 00 00	 push	 OFFSET ??_C@_0DC@PACLAOLH@e?3?2cz?2vs?2dvicectrldlg_new_signal@
  000f9	8d 8d cc fe ff
	ff		 lea	 ecx, DWORD PTR $T212037[ebp]
  000ff	e8 00 00 00 00	 call	 ??0CTraceFileAndLineInfo@ATL@@QAE@PBDH@Z ; ATL::CTraceFileAndLineInfo::CTraceFileAndLineInfo
  00104	50		 push	 eax
  00105	e8 00 00 00 00	 call	 ??RCTraceFileAndLineInfo@ATL@@QBAXPB_WZZ ; ATL::CTraceFileAndLineInfo::operator()
  0010a	83 c4 08	 add	 esp, 8

; 246  :     AfxThrowSerialException();

  0010d	6a 00		 push	 0
  0010f	e8 00 00 00 00	 call	 ?AfxThrowSerialException@@YAXK@Z ; AfxThrowSerialException
  00114	83 c4 04	 add	 esp, 4
$LN26@Open:

; 247  :   }
; 248  : 
; 249  :   this->m_CurPortNum = nPort;

  00117	8b 45 e8	 mov	 eax, DWORD PTR _this$[ebp]
  0011a	8b 4d 08	 mov	 ecx, DWORD PTR _nPort$[ebp]
  0011d	89 48 10	 mov	 DWORD PTR [eax+16], ecx

; 250  :   //Create the event we need for later synchronisation use
; 251  :   
; 252  :   if(bOverlapped)

  00120	83 7d 20 00	 cmp	 DWORD PTR _bOverlapped$[ebp], 0
  00124	74 5f		 je	 SHORT $LN25@Open

; 253  :   {
; 254  : 	m_hEvent = CreateEvent(NULL, FALSE, FALSE, NULL);

  00126	8b f4		 mov	 esi, esp
  00128	6a 00		 push	 0
  0012a	6a 00		 push	 0
  0012c	6a 00		 push	 0
  0012e	6a 00		 push	 0
  00130	ff 15 00 00 00
	00		 call	 DWORD PTR __imp__CreateEventW@16
  00136	3b f4		 cmp	 esi, esp
  00138	e8 00 00 00 00	 call	 __RTC_CheckEsp
  0013d	8b 4d e8	 mov	 ecx, DWORD PTR _this$[ebp]
  00140	89 41 0c	 mov	 DWORD PTR [ecx+12], eax

; 255  : 	if (m_hEvent == NULL)

  00143	8b 45 e8	 mov	 eax, DWORD PTR _this$[ebp]
  00146	83 78 0c 00	 cmp	 DWORD PTR [eax+12], 0
  0014a	75 39		 jne	 SHORT $LN25@Open

; 256  : 	{
; 257  : 		Close();

  0014c	8b 4d e8	 mov	 ecx, DWORD PTR _this$[ebp]
  0014f	e8 00 00 00 00	 call	 ?Close@CSerialPort@@QAEXXZ ; CSerialPort::Close

; 258  : 		TRACE(_T("Failed in call to CreateEvent in Open\n"));

  00154	68 00 00 00 00	 push	 OFFSET ??_C@_1EO@OMEHBJJJ@?$AAF?$AAa?$AAi?$AAl?$AAe?$AAd?$AA?5?$AAi?$AAn?$AA?5?$AAc?$AAa?$AAl?$AAl?$AA?5?$AAt?$AAo?$AA?5?$AAC?$AAr?$AAe?$AAa?$AAt?$AAe?$AAE?$AAv?$AAe?$AAn?$AAt?$AA?5?$AAi?$AAn@
  00159	a1 00 00 00 00	 mov	 eax, DWORD PTR ?__LINE__Var@?1??Open@CSerialPort@@QAEXHKW4Parity@2@EW4StopBits@2@W4FlowControl@2@H@Z@4JA
  0015e	83 c0 23	 add	 eax, 35			; 00000023H
  00161	50		 push	 eax
  00162	68 00 00 00 00	 push	 OFFSET ??_C@_0DC@PACLAOLH@e?3?2cz?2vs?2dvicectrldlg_new_signal@
  00167	8d 8d dc fe ff
	ff		 lea	 ecx, DWORD PTR $T212038[ebp]
  0016d	e8 00 00 00 00	 call	 ??0CTraceFileAndLineInfo@ATL@@QAE@PBDH@Z ; ATL::CTraceFileAndLineInfo::CTraceFileAndLineInfo
  00172	50		 push	 eax
  00173	e8 00 00 00 00	 call	 ??RCTraceFileAndLineInfo@ATL@@QBAXPB_WZZ ; ATL::CTraceFileAndLineInfo::operator()
  00178	83 c4 08	 add	 esp, 8

; 259  : 		AfxThrowSerialException();

  0017b	6a 00		 push	 0
  0017d	e8 00 00 00 00	 call	 ?AfxThrowSerialException@@YAXK@Z ; AfxThrowSerialException
  00182	83 c4 04	 add	 esp, 4
$LN25@Open:

; 260  : 	}
; 261  :   }
; 262  :   m_bOverlapped = bOverlapped;

  00185	8b 45 e8	 mov	 eax, DWORD PTR _this$[ebp]
  00188	8b 4d 20	 mov	 ecx, DWORD PTR _bOverlapped$[ebp]
  0018b	89 48 08	 mov	 DWORD PTR [eax+8], ecx

; 263  :   
; 264  :   //Get the current state prior to changing it
; 265  :   DCB dcb;
; 266  :   dcb.DCBlength = sizeof(DCB);

  0018e	c7 45 ac 1c 00
	00 00		 mov	 DWORD PTR _dcb$[ebp], 28 ; 0000001cH

; 267  :   GetState(dcb);

  00195	8d 45 ac	 lea	 eax, DWORD PTR _dcb$[ebp]
  00198	50		 push	 eax
  00199	8b 4d e8	 mov	 ecx, DWORD PTR _this$[ebp]
  0019c	e8 00 00 00 00	 call	 ?GetState@CSerialPort@@QAEXAAU_DCB@@@Z ; CSerialPort::GetState

; 268  : 
; 269  :   //Setup the baud rate
; 270  :   dcb.BaudRate = dwBaud; 

  001a1	8b 45 0c	 mov	 eax, DWORD PTR _dwBaud$[ebp]
  001a4	89 45 b0	 mov	 DWORD PTR _dcb$[ebp+4], eax

; 271  : 
; 272  :   //Setup the Parity
; 273  :   switch (parity)

  001a7	8b 45 10	 mov	 eax, DWORD PTR _parity$[ebp]
  001aa	89 85 c4 fe ff
	ff		 mov	 DWORD PTR tv159[ebp], eax
  001b0	83 bd c4 fe ff
	ff 04		 cmp	 DWORD PTR tv159[ebp], 4
  001b7	77 2b		 ja	 SHORT $LN16@Open
  001b9	8b 8d c4 fe ff
	ff		 mov	 ecx, DWORD PTR tv159[ebp]
  001bf	ff 24 8d 00 00
	00 00		 jmp	 DWORD PTR $LN42@Open[ecx*4]
$LN21@Open:

; 274  :   {
; 275  :     case EvenParity:  dcb.Parity = EVENPARITY;  break;

  001c6	c6 45 bf 02	 mov	 BYTE PTR _dcb$[ebp+19], 2
  001ca	eb 35		 jmp	 SHORT $LN22@Open
$LN20@Open:

; 276  :     case MarkParity:  dcb.Parity = MARKPARITY;  break;

  001cc	c6 45 bf 03	 mov	 BYTE PTR _dcb$[ebp+19], 3
  001d0	eb 2f		 jmp	 SHORT $LN22@Open
$LN19@Open:

; 277  :     case NoParity:    dcb.Parity = NOPARITY;    break;

  001d2	c6 45 bf 00	 mov	 BYTE PTR _dcb$[ebp+19], 0
  001d6	eb 29		 jmp	 SHORT $LN22@Open
$LN18@Open:

; 278  :     case OddParity:   dcb.Parity = ODDPARITY;   break;

  001d8	c6 45 bf 01	 mov	 BYTE PTR _dcb$[ebp+19], 1
  001dc	eb 23		 jmp	 SHORT $LN22@Open
$LN17@Open:

; 279  :     case SpaceParity: dcb.Parity = SPACEPARITY; break;

  001de	c6 45 bf 04	 mov	 BYTE PTR _dcb$[ebp+19], 4
  001e2	eb 1d		 jmp	 SHORT $LN22@Open
$LN16@Open:

; 280  :     default:          ASSERT(FALSE);            break;

  001e4	33 c0		 xor	 eax, eax
  001e6	75 19		 jne	 SHORT $LN22@Open
  001e8	8b 0d 00 00 00
	00		 mov	 ecx, DWORD PTR ?__LINE__Var@?1??Open@CSerialPort@@QAEXHKW4Parity@2@EW4StopBits@2@W4FlowControl@2@H@Z@4JA
  001ee	83 c1 39	 add	 ecx, 57			; 00000039H
  001f1	51		 push	 ecx
  001f2	68 00 00 00 00	 push	 OFFSET _THIS_FILE
  001f7	e8 00 00 00 00	 call	 ?AfxAssertFailedLine@@YGHPBDH@Z ; AfxAssertFailedLine
  001fc	85 c0		 test	 eax, eax
  001fe	74 01		 je	 SHORT $LN22@Open
  00200	cc		 int	 3
$LN22@Open:

; 281  :   }
; 282  : 
; 283  :   //Setup the data bits
; 284  :   dcb.ByteSize = DataBits;

  00201	8a 45 14	 mov	 al, BYTE PTR _DataBits$[ebp]
  00204	88 45 be	 mov	 BYTE PTR _dcb$[ebp+18], al

; 285  : 
; 286  :   //Setup the stop bits
; 287  :   switch (stopbits)

  00207	8b 45 18	 mov	 eax, DWORD PTR _stopbits$[ebp]
  0020a	89 85 c4 fe ff
	ff		 mov	 DWORD PTR tv168[ebp], eax
  00210	83 bd c4 fe ff
	ff 00		 cmp	 DWORD PTR tv168[ebp], 0
  00217	74 14		 je	 SHORT $LN13@Open
  00219	83 bd c4 fe ff
	ff 01		 cmp	 DWORD PTR tv168[ebp], 1
  00220	74 11		 je	 SHORT $LN12@Open
  00222	83 bd c4 fe ff
	ff 02		 cmp	 DWORD PTR tv168[ebp], 2
  00229	74 0e		 je	 SHORT $LN11@Open
  0022b	eb 12		 jmp	 SHORT $LN10@Open
$LN13@Open:

; 288  :   {
; 289  :     case OneStopBit:           dcb.StopBits = ONESTOPBIT;   break;

  0022d	c6 45 c0 00	 mov	 BYTE PTR _dcb$[ebp+20], 0
  00231	eb 29		 jmp	 SHORT $LN14@Open
$LN12@Open:

; 290  :     case OnePointFiveStopBits: dcb.StopBits = ONE5STOPBITS; break;

  00233	c6 45 c0 01	 mov	 BYTE PTR _dcb$[ebp+20], 1
  00237	eb 23		 jmp	 SHORT $LN14@Open
$LN11@Open:

; 291  :     case TwoStopBits:          dcb.StopBits = TWOSTOPBITS;  break;

  00239	c6 45 c0 02	 mov	 BYTE PTR _dcb$[ebp+20], 2
  0023d	eb 1d		 jmp	 SHORT $LN14@Open
$LN10@Open:

; 292  :     default:                   ASSERT(FALSE);               break;

  0023f	33 c0		 xor	 eax, eax
  00241	75 19		 jne	 SHORT $LN14@Open
  00243	8b 0d 00 00 00
	00		 mov	 ecx, DWORD PTR ?__LINE__Var@?1??Open@CSerialPort@@QAEXHKW4Parity@2@EW4StopBits@2@W4FlowControl@2@H@Z@4JA
  00249	83 c1 45	 add	 ecx, 69			; 00000045H
  0024c	51		 push	 ecx
  0024d	68 00 00 00 00	 push	 OFFSET _THIS_FILE
  00252	e8 00 00 00 00	 call	 ?AfxAssertFailedLine@@YGHPBDH@Z ; AfxAssertFailedLine
  00257	85 c0		 test	 eax, eax
  00259	74 01		 je	 SHORT $LN14@Open
  0025b	cc		 int	 3
$LN14@Open:

; 293  :   }
; 294  : 
; 295  :   //Setup the flow control 
; 296  :   dcb.fDsrSensitivity = FALSE;

  0025c	8b 45 b4	 mov	 eax, DWORD PTR _dcb$[ebp+8]
  0025f	83 e0 bf	 and	 eax, -65		; ffffffbfH
  00262	89 45 b4	 mov	 DWORD PTR _dcb$[ebp+8], eax

; 297  :   switch (fc)

  00265	8b 45 1c	 mov	 eax, DWORD PTR _fc$[ebp]
  00268	89 85 c4 fe ff
	ff		 mov	 DWORD PTR tv180[ebp], eax
  0026e	83 bd c4 fe ff
	ff 05		 cmp	 DWORD PTR tv180[ebp], 5
  00275	0f 87 67 01 00
	00		 ja	 $LN1@Open
  0027b	8b 8d c4 fe ff
	ff		 mov	 ecx, DWORD PTR tv180[ebp]
  00281	ff 24 8d 00 00
	00 00		 jmp	 DWORD PTR $LN43@Open[ecx*4]
$LN7@Open:

; 298  :   {
; 299  :     case NoFlowControl:
; 300  :     {
; 301  :       dcb.fOutxCtsFlow = FALSE;

  00288	8b 45 b4	 mov	 eax, DWORD PTR _dcb$[ebp+8]
  0028b	83 e0 fb	 and	 eax, -5			; fffffffbH
  0028e	89 45 b4	 mov	 DWORD PTR _dcb$[ebp+8], eax

; 302  :       dcb.fOutxDsrFlow = FALSE;

  00291	8b 45 b4	 mov	 eax, DWORD PTR _dcb$[ebp+8]
  00294	83 e0 f7	 and	 eax, -9			; fffffff7H
  00297	89 45 b4	 mov	 DWORD PTR _dcb$[ebp+8], eax

; 303  :       dcb.fOutX = FALSE;

  0029a	8b 45 b4	 mov	 eax, DWORD PTR _dcb$[ebp+8]
  0029d	25 ff fe ff ff	 and	 eax, -257		; fffffeffH
  002a2	89 45 b4	 mov	 DWORD PTR _dcb$[ebp+8], eax

; 304  :       dcb.fInX = FALSE;

  002a5	8b 45 b4	 mov	 eax, DWORD PTR _dcb$[ebp+8]
  002a8	25 ff fd ff ff	 and	 eax, -513		; fffffdffH
  002ad	89 45 b4	 mov	 DWORD PTR _dcb$[ebp+8], eax

; 305  :       break;

  002b0	e9 4d 01 00 00	 jmp	 $LN8@Open
$LN6@Open:

; 306  :     }
; 307  :     case CtsRtsFlowControl:
; 308  :     {
; 309  :       dcb.fOutxCtsFlow = TRUE;

  002b5	8b 45 b4	 mov	 eax, DWORD PTR _dcb$[ebp+8]
  002b8	83 c8 04	 or	 eax, 4
  002bb	89 45 b4	 mov	 DWORD PTR _dcb$[ebp+8], eax

; 310  :       dcb.fOutxDsrFlow = FALSE;

  002be	8b 45 b4	 mov	 eax, DWORD PTR _dcb$[ebp+8]
  002c1	83 e0 f7	 and	 eax, -9			; fffffff7H
  002c4	89 45 b4	 mov	 DWORD PTR _dcb$[ebp+8], eax

; 311  :       dcb.fRtsControl = RTS_CONTROL_HANDSHAKE;

  002c7	8b 45 b4	 mov	 eax, DWORD PTR _dcb$[ebp+8]
  002ca	25 ff cf ff ff	 and	 eax, -12289		; ffffcfffH
  002cf	0d 00 20 00 00	 or	 eax, 8192		; 00002000H
  002d4	89 45 b4	 mov	 DWORD PTR _dcb$[ebp+8], eax

; 312  :       dcb.fOutX = FALSE;

  002d7	8b 45 b4	 mov	 eax, DWORD PTR _dcb$[ebp+8]
  002da	25 ff fe ff ff	 and	 eax, -257		; fffffeffH
  002df	89 45 b4	 mov	 DWORD PTR _dcb$[ebp+8], eax

; 313  :       dcb.fInX = FALSE;

  002e2	8b 45 b4	 mov	 eax, DWORD PTR _dcb$[ebp+8]
  002e5	25 ff fd ff ff	 and	 eax, -513		; fffffdffH
  002ea	89 45 b4	 mov	 DWORD PTR _dcb$[ebp+8], eax

; 314  :       break;

  002ed	e9 10 01 00 00	 jmp	 $LN8@Open
$LN5@Open:

; 315  :     }
; 316  :     case CtsDtrFlowControl:
; 317  :     {
; 318  :       dcb.fOutxCtsFlow = TRUE;

  002f2	8b 45 b4	 mov	 eax, DWORD PTR _dcb$[ebp+8]
  002f5	83 c8 04	 or	 eax, 4
  002f8	89 45 b4	 mov	 DWORD PTR _dcb$[ebp+8], eax

; 319  :       dcb.fOutxDsrFlow = FALSE;

  002fb	8b 45 b4	 mov	 eax, DWORD PTR _dcb$[ebp+8]
  002fe	83 e0 f7	 and	 eax, -9			; fffffff7H
  00301	89 45 b4	 mov	 DWORD PTR _dcb$[ebp+8], eax

; 320  :       dcb.fDtrControl = DTR_CONTROL_HANDSHAKE;

  00304	8b 45 b4	 mov	 eax, DWORD PTR _dcb$[ebp+8]
  00307	83 e0 cf	 and	 eax, -49		; ffffffcfH
  0030a	83 c8 20	 or	 eax, 32			; 00000020H
  0030d	89 45 b4	 mov	 DWORD PTR _dcb$[ebp+8], eax

; 321  :       dcb.fOutX = FALSE;

  00310	8b 45 b4	 mov	 eax, DWORD PTR _dcb$[ebp+8]
  00313	25 ff fe ff ff	 and	 eax, -257		; fffffeffH
  00318	89 45 b4	 mov	 DWORD PTR _dcb$[ebp+8], eax

; 322  :       dcb.fInX = FALSE;

  0031b	8b 45 b4	 mov	 eax, DWORD PTR _dcb$[ebp+8]
  0031e	25 ff fd ff ff	 and	 eax, -513		; fffffdffH
  00323	89 45 b4	 mov	 DWORD PTR _dcb$[ebp+8], eax

; 323  :       break;

  00326	e9 d7 00 00 00	 jmp	 $LN8@Open
$LN4@Open:

; 324  :     }
; 325  :     case DsrRtsFlowControl:
; 326  :     {
; 327  :       dcb.fOutxCtsFlow = FALSE;

  0032b	8b 45 b4	 mov	 eax, DWORD PTR _dcb$[ebp+8]
  0032e	83 e0 fb	 and	 eax, -5			; fffffffbH
  00331	89 45 b4	 mov	 DWORD PTR _dcb$[ebp+8], eax

; 328  :       dcb.fOutxDsrFlow = TRUE;

  00334	8b 45 b4	 mov	 eax, DWORD PTR _dcb$[ebp+8]
  00337	83 c8 08	 or	 eax, 8
  0033a	89 45 b4	 mov	 DWORD PTR _dcb$[ebp+8], eax

; 329  :       dcb.fRtsControl = RTS_CONTROL_HANDSHAKE;

  0033d	8b 45 b4	 mov	 eax, DWORD PTR _dcb$[ebp+8]
  00340	25 ff cf ff ff	 and	 eax, -12289		; ffffcfffH
  00345	0d 00 20 00 00	 or	 eax, 8192		; 00002000H
  0034a	89 45 b4	 mov	 DWORD PTR _dcb$[ebp+8], eax

; 330  :       dcb.fOutX = FALSE;

  0034d	8b 45 b4	 mov	 eax, DWORD PTR _dcb$[ebp+8]
  00350	25 ff fe ff ff	 and	 eax, -257		; fffffeffH
  00355	89 45 b4	 mov	 DWORD PTR _dcb$[ebp+8], eax

; 331  :       dcb.fInX = FALSE;

  00358	8b 45 b4	 mov	 eax, DWORD PTR _dcb$[ebp+8]
  0035b	25 ff fd ff ff	 and	 eax, -513		; fffffdffH
  00360	89 45 b4	 mov	 DWORD PTR _dcb$[ebp+8], eax

; 332  :       break;

  00363	e9 9a 00 00 00	 jmp	 $LN8@Open
$LN3@Open:

; 333  :     }
; 334  :     case DsrDtrFlowControl:
; 335  :     {
; 336  :       dcb.fOutxCtsFlow = FALSE;

  00368	8b 45 b4	 mov	 eax, DWORD PTR _dcb$[ebp+8]
  0036b	83 e0 fb	 and	 eax, -5			; fffffffbH
  0036e	89 45 b4	 mov	 DWORD PTR _dcb$[ebp+8], eax

; 337  :       dcb.fOutxDsrFlow = TRUE;

  00371	8b 45 b4	 mov	 eax, DWORD PTR _dcb$[ebp+8]
  00374	83 c8 08	 or	 eax, 8
  00377	89 45 b4	 mov	 DWORD PTR _dcb$[ebp+8], eax

; 338  :       dcb.fDtrControl = DTR_CONTROL_HANDSHAKE;

  0037a	8b 45 b4	 mov	 eax, DWORD PTR _dcb$[ebp+8]
  0037d	83 e0 cf	 and	 eax, -49		; ffffffcfH
  00380	83 c8 20	 or	 eax, 32			; 00000020H
  00383	89 45 b4	 mov	 DWORD PTR _dcb$[ebp+8], eax

; 339  :       dcb.fOutX = FALSE;

  00386	8b 45 b4	 mov	 eax, DWORD PTR _dcb$[ebp+8]
  00389	25 ff fe ff ff	 and	 eax, -257		; fffffeffH
  0038e	89 45 b4	 mov	 DWORD PTR _dcb$[ebp+8], eax

; 340  :       dcb.fInX = FALSE;

  00391	8b 45 b4	 mov	 eax, DWORD PTR _dcb$[ebp+8]
  00394	25 ff fd ff ff	 and	 eax, -513		; fffffdffH
  00399	89 45 b4	 mov	 DWORD PTR _dcb$[ebp+8], eax

; 341  :       break;

  0039c	eb 64		 jmp	 SHORT $LN8@Open
$LN2@Open:

; 342  :     }
; 343  :     case XonXoffFlowControl:
; 344  :     {
; 345  :       dcb.fOutxCtsFlow = FALSE;

  0039e	8b 45 b4	 mov	 eax, DWORD PTR _dcb$[ebp+8]
  003a1	83 e0 fb	 and	 eax, -5			; fffffffbH
  003a4	89 45 b4	 mov	 DWORD PTR _dcb$[ebp+8], eax

; 346  :       dcb.fOutxDsrFlow = FALSE;

  003a7	8b 45 b4	 mov	 eax, DWORD PTR _dcb$[ebp+8]
  003aa	83 e0 f7	 and	 eax, -9			; fffffff7H
  003ad	89 45 b4	 mov	 DWORD PTR _dcb$[ebp+8], eax

; 347  :       dcb.fOutX = TRUE;

  003b0	8b 45 b4	 mov	 eax, DWORD PTR _dcb$[ebp+8]
  003b3	0d 00 01 00 00	 or	 eax, 256		; 00000100H
  003b8	89 45 b4	 mov	 DWORD PTR _dcb$[ebp+8], eax

; 348  :       dcb.fInX = TRUE;

  003bb	8b 45 b4	 mov	 eax, DWORD PTR _dcb$[ebp+8]
  003be	0d 00 02 00 00	 or	 eax, 512		; 00000200H
  003c3	89 45 b4	 mov	 DWORD PTR _dcb$[ebp+8], eax

; 349  :       dcb.XonChar = 0x11;

  003c6	c6 45 c1 11	 mov	 BYTE PTR _dcb$[ebp+21], 17 ; 00000011H

; 350  :       dcb.XoffChar = 0x13;

  003ca	c6 45 c2 13	 mov	 BYTE PTR _dcb$[ebp+22], 19 ; 00000013H

; 351  :       dcb.XoffLim = 100;

  003ce	b8 64 00 00 00	 mov	 eax, 100		; 00000064H
  003d3	66 89 45 bc	 mov	 WORD PTR _dcb$[ebp+16], ax

; 352  :       dcb.XonLim = 100;

  003d7	b8 64 00 00 00	 mov	 eax, 100		; 00000064H
  003dc	66 89 45 ba	 mov	 WORD PTR _dcb$[ebp+14], ax

; 353  :       break;

  003e0	eb 20		 jmp	 SHORT $LN8@Open
$LN1@Open:

; 354  :     }
; 355  :     default:
; 356  :     {
; 357  :       ASSERT(FALSE);

  003e2	33 c0		 xor	 eax, eax
  003e4	75 1c		 jne	 SHORT $LN8@Open
  003e6	8b 0d 00 00 00
	00		 mov	 ecx, DWORD PTR ?__LINE__Var@?1??Open@CSerialPort@@QAEXHKW4Parity@2@EW4StopBits@2@W4FlowControl@2@H@Z@4JA
  003ec	81 c1 86 00 00
	00		 add	 ecx, 134		; 00000086H
  003f2	51		 push	 ecx
  003f3	68 00 00 00 00	 push	 OFFSET _THIS_FILE
  003f8	e8 00 00 00 00	 call	 ?AfxAssertFailedLine@@YGHPBDH@Z ; AfxAssertFailedLine
  003fd	85 c0		 test	 eax, eax
  003ff	74 01		 je	 SHORT $LN8@Open
  00401	cc		 int	 3
$LN8@Open:

; 358  :       break;
; 359  :     }
; 360  :   }
; 361  :   
; 362  :   //Now that we have all the settings in place, make the changes
; 363  :   SetState(dcb);

  00402	8d 45 ac	 lea	 eax, DWORD PTR _dcb$[ebp]
  00405	50		 push	 eax
  00406	8b 4d e8	 mov	 ecx, DWORD PTR _this$[ebp]
  00409	e8 00 00 00 00	 call	 ?SetState@CSerialPort@@QAEXAAU_DCB@@@Z ; CSerialPort::SetState

; 364  : }

  0040e	c7 45 fc ff ff
	ff ff		 mov	 DWORD PTR __$EHRec$[ebp+8], -1
  00415	8d 4d dc	 lea	 ecx, DWORD PTR _sPort$[ebp]
  00418	e8 00 00 00 00	 call	 ??1?$CStringT@_WV?$StrTraitMFC@_WV?$ChTraitsCRT@_W@ATL@@@@@ATL@@QAE@XZ ; ATL::CStringT<wchar_t,StrTraitMFC<wchar_t,ATL::ChTraitsCRT<wchar_t> > >::~CStringT<wchar_t,StrTraitMFC<wchar_t,ATL::ChTraitsCRT<wchar_t> > >
  0041d	52		 push	 edx
  0041e	8b cd		 mov	 ecx, ebp
  00420	50		 push	 eax
  00421	8d 15 00 00 00
	00		 lea	 edx, DWORD PTR $LN41@Open
  00427	e8 00 00 00 00	 call	 @_RTC_CheckStackVars@8
  0042c	58		 pop	 eax
  0042d	5a		 pop	 edx
  0042e	8b 4d f4	 mov	 ecx, DWORD PTR __$EHRec$[ebp]
  00431	64 89 0d 00 00
	00 00		 mov	 DWORD PTR fs:0, ecx
  00438	59		 pop	 ecx
  00439	5f		 pop	 edi
  0043a	5e		 pop	 esi
  0043b	5b		 pop	 ebx
  0043c	8b 4d f0	 mov	 ecx, DWORD PTR __$ArrayPad$[ebp]
  0043f	33 cd		 xor	 ecx, ebp
  00441	e8 00 00 00 00	 call	 @__security_check_cookie@4
  00446	81 c4 3c 01 00
	00		 add	 esp, 316		; 0000013cH
  0044c	3b ec		 cmp	 ebp, esp
  0044e	e8 00 00 00 00	 call	 __RTC_CheckEsp
  00453	8b e5		 mov	 esp, ebp
  00455	5d		 pop	 ebp
  00456	c2 1c 00	 ret	 28			; 0000001cH
  00459	8d 49 00	 npad	 3
$LN41@Open:
  0045c	02 00 00 00	 DD	 2
  00460	00 00 00 00	 DD	 $LN40@Open
$LN40@Open:
  00464	dc ff ff ff	 DD	 -36			; ffffffdcH
  00468	04 00 00 00	 DD	 4
  0046c	00 00 00 00	 DD	 $LN37@Open
  00470	ac ff ff ff	 DD	 -84			; ffffffacH
  00474	1c 00 00 00	 DD	 28			; 0000001cH
  00478	00 00 00 00	 DD	 $LN38@Open
$LN38@Open:
  0047c	64		 DB	 100			; 00000064H
  0047d	63		 DB	 99			; 00000063H
  0047e	62		 DB	 98			; 00000062H
  0047f	00		 DB	 0
$LN37@Open:
  00480	73		 DB	 115			; 00000073H
  00481	50		 DB	 80			; 00000050H
  00482	6f		 DB	 111			; 0000006fH
  00483	72		 DB	 114			; 00000072H
  00484	74		 DB	 116			; 00000074H
  00485	00		 DB	 0
  00486	8b ff		 npad	 2
$LN42@Open:
  00488	00 00 00 00	 DD	 $LN21@Open
  0048c	00 00 00 00	 DD	 $LN20@Open
  00490	00 00 00 00	 DD	 $LN19@Open
  00494	00 00 00 00	 DD	 $LN18@Open
  00498	00 00 00 00	 DD	 $LN17@Open
$LN43@Open:
  0049c	00 00 00 00	 DD	 $LN7@Open
  004a0	00 00 00 00	 DD	 $LN6@Open
  004a4	00 00 00 00	 DD	 $LN5@Open
  004a8	00 00 00 00	 DD	 $LN4@Open
  004ac	00 00 00 00	 DD	 $LN3@Open
  004b0	00 00 00 00	 DD	 $LN2@Open
_TEXT	ENDS
;	COMDAT text$x
text$x	SEGMENT
__unwindfunclet$?Open@CSerialPort@@QAEXHKW4Parity@1@EW4StopBits@1@W4FlowControl@1@H@Z$0:
  00000	8d 4d dc	 lea	 ecx, DWORD PTR _sPort$[ebp]
  00003	e9 00 00 00 00	 jmp	 ??1?$CStringT@_WV?$StrTraitMFC@_WV?$ChTraitsCRT@_W@ATL@@@@@ATL@@QAE@XZ ; ATL::CStringT<wchar_t,StrTraitMFC<wchar_t,ATL::ChTraitsCRT<wchar_t> > >::~CStringT<wchar_t,StrTraitMFC<wchar_t,ATL::ChTraitsCRT<wchar_t> > >
__ehhandler$?Open@CSerialPort@@QAEXHKW4Parity@1@EW4StopBits@1@W4FlowControl@1@H@Z:
  00008	8b 54 24 08	 mov	 edx, DWORD PTR [esp+8]
  0000c	8d 42 0c	 lea	 eax, DWORD PTR [edx+12]
  0000f	8b 8a c0 fe ff
	ff		 mov	 ecx, DWORD PTR [edx-320]
  00015	33 c8		 xor	 ecx, eax
  00017	e8 00 00 00 00	 call	 @__security_check_cookie@4
  0001c	8b 4a fc	 mov	 ecx, DWORD PTR [edx-4]
  0001f	33 c8		 xor	 ecx, eax
  00021	e8 00 00 00 00	 call	 @__security_check_cookie@4
  00026	b8 00 00 00 00	 mov	 eax, OFFSET __ehfuncinfo$?Open@CSerialPort@@QAEXHKW4Parity@1@EW4StopBits@1@W4FlowControl@1@H@Z
  0002b	e9 00 00 00 00	 jmp	 ___CxxFrameHandler3
text$x	ENDS
?Open@CSerialPort@@QAEXHKW4Parity@1@EW4StopBits@1@W4FlowControl@1@H@Z ENDP ; CSerialPort::Open
PUBLIC	?__LINE__Var@?1??Close@CSerialPort@@QAEXXZ@4JA	; `CSerialPort::Close'::`2'::__LINE__Var
PUBLIC	??_C@_1GI@KMOJLNHF@?$AAF?$AAa?$AAi?$AAl?$AAe?$AAd?$AA?5?$AAt?$AAo?$AA?5?$AAc?$AAl?$AAo?$AAs?$AAe?$AA?5?$AAu?$AAp?$AA?5?$AAt?$AAh?$AAe?$AA?5?$AAc?$AAo?$AAm?$AAm?$AAs?$AA?5?$AAp?$AAo?$AAr@ ; `string'
PUBLIC	?IsOpen@CSerialPort@@QBEHXZ			; CSerialPort::IsOpen
;	COMDAT ?__LINE__Var@?1??Close@CSerialPort@@QAEXXZ@4JA
_DATA	SEGMENT
?__LINE__Var@?1??Close@CSerialPort@@QAEXXZ@4JA DD 016fH	; `CSerialPort::Close'::`2'::__LINE__Var
_DATA	ENDS
;	COMDAT ??_C@_1GI@KMOJLNHF@?$AAF?$AAa?$AAi?$AAl?$AAe?$AAd?$AA?5?$AAt?$AAo?$AA?5?$AAc?$AAl?$AAo?$AAs?$AAe?$AA?5?$AAu?$AAp?$AA?5?$AAt?$AAh?$AAe?$AA?5?$AAc?$AAo?$AAm?$AAm?$AAs?$AA?5?$AAp?$AAo?$AAr@
CONST	SEGMENT
??_C@_1GI@KMOJLNHF@?$AAF?$AAa?$AAi?$AAl?$AAe?$AAd?$AA?5?$AAt?$AAo?$AA?5?$AAc?$AAl?$AAo?$AAs?$AAe?$AA?5?$AAu?$AAp?$AA?5?$AAt?$AAh?$AAe?$AA?5?$AAc?$AAo?$AAm?$AAm?$AAs?$AA?5?$AAp?$AAo?$AAr@ DB 'F'
	DB	00H, 'a', 00H, 'i', 00H, 'l', 00H, 'e', 00H, 'd', 00H, ' ', 00H
	DB	't', 00H, 'o', 00H, ' ', 00H, 'c', 00H, 'l', 00H, 'o', 00H, 's'
	DB	00H, 'e', 00H, ' ', 00H, 'u', 00H, 'p', 00H, ' ', 00H, 't', 00H
	DB	'h', 00H, 'e', 00H, ' ', 00H, 'c', 00H, 'o', 00H, 'm', 00H, 'm'
	DB	00H, 's', 00H, ' ', 00H, 'p', 00H, 'o', 00H, 'r', 00H, 't', 00H
	DB	',', 00H, ' ', 00H, 'G', 00H, 'e', 00H, 't', 00H, 'L', 00H, 'a'
	DB	00H, 's', 00H, 't', 00H, 'E', 00H, 'r', 00H, 'r', 00H, 'o', 00H
	DB	'r', 00H, ':', 00H, '%', 00H, 'd', 00H, 0aH, 00H, 00H, 00H ; `string'
; Function compile flags: /Odtp /RTCsu /ZI
CONST	ENDS
;	COMDAT ?Close@CSerialPort@@QAEXXZ
_TEXT	SEGMENT
$T212057 = -228						; size = 8
_bSuccess$211126 = -20					; size = 4
_this$ = -8						; size = 4
?Close@CSerialPort@@QAEXXZ PROC				; CSerialPort::Close, COMDAT
; _this$ = ecx

; 367  : {

  00000	55		 push	 ebp
  00001	8b ec		 mov	 ebp, esp
  00003	81 ec e8 00 00
	00		 sub	 esp, 232		; 000000e8H
  00009	53		 push	 ebx
  0000a	56		 push	 esi
  0000b	57		 push	 edi
  0000c	51		 push	 ecx
  0000d	8d bd 18 ff ff
	ff		 lea	 edi, DWORD PTR [ebp-232]
  00013	b9 3a 00 00 00	 mov	 ecx, 58			; 0000003aH
  00018	b8 cc cc cc cc	 mov	 eax, -858993460		; ccccccccH
  0001d	f3 ab		 rep stosd
  0001f	59		 pop	 ecx
  00020	89 4d f8	 mov	 DWORD PTR _this$[ebp], ecx

; 368  :   if (IsOpen())

  00023	8b 4d f8	 mov	 ecx, DWORD PTR _this$[ebp]
  00026	e8 00 00 00 00	 call	 ?IsOpen@CSerialPort@@QBEHXZ ; CSerialPort::IsOpen
  0002b	85 c0		 test	 eax, eax
  0002d	0f 84 93 00 00
	00		 je	 $LN4@Close

; 369  :   {
; 370  :     //Close down the comms port
; 371  :     BOOL bSuccess = CloseHandle(m_hComm);

  00033	8b f4		 mov	 esi, esp
  00035	8b 45 f8	 mov	 eax, DWORD PTR _this$[ebp]
  00038	8b 48 04	 mov	 ecx, DWORD PTR [eax+4]
  0003b	51		 push	 ecx
  0003c	ff 15 00 00 00
	00		 call	 DWORD PTR __imp__CloseHandle@4
  00042	3b f4		 cmp	 esi, esp
  00044	e8 00 00 00 00	 call	 __RTC_CheckEsp
  00049	89 45 ec	 mov	 DWORD PTR _bSuccess$211126[ebp], eax

; 372  :     m_hComm = INVALID_HANDLE_VALUE;

  0004c	8b 45 f8	 mov	 eax, DWORD PTR _this$[ebp]
  0004f	c7 40 04 ff ff
	ff ff		 mov	 DWORD PTR [eax+4], -1

; 373  :     if (!bSuccess)

  00056	83 7d ec 00	 cmp	 DWORD PTR _bSuccess$211126[ebp], 0
  0005a	75 37		 jne	 SHORT $LN2@Close

; 374  :       TRACE(_T("Failed to close up the comms port, GetLastError:%d\n"), GetLastError());

  0005c	8b f4		 mov	 esi, esp
  0005e	ff 15 00 00 00
	00		 call	 DWORD PTR __imp__GetLastError@0
  00064	3b f4		 cmp	 esi, esp
  00066	e8 00 00 00 00	 call	 __RTC_CheckEsp
  0006b	50		 push	 eax
  0006c	68 00 00 00 00	 push	 OFFSET ??_C@_1GI@KMOJLNHF@?$AAF?$AAa?$AAi?$AAl?$AAe?$AAd?$AA?5?$AAt?$AAo?$AA?5?$AAc?$AAl?$AAo?$AAs?$AAe?$AA?5?$AAu?$AAp?$AA?5?$AAt?$AAh?$AAe?$AA?5?$AAc?$AAo?$AAm?$AAm?$AAs?$AA?5?$AAp?$AAo?$AAr@
  00071	a1 00 00 00 00	 mov	 eax, DWORD PTR ?__LINE__Var@?1??Close@CSerialPort@@QAEXXZ@4JA
  00076	83 c0 07	 add	 eax, 7
  00079	50		 push	 eax
  0007a	68 00 00 00 00	 push	 OFFSET ??_C@_0DC@PACLAOLH@e?3?2cz?2vs?2dvicectrldlg_new_signal@
  0007f	8d 8d 1c ff ff
	ff		 lea	 ecx, DWORD PTR $T212057[ebp]
  00085	e8 00 00 00 00	 call	 ??0CTraceFileAndLineInfo@ATL@@QAE@PBDH@Z ; ATL::CTraceFileAndLineInfo::CTraceFileAndLineInfo
  0008a	50		 push	 eax
  0008b	e8 00 00 00 00	 call	 ??RCTraceFileAndLineInfo@ATL@@QBAXPB_WZZ ; ATL::CTraceFileAndLineInfo::operator()
  00090	83 c4 0c	 add	 esp, 12			; 0000000cH
$LN2@Close:

; 375  :     m_bOverlapped = FALSE;

  00093	8b 45 f8	 mov	 eax, DWORD PTR _this$[ebp]
  00096	c7 40 08 00 00
	00 00		 mov	 DWORD PTR [eax+8], 0

; 376  : 
; 377  :     //Free up the event object we are using
; 378  :     if(m_hEvent)

  0009d	8b 45 f8	 mov	 eax, DWORD PTR _this$[ebp]
  000a0	83 78 0c 00	 cmp	 DWORD PTR [eax+12], 0
  000a4	74 20		 je	 SHORT $LN4@Close

; 379  : 	{
; 380  : 	   CloseHandle(m_hEvent);

  000a6	8b f4		 mov	 esi, esp
  000a8	8b 45 f8	 mov	 eax, DWORD PTR _this$[ebp]
  000ab	8b 48 0c	 mov	 ecx, DWORD PTR [eax+12]
  000ae	51		 push	 ecx
  000af	ff 15 00 00 00
	00		 call	 DWORD PTR __imp__CloseHandle@4
  000b5	3b f4		 cmp	 esi, esp
  000b7	e8 00 00 00 00	 call	 __RTC_CheckEsp

; 381  :        m_hEvent = NULL;

  000bc	8b 45 f8	 mov	 eax, DWORD PTR _this$[ebp]
  000bf	c7 40 0c 00 00
	00 00		 mov	 DWORD PTR [eax+12], 0
$LN4@Close:

; 382  : 	}
; 383  : 
; 384  :   }
; 385  : }

  000c6	5f		 pop	 edi
  000c7	5e		 pop	 esi
  000c8	5b		 pop	 ebx
  000c9	81 c4 e8 00 00
	00		 add	 esp, 232		; 000000e8H
  000cf	3b ec		 cmp	 ebp, esp
  000d1	e8 00 00 00 00	 call	 __RTC_CheckEsp
  000d6	8b e5		 mov	 esp, ebp
  000d8	5d		 pop	 ebp
  000d9	c3		 ret	 0
?Close@CSerialPort@@QAEXXZ ENDP				; CSerialPort::Close
; Function compile flags: /Odtp /RTCsu /ZI
; File e:\cz\vs\dvicectrldlg_new_signal_1\serialport.h
_TEXT	ENDS
;	COMDAT ?IsOpen@CSerialPort@@QBEHXZ
_TEXT	SEGMENT
_this$ = -8						; size = 4
?IsOpen@CSerialPort@@QBEHXZ PROC			; CSerialPort::IsOpen, COMDAT
; _this$ = ecx

; 97   :   BOOL IsOpen() const { return m_hComm != INVALID_HANDLE_VALUE; };

  00000	55		 push	 ebp
  00001	8b ec		 mov	 ebp, esp
  00003	81 ec cc 00 00
	00		 sub	 esp, 204		; 000000ccH
  00009	53		 push	 ebx
  0000a	56		 push	 esi
  0000b	57		 push	 edi
  0000c	51		 push	 ecx
  0000d	8d bd 34 ff ff
	ff		 lea	 edi, DWORD PTR [ebp-204]
  00013	b9 33 00 00 00	 mov	 ecx, 51			; 00000033H
  00018	b8 cc cc cc cc	 mov	 eax, -858993460		; ccccccccH
  0001d	f3 ab		 rep stosd
  0001f	59		 pop	 ecx
  00020	89 4d f8	 mov	 DWORD PTR _this$[ebp], ecx
  00023	8b 45 f8	 mov	 eax, DWORD PTR _this$[ebp]
  00026	33 c9		 xor	 ecx, ecx
  00028	83 78 04 ff	 cmp	 DWORD PTR [eax+4], -1
  0002c	0f 95 c1	 setne	 cl
  0002f	8b c1		 mov	 eax, ecx
  00031	5f		 pop	 edi
  00032	5e		 pop	 esi
  00033	5b		 pop	 ebx
  00034	8b e5		 mov	 esp, ebp
  00036	5d		 pop	 ebp
  00037	c3		 ret	 0
?IsOpen@CSerialPort@@QBEHXZ ENDP			; CSerialPort::IsOpen
_TEXT	ENDS
PUBLIC	?__LINE__Var@?1??Attach@CSerialPort@@QAEXPAXH@Z@4JA ; `CSerialPort::Attach'::`2'::__LINE__Var
PUBLIC	??_C@_1FC@NOBNBECN@?$AAF?$AAa?$AAi?$AAl?$AAe?$AAd?$AA?5?$AAi?$AAn?$AA?5?$AAc?$AAa?$AAl?$AAl?$AA?5?$AAt?$AAo?$AA?5?$AAC?$AAr?$AAe?$AAa?$AAt?$AAe?$AAE?$AAv?$AAe?$AAn?$AAt?$AA?5?$AAi?$AAn@ ; `string'
PUBLIC	?Attach@CSerialPort@@QAEXPAXH@Z			; CSerialPort::Attach
;	COMDAT ?__LINE__Var@?1??Attach@CSerialPort@@QAEXPAXH@Z@4JA
; File e:\cz\vs\dvicectrldlg_new_signal_1\serialport.cpp
_DATA	SEGMENT
?__LINE__Var@?1??Attach@CSerialPort@@QAEXPAXH@Z@4JA DD 0184H ; `CSerialPort::Attach'::`2'::__LINE__Var
_DATA	ENDS
;	COMDAT ??_C@_1FC@NOBNBECN@?$AAF?$AAa?$AAi?$AAl?$AAe?$AAd?$AA?5?$AAi?$AAn?$AA?5?$AAc?$AAa?$AAl?$AAl?$AA?5?$AAt?$AAo?$AA?5?$AAC?$AAr?$AAe?$AAa?$AAt?$AAe?$AAE?$AAv?$AAe?$AAn?$AAt?$AA?5?$AAi?$AAn@
CONST	SEGMENT
??_C@_1FC@NOBNBECN@?$AAF?$AAa?$AAi?$AAl?$AAe?$AAd?$AA?5?$AAi?$AAn?$AA?5?$AAc?$AAa?$AAl?$AAl?$AA?5?$AAt?$AAo?$AA?5?$AAC?$AAr?$AAe?$AAa?$AAt?$AAe?$AAE?$AAv?$AAe?$AAn?$AAt?$AA?5?$AAi?$AAn@ DB 'F'
	DB	00H, 'a', 00H, 'i', 00H, 'l', 00H, 'e', 00H, 'd', 00H, ' ', 00H
	DB	'i', 00H, 'n', 00H, ' ', 00H, 'c', 00H, 'a', 00H, 'l', 00H, 'l'
	DB	00H, ' ', 00H, 't', 00H, 'o', 00H, ' ', 00H, 'C', 00H, 'r', 00H
	DB	'e', 00H, 'a', 00H, 't', 00H, 'e', 00H, 'E', 00H, 'v', 00H, 'e'
	DB	00H, 'n', 00H, 't', 00H, ' ', 00H, 'i', 00H, 'n', 00H, ' ', 00H
	DB	'A', 00H, 't', 00H, 't', 00H, 'a', 00H, 'c', 00H, 'h', 00H, 0aH
	DB	00H, 00H, 00H				; `string'
; Function compile flags: /Odtp /RTCsu /ZI
CONST	ENDS
;	COMDAT ?Attach@CSerialPort@@QAEXPAXH@Z
_TEXT	SEGMENT
$T212062 = -216						; size = 8
_this$ = -8						; size = 4
_hComm$ = 8						; size = 4
_bOverlapped$ = 12					; size = 4
?Attach@CSerialPort@@QAEXPAXH@Z PROC			; CSerialPort::Attach, COMDAT
; _this$ = ecx

; 388  : {

  00000	55		 push	 ebp
  00001	8b ec		 mov	 ebp, esp
  00003	81 ec dc 00 00
	00		 sub	 esp, 220		; 000000dcH
  00009	53		 push	 ebx
  0000a	56		 push	 esi
  0000b	57		 push	 edi
  0000c	51		 push	 ecx
  0000d	8d bd 24 ff ff
	ff		 lea	 edi, DWORD PTR [ebp-220]
  00013	b9 37 00 00 00	 mov	 ecx, 55			; 00000037H
  00018	b8 cc cc cc cc	 mov	 eax, -858993460		; ccccccccH
  0001d	f3 ab		 rep stosd
  0001f	59		 pop	 ecx
  00020	89 4d f8	 mov	 DWORD PTR _this$[ebp], ecx

; 389  :   Close();

  00023	8b 4d f8	 mov	 ecx, DWORD PTR _this$[ebp]
  00026	e8 00 00 00 00	 call	 ?Close@CSerialPort@@QAEXXZ ; CSerialPort::Close

; 390  :   m_hComm = hComm;  

  0002b	8b 45 f8	 mov	 eax, DWORD PTR _this$[ebp]
  0002e	8b 4d 08	 mov	 ecx, DWORD PTR _hComm$[ebp]
  00031	89 48 04	 mov	 DWORD PTR [eax+4], ecx

; 391  :   m_bOverlapped = bOverlapped;

  00034	8b 45 f8	 mov	 eax, DWORD PTR _this$[ebp]
  00037	8b 4d 0c	 mov	 ecx, DWORD PTR _bOverlapped$[ebp]
  0003a	89 48 08	 mov	 DWORD PTR [eax+8], ecx

; 392  : 
; 393  :   //Create the event we need for later synchronisation use
; 394  :   m_hEvent = CreateEvent(NULL, FALSE, FALSE, NULL);

  0003d	8b f4		 mov	 esi, esp
  0003f	6a 00		 push	 0
  00041	6a 00		 push	 0
  00043	6a 00		 push	 0
  00045	6a 00		 push	 0
  00047	ff 15 00 00 00
	00		 call	 DWORD PTR __imp__CreateEventW@16
  0004d	3b f4		 cmp	 esi, esp
  0004f	e8 00 00 00 00	 call	 __RTC_CheckEsp
  00054	8b 4d f8	 mov	 ecx, DWORD PTR _this$[ebp]
  00057	89 41 0c	 mov	 DWORD PTR [ecx+12], eax

; 395  :   if (m_hEvent == NULL)

  0005a	8b 45 f8	 mov	 eax, DWORD PTR _this$[ebp]
  0005d	83 78 0c 00	 cmp	 DWORD PTR [eax+12], 0
  00061	75 39		 jne	 SHORT $LN2@Attach

; 396  :   {
; 397  :     Close();

  00063	8b 4d f8	 mov	 ecx, DWORD PTR _this$[ebp]
  00066	e8 00 00 00 00	 call	 ?Close@CSerialPort@@QAEXXZ ; CSerialPort::Close

; 398  :     TRACE(_T("Failed in call to CreateEvent in Attach\n"));

  0006b	68 00 00 00 00	 push	 OFFSET ??_C@_1FC@NOBNBECN@?$AAF?$AAa?$AAi?$AAl?$AAe?$AAd?$AA?5?$AAi?$AAn?$AA?5?$AAc?$AAa?$AAl?$AAl?$AA?5?$AAt?$AAo?$AA?5?$AAC?$AAr?$AAe?$AAa?$AAt?$AAe?$AAE?$AAv?$AAe?$AAn?$AAt?$AA?5?$AAi?$AAn@
  00070	a1 00 00 00 00	 mov	 eax, DWORD PTR ?__LINE__Var@?1??Attach@CSerialPort@@QAEXPAXH@Z@4JA
  00075	83 c0 0a	 add	 eax, 10			; 0000000aH
  00078	50		 push	 eax
  00079	68 00 00 00 00	 push	 OFFSET ??_C@_0DC@PACLAOLH@e?3?2cz?2vs?2dvicectrldlg_new_signal@
  0007e	8d 8d 28 ff ff
	ff		 lea	 ecx, DWORD PTR $T212062[ebp]
  00084	e8 00 00 00 00	 call	 ??0CTraceFileAndLineInfo@ATL@@QAE@PBDH@Z ; ATL::CTraceFileAndLineInfo::CTraceFileAndLineInfo
  00089	50		 push	 eax
  0008a	e8 00 00 00 00	 call	 ??RCTraceFileAndLineInfo@ATL@@QBAXPB_WZZ ; ATL::CTraceFileAndLineInfo::operator()
  0008f	83 c4 08	 add	 esp, 8

; 399  :     AfxThrowSerialException();

  00092	6a 00		 push	 0
  00094	e8 00 00 00 00	 call	 ?AfxThrowSerialException@@YAXK@Z ; AfxThrowSerialException
  00099	83 c4 04	 add	 esp, 4
$LN2@Attach:

; 400  :   }
; 401  : }

  0009c	5f		 pop	 edi
  0009d	5e		 pop	 esi
  0009e	5b		 pop	 ebx
  0009f	81 c4 dc 00 00
	00		 add	 esp, 220		; 000000dcH
  000a5	3b ec		 cmp	 ebp, esp
  000a7	e8 00 00 00 00	 call	 __RTC_CheckEsp
  000ac	8b e5		 mov	 esp, ebp
  000ae	5d		 pop	 ebp
  000af	c2 08 00	 ret	 8
?Attach@CSerialPort@@QAEXPAXH@Z ENDP			; CSerialPort::Attach
_TEXT	ENDS
PUBLIC	?Detach@CSerialPort@@QAEPAXXZ			; CSerialPort::Detach
; Function compile flags: /Odtp /RTCsu /ZI
;	COMDAT ?Detach@CSerialPort@@QAEPAXXZ
_TEXT	SEGMENT
_hrVal$ = -20						; size = 4
_this$ = -8						; size = 4
?Detach@CSerialPort@@QAEPAXXZ PROC			; CSerialPort::Detach, COMDAT
; _this$ = ecx

; 404  : {

  00000	55		 push	 ebp
  00001	8b ec		 mov	 ebp, esp
  00003	81 ec d8 00 00
	00		 sub	 esp, 216		; 000000d8H
  00009	53		 push	 ebx
  0000a	56		 push	 esi
  0000b	57		 push	 edi
  0000c	51		 push	 ecx
  0000d	8d bd 28 ff ff
	ff		 lea	 edi, DWORD PTR [ebp-216]
  00013	b9 36 00 00 00	 mov	 ecx, 54			; 00000036H
  00018	b8 cc cc cc cc	 mov	 eax, -858993460		; ccccccccH
  0001d	f3 ab		 rep stosd
  0001f	59		 pop	 ecx
  00020	89 4d f8	 mov	 DWORD PTR _this$[ebp], ecx

; 405  :   HANDLE hrVal = m_hComm;

  00023	8b 45 f8	 mov	 eax, DWORD PTR _this$[ebp]
  00026	8b 48 04	 mov	 ecx, DWORD PTR [eax+4]
  00029	89 4d ec	 mov	 DWORD PTR _hrVal$[ebp], ecx

; 406  :   m_hComm = INVALID_HANDLE_VALUE;

  0002c	8b 45 f8	 mov	 eax, DWORD PTR _this$[ebp]
  0002f	c7 40 04 ff ff
	ff ff		 mov	 DWORD PTR [eax+4], -1

; 407  :   CloseHandle(m_hEvent);

  00036	8b f4		 mov	 esi, esp
  00038	8b 45 f8	 mov	 eax, DWORD PTR _this$[ebp]
  0003b	8b 48 0c	 mov	 ecx, DWORD PTR [eax+12]
  0003e	51		 push	 ecx
  0003f	ff 15 00 00 00
	00		 call	 DWORD PTR __imp__CloseHandle@4
  00045	3b f4		 cmp	 esi, esp
  00047	e8 00 00 00 00	 call	 __RTC_CheckEsp

; 408  :   m_hEvent = NULL;

  0004c	8b 45 f8	 mov	 eax, DWORD PTR _this$[ebp]
  0004f	c7 40 0c 00 00
	00 00		 mov	 DWORD PTR [eax+12], 0

; 409  :   return hrVal;

  00056	8b 45 ec	 mov	 eax, DWORD PTR _hrVal$[ebp]

; 410  : }

  00059	5f		 pop	 edi
  0005a	5e		 pop	 esi
  0005b	5b		 pop	 ebx
  0005c	81 c4 d8 00 00
	00		 add	 esp, 216		; 000000d8H
  00062	3b ec		 cmp	 ebp, esp
  00064	e8 00 00 00 00	 call	 __RTC_CheckEsp
  00069	8b e5		 mov	 esp, ebp
  0006b	5d		 pop	 ebp
  0006c	c3		 ret	 0
?Detach@CSerialPort@@QAEPAXXZ ENDP			; CSerialPort::Detach
_TEXT	ENDS
PUBLIC	??_C@_1DI@LEHPDBLE@?$AAF?$AAa?$AAi?$AAl?$AAe?$AAd?$AA?5?$AAi?$AAn?$AA?5?$AAc?$AAa?$AAl?$AAl?$AA?5?$AAt?$AAo?$AA?5?$AAR?$AAe?$AAa?$AAd?$AAF?$AAi?$AAl?$AAe?$AA?6?$AA?$AA@ ; `string'
PUBLIC	??_C@_1EG@MALJNKNH@?$AAC?$AAS?$AAe?$AAr?$AAi?$AAa?$AAl?$AAP?$AAo?$AAr?$AAt?$AA?3?$AA?3?$AAR?$AAe?$AAa?$AAd?$AA?0?$AA?$CB?$AAm?$AA_?$AAb?$AAO?$AAv?$AAe?$AAr?$AAl?$AAa?$AAp?$AAp?$AAe?$AAd@ ; `string'
PUBLIC	?__LINE__Var@?1??Read@CSerialPort@@QAEKPAXK@Z@4JA ; `CSerialPort::Read'::`2'::__LINE__Var
PUBLIC	??_C@_1DK@IHDMHEEB@?$AAC?$AAS?$AAe?$AAr?$AAi?$AAa?$AAl?$AAP?$AAo?$AAr?$AAt?$AA?3?$AA?3?$AAR?$AAe?$AAa?$AAd?$AA?0?$AAI?$AAs?$AAO?$AAp?$AAe?$AAn?$AA?$CI?$AA?$CJ?$AA?$AN?$AA?6?$AA?$AA@ ; `string'
PUBLIC	__$ArrayPad$
PUBLIC	?Read@CSerialPort@@QAEKPAXK@Z			; CSerialPort::Read
EXTRN	__imp__ReadFile@20:PROC
EXTRN	__imp__ClearCommError@12:PROC
;	COMDAT ??_C@_1DI@LEHPDBLE@?$AAF?$AAa?$AAi?$AAl?$AAe?$AAd?$AA?5?$AAi?$AAn?$AA?5?$AAc?$AAa?$AAl?$AAl?$AA?5?$AAt?$AAo?$AA?5?$AAR?$AAe?$AAa?$AAd?$AAF?$AAi?$AAl?$AAe?$AA?6?$AA?$AA@
CONST	SEGMENT
??_C@_1DI@LEHPDBLE@?$AAF?$AAa?$AAi?$AAl?$AAe?$AAd?$AA?5?$AAi?$AAn?$AA?5?$AAc?$AAa?$AAl?$AAl?$AA?5?$AAt?$AAo?$AA?5?$AAR?$AAe?$AAa?$AAd?$AAF?$AAi?$AAl?$AAe?$AA?6?$AA?$AA@ DB 'F'
	DB	00H, 'a', 00H, 'i', 00H, 'l', 00H, 'e', 00H, 'd', 00H, ' ', 00H
	DB	'i', 00H, 'n', 00H, ' ', 00H, 'c', 00H, 'a', 00H, 'l', 00H, 'l'
	DB	00H, ' ', 00H, 't', 00H, 'o', 00H, ' ', 00H, 'R', 00H, 'e', 00H
	DB	'a', 00H, 'd', 00H, 'F', 00H, 'i', 00H, 'l', 00H, 'e', 00H, 0aH
	DB	00H, 00H, 00H				; `string'
CONST	ENDS
;	COMDAT ??_C@_1EG@MALJNKNH@?$AAC?$AAS?$AAe?$AAr?$AAi?$AAa?$AAl?$AAP?$AAo?$AAr?$AAt?$AA?3?$AA?3?$AAR?$AAe?$AAa?$AAd?$AA?0?$AA?$CB?$AAm?$AA_?$AAb?$AAO?$AAv?$AAe?$AAr?$AAl?$AAa?$AAp?$AAp?$AAe?$AAd@
CONST	SEGMENT
??_C@_1EG@MALJNKNH@?$AAC?$AAS?$AAe?$AAr?$AAi?$AAa?$AAl?$AAP?$AAo?$AAr?$AAt?$AA?3?$AA?3?$AAR?$AAe?$AAa?$AAd?$AA?0?$AA?$CB?$AAm?$AA_?$AAb?$AAO?$AAv?$AAe?$AAr?$AAl?$AAa?$AAp?$AAp?$AAe?$AAd@ DB 'C'
	DB	00H, 'S', 00H, 'e', 00H, 'r', 00H, 'i', 00H, 'a', 00H, 'l', 00H
	DB	'P', 00H, 'o', 00H, 'r', 00H, 't', 00H, ':', 00H, ':', 00H, 'R'
	DB	00H, 'e', 00H, 'a', 00H, 'd', 00H, ',', 00H, '!', 00H, 'm', 00H
	DB	'_', 00H, 'b', 00H, 'O', 00H, 'v', 00H, 'e', 00H, 'r', 00H, 'l'
	DB	00H, 'a', 00H, 'p', 00H, 'p', 00H, 'e', 00H, 'd', 00H, 0dH, 00H
	DB	0aH, 00H, 00H, 00H				; `string'
CONST	ENDS
;	COMDAT ?__LINE__Var@?1??Read@CSerialPort@@QAEKPAXK@Z@4JA
_DATA	SEGMENT
?__LINE__Var@?1??Read@CSerialPort@@QAEKPAXK@Z@4JA DD 019dH ; `CSerialPort::Read'::`2'::__LINE__Var
_DATA	ENDS
;	COMDAT ??_C@_1DK@IHDMHEEB@?$AAC?$AAS?$AAe?$AAr?$AAi?$AAa?$AAl?$AAP?$AAo?$AAr?$AAt?$AA?3?$AA?3?$AAR?$AAe?$AAa?$AAd?$AA?0?$AAI?$AAs?$AAO?$AAp?$AAe?$AAn?$AA?$CI?$AA?$CJ?$AA?$AN?$AA?6?$AA?$AA@
CONST	SEGMENT
??_C@_1DK@IHDMHEEB@?$AAC?$AAS?$AAe?$AAr?$AAi?$AAa?$AAl?$AAP?$AAo?$AAr?$AAt?$AA?3?$AA?3?$AAR?$AAe?$AAa?$AAd?$AA?0?$AAI?$AAs?$AAO?$AAp?$AAe?$AAn?$AA?$CI?$AA?$CJ?$AA?$AN?$AA?6?$AA?$AA@ DB 'C'
	DB	00H, 'S', 00H, 'e', 00H, 'r', 00H, 'i', 00H, 'a', 00H, 'l', 00H
	DB	'P', 00H, 'o', 00H, 'r', 00H, 't', 00H, ':', 00H, ':', 00H, 'R'
	DB	00H, 'e', 00H, 'a', 00H, 'd', 00H, ',', 00H, 'I', 00H, 's', 00H
	DB	'O', 00H, 'p', 00H, 'e', 00H, 'n', 00H, '(', 00H, ')', 00H, 0dH
	DB	00H, 0aH, 00H, 00H, 00H			; `string'
; Function compile flags: /Odtp /RTCsu /ZI
CONST	ENDS
;	COMDAT ?Read@CSerialPort@@QAEKPAXK@Z
_TEXT	SEGMENT
$T212068 = -308						; size = 8
$T212069 = -292						; size = 8
$T212070 = -276						; size = 8
_dwBytesRead$ = -68					; size = 4
_ok$ = -56						; size = 4
_comstat$ = -44						; size = 12
_Errors$ = -24						; size = 4
_this$ = -12						; size = 4
__$ArrayPad$ = -4					; size = 4
_lpBuf$ = 8						; size = 4
_dwCount$ = 12						; size = 4
?Read@CSerialPort@@QAEKPAXK@Z PROC			; CSerialPort::Read, COMDAT
; _this$ = ecx

; 413  : {

  00000	55		 push	 ebp
  00001	8b ec		 mov	 ebp, esp
  00003	81 ec 38 01 00
	00		 sub	 esp, 312		; 00000138H
  00009	53		 push	 ebx
  0000a	56		 push	 esi
  0000b	57		 push	 edi
  0000c	51		 push	 ecx
  0000d	8d bd c8 fe ff
	ff		 lea	 edi, DWORD PTR [ebp-312]
  00013	b9 4e 00 00 00	 mov	 ecx, 78			; 0000004eH
  00018	b8 cc cc cc cc	 mov	 eax, -858993460		; ccccccccH
  0001d	f3 ab		 rep stosd
  0001f	59		 pop	 ecx
  00020	a1 00 00 00 00	 mov	 eax, DWORD PTR ___security_cookie
  00025	33 c5		 xor	 eax, ebp
  00027	89 45 fc	 mov	 DWORD PTR __$ArrayPad$[ebp], eax
  0002a	89 4d f4	 mov	 DWORD PTR _this$[ebp], ecx

; 414  : //   ASSERT(IsOpen());
; 415  : //   ASSERT(!m_bOverlapped);
; 416  :   TRACE(_T("CSerialPort::Read,IsOpen()\r\n"));

  0002d	68 00 00 00 00	 push	 OFFSET ??_C@_1DK@IHDMHEEB@?$AAC?$AAS?$AAe?$AAr?$AAi?$AAa?$AAl?$AAP?$AAo?$AAr?$AAt?$AA?3?$AA?3?$AAR?$AAe?$AAa?$AAd?$AA?0?$AAI?$AAs?$AAO?$AAp?$AAe?$AAn?$AA?$CI?$AA?$CJ?$AA?$AN?$AA?6?$AA?$AA@
  00032	a1 00 00 00 00	 mov	 eax, DWORD PTR ?__LINE__Var@?1??Read@CSerialPort@@QAEKPAXK@Z@4JA
  00037	83 c0 03	 add	 eax, 3
  0003a	50		 push	 eax
  0003b	68 00 00 00 00	 push	 OFFSET ??_C@_0DC@PACLAOLH@e?3?2cz?2vs?2dvicectrldlg_new_signal@
  00040	8d 8d cc fe ff
	ff		 lea	 ecx, DWORD PTR $T212068[ebp]
  00046	e8 00 00 00 00	 call	 ??0CTraceFileAndLineInfo@ATL@@QAE@PBDH@Z ; ATL::CTraceFileAndLineInfo::CTraceFileAndLineInfo
  0004b	50		 push	 eax
  0004c	e8 00 00 00 00	 call	 ??RCTraceFileAndLineInfo@ATL@@QBAXPB_WZZ ; ATL::CTraceFileAndLineInfo::operator()
  00051	83 c4 08	 add	 esp, 8

; 417  :   TRACE(_T("CSerialPort::Read,!m_bOverlapped\r\n"));

  00054	68 00 00 00 00	 push	 OFFSET ??_C@_1EG@MALJNKNH@?$AAC?$AAS?$AAe?$AAr?$AAi?$AAa?$AAl?$AAP?$AAo?$AAr?$AAt?$AA?3?$AA?3?$AAR?$AAe?$AAa?$AAd?$AA?0?$AA?$CB?$AAm?$AA_?$AAb?$AAO?$AAv?$AAe?$AAr?$AAl?$AAa?$AAp?$AAp?$AAe?$AAd@
  00059	a1 00 00 00 00	 mov	 eax, DWORD PTR ?__LINE__Var@?1??Read@CSerialPort@@QAEKPAXK@Z@4JA
  0005e	83 c0 04	 add	 eax, 4
  00061	50		 push	 eax
  00062	68 00 00 00 00	 push	 OFFSET ??_C@_0DC@PACLAOLH@e?3?2cz?2vs?2dvicectrldlg_new_signal@
  00067	8d 8d dc fe ff
	ff		 lea	 ecx, DWORD PTR $T212069[ebp]
  0006d	e8 00 00 00 00	 call	 ??0CTraceFileAndLineInfo@ATL@@QAE@PBDH@Z ; ATL::CTraceFileAndLineInfo::CTraceFileAndLineInfo
  00072	50		 push	 eax
  00073	e8 00 00 00 00	 call	 ??RCTraceFileAndLineInfo@ATL@@QBAXPB_WZZ ; ATL::CTraceFileAndLineInfo::operator()
  00078	83 c4 08	 add	 esp, 8

; 418  :   
; 419  :   DWORD Errors;
; 420  :   COMSTAT comstat;
; 421  :   BOOL ok;
; 422  :   ok = ::ClearCommError(this->m_hComm,&Errors,&comstat);

  0007b	8b f4		 mov	 esi, esp
  0007d	8d 45 d4	 lea	 eax, DWORD PTR _comstat$[ebp]
  00080	50		 push	 eax
  00081	8d 4d e8	 lea	 ecx, DWORD PTR _Errors$[ebp]
  00084	51		 push	 ecx
  00085	8b 55 f4	 mov	 edx, DWORD PTR _this$[ebp]
  00088	8b 42 04	 mov	 eax, DWORD PTR [edx+4]
  0008b	50		 push	 eax
  0008c	ff 15 00 00 00
	00		 call	 DWORD PTR __imp__ClearCommError@12
  00092	3b f4		 cmp	 esi, esp
  00094	e8 00 00 00 00	 call	 __RTC_CheckEsp
  00099	89 45 c8	 mov	 DWORD PTR _ok$[ebp], eax

; 423  :   if(!ok)

  0009c	83 7d c8 00	 cmp	 DWORD PTR _ok$[ebp], 0
  000a0	75 04		 jne	 SHORT $LN3@Read

; 424  :   {
; 425  :      return 0;

  000a2	33 c0		 xor	 eax, eax
  000a4	eb 6d		 jmp	 SHORT $LN4@Read
$LN3@Read:

; 426  :   }
; 427  :   if(comstat.cbInQue==0)

  000a6	83 7d d8 00	 cmp	 DWORD PTR _comstat$[ebp+4], 0
  000aa	75 04		 jne	 SHORT $LN2@Read

; 428  :   {
; 429  :      return 0;

  000ac	33 c0		 xor	 eax, eax
  000ae	eb 63		 jmp	 SHORT $LN4@Read
$LN2@Read:

; 430  :   }
; 431  : 
; 432  :   DWORD dwBytesRead = 0;

  000b0	c7 45 bc 00 00
	00 00		 mov	 DWORD PTR _dwBytesRead$[ebp], 0

; 433  :   if (!ReadFile(m_hComm, lpBuf, comstat.cbInQue, &dwBytesRead, NULL))

  000b7	8b f4		 mov	 esi, esp
  000b9	6a 00		 push	 0
  000bb	8d 45 bc	 lea	 eax, DWORD PTR _dwBytesRead$[ebp]
  000be	50		 push	 eax
  000bf	8b 4d d8	 mov	 ecx, DWORD PTR _comstat$[ebp+4]
  000c2	51		 push	 ecx
  000c3	8b 55 08	 mov	 edx, DWORD PTR _lpBuf$[ebp]
  000c6	52		 push	 edx
  000c7	8b 45 f4	 mov	 eax, DWORD PTR _this$[ebp]
  000ca	8b 48 04	 mov	 ecx, DWORD PTR [eax+4]
  000cd	51		 push	 ecx
  000ce	ff 15 00 00 00
	00		 call	 DWORD PTR __imp__ReadFile@20
  000d4	3b f4		 cmp	 esi, esp
  000d6	e8 00 00 00 00	 call	 __RTC_CheckEsp
  000db	85 c0		 test	 eax, eax
  000dd	75 31		 jne	 SHORT $LN1@Read

; 434  :   {
; 435  :     TRACE(_T("Failed in call to ReadFile\n"));

  000df	68 00 00 00 00	 push	 OFFSET ??_C@_1DI@LEHPDBLE@?$AAF?$AAa?$AAi?$AAl?$AAe?$AAd?$AA?5?$AAi?$AAn?$AA?5?$AAc?$AAa?$AAl?$AAl?$AA?5?$AAt?$AAo?$AA?5?$AAR?$AAe?$AAa?$AAd?$AAF?$AAi?$AAl?$AAe?$AA?6?$AA?$AA@
  000e4	a1 00 00 00 00	 mov	 eax, DWORD PTR ?__LINE__Var@?1??Read@CSerialPort@@QAEKPAXK@Z@4JA
  000e9	83 c0 16	 add	 eax, 22			; 00000016H
  000ec	50		 push	 eax
  000ed	68 00 00 00 00	 push	 OFFSET ??_C@_0DC@PACLAOLH@e?3?2cz?2vs?2dvicectrldlg_new_signal@
  000f2	8d 8d ec fe ff
	ff		 lea	 ecx, DWORD PTR $T212070[ebp]
  000f8	e8 00 00 00 00	 call	 ??0CTraceFileAndLineInfo@ATL@@QAE@PBDH@Z ; ATL::CTraceFileAndLineInfo::CTraceFileAndLineInfo
  000fd	50		 push	 eax
  000fe	e8 00 00 00 00	 call	 ??RCTraceFileAndLineInfo@ATL@@QBAXPB_WZZ ; ATL::CTraceFileAndLineInfo::operator()
  00103	83 c4 08	 add	 esp, 8

; 436  :     AfxThrowSerialException();

  00106	6a 00		 push	 0
  00108	e8 00 00 00 00	 call	 ?AfxThrowSerialException@@YAXK@Z ; AfxThrowSerialException
  0010d	83 c4 04	 add	 esp, 4
$LN1@Read:

; 437  :   }
; 438  : 
; 439  :   return dwBytesRead;

  00110	8b 45 bc	 mov	 eax, DWORD PTR _dwBytesRead$[ebp]
$LN4@Read:

; 440  : }

  00113	52		 push	 edx
  00114	8b cd		 mov	 ecx, ebp
  00116	50		 push	 eax
  00117	8d 15 00 00 00
	00		 lea	 edx, DWORD PTR $LN10@Read
  0011d	e8 00 00 00 00	 call	 @_RTC_CheckStackVars@8
  00122	58		 pop	 eax
  00123	5a		 pop	 edx
  00124	5f		 pop	 edi
  00125	5e		 pop	 esi
  00126	5b		 pop	 ebx
  00127	8b 4d fc	 mov	 ecx, DWORD PTR __$ArrayPad$[ebp]
  0012a	33 cd		 xor	 ecx, ebp
  0012c	e8 00 00 00 00	 call	 @__security_check_cookie@4
  00131	81 c4 38 01 00
	00		 add	 esp, 312		; 00000138H
  00137	3b ec		 cmp	 ebp, esp
  00139	e8 00 00 00 00	 call	 __RTC_CheckEsp
  0013e	8b e5		 mov	 esp, ebp
  00140	5d		 pop	 ebp
  00141	c2 08 00	 ret	 8
$LN10@Read:
  00144	03 00 00 00	 DD	 3
  00148	00 00 00 00	 DD	 $LN9@Read
$LN9@Read:
  0014c	e8 ff ff ff	 DD	 -24			; ffffffe8H
  00150	04 00 00 00	 DD	 4
  00154	00 00 00 00	 DD	 $LN6@Read
  00158	d4 ff ff ff	 DD	 -44			; ffffffd4H
  0015c	0c 00 00 00	 DD	 12			; 0000000cH
  00160	00 00 00 00	 DD	 $LN7@Read
  00164	bc ff ff ff	 DD	 -68			; ffffffbcH
  00168	04 00 00 00	 DD	 4
  0016c	00 00 00 00	 DD	 $LN8@Read
$LN8@Read:
  00170	64		 DB	 100			; 00000064H
  00171	77		 DB	 119			; 00000077H
  00172	42		 DB	 66			; 00000042H
  00173	79		 DB	 121			; 00000079H
  00174	74		 DB	 116			; 00000074H
  00175	65		 DB	 101			; 00000065H
  00176	73		 DB	 115			; 00000073H
  00177	52		 DB	 82			; 00000052H
  00178	65		 DB	 101			; 00000065H
  00179	61		 DB	 97			; 00000061H
  0017a	64		 DB	 100			; 00000064H
  0017b	00		 DB	 0
$LN7@Read:
  0017c	63		 DB	 99			; 00000063H
  0017d	6f		 DB	 111			; 0000006fH
  0017e	6d		 DB	 109			; 0000006dH
  0017f	73		 DB	 115			; 00000073H
  00180	74		 DB	 116			; 00000074H
  00181	61		 DB	 97			; 00000061H
  00182	74		 DB	 116			; 00000074H
  00183	00		 DB	 0
$LN6@Read:
  00184	45		 DB	 69			; 00000045H
  00185	72		 DB	 114			; 00000072H
  00186	72		 DB	 114			; 00000072H
  00187	6f		 DB	 111			; 0000006fH
  00188	72		 DB	 114			; 00000072H
  00189	73		 DB	 115			; 00000073H
  0018a	00		 DB	 0
?Read@CSerialPort@@QAEKPAXK@Z ENDP			; CSerialPort::Read
_TEXT	ENDS
PUBLIC	??_C@_1FG@CLNOEDCD@?$AAC?$AAS?$AAe?$AAr?$AAi?$AAa?$AAl?$AAP?$AAo?$AAr?$AAt?$AA?3?$AA?3?$AAR?$AAe?$AAa?$AAd?$AA?0?$AAm?$AA_?$AAb?$AAO?$AAv?$AAe?$AAr?$AAl?$AAa?$AAp?$AAp?$AAe?$AAd?$AA?5@ ; `string'
PUBLIC	?__LINE__Var@?1??Read@CSerialPort@@QAEHPAXKAAU_OVERLAPPED@@PAK@Z@4JA ; `CSerialPort::Read'::`2'::__LINE__Var
PUBLIC	?Read@CSerialPort@@QAEHPAXKAAU_OVERLAPPED@@PAK@Z ; CSerialPort::Read
;	COMDAT ??_C@_1FG@CLNOEDCD@?$AAC?$AAS?$AAe?$AAr?$AAi?$AAa?$AAl?$AAP?$AAo?$AAr?$AAt?$AA?3?$AA?3?$AAR?$AAe?$AAa?$AAd?$AA?0?$AAm?$AA_?$AAb?$AAO?$AAv?$AAe?$AAr?$AAl?$AAa?$AAp?$AAp?$AAe?$AAd?$AA?5@
CONST	SEGMENT
??_C@_1FG@CLNOEDCD@?$AAC?$AAS?$AAe?$AAr?$AAi?$AAa?$AAl?$AAP?$AAo?$AAr?$AAt?$AA?3?$AA?3?$AAR?$AAe?$AAa?$AAd?$AA?0?$AAm?$AA_?$AAb?$AAO?$AAv?$AAe?$AAr?$AAl?$AAa?$AAp?$AAp?$AAe?$AAd?$AA?5@ DB 'C'
	DB	00H, 'S', 00H, 'e', 00H, 'r', 00H, 'i', 00H, 'a', 00H, 'l', 00H
	DB	'P', 00H, 'o', 00H, 'r', 00H, 't', 00H, ':', 00H, ':', 00H, 'R'
	DB	00H, 'e', 00H, 'a', 00H, 'd', 00H, ',', 00H, 'm', 00H, '_', 00H
	DB	'b', 00H, 'O', 00H, 'v', 00H, 'e', 00H, 'r', 00H, 'l', 00H, 'a'
	DB	00H, 'p', 00H, 'p', 00H, 'e', 00H, 'd', 00H, ' ', 00H, '=', 00H
	DB	'=', 00H, ' ', 00H, 'F', 00H, 'A', 00H, 'L', 00H, 'S', 00H, 'E'
	DB	00H, 0dH, 00H, 0aH, 00H, 00H, 00H		; `string'
CONST	ENDS
;	COMDAT ?__LINE__Var@?1??Read@CSerialPort@@QAEHPAXKAAU_OVERLAPPED@@PAK@Z@4JA
_DATA	SEGMENT
?__LINE__Var@?1??Read@CSerialPort@@QAEHPAXKAAU_OVERLAPPED@@PAK@Z@4JA DD 01bbH ; `CSerialPort::Read'::`2'::__LINE__Var
; Function compile flags: /Odtp /RTCsu /ZI
_DATA	ENDS
;	COMDAT ?Read@CSerialPort@@QAEHPAXKAAU_OVERLAPPED@@PAK@Z
_TEXT	SEGMENT
$T212078 = -272						; size = 8
$T212079 = -256						; size = 8
$T212080 = -240						; size = 8
_bSuccess$ = -32					; size = 4
_dwBytesRead$ = -20					; size = 4
_this$ = -8						; size = 4
_lpBuf$ = 8						; size = 4
_dwCount$ = 12						; size = 4
_overlapped$ = 16					; size = 4
_pBytesRead$ = 20					; size = 4
?Read@CSerialPort@@QAEHPAXKAAU_OVERLAPPED@@PAK@Z PROC	; CSerialPort::Read, COMDAT
; _this$ = ecx

; 443  : {

  00000	55		 push	 ebp
  00001	8b ec		 mov	 ebp, esp
  00003	81 ec 14 01 00
	00		 sub	 esp, 276		; 00000114H
  00009	53		 push	 ebx
  0000a	56		 push	 esi
  0000b	57		 push	 edi
  0000c	51		 push	 ecx
  0000d	8d bd ec fe ff
	ff		 lea	 edi, DWORD PTR [ebp-276]
  00013	b9 45 00 00 00	 mov	 ecx, 69			; 00000045H
  00018	b8 cc cc cc cc	 mov	 eax, -858993460		; ccccccccH
  0001d	f3 ab		 rep stosd
  0001f	59		 pop	 ecx
  00020	89 4d f8	 mov	 DWORD PTR _this$[ebp], ecx

; 444  : //   ASSERT(IsOpen());
; 445  : //   ASSERT(m_bOverlapped);
; 446  : 	TRACE(_T("CSerialPort::Read,IsOpen()\r\n"));

  00023	68 00 00 00 00	 push	 OFFSET ??_C@_1DK@IHDMHEEB@?$AAC?$AAS?$AAe?$AAr?$AAi?$AAa?$AAl?$AAP?$AAo?$AAr?$AAt?$AA?3?$AA?3?$AAR?$AAe?$AAa?$AAd?$AA?0?$AAI?$AAs?$AAO?$AAp?$AAe?$AAn?$AA?$CI?$AA?$CJ?$AA?$AN?$AA?6?$AA?$AA@
  00028	a1 00 00 00 00	 mov	 eax, DWORD PTR ?__LINE__Var@?1??Read@CSerialPort@@QAEHPAXKAAU_OVERLAPPED@@PAK@Z@4JA
  0002d	83 c0 03	 add	 eax, 3
  00030	50		 push	 eax
  00031	68 00 00 00 00	 push	 OFFSET ??_C@_0DC@PACLAOLH@e?3?2cz?2vs?2dvicectrldlg_new_signal@
  00036	8d 8d f0 fe ff
	ff		 lea	 ecx, DWORD PTR $T212078[ebp]
  0003c	e8 00 00 00 00	 call	 ??0CTraceFileAndLineInfo@ATL@@QAE@PBDH@Z ; ATL::CTraceFileAndLineInfo::CTraceFileAndLineInfo
  00041	50		 push	 eax
  00042	e8 00 00 00 00	 call	 ??RCTraceFileAndLineInfo@ATL@@QBAXPB_WZZ ; ATL::CTraceFileAndLineInfo::operator()
  00047	83 c4 08	 add	 esp, 8

; 447  : 	TRACE(_T("CSerialPort::Read,m_bOverlapped == FALSE\r\n"));

  0004a	68 00 00 00 00	 push	 OFFSET ??_C@_1FG@CLNOEDCD@?$AAC?$AAS?$AAe?$AAr?$AAi?$AAa?$AAl?$AAP?$AAo?$AAr?$AAt?$AA?3?$AA?3?$AAR?$AAe?$AAa?$AAd?$AA?0?$AAm?$AA_?$AAb?$AAO?$AAv?$AAe?$AAr?$AAl?$AAa?$AAp?$AAp?$AAe?$AAd?$AA?5@
  0004f	a1 00 00 00 00	 mov	 eax, DWORD PTR ?__LINE__Var@?1??Read@CSerialPort@@QAEHPAXKAAU_OVERLAPPED@@PAK@Z@4JA
  00054	83 c0 04	 add	 eax, 4
  00057	50		 push	 eax
  00058	68 00 00 00 00	 push	 OFFSET ??_C@_0DC@PACLAOLH@e?3?2cz?2vs?2dvicectrldlg_new_signal@
  0005d	8d 8d 00 ff ff
	ff		 lea	 ecx, DWORD PTR $T212079[ebp]
  00063	e8 00 00 00 00	 call	 ??0CTraceFileAndLineInfo@ATL@@QAE@PBDH@Z ; ATL::CTraceFileAndLineInfo::CTraceFileAndLineInfo
  00068	50		 push	 eax
  00069	e8 00 00 00 00	 call	 ??RCTraceFileAndLineInfo@ATL@@QBAXPB_WZZ ; ATL::CTraceFileAndLineInfo::operator()
  0006e	83 c4 08	 add	 esp, 8

; 448  : 
; 449  :   DWORD dwBytesRead = 0;

  00071	c7 45 ec 00 00
	00 00		 mov	 DWORD PTR _dwBytesRead$[ebp], 0

; 450  :   /*
; 451  :   BOOL ok;
; 452  :   ok = ::ClearCommError(this->m_hComm,&Errors,&comstat);
; 453  :   if(!ok)
; 454  :   {
; 455  :      return false;
; 456  :   }
; 457  :   if(comstat.cbInQue==0)
; 458  :   {
; 459  :      return false;
; 460  :   }
; 461  :   */
; 462  :   BOOL bSuccess = ReadFile(m_hComm, lpBuf, dwCount, &dwBytesRead, &overlapped);

  00078	8b f4		 mov	 esi, esp
  0007a	8b 45 10	 mov	 eax, DWORD PTR _overlapped$[ebp]
  0007d	50		 push	 eax
  0007e	8d 4d ec	 lea	 ecx, DWORD PTR _dwBytesRead$[ebp]
  00081	51		 push	 ecx
  00082	8b 55 0c	 mov	 edx, DWORD PTR _dwCount$[ebp]
  00085	52		 push	 edx
  00086	8b 45 08	 mov	 eax, DWORD PTR _lpBuf$[ebp]
  00089	50		 push	 eax
  0008a	8b 4d f8	 mov	 ecx, DWORD PTR _this$[ebp]
  0008d	8b 51 04	 mov	 edx, DWORD PTR [ecx+4]
  00090	52		 push	 edx
  00091	ff 15 00 00 00
	00		 call	 DWORD PTR __imp__ReadFile@20
  00097	3b f4		 cmp	 esi, esp
  00099	e8 00 00 00 00	 call	 __RTC_CheckEsp
  0009e	89 45 e0	 mov	 DWORD PTR _bSuccess$[ebp], eax

; 463  :   if (!bSuccess)

  000a1	83 7d e0 00	 cmp	 DWORD PTR _bSuccess$[ebp], 0
  000a5	75 49		 jne	 SHORT $LN4@Read@2

; 464  :   {
; 465  :     if (GetLastError() != ERROR_IO_PENDING)

  000a7	8b f4		 mov	 esi, esp
  000a9	ff 15 00 00 00
	00		 call	 DWORD PTR __imp__GetLastError@0
  000af	3b f4		 cmp	 esi, esp
  000b1	e8 00 00 00 00	 call	 __RTC_CheckEsp
  000b6	3d e5 03 00 00	 cmp	 eax, 997		; 000003e5H
  000bb	74 31		 je	 SHORT $LN3@Read@2

; 466  :     {
; 467  :       TRACE(_T("Failed in call to ReadFile\n"));

  000bd	68 00 00 00 00	 push	 OFFSET ??_C@_1DI@LEHPDBLE@?$AAF?$AAa?$AAi?$AAl?$AAe?$AAd?$AA?5?$AAi?$AAn?$AA?5?$AAc?$AAa?$AAl?$AAl?$AA?5?$AAt?$AAo?$AA?5?$AAR?$AAe?$AAa?$AAd?$AAF?$AAi?$AAl?$AAe?$AA?6?$AA?$AA@
  000c2	a1 00 00 00 00	 mov	 eax, DWORD PTR ?__LINE__Var@?1??Read@CSerialPort@@QAEHPAXKAAU_OVERLAPPED@@PAK@Z@4JA
  000c7	83 c0 18	 add	 eax, 24			; 00000018H
  000ca	50		 push	 eax
  000cb	68 00 00 00 00	 push	 OFFSET ??_C@_0DC@PACLAOLH@e?3?2cz?2vs?2dvicectrldlg_new_signal@
  000d0	8d 8d 10 ff ff
	ff		 lea	 ecx, DWORD PTR $T212080[ebp]
  000d6	e8 00 00 00 00	 call	 ??0CTraceFileAndLineInfo@ATL@@QAE@PBDH@Z ; ATL::CTraceFileAndLineInfo::CTraceFileAndLineInfo
  000db	50		 push	 eax
  000dc	e8 00 00 00 00	 call	 ??RCTraceFileAndLineInfo@ATL@@QBAXPB_WZZ ; ATL::CTraceFileAndLineInfo::operator()
  000e1	83 c4 08	 add	 esp, 8

; 468  :       AfxThrowSerialException();

  000e4	6a 00		 push	 0
  000e6	e8 00 00 00 00	 call	 ?AfxThrowSerialException@@YAXK@Z ; AfxThrowSerialException
  000eb	83 c4 04	 add	 esp, 4
$LN3@Read@2:

; 469  :     }
; 470  :   }
; 471  :   else

  000ee	eb 0e		 jmp	 SHORT $LN2@Read@2
$LN4@Read@2:

; 472  :   {
; 473  :     if (pBytesRead)

  000f0	83 7d 14 00	 cmp	 DWORD PTR _pBytesRead$[ebp], 0
  000f4	74 08		 je	 SHORT $LN2@Read@2

; 474  :       *pBytesRead = dwBytesRead;

  000f6	8b 45 14	 mov	 eax, DWORD PTR _pBytesRead$[ebp]
  000f9	8b 4d ec	 mov	 ecx, DWORD PTR _dwBytesRead$[ebp]
  000fc	89 08		 mov	 DWORD PTR [eax], ecx
$LN2@Read@2:

; 475  :   }
; 476  :   return bSuccess;

  000fe	8b 45 e0	 mov	 eax, DWORD PTR _bSuccess$[ebp]

; 477  : }

  00101	52		 push	 edx
  00102	8b cd		 mov	 ecx, ebp
  00104	50		 push	 eax
  00105	8d 15 00 00 00
	00		 lea	 edx, DWORD PTR $LN9@Read@2
  0010b	e8 00 00 00 00	 call	 @_RTC_CheckStackVars@8
  00110	58		 pop	 eax
  00111	5a		 pop	 edx
  00112	5f		 pop	 edi
  00113	5e		 pop	 esi
  00114	5b		 pop	 ebx
  00115	81 c4 14 01 00
	00		 add	 esp, 276		; 00000114H
  0011b	3b ec		 cmp	 ebp, esp
  0011d	e8 00 00 00 00	 call	 __RTC_CheckEsp
  00122	8b e5		 mov	 esp, ebp
  00124	5d		 pop	 ebp
  00125	c2 10 00	 ret	 16			; 00000010H
$LN9@Read@2:
  00128	01 00 00 00	 DD	 1
  0012c	00 00 00 00	 DD	 $LN8@Read@2
$LN8@Read@2:
  00130	ec ff ff ff	 DD	 -20			; ffffffecH
  00134	04 00 00 00	 DD	 4
  00138	00 00 00 00	 DD	 $LN7@Read@2
$LN7@Read@2:
  0013c	64		 DB	 100			; 00000064H
  0013d	77		 DB	 119			; 00000077H
  0013e	42		 DB	 66			; 00000042H
  0013f	79		 DB	 121			; 00000079H
  00140	74		 DB	 116			; 00000074H
  00141	65		 DB	 101			; 00000065H
  00142	73		 DB	 115			; 00000073H
  00143	52		 DB	 82			; 00000052H
  00144	65		 DB	 101			; 00000065H
  00145	61		 DB	 97			; 00000061H
  00146	64		 DB	 100			; 00000064H
  00147	00		 DB	 0
?Read@CSerialPort@@QAEHPAXKAAU_OVERLAPPED@@PAK@Z ENDP	; CSerialPort::Read
_TEXT	ENDS
PUBLIC	??_C@_1DK@NONDCBBD@?$AAF?$AAa?$AAi?$AAl?$AAe?$AAd?$AA?5?$AAi?$AAn?$AA?5?$AAc?$AAa?$AAl?$AAl?$AA?5?$AAt?$AAo?$AA?5?$AAW?$AAr?$AAi?$AAt?$AAe?$AAF?$AAi?$AAl?$AAe?$AA?6?$AA?$AA@ ; `string'
PUBLIC	??_C@_1FI@DDEAHPHG@?$AAC?$AAS?$AAe?$AAr?$AAi?$AAa?$AAl?$AAP?$AAo?$AAr?$AAt?$AA?3?$AA?3?$AAW?$AAr?$AAi?$AAt?$AAe?$AA?0?$AA?$CB?$AAm?$AA_?$AAb?$AAO?$AAv?$AAe?$AAr?$AAl?$AAa?$AAp?$AAp?$AAe@ ; `string'
PUBLIC	?__LINE__Var@?1??Write@CSerialPort@@QAEKPBXK@Z@4JA ; `CSerialPort::Write'::`2'::__LINE__Var
PUBLIC	??_C@_1DM@DOBAFFBN@?$AAC?$AAS?$AAe?$AAr?$AAi?$AAa?$AAl?$AAP?$AAo?$AAr?$AAt?$AA?3?$AA?3?$AAW?$AAr?$AAi?$AAt?$AAe?$AA?0?$AAI?$AAs?$AAO?$AAp?$AAe?$AAn?$AA?$CI?$AA?$CJ?$AA?$AN?$AA?6?$AA?$AA@ ; `string'
PUBLIC	?Write@CSerialPort@@QAEKPBXK@Z			; CSerialPort::Write
EXTRN	__imp__WriteFile@20:PROC
;	COMDAT ??_C@_1DK@NONDCBBD@?$AAF?$AAa?$AAi?$AAl?$AAe?$AAd?$AA?5?$AAi?$AAn?$AA?5?$AAc?$AAa?$AAl?$AAl?$AA?5?$AAt?$AAo?$AA?5?$AAW?$AAr?$AAi?$AAt?$AAe?$AAF?$AAi?$AAl?$AAe?$AA?6?$AA?$AA@
CONST	SEGMENT
??_C@_1DK@NONDCBBD@?$AAF?$AAa?$AAi?$AAl?$AAe?$AAd?$AA?5?$AAi?$AAn?$AA?5?$AAc?$AAa?$AAl?$AAl?$AA?5?$AAt?$AAo?$AA?5?$AAW?$AAr?$AAi?$AAt?$AAe?$AAF?$AAi?$AAl?$AAe?$AA?6?$AA?$AA@ DB 'F'
	DB	00H, 'a', 00H, 'i', 00H, 'l', 00H, 'e', 00H, 'd', 00H, ' ', 00H
	DB	'i', 00H, 'n', 00H, ' ', 00H, 'c', 00H, 'a', 00H, 'l', 00H, 'l'
	DB	00H, ' ', 00H, 't', 00H, 'o', 00H, ' ', 00H, 'W', 00H, 'r', 00H
	DB	'i', 00H, 't', 00H, 'e', 00H, 'F', 00H, 'i', 00H, 'l', 00H, 'e'
	DB	00H, 0aH, 00H, 00H, 00H			; `string'
CONST	ENDS
;	COMDAT ??_C@_1FI@DDEAHPHG@?$AAC?$AAS?$AAe?$AAr?$AAi?$AAa?$AAl?$AAP?$AAo?$AAr?$AAt?$AA?3?$AA?3?$AAW?$AAr?$AAi?$AAt?$AAe?$AA?0?$AA?$CB?$AAm?$AA_?$AAb?$AAO?$AAv?$AAe?$AAr?$AAl?$AAa?$AAp?$AAp?$AAe@
CONST	SEGMENT
??_C@_1FI@DDEAHPHG@?$AAC?$AAS?$AAe?$AAr?$AAi?$AAa?$AAl?$AAP?$AAo?$AAr?$AAt?$AA?3?$AA?3?$AAW?$AAr?$AAi?$AAt?$AAe?$AA?0?$AA?$CB?$AAm?$AA_?$AAb?$AAO?$AAv?$AAe?$AAr?$AAl?$AAa?$AAp?$AAp?$AAe@ DB 'C'
	DB	00H, 'S', 00H, 'e', 00H, 'r', 00H, 'i', 00H, 'a', 00H, 'l', 00H
	DB	'P', 00H, 'o', 00H, 'r', 00H, 't', 00H, ':', 00H, ':', 00H, 'W'
	DB	00H, 'r', 00H, 'i', 00H, 't', 00H, 'e', 00H, ',', 00H, '!', 00H
	DB	'm', 00H, '_', 00H, 'b', 00H, 'O', 00H, 'v', 00H, 'e', 00H, 'r'
	DB	00H, 'l', 00H, 'a', 00H, 'p', 00H, 'p', 00H, 'e', 00H, 'd', 00H
	DB	' ', 00H, '=', 00H, '=', 00H, ' ', 00H, 'T', 00H, 'R', 00H, 'U'
	DB	00H, 'E', 00H, 0dH, 00H, 0aH, 00H, 00H, 00H	; `string'
CONST	ENDS
;	COMDAT ?__LINE__Var@?1??Write@CSerialPort@@QAEKPBXK@Z@4JA
_DATA	SEGMENT
?__LINE__Var@?1??Write@CSerialPort@@QAEKPBXK@Z@4JA DD 01e0H ; `CSerialPort::Write'::`2'::__LINE__Var
_DATA	ENDS
;	COMDAT ??_C@_1DM@DOBAFFBN@?$AAC?$AAS?$AAe?$AAr?$AAi?$AAa?$AAl?$AAP?$AAo?$AAr?$AAt?$AA?3?$AA?3?$AAW?$AAr?$AAi?$AAt?$AAe?$AA?0?$AAI?$AAs?$AAO?$AAp?$AAe?$AAn?$AA?$CI?$AA?$CJ?$AA?$AN?$AA?6?$AA?$AA@
CONST	SEGMENT
??_C@_1DM@DOBAFFBN@?$AAC?$AAS?$AAe?$AAr?$AAi?$AAa?$AAl?$AAP?$AAo?$AAr?$AAt?$AA?3?$AA?3?$AAW?$AAr?$AAi?$AAt?$AAe?$AA?0?$AAI?$AAs?$AAO?$AAp?$AAe?$AAn?$AA?$CI?$AA?$CJ?$AA?$AN?$AA?6?$AA?$AA@ DB 'C'
	DB	00H, 'S', 00H, 'e', 00H, 'r', 00H, 'i', 00H, 'a', 00H, 'l', 00H
	DB	'P', 00H, 'o', 00H, 'r', 00H, 't', 00H, ':', 00H, ':', 00H, 'W'
	DB	00H, 'r', 00H, 'i', 00H, 't', 00H, 'e', 00H, ',', 00H, 'I', 00H
	DB	's', 00H, 'O', 00H, 'p', 00H, 'e', 00H, 'n', 00H, '(', 00H, ')'
	DB	00H, 0dH, 00H, 0aH, 00H, 00H, 00H		; `string'
; Function compile flags: /Odtp /RTCsu /ZI
CONST	ENDS
;	COMDAT ?Write@CSerialPort@@QAEKPBXK@Z
_TEXT	SEGMENT
$T212086 = -260						; size = 8
$T212087 = -244						; size = 8
$T212088 = -228						; size = 8
_dwBytesWritten$ = -20					; size = 4
_this$ = -8						; size = 4
_lpBuf$ = 8						; size = 4
_dwCount$ = 12						; size = 4
?Write@CSerialPort@@QAEKPBXK@Z PROC			; CSerialPort::Write, COMDAT
; _this$ = ecx

; 480  : {

  00000	55		 push	 ebp
  00001	8b ec		 mov	 ebp, esp
  00003	81 ec 08 01 00
	00		 sub	 esp, 264		; 00000108H
  00009	53		 push	 ebx
  0000a	56		 push	 esi
  0000b	57		 push	 edi
  0000c	51		 push	 ecx
  0000d	8d bd f8 fe ff
	ff		 lea	 edi, DWORD PTR [ebp-264]
  00013	b9 42 00 00 00	 mov	 ecx, 66			; 00000042H
  00018	b8 cc cc cc cc	 mov	 eax, -858993460		; ccccccccH
  0001d	f3 ab		 rep stosd
  0001f	59		 pop	 ecx
  00020	89 4d f8	 mov	 DWORD PTR _this$[ebp], ecx

; 481  : //   ASSERT(IsOpen());
; 482  : //   ASSERT(!m_bOverlapped);
; 483  : 	TRACE(_T("CSerialPort::Write,IsOpen()\r\n"));

  00023	68 00 00 00 00	 push	 OFFSET ??_C@_1DM@DOBAFFBN@?$AAC?$AAS?$AAe?$AAr?$AAi?$AAa?$AAl?$AAP?$AAo?$AAr?$AAt?$AA?3?$AA?3?$AAW?$AAr?$AAi?$AAt?$AAe?$AA?0?$AAI?$AAs?$AAO?$AAp?$AAe?$AAn?$AA?$CI?$AA?$CJ?$AA?$AN?$AA?6?$AA?$AA@
  00028	a1 00 00 00 00	 mov	 eax, DWORD PTR ?__LINE__Var@?1??Write@CSerialPort@@QAEKPBXK@Z@4JA
  0002d	83 c0 03	 add	 eax, 3
  00030	50		 push	 eax
  00031	68 00 00 00 00	 push	 OFFSET ??_C@_0DC@PACLAOLH@e?3?2cz?2vs?2dvicectrldlg_new_signal@
  00036	8d 8d fc fe ff
	ff		 lea	 ecx, DWORD PTR $T212086[ebp]
  0003c	e8 00 00 00 00	 call	 ??0CTraceFileAndLineInfo@ATL@@QAE@PBDH@Z ; ATL::CTraceFileAndLineInfo::CTraceFileAndLineInfo
  00041	50		 push	 eax
  00042	e8 00 00 00 00	 call	 ??RCTraceFileAndLineInfo@ATL@@QBAXPB_WZZ ; ATL::CTraceFileAndLineInfo::operator()
  00047	83 c4 08	 add	 esp, 8

; 484  : 	TRACE(_T("CSerialPort::Write,!m_bOverlapped == TRUE\r\n"));

  0004a	68 00 00 00 00	 push	 OFFSET ??_C@_1FI@DDEAHPHG@?$AAC?$AAS?$AAe?$AAr?$AAi?$AAa?$AAl?$AAP?$AAo?$AAr?$AAt?$AA?3?$AA?3?$AAW?$AAr?$AAi?$AAt?$AAe?$AA?0?$AA?$CB?$AAm?$AA_?$AAb?$AAO?$AAv?$AAe?$AAr?$AAl?$AAa?$AAp?$AAp?$AAe@
  0004f	a1 00 00 00 00	 mov	 eax, DWORD PTR ?__LINE__Var@?1??Write@CSerialPort@@QAEKPBXK@Z@4JA
  00054	83 c0 04	 add	 eax, 4
  00057	50		 push	 eax
  00058	68 00 00 00 00	 push	 OFFSET ??_C@_0DC@PACLAOLH@e?3?2cz?2vs?2dvicectrldlg_new_signal@
  0005d	8d 8d 0c ff ff
	ff		 lea	 ecx, DWORD PTR $T212087[ebp]
  00063	e8 00 00 00 00	 call	 ??0CTraceFileAndLineInfo@ATL@@QAE@PBDH@Z ; ATL::CTraceFileAndLineInfo::CTraceFileAndLineInfo
  00068	50		 push	 eax
  00069	e8 00 00 00 00	 call	 ??RCTraceFileAndLineInfo@ATL@@QBAXPB_WZZ ; ATL::CTraceFileAndLineInfo::operator()
  0006e	83 c4 08	 add	 esp, 8

; 485  : 
; 486  :   DWORD dwBytesWritten = 0;

  00071	c7 45 ec 00 00
	00 00		 mov	 DWORD PTR _dwBytesWritten$[ebp], 0

; 487  :   if (!WriteFile(m_hComm, lpBuf, dwCount, &dwBytesWritten, NULL))

  00078	8b f4		 mov	 esi, esp
  0007a	6a 00		 push	 0
  0007c	8d 45 ec	 lea	 eax, DWORD PTR _dwBytesWritten$[ebp]
  0007f	50		 push	 eax
  00080	8b 4d 0c	 mov	 ecx, DWORD PTR _dwCount$[ebp]
  00083	51		 push	 ecx
  00084	8b 55 08	 mov	 edx, DWORD PTR _lpBuf$[ebp]
  00087	52		 push	 edx
  00088	8b 45 f8	 mov	 eax, DWORD PTR _this$[ebp]
  0008b	8b 48 04	 mov	 ecx, DWORD PTR [eax+4]
  0008e	51		 push	 ecx
  0008f	ff 15 00 00 00
	00		 call	 DWORD PTR __imp__WriteFile@20
  00095	3b f4		 cmp	 esi, esp
  00097	e8 00 00 00 00	 call	 __RTC_CheckEsp
  0009c	85 c0		 test	 eax, eax
  0009e	75 31		 jne	 SHORT $LN1@Write

; 488  :   {
; 489  :     TRACE(_T("Failed in call to WriteFile\n"));

  000a0	68 00 00 00 00	 push	 OFFSET ??_C@_1DK@NONDCBBD@?$AAF?$AAa?$AAi?$AAl?$AAe?$AAd?$AA?5?$AAi?$AAn?$AA?5?$AAc?$AAa?$AAl?$AAl?$AA?5?$AAt?$AAo?$AA?5?$AAW?$AAr?$AAi?$AAt?$AAe?$AAF?$AAi?$AAl?$AAe?$AA?6?$AA?$AA@
  000a5	a1 00 00 00 00	 mov	 eax, DWORD PTR ?__LINE__Var@?1??Write@CSerialPort@@QAEKPBXK@Z@4JA
  000aa	83 c0 09	 add	 eax, 9
  000ad	50		 push	 eax
  000ae	68 00 00 00 00	 push	 OFFSET ??_C@_0DC@PACLAOLH@e?3?2cz?2vs?2dvicectrldlg_new_signal@
  000b3	8d 8d 1c ff ff
	ff		 lea	 ecx, DWORD PTR $T212088[ebp]
  000b9	e8 00 00 00 00	 call	 ??0CTraceFileAndLineInfo@ATL@@QAE@PBDH@Z ; ATL::CTraceFileAndLineInfo::CTraceFileAndLineInfo
  000be	50		 push	 eax
  000bf	e8 00 00 00 00	 call	 ??RCTraceFileAndLineInfo@ATL@@QBAXPB_WZZ ; ATL::CTraceFileAndLineInfo::operator()
  000c4	83 c4 08	 add	 esp, 8

; 490  :     AfxThrowSerialException();

  000c7	6a 00		 push	 0
  000c9	e8 00 00 00 00	 call	 ?AfxThrowSerialException@@YAXK@Z ; AfxThrowSerialException
  000ce	83 c4 04	 add	 esp, 4
$LN1@Write:

; 491  :   }
; 492  : 
; 493  :   return dwBytesWritten;

  000d1	8b 45 ec	 mov	 eax, DWORD PTR _dwBytesWritten$[ebp]

; 494  : }

  000d4	52		 push	 edx
  000d5	8b cd		 mov	 ecx, ebp
  000d7	50		 push	 eax
  000d8	8d 15 00 00 00
	00		 lea	 edx, DWORD PTR $LN6@Write
  000de	e8 00 00 00 00	 call	 @_RTC_CheckStackVars@8
  000e3	58		 pop	 eax
  000e4	5a		 pop	 edx
  000e5	5f		 pop	 edi
  000e6	5e		 pop	 esi
  000e7	5b		 pop	 ebx
  000e8	81 c4 08 01 00
	00		 add	 esp, 264		; 00000108H
  000ee	3b ec		 cmp	 ebp, esp
  000f0	e8 00 00 00 00	 call	 __RTC_CheckEsp
  000f5	8b e5		 mov	 esp, ebp
  000f7	5d		 pop	 ebp
  000f8	c2 08 00	 ret	 8
  000fb	90		 npad	 1
$LN6@Write:
  000fc	01 00 00 00	 DD	 1
  00100	00 00 00 00	 DD	 $LN5@Write
$LN5@Write:
  00104	ec ff ff ff	 DD	 -20			; ffffffecH
  00108	04 00 00 00	 DD	 4
  0010c	00 00 00 00	 DD	 $LN4@Write
$LN4@Write:
  00110	64		 DB	 100			; 00000064H
  00111	77		 DB	 119			; 00000077H
  00112	42		 DB	 66			; 00000042H
  00113	79		 DB	 121			; 00000079H
  00114	74		 DB	 116			; 00000074H
  00115	65		 DB	 101			; 00000065H
  00116	73		 DB	 115			; 00000073H
  00117	57		 DB	 87			; 00000057H
  00118	72		 DB	 114			; 00000072H
  00119	69		 DB	 105			; 00000069H
  0011a	74		 DB	 116			; 00000074H
  0011b	74		 DB	 116			; 00000074H
  0011c	65		 DB	 101			; 00000065H
  0011d	6e		 DB	 110			; 0000006eH
  0011e	00		 DB	 0
?Write@CSerialPort@@QAEKPBXK@Z ENDP			; CSerialPort::Write
_TEXT	ENDS
PUBLIC	??_C@_1GA@LJDEEEE@?$AAW?$AAr?$AAi?$AAt?$AAe?$AAF?$AAi?$AAl?$AAe?$AA?5?$AAE?$AAr?$AAr?$AAo?$AAr?$AA?0?$AA?5?$AAW?$AAr?$AAi?$AAt?$AAe?$AA?5?$AAL?$AAe?$AAn?$AA?3?$AA?$CF?$AAd?$AA?0?$AA?5?$AAA@ ; `string'
PUBLIC	??_C@_1FI@LIBINEKP@?$AAC?$AAS?$AAe?$AAr?$AAi?$AAa?$AAl?$AAP?$AAo?$AAr?$AAt?$AA?3?$AA?3?$AAW?$AAr?$AAi?$AAt?$AAe?$AA?0?$AAm?$AA_?$AAb?$AAO?$AAv?$AAe?$AAr?$AAl?$AAa?$AAp?$AAp?$AAe?$AAd@ ; `string'
PUBLIC	?__LINE__Var@?1??Write@CSerialPort@@QAEHPBXKAAU_OVERLAPPED@@PAK@Z@4JA ; `CSerialPort::Write'::`2'::__LINE__Var
PUBLIC	?Write@CSerialPort@@QAEHPBXKAAU_OVERLAPPED@@PAK@Z ; CSerialPort::Write
;	COMDAT ??_C@_1GA@LJDEEEE@?$AAW?$AAr?$AAi?$AAt?$AAe?$AAF?$AAi?$AAl?$AAe?$AA?5?$AAE?$AAr?$AAr?$AAo?$AAr?$AA?0?$AA?5?$AAW?$AAr?$AAi?$AAt?$AAe?$AA?5?$AAL?$AAe?$AAn?$AA?3?$AA?$CF?$AAd?$AA?0?$AA?5?$AAA@
CONST	SEGMENT
??_C@_1GA@LJDEEEE@?$AAW?$AAr?$AAi?$AAt?$AAe?$AAF?$AAi?$AAl?$AAe?$AA?5?$AAE?$AAr?$AAr?$AAo?$AAr?$AA?0?$AA?5?$AAW?$AAr?$AAi?$AAt?$AAe?$AA?5?$AAL?$AAe?$AAn?$AA?3?$AA?$CF?$AAd?$AA?0?$AA?5?$AAA@ DB 'W'
	DB	00H, 'r', 00H, 'i', 00H, 't', 00H, 'e', 00H, 'F', 00H, 'i', 00H
	DB	'l', 00H, 'e', 00H, ' ', 00H, 'E', 00H, 'r', 00H, 'r', 00H, 'o'
	DB	00H, 'r', 00H, ',', 00H, ' ', 00H, 'W', 00H, 'r', 00H, 'i', 00H
	DB	't', 00H, 'e', 00H, ' ', 00H, 'L', 00H, 'e', 00H, 'n', 00H, ':'
	DB	00H, '%', 00H, 'd', 00H, ',', 00H, ' ', 00H, 'A', 00H, 'c', 00H
	DB	't', 00H, 'u', 00H, 'a', 00H, 'l', 00H, ' ', 00H, 'L', 00H, 'e'
	DB	00H, 'n', 00H, ':', 00H, ' ', 00H, '%', 00H, 'd', 00H, 0dH, 00H
	DB	0aH, 00H, 00H, 00H				; `string'
CONST	ENDS
;	COMDAT ??_C@_1FI@LIBINEKP@?$AAC?$AAS?$AAe?$AAr?$AAi?$AAa?$AAl?$AAP?$AAo?$AAr?$AAt?$AA?3?$AA?3?$AAW?$AAr?$AAi?$AAt?$AAe?$AA?0?$AAm?$AA_?$AAb?$AAO?$AAv?$AAe?$AAr?$AAl?$AAa?$AAp?$AAp?$AAe?$AAd@
CONST	SEGMENT
??_C@_1FI@LIBINEKP@?$AAC?$AAS?$AAe?$AAr?$AAi?$AAa?$AAl?$AAP?$AAo?$AAr?$AAt?$AA?3?$AA?3?$AAW?$AAr?$AAi?$AAt?$AAe?$AA?0?$AAm?$AA_?$AAb?$AAO?$AAv?$AAe?$AAr?$AAl?$AAa?$AAp?$AAp?$AAe?$AAd@ DB 'C'
	DB	00H, 'S', 00H, 'e', 00H, 'r', 00H, 'i', 00H, 'a', 00H, 'l', 00H
	DB	'P', 00H, 'o', 00H, 'r', 00H, 't', 00H, ':', 00H, ':', 00H, 'W'
	DB	00H, 'r', 00H, 'i', 00H, 't', 00H, 'e', 00H, ',', 00H, 'm', 00H
	DB	'_', 00H, 'b', 00H, 'O', 00H, 'v', 00H, 'e', 00H, 'r', 00H, 'l'
	DB	00H, 'a', 00H, 'p', 00H, 'p', 00H, 'e', 00H, 'd', 00H, ' ', 00H
	DB	'=', 00H, '=', 00H, ' ', 00H, 'F', 00H, 'A', 00H, 'L', 00H, 'S'
	DB	00H, 'E', 00H, 0dH, 00H, 0aH, 00H, 00H, 00H	; `string'
CONST	ENDS
;	COMDAT ?__LINE__Var@?1??Write@CSerialPort@@QAEHPBXKAAU_OVERLAPPED@@PAK@Z@4JA
_DATA	SEGMENT
?__LINE__Var@?1??Write@CSerialPort@@QAEHPBXKAAU_OVERLAPPED@@PAK@Z@4JA DD 01f1H ; `CSerialPort::Write'::`2'::__LINE__Var
; Function compile flags: /Odtp /RTCsu /ZI
_DATA	ENDS
;	COMDAT ?Write@CSerialPort@@QAEHPBXKAAU_OVERLAPPED@@PAK@Z
_TEXT	SEGMENT
$T212094 = -288						; size = 8
$T212095 = -272						; size = 8
$T212096 = -256						; size = 8
$T212097 = -240						; size = 8
_bSuccess$ = -32					; size = 4
_dwBytesWritten$ = -20					; size = 4
_this$ = -8						; size = 4
_lpBuf$ = 8						; size = 4
_dwCount$ = 12						; size = 4
_overlapped$ = 16					; size = 4
_pBytesWritten$ = 20					; size = 4
?Write@CSerialPort@@QAEHPBXKAAU_OVERLAPPED@@PAK@Z PROC	; CSerialPort::Write, COMDAT
; _this$ = ecx

; 497  : {

  00000	55		 push	 ebp
  00001	8b ec		 mov	 ebp, esp
  00003	81 ec 24 01 00
	00		 sub	 esp, 292		; 00000124H
  00009	53		 push	 ebx
  0000a	56		 push	 esi
  0000b	57		 push	 edi
  0000c	51		 push	 ecx
  0000d	8d bd dc fe ff
	ff		 lea	 edi, DWORD PTR [ebp-292]
  00013	b9 49 00 00 00	 mov	 ecx, 73			; 00000049H
  00018	b8 cc cc cc cc	 mov	 eax, -858993460		; ccccccccH
  0001d	f3 ab		 rep stosd
  0001f	59		 pop	 ecx
  00020	89 4d f8	 mov	 DWORD PTR _this$[ebp], ecx

; 498  : //   ASSERT(IsOpen());
; 499  : //   ASSERT(m_bOverlapped);
; 500  : 	TRACE(_T("CSerialPort::Write,IsOpen()\r\n"));

  00023	68 00 00 00 00	 push	 OFFSET ??_C@_1DM@DOBAFFBN@?$AAC?$AAS?$AAe?$AAr?$AAi?$AAa?$AAl?$AAP?$AAo?$AAr?$AAt?$AA?3?$AA?3?$AAW?$AAr?$AAi?$AAt?$AAe?$AA?0?$AAI?$AAs?$AAO?$AAp?$AAe?$AAn?$AA?$CI?$AA?$CJ?$AA?$AN?$AA?6?$AA?$AA@
  00028	a1 00 00 00 00	 mov	 eax, DWORD PTR ?__LINE__Var@?1??Write@CSerialPort@@QAEHPBXKAAU_OVERLAPPED@@PAK@Z@4JA
  0002d	83 c0 03	 add	 eax, 3
  00030	50		 push	 eax
  00031	68 00 00 00 00	 push	 OFFSET ??_C@_0DC@PACLAOLH@e?3?2cz?2vs?2dvicectrldlg_new_signal@
  00036	8d 8d e0 fe ff
	ff		 lea	 ecx, DWORD PTR $T212094[ebp]
  0003c	e8 00 00 00 00	 call	 ??0CTraceFileAndLineInfo@ATL@@QAE@PBDH@Z ; ATL::CTraceFileAndLineInfo::CTraceFileAndLineInfo
  00041	50		 push	 eax
  00042	e8 00 00 00 00	 call	 ??RCTraceFileAndLineInfo@ATL@@QBAXPB_WZZ ; ATL::CTraceFileAndLineInfo::operator()
  00047	83 c4 08	 add	 esp, 8

; 501  : 	TRACE(_T("CSerialPort::Write,m_bOverlapped == FALSE\r\n"));

  0004a	68 00 00 00 00	 push	 OFFSET ??_C@_1FI@LIBINEKP@?$AAC?$AAS?$AAe?$AAr?$AAi?$AAa?$AAl?$AAP?$AAo?$AAr?$AAt?$AA?3?$AA?3?$AAW?$AAr?$AAi?$AAt?$AAe?$AA?0?$AAm?$AA_?$AAb?$AAO?$AAv?$AAe?$AAr?$AAl?$AAa?$AAp?$AAp?$AAe?$AAd@
  0004f	a1 00 00 00 00	 mov	 eax, DWORD PTR ?__LINE__Var@?1??Write@CSerialPort@@QAEHPBXKAAU_OVERLAPPED@@PAK@Z@4JA
  00054	83 c0 04	 add	 eax, 4
  00057	50		 push	 eax
  00058	68 00 00 00 00	 push	 OFFSET ??_C@_0DC@PACLAOLH@e?3?2cz?2vs?2dvicectrldlg_new_signal@
  0005d	8d 8d f0 fe ff
	ff		 lea	 ecx, DWORD PTR $T212095[ebp]
  00063	e8 00 00 00 00	 call	 ??0CTraceFileAndLineInfo@ATL@@QAE@PBDH@Z ; ATL::CTraceFileAndLineInfo::CTraceFileAndLineInfo
  00068	50		 push	 eax
  00069	e8 00 00 00 00	 call	 ??RCTraceFileAndLineInfo@ATL@@QBAXPB_WZZ ; ATL::CTraceFileAndLineInfo::operator()
  0006e	83 c4 08	 add	 esp, 8

; 502  : 
; 503  :   DWORD dwBytesWritten = 0;

  00071	c7 45 ec 00 00
	00 00		 mov	 DWORD PTR _dwBytesWritten$[ebp], 0

; 504  :   BOOL bSuccess = WriteFile(m_hComm, lpBuf, dwCount, &dwBytesWritten, &overlapped);

  00078	8b f4		 mov	 esi, esp
  0007a	8b 45 10	 mov	 eax, DWORD PTR _overlapped$[ebp]
  0007d	50		 push	 eax
  0007e	8d 4d ec	 lea	 ecx, DWORD PTR _dwBytesWritten$[ebp]
  00081	51		 push	 ecx
  00082	8b 55 0c	 mov	 edx, DWORD PTR _dwCount$[ebp]
  00085	52		 push	 edx
  00086	8b 45 08	 mov	 eax, DWORD PTR _lpBuf$[ebp]
  00089	50		 push	 eax
  0008a	8b 4d f8	 mov	 ecx, DWORD PTR _this$[ebp]
  0008d	8b 51 04	 mov	 edx, DWORD PTR [ecx+4]
  00090	52		 push	 edx
  00091	ff 15 00 00 00
	00		 call	 DWORD PTR __imp__WriteFile@20
  00097	3b f4		 cmp	 esi, esp
  00099	e8 00 00 00 00	 call	 __RTC_CheckEsp
  0009e	89 45 e0	 mov	 DWORD PTR _bSuccess$[ebp], eax

; 505  :   if (!bSuccess)

  000a1	83 7d e0 00	 cmp	 DWORD PTR _bSuccess$[ebp], 0
  000a5	75 79		 jne	 SHORT $LN4@Write@2

; 506  :   {
; 507  :     if (GetLastError() != ERROR_IO_PENDING)

  000a7	8b f4		 mov	 esi, esp
  000a9	ff 15 00 00 00
	00		 call	 DWORD PTR __imp__GetLastError@0
  000af	3b f4		 cmp	 esi, esp
  000b1	e8 00 00 00 00	 call	 __RTC_CheckEsp
  000b6	3d e5 03 00 00	 cmp	 eax, 997		; 000003e5H
  000bb	74 31		 je	 SHORT $LN3@Write@2

; 508  :     {
; 509  :       TRACE(_T("Failed in call to WriteFile\n"));

  000bd	68 00 00 00 00	 push	 OFFSET ??_C@_1DK@NONDCBBD@?$AAF?$AAa?$AAi?$AAl?$AAe?$AAd?$AA?5?$AAi?$AAn?$AA?5?$AAc?$AAa?$AAl?$AAl?$AA?5?$AAt?$AAo?$AA?5?$AAW?$AAr?$AAi?$AAt?$AAe?$AAF?$AAi?$AAl?$AAe?$AA?6?$AA?$AA@
  000c2	a1 00 00 00 00	 mov	 eax, DWORD PTR ?__LINE__Var@?1??Write@CSerialPort@@QAEHPBXKAAU_OVERLAPPED@@PAK@Z@4JA
  000c7	83 c0 0c	 add	 eax, 12			; 0000000cH
  000ca	50		 push	 eax
  000cb	68 00 00 00 00	 push	 OFFSET ??_C@_0DC@PACLAOLH@e?3?2cz?2vs?2dvicectrldlg_new_signal@
  000d0	8d 8d 00 ff ff
	ff		 lea	 ecx, DWORD PTR $T212096[ebp]
  000d6	e8 00 00 00 00	 call	 ??0CTraceFileAndLineInfo@ATL@@QAE@PBDH@Z ; ATL::CTraceFileAndLineInfo::CTraceFileAndLineInfo
  000db	50		 push	 eax
  000dc	e8 00 00 00 00	 call	 ??RCTraceFileAndLineInfo@ATL@@QBAXPB_WZZ ; ATL::CTraceFileAndLineInfo::operator()
  000e1	83 c4 08	 add	 esp, 8

; 510  :       AfxThrowSerialException();

  000e4	6a 00		 push	 0
  000e6	e8 00 00 00 00	 call	 ?AfxThrowSerialException@@YAXK@Z ; AfxThrowSerialException
  000eb	83 c4 04	 add	 esp, 4
$LN3@Write@2:

; 511  :     }
; 512  : 	TRACE(_T("WriteFile Error, Write Len:%d, Actual Len: %d\r\n"), dwCount, dwBytesWritten);

  000ee	8b 45 ec	 mov	 eax, DWORD PTR _dwBytesWritten$[ebp]
  000f1	50		 push	 eax
  000f2	8b 4d 0c	 mov	 ecx, DWORD PTR _dwCount$[ebp]
  000f5	51		 push	 ecx
  000f6	68 00 00 00 00	 push	 OFFSET ??_C@_1GA@LJDEEEE@?$AAW?$AAr?$AAi?$AAt?$AAe?$AAF?$AAi?$AAl?$AAe?$AA?5?$AAE?$AAr?$AAr?$AAo?$AAr?$AA?0?$AA?5?$AAW?$AAr?$AAi?$AAt?$AAe?$AA?5?$AAL?$AAe?$AAn?$AA?3?$AA?$CF?$AAd?$AA?0?$AA?5?$AAA@
  000fb	8b 15 00 00 00
	00		 mov	 edx, DWORD PTR ?__LINE__Var@?1??Write@CSerialPort@@QAEHPBXKAAU_OVERLAPPED@@PAK@Z@4JA
  00101	83 c2 0f	 add	 edx, 15			; 0000000fH
  00104	52		 push	 edx
  00105	68 00 00 00 00	 push	 OFFSET ??_C@_0DC@PACLAOLH@e?3?2cz?2vs?2dvicectrldlg_new_signal@
  0010a	8d 8d 10 ff ff
	ff		 lea	 ecx, DWORD PTR $T212097[ebp]
  00110	e8 00 00 00 00	 call	 ??0CTraceFileAndLineInfo@ATL@@QAE@PBDH@Z ; ATL::CTraceFileAndLineInfo::CTraceFileAndLineInfo
  00115	50		 push	 eax
  00116	e8 00 00 00 00	 call	 ??RCTraceFileAndLineInfo@ATL@@QBAXPB_WZZ ; ATL::CTraceFileAndLineInfo::operator()
  0011b	83 c4 10	 add	 esp, 16			; 00000010H

; 513  :   }
; 514  :   else

  0011e	eb 0e		 jmp	 SHORT $LN2@Write@2
$LN4@Write@2:

; 515  :   {
; 516  :     if (pBytesWritten)

  00120	83 7d 14 00	 cmp	 DWORD PTR _pBytesWritten$[ebp], 0
  00124	74 08		 je	 SHORT $LN2@Write@2

; 517  :       *pBytesWritten = dwBytesWritten;

  00126	8b 45 14	 mov	 eax, DWORD PTR _pBytesWritten$[ebp]
  00129	8b 4d ec	 mov	 ecx, DWORD PTR _dwBytesWritten$[ebp]
  0012c	89 08		 mov	 DWORD PTR [eax], ecx
$LN2@Write@2:

; 518  :   }
; 519  : 
; 520  :   return bSuccess;

  0012e	8b 45 e0	 mov	 eax, DWORD PTR _bSuccess$[ebp]

; 521  : }

  00131	52		 push	 edx
  00132	8b cd		 mov	 ecx, ebp
  00134	50		 push	 eax
  00135	8d 15 00 00 00
	00		 lea	 edx, DWORD PTR $LN9@Write@2
  0013b	e8 00 00 00 00	 call	 @_RTC_CheckStackVars@8
  00140	58		 pop	 eax
  00141	5a		 pop	 edx
  00142	5f		 pop	 edi
  00143	5e		 pop	 esi
  00144	5b		 pop	 ebx
  00145	81 c4 24 01 00
	00		 add	 esp, 292		; 00000124H
  0014b	3b ec		 cmp	 ebp, esp
  0014d	e8 00 00 00 00	 call	 __RTC_CheckEsp
  00152	8b e5		 mov	 esp, ebp
  00154	5d		 pop	 ebp
  00155	c2 10 00	 ret	 16			; 00000010H
$LN9@Write@2:
  00158	01 00 00 00	 DD	 1
  0015c	00 00 00 00	 DD	 $LN8@Write@2
$LN8@Write@2:
  00160	ec ff ff ff	 DD	 -20			; ffffffecH
  00164	04 00 00 00	 DD	 4
  00168	00 00 00 00	 DD	 $LN7@Write@2
$LN7@Write@2:
  0016c	64		 DB	 100			; 00000064H
  0016d	77		 DB	 119			; 00000077H
  0016e	42		 DB	 66			; 00000042H
  0016f	79		 DB	 121			; 00000079H
  00170	74		 DB	 116			; 00000074H
  00171	65		 DB	 101			; 00000065H
  00172	73		 DB	 115			; 00000073H
  00173	57		 DB	 87			; 00000057H
  00174	72		 DB	 114			; 00000072H
  00175	69		 DB	 105			; 00000069H
  00176	74		 DB	 116			; 00000074H
  00177	74		 DB	 116			; 00000074H
  00178	65		 DB	 101			; 00000065H
  00179	6e		 DB	 110			; 0000006eH
  0017a	00		 DB	 0
?Write@CSerialPort@@QAEHPBXKAAU_OVERLAPPED@@PAK@Z ENDP	; CSerialPort::Write
_TEXT	ENDS
PUBLIC	??_C@_1EO@LEFHNIPA@?$AAF?$AAa?$AAi?$AAl?$AAe?$AAd?$AA?5?$AAi?$AAn?$AA?5?$AAc?$AAa?$AAl?$AAl?$AA?5?$AAt?$AAo?$AA?5?$AAG?$AAe?$AAt?$AAO?$AAv?$AAe?$AAr?$AAl?$AAa?$AAp?$AAp?$AAe?$AAd?$AAR@ ; `string'
PUBLIC	??_C@_1HE@KIPENHBI@?$AAC?$AAS?$AAe?$AAr?$AAi?$AAa?$AAl?$AAP?$AAo?$AAr?$AAt?$AA?3?$AA?3?$AAG?$AAe?$AAt?$AAO?$AAv?$AAe?$AAr?$AAl?$AAa?$AAp?$AAp?$AAe?$AAd?$AAR?$AAe?$AAs?$AAu?$AAl?$AAt@ ; `string'
PUBLIC	?__LINE__Var@?1??GetOverlappedResult@CSerialPort@@QAE_NAAU_OVERLAPPED@@AAKH@Z@4JA ; `CSerialPort::GetOverlappedResult'::`2'::__LINE__Var
PUBLIC	??_C@_1FI@FHPDLOPC@?$AAC?$AAS?$AAe?$AAr?$AAi?$AAa?$AAl?$AAP?$AAo?$AAr?$AAt?$AA?3?$AA?3?$AAG?$AAe?$AAt?$AAO?$AAv?$AAe?$AAr?$AAl?$AAa?$AAp?$AAp?$AAe?$AAd?$AAR?$AAe?$AAs?$AAu?$AAl?$AAt@ ; `string'
PUBLIC	?GetOverlappedResult@CSerialPort@@QAE_NAAU_OVERLAPPED@@AAKH@Z ; CSerialPort::GetOverlappedResult
EXTRN	__imp__GetOverlappedResult@16:PROC
;	COMDAT ??_C@_1EO@LEFHNIPA@?$AAF?$AAa?$AAi?$AAl?$AAe?$AAd?$AA?5?$AAi?$AAn?$AA?5?$AAc?$AAa?$AAl?$AAl?$AA?5?$AAt?$AAo?$AA?5?$AAG?$AAe?$AAt?$AAO?$AAv?$AAe?$AAr?$AAl?$AAa?$AAp?$AAp?$AAe?$AAd?$AAR@
CONST	SEGMENT
??_C@_1EO@LEFHNIPA@?$AAF?$AAa?$AAi?$AAl?$AAe?$AAd?$AA?5?$AAi?$AAn?$AA?5?$AAc?$AAa?$AAl?$AAl?$AA?5?$AAt?$AAo?$AA?5?$AAG?$AAe?$AAt?$AAO?$AAv?$AAe?$AAr?$AAl?$AAa?$AAp?$AAp?$AAe?$AAd?$AAR@ DB 'F'
	DB	00H, 'a', 00H, 'i', 00H, 'l', 00H, 'e', 00H, 'd', 00H, ' ', 00H
	DB	'i', 00H, 'n', 00H, ' ', 00H, 'c', 00H, 'a', 00H, 'l', 00H, 'l'
	DB	00H, ' ', 00H, 't', 00H, 'o', 00H, ' ', 00H, 'G', 00H, 'e', 00H
	DB	't', 00H, 'O', 00H, 'v', 00H, 'e', 00H, 'r', 00H, 'l', 00H, 'a'
	DB	00H, 'p', 00H, 'p', 00H, 'e', 00H, 'd', 00H, 'R', 00H, 'e', 00H
	DB	's', 00H, 'u', 00H, 'l', 00H, 't', 00H, 0aH, 00H, 00H, 00H ; `string'
CONST	ENDS
;	COMDAT ??_C@_1HE@KIPENHBI@?$AAC?$AAS?$AAe?$AAr?$AAi?$AAa?$AAl?$AAP?$AAo?$AAr?$AAt?$AA?3?$AA?3?$AAG?$AAe?$AAt?$AAO?$AAv?$AAe?$AAr?$AAl?$AAa?$AAp?$AAp?$AAe?$AAd?$AAR?$AAe?$AAs?$AAu?$AAl?$AAt@
CONST	SEGMENT
??_C@_1HE@KIPENHBI@?$AAC?$AAS?$AAe?$AAr?$AAi?$AAa?$AAl?$AAP?$AAo?$AAr?$AAt?$AA?3?$AA?3?$AAG?$AAe?$AAt?$AAO?$AAv?$AAe?$AAr?$AAl?$AAa?$AAp?$AAp?$AAe?$AAd?$AAR?$AAe?$AAs?$AAu?$AAl?$AAt@ DB 'C'
	DB	00H, 'S', 00H, 'e', 00H, 'r', 00H, 'i', 00H, 'a', 00H, 'l', 00H
	DB	'P', 00H, 'o', 00H, 'r', 00H, 't', 00H, ':', 00H, ':', 00H, 'G'
	DB	00H, 'e', 00H, 't', 00H, 'O', 00H, 'v', 00H, 'e', 00H, 'r', 00H
	DB	'l', 00H, 'a', 00H, 'p', 00H, 'p', 00H, 'e', 00H, 'd', 00H, 'R'
	DB	00H, 'e', 00H, 's', 00H, 'u', 00H, 'l', 00H, 't', 00H, ',', 00H
	DB	'm', 00H, '_', 00H, 'b', 00H, 'O', 00H, 'v', 00H, 'e', 00H, 'r'
	DB	00H, 'l', 00H, 'a', 00H, 'p', 00H, 'p', 00H, 'e', 00H, 'd', 00H
	DB	' ', 00H, '=', 00H, '=', 00H, ' ', 00H, 'F', 00H, 'A', 00H, 'L'
	DB	00H, 'S', 00H, 'E', 00H, 0dH, 00H, 0aH, 00H, 00H, 00H ; `string'
CONST	ENDS
;	COMDAT ?__LINE__Var@?1??GetOverlappedResult@CSerialPort@@QAE_NAAU_OVERLAPPED@@AAKH@Z@4JA
_DATA	SEGMENT
?__LINE__Var@?1??GetOverlappedResult@CSerialPort@@QAE_NAAU_OVERLAPPED@@AAKH@Z@4JA DD 020cH ; `CSerialPort::GetOverlappedResult'::`2'::__LINE__Var
_DATA	ENDS
;	COMDAT ??_C@_1FI@FHPDLOPC@?$AAC?$AAS?$AAe?$AAr?$AAi?$AAa?$AAl?$AAP?$AAo?$AAr?$AAt?$AA?3?$AA?3?$AAG?$AAe?$AAt?$AAO?$AAv?$AAe?$AAr?$AAl?$AAa?$AAp?$AAp?$AAe?$AAd?$AAR?$AAe?$AAs?$AAu?$AAl?$AAt@
CONST	SEGMENT
??_C@_1FI@FHPDLOPC@?$AAC?$AAS?$AAe?$AAr?$AAi?$AAa?$AAl?$AAP?$AAo?$AAr?$AAt?$AA?3?$AA?3?$AAG?$AAe?$AAt?$AAO?$AAv?$AAe?$AAr?$AAl?$AAa?$AAp?$AAp?$AAe?$AAd?$AAR?$AAe?$AAs?$AAu?$AAl?$AAt@ DB 'C'
	DB	00H, 'S', 00H, 'e', 00H, 'r', 00H, 'i', 00H, 'a', 00H, 'l', 00H
	DB	'P', 00H, 'o', 00H, 'r', 00H, 't', 00H, ':', 00H, ':', 00H, 'G'
	DB	00H, 'e', 00H, 't', 00H, 'O', 00H, 'v', 00H, 'e', 00H, 'r', 00H
	DB	'l', 00H, 'a', 00H, 'p', 00H, 'p', 00H, 'e', 00H, 'd', 00H, 'R'
	DB	00H, 'e', 00H, 's', 00H, 'u', 00H, 'l', 00H, 't', 00H, ',', 00H
	DB	'I', 00H, 's', 00H, 'O', 00H, 'p', 00H, 'e', 00H, 'n', 00H, '('
	DB	00H, ')', 00H, 0dH, 00H, 0aH, 00H, 00H, 00H	; `string'
; Function compile flags: /Odtp /RTCsu /ZI
CONST	ENDS
;	COMDAT ?GetOverlappedResult@CSerialPort@@QAE_NAAU_OVERLAPPED@@AAKH@Z
_TEXT	SEGMENT
$T212103 = -260						; size = 8
$T212104 = -244						; size = 8
$T212105 = -228						; size = 8
_bSuccess$ = -20					; size = 4
_this$ = -8						; size = 4
_overlapped$ = 8					; size = 4
_dwBytesTransferred$ = 12				; size = 4
_bWait$ = 16						; size = 4
?GetOverlappedResult@CSerialPort@@QAE_NAAU_OVERLAPPED@@AAKH@Z PROC ; CSerialPort::GetOverlappedResult, COMDAT
; _this$ = ecx

; 524  : {

  00000	55		 push	 ebp
  00001	8b ec		 mov	 ebp, esp
  00003	81 ec 08 01 00
	00		 sub	 esp, 264		; 00000108H
  00009	53		 push	 ebx
  0000a	56		 push	 esi
  0000b	57		 push	 edi
  0000c	51		 push	 ecx
  0000d	8d bd f8 fe ff
	ff		 lea	 edi, DWORD PTR [ebp-264]
  00013	b9 42 00 00 00	 mov	 ecx, 66			; 00000042H
  00018	b8 cc cc cc cc	 mov	 eax, -858993460		; ccccccccH
  0001d	f3 ab		 rep stosd
  0001f	59		 pop	 ecx
  00020	89 4d f8	 mov	 DWORD PTR _this$[ebp], ecx

; 525  : //   ASSERT(IsOpen());
; 526  : //   ASSERT(m_bOverlapped);
; 527  : 	TRACE(_T("CSerialPort::GetOverlappedResult,IsOpen()\r\n"));

  00023	68 00 00 00 00	 push	 OFFSET ??_C@_1FI@FHPDLOPC@?$AAC?$AAS?$AAe?$AAr?$AAi?$AAa?$AAl?$AAP?$AAo?$AAr?$AAt?$AA?3?$AA?3?$AAG?$AAe?$AAt?$AAO?$AAv?$AAe?$AAr?$AAl?$AAa?$AAp?$AAp?$AAe?$AAd?$AAR?$AAe?$AAs?$AAu?$AAl?$AAt@
  00028	a1 00 00 00 00	 mov	 eax, DWORD PTR ?__LINE__Var@?1??GetOverlappedResult@CSerialPort@@QAE_NAAU_OVERLAPPED@@AAKH@Z@4JA
  0002d	83 c0 03	 add	 eax, 3
  00030	50		 push	 eax
  00031	68 00 00 00 00	 push	 OFFSET ??_C@_0DC@PACLAOLH@e?3?2cz?2vs?2dvicectrldlg_new_signal@
  00036	8d 8d fc fe ff
	ff		 lea	 ecx, DWORD PTR $T212103[ebp]
  0003c	e8 00 00 00 00	 call	 ??0CTraceFileAndLineInfo@ATL@@QAE@PBDH@Z ; ATL::CTraceFileAndLineInfo::CTraceFileAndLineInfo
  00041	50		 push	 eax
  00042	e8 00 00 00 00	 call	 ??RCTraceFileAndLineInfo@ATL@@QBAXPB_WZZ ; ATL::CTraceFileAndLineInfo::operator()
  00047	83 c4 08	 add	 esp, 8

; 528  : 	TRACE(_T("CSerialPort::GetOverlappedResult,m_bOverlapped == FALSE\r\n"));

  0004a	68 00 00 00 00	 push	 OFFSET ??_C@_1HE@KIPENHBI@?$AAC?$AAS?$AAe?$AAr?$AAi?$AAa?$AAl?$AAP?$AAo?$AAr?$AAt?$AA?3?$AA?3?$AAG?$AAe?$AAt?$AAO?$AAv?$AAe?$AAr?$AAl?$AAa?$AAp?$AAp?$AAe?$AAd?$AAR?$AAe?$AAs?$AAu?$AAl?$AAt@
  0004f	a1 00 00 00 00	 mov	 eax, DWORD PTR ?__LINE__Var@?1??GetOverlappedResult@CSerialPort@@QAE_NAAU_OVERLAPPED@@AAKH@Z@4JA
  00054	83 c0 04	 add	 eax, 4
  00057	50		 push	 eax
  00058	68 00 00 00 00	 push	 OFFSET ??_C@_0DC@PACLAOLH@e?3?2cz?2vs?2dvicectrldlg_new_signal@
  0005d	8d 8d 0c ff ff
	ff		 lea	 ecx, DWORD PTR $T212104[ebp]
  00063	e8 00 00 00 00	 call	 ??0CTraceFileAndLineInfo@ATL@@QAE@PBDH@Z ; ATL::CTraceFileAndLineInfo::CTraceFileAndLineInfo
  00068	50		 push	 eax
  00069	e8 00 00 00 00	 call	 ??RCTraceFileAndLineInfo@ATL@@QBAXPB_WZZ ; ATL::CTraceFileAndLineInfo::operator()
  0006e	83 c4 08	 add	 esp, 8

; 529  : 
; 530  :   BOOL bSuccess = ::GetOverlappedResult(m_hComm, &overlapped, &dwBytesTransferred, bWait);

  00071	8b f4		 mov	 esi, esp
  00073	8b 45 10	 mov	 eax, DWORD PTR _bWait$[ebp]
  00076	50		 push	 eax
  00077	8b 4d 0c	 mov	 ecx, DWORD PTR _dwBytesTransferred$[ebp]
  0007a	51		 push	 ecx
  0007b	8b 55 08	 mov	 edx, DWORD PTR _overlapped$[ebp]
  0007e	52		 push	 edx
  0007f	8b 45 f8	 mov	 eax, DWORD PTR _this$[ebp]
  00082	8b 48 04	 mov	 ecx, DWORD PTR [eax+4]
  00085	51		 push	 ecx
  00086	ff 15 00 00 00
	00		 call	 DWORD PTR __imp__GetOverlappedResult@16
  0008c	3b f4		 cmp	 esi, esp
  0008e	e8 00 00 00 00	 call	 __RTC_CheckEsp
  00093	89 45 ec	 mov	 DWORD PTR _bSuccess$[ebp], eax

; 531  :   if (!bSuccess)

  00096	83 7d ec 00	 cmp	 DWORD PTR _bSuccess$[ebp], 0
  0009a	75 47		 jne	 SHORT $LN4@GetOverlap

; 532  :   {
; 533  :     if (GetLastError() != ERROR_IO_PENDING)

  0009c	8b f4		 mov	 esi, esp
  0009e	ff 15 00 00 00
	00		 call	 DWORD PTR __imp__GetLastError@0
  000a4	3b f4		 cmp	 esi, esp
  000a6	e8 00 00 00 00	 call	 __RTC_CheckEsp
  000ab	3d e5 03 00 00	 cmp	 eax, 997		; 000003e5H
  000b0	74 31		 je	 SHORT $LN4@GetOverlap

; 534  :     {
; 535  :       TRACE(_T("Failed in call to GetOverlappedResult\n"));

  000b2	68 00 00 00 00	 push	 OFFSET ??_C@_1EO@LEFHNIPA@?$AAF?$AAa?$AAi?$AAl?$AAe?$AAd?$AA?5?$AAi?$AAn?$AA?5?$AAc?$AAa?$AAl?$AAl?$AA?5?$AAt?$AAo?$AA?5?$AAG?$AAe?$AAt?$AAO?$AAv?$AAe?$AAr?$AAl?$AAa?$AAp?$AAp?$AAe?$AAd?$AAR@
  000b7	a1 00 00 00 00	 mov	 eax, DWORD PTR ?__LINE__Var@?1??GetOverlappedResult@CSerialPort@@QAE_NAAU_OVERLAPPED@@AAKH@Z@4JA
  000bc	83 c0 0b	 add	 eax, 11			; 0000000bH
  000bf	50		 push	 eax
  000c0	68 00 00 00 00	 push	 OFFSET ??_C@_0DC@PACLAOLH@e?3?2cz?2vs?2dvicectrldlg_new_signal@
  000c5	8d 8d 1c ff ff
	ff		 lea	 ecx, DWORD PTR $T212105[ebp]
  000cb	e8 00 00 00 00	 call	 ??0CTraceFileAndLineInfo@ATL@@QAE@PBDH@Z ; ATL::CTraceFileAndLineInfo::CTraceFileAndLineInfo
  000d0	50		 push	 eax
  000d1	e8 00 00 00 00	 call	 ??RCTraceFileAndLineInfo@ATL@@QBAXPB_WZZ ; ATL::CTraceFileAndLineInfo::operator()
  000d6	83 c4 08	 add	 esp, 8

; 536  :       AfxThrowSerialException();

  000d9	6a 00		 push	 0
  000db	e8 00 00 00 00	 call	 ?AfxThrowSerialException@@YAXK@Z ; AfxThrowSerialException
  000e0	83 c4 04	 add	 esp, 4
$LN4@GetOverlap:

; 537  :     }
; 538  :   }
; 539  : 
; 540  :   if (bSuccess)

  000e3	83 7d ec 00	 cmp	 DWORD PTR _bSuccess$[ebp], 0
  000e7	74 06		 je	 SHORT $LN2@GetOverlap

; 541  :   {
; 542  : 	  return TRUE;

  000e9	b0 01		 mov	 al, 1
  000eb	eb 04		 jmp	 SHORT $LN5@GetOverlap

; 543  :   }
; 544  :   else

  000ed	eb 02		 jmp	 SHORT $LN5@GetOverlap
$LN2@GetOverlap:

; 545  :   {
; 546  : 	  return FALSE;

  000ef	32 c0		 xor	 al, al
$LN5@GetOverlap:

; 547  :   }
; 548  : }

  000f1	5f		 pop	 edi
  000f2	5e		 pop	 esi
  000f3	5b		 pop	 ebx
  000f4	81 c4 08 01 00
	00		 add	 esp, 264		; 00000108H
  000fa	3b ec		 cmp	 ebp, esp
  000fc	e8 00 00 00 00	 call	 __RTC_CheckEsp
  00101	8b e5		 mov	 esp, ebp
  00103	5d		 pop	 ebp
  00104	c2 0c 00	 ret	 12			; 0000000cH
?GetOverlappedResult@CSerialPort@@QAE_NAAU_OVERLAPPED@@AAKH@Z ENDP ; CSerialPort::GetOverlappedResult
_TEXT	ENDS
PUBLIC	?__LINE__Var@?1??_OnCompletion@CSerialPort@@KGXKKPAU_OVERLAPPED@@@Z@4JA@249df390 ; `CSerialPort::_OnCompletion'::`2'::__LINE__Var
PUBLIC	??_C@_1GE@DNOIFAKC@?$AAC?$AAS?$AAe?$AAr?$AAi?$AAa?$AAl?$AAP?$AAo?$AAr?$AAt?$AA?3?$AA?3?$AA_?$AAO?$AAn?$AAC?$AAo?$AAm?$AAp?$AAl?$AAe?$AAt?$AAi?$AAo?$AAn?$AA?0?$AAl?$AAp?$AAO?$AAv?$AAe@ ; `string'
PUBLIC	?_OnCompletion@CSerialPort@@KGXKKPAU_OVERLAPPED@@@Z ; CSerialPort::_OnCompletion
EXTRN	?IsKindOf@CObject@@QBEHPBUCRuntimeClass@@@Z:PROC ; CObject::IsKindOf
;	COMDAT ?__LINE__Var@?1??_OnCompletion@CSerialPort@@KGXKKPAU_OVERLAPPED@@@Z@4JA@249df390
_DATA	SEGMENT
?__LINE__Var@?1??_OnCompletion@CSerialPort@@KGXKKPAU_OVERLAPPED@@@Z@4JA@249df390 DD 0227H ; `CSerialPort::_OnCompletion'::`2'::__LINE__Var
_DATA	ENDS
;	COMDAT ??_C@_1GE@DNOIFAKC@?$AAC?$AAS?$AAe?$AAr?$AAi?$AAa?$AAl?$AAP?$AAo?$AAr?$AAt?$AA?3?$AA?3?$AA_?$AAO?$AAn?$AAC?$AAo?$AAm?$AAp?$AAl?$AAe?$AAt?$AAi?$AAo?$AAn?$AA?0?$AAl?$AAp?$AAO?$AAv?$AAe@
CONST	SEGMENT
??_C@_1GE@DNOIFAKC@?$AAC?$AAS?$AAe?$AAr?$AAi?$AAa?$AAl?$AAP?$AAo?$AAr?$AAt?$AA?3?$AA?3?$AA_?$AAO?$AAn?$AAC?$AAo?$AAm?$AAp?$AAl?$AAe?$AAt?$AAi?$AAo?$AAn?$AA?0?$AAl?$AAp?$AAO?$AAv?$AAe@ DB 'C'
	DB	00H, 'S', 00H, 'e', 00H, 'r', 00H, 'i', 00H, 'a', 00H, 'l', 00H
	DB	'P', 00H, 'o', 00H, 'r', 00H, 't', 00H, ':', 00H, ':', 00H, '_'
	DB	00H, 'O', 00H, 'n', 00H, 'C', 00H, 'o', 00H, 'm', 00H, 'p', 00H
	DB	'l', 00H, 'e', 00H, 't', 00H, 'i', 00H, 'o', 00H, 'n', 00H, ','
	DB	00H, 'l', 00H, 'p', 00H, 'O', 00H, 'v', 00H, 'e', 00H, 'r', 00H
	DB	'l', 00H, 'a', 00H, 'p', 00H, 'p', 00H, 'e', 00H, 'd', 00H, ' '
	DB	00H, '=', 00H, '=', 00H, ' ', 00H, 'N', 00H, 'U', 00H, 'L', 00H
	DB	'L', 00H, 0dH, 00H, 0aH, 00H, 00H, 00H	; `string'
; Function compile flags: /Odtp /RTCsu /ZI
CONST	ENDS
;	COMDAT ?_OnCompletion@CSerialPort@@KGXKKPAU_OVERLAPPED@@@Z
_TEXT	SEGMENT
$T212108 = -216						; size = 8
_pSerialPort$ = -8					; size = 4
_dwErrorCode$ = 8					; size = 4
_dwCount$ = 12						; size = 4
_lpOverlapped$ = 16					; size = 4
?_OnCompletion@CSerialPort@@KGXKKPAU_OVERLAPPED@@@Z PROC ; CSerialPort::_OnCompletion, COMDAT

; 551  : {

  00000	55		 push	 ebp
  00001	8b ec		 mov	 ebp, esp
  00003	81 ec dc 00 00
	00		 sub	 esp, 220		; 000000dcH
  00009	53		 push	 ebx
  0000a	56		 push	 esi
  0000b	57		 push	 edi
  0000c	8d bd 24 ff ff
	ff		 lea	 edi, DWORD PTR [ebp-220]
  00012	b9 37 00 00 00	 mov	 ecx, 55			; 00000037H
  00017	b8 cc cc cc cc	 mov	 eax, -858993460		; ccccccccH
  0001c	f3 ab		 rep stosd

; 552  :   //Validate our parameters
; 553  : //   ASSERT(lpOverlapped);
; 554  :   TRACE(_T("CSerialPort::_OnCompletion,lpOverlapped == NULL\r\n"));

  0001e	68 00 00 00 00	 push	 OFFSET ??_C@_1GE@DNOIFAKC@?$AAC?$AAS?$AAe?$AAr?$AAi?$AAa?$AAl?$AAP?$AAo?$AAr?$AAt?$AA?3?$AA?3?$AA_?$AAO?$AAn?$AAC?$AAo?$AAm?$AAp?$AAl?$AAe?$AAt?$AAi?$AAo?$AAn?$AA?0?$AAl?$AAp?$AAO?$AAv?$AAe@
  00023	a1 00 00 00 00	 mov	 eax, DWORD PTR ?__LINE__Var@?1??_OnCompletion@CSerialPort@@KGXKKPAU_OVERLAPPED@@@Z@4JA@249df390
  00028	83 c0 03	 add	 eax, 3
  0002b	50		 push	 eax
  0002c	68 00 00 00 00	 push	 OFFSET ??_C@_0DC@PACLAOLH@e?3?2cz?2vs?2dvicectrldlg_new_signal@
  00031	8d 8d 28 ff ff
	ff		 lea	 ecx, DWORD PTR $T212108[ebp]
  00037	e8 00 00 00 00	 call	 ??0CTraceFileAndLineInfo@ATL@@QAE@PBDH@Z ; ATL::CTraceFileAndLineInfo::CTraceFileAndLineInfo
  0003c	50		 push	 eax
  0003d	e8 00 00 00 00	 call	 ??RCTraceFileAndLineInfo@ATL@@QBAXPB_WZZ ; ATL::CTraceFileAndLineInfo::operator()
  00042	83 c4 08	 add	 esp, 8

; 555  : 
; 556  :   //Convert back to the C++ world
; 557  :   CSerialPort* pSerialPort = (CSerialPort*) lpOverlapped->hEvent;

  00045	8b 45 10	 mov	 eax, DWORD PTR _lpOverlapped$[ebp]
  00048	8b 48 10	 mov	 ecx, DWORD PTR [eax+16]
  0004b	89 4d f8	 mov	 DWORD PTR _pSerialPort$[ebp], ecx

; 558  :   ASSERT(pSerialPort);

  0004e	83 7d f8 00	 cmp	 DWORD PTR _pSerialPort$[ebp], 0
  00052	75 18		 jne	 SHORT $LN3@OnCompleti
  00054	a1 00 00 00 00	 mov	 eax, DWORD PTR ?__LINE__Var@?1??_OnCompletion@CSerialPort@@KGXKKPAU_OVERLAPPED@@@Z@4JA@249df390
  00059	83 c0 07	 add	 eax, 7
  0005c	50		 push	 eax
  0005d	68 00 00 00 00	 push	 OFFSET _THIS_FILE
  00062	e8 00 00 00 00	 call	 ?AfxAssertFailedLine@@YGHPBDH@Z ; AfxAssertFailedLine
  00067	85 c0		 test	 eax, eax
  00069	74 01		 je	 SHORT $LN3@OnCompleti
  0006b	cc		 int	 3
$LN3@OnCompleti:

; 559  :   ASSERT(pSerialPort->IsKindOf(RUNTIME_CLASS(CSerialPort)));

  0006c	68 00 00 00 00	 push	 OFFSET ?classCSerialPort@CSerialPort@@2UCRuntimeClass@@B ; CSerialPort::classCSerialPort
  00071	8b 4d f8	 mov	 ecx, DWORD PTR _pSerialPort$[ebp]
  00074	e8 00 00 00 00	 call	 ?IsKindOf@CObject@@QBEHPBUCRuntimeClass@@@Z ; CObject::IsKindOf
  00079	85 c0		 test	 eax, eax
  0007b	75 18		 jne	 SHORT $LN4@OnCompleti
  0007d	a1 00 00 00 00	 mov	 eax, DWORD PTR ?__LINE__Var@?1??_OnCompletion@CSerialPort@@KGXKKPAU_OVERLAPPED@@@Z@4JA@249df390
  00082	83 c0 08	 add	 eax, 8
  00085	50		 push	 eax
  00086	68 00 00 00 00	 push	 OFFSET _THIS_FILE
  0008b	e8 00 00 00 00	 call	 ?AfxAssertFailedLine@@YGHPBDH@Z ; AfxAssertFailedLine
  00090	85 c0		 test	 eax, eax
  00092	74 01		 je	 SHORT $LN4@OnCompleti
  00094	cc		 int	 3
$LN4@OnCompleti:

; 560  : 
; 561  :   //Call the C++ function
; 562  :   pSerialPort->OnCompletion(dwErrorCode, dwCount, lpOverlapped);

  00095	8b f4		 mov	 esi, esp
  00097	8b 45 10	 mov	 eax, DWORD PTR _lpOverlapped$[ebp]
  0009a	50		 push	 eax
  0009b	8b 4d 0c	 mov	 ecx, DWORD PTR _dwCount$[ebp]
  0009e	51		 push	 ecx
  0009f	8b 55 08	 mov	 edx, DWORD PTR _dwErrorCode$[ebp]
  000a2	52		 push	 edx
  000a3	8b 45 f8	 mov	 eax, DWORD PTR _pSerialPort$[ebp]
  000a6	8b 10		 mov	 edx, DWORD PTR [eax]
  000a8	8b 4d f8	 mov	 ecx, DWORD PTR _pSerialPort$[ebp]
  000ab	8b 42 14	 mov	 eax, DWORD PTR [edx+20]
  000ae	ff d0		 call	 eax
  000b0	3b f4		 cmp	 esi, esp
  000b2	e8 00 00 00 00	 call	 __RTC_CheckEsp

; 563  : }

  000b7	5f		 pop	 edi
  000b8	5e		 pop	 esi
  000b9	5b		 pop	 ebx
  000ba	81 c4 dc 00 00
	00		 add	 esp, 220		; 000000dcH
  000c0	3b ec		 cmp	 ebp, esp
  000c2	e8 00 00 00 00	 call	 __RTC_CheckEsp
  000c7	8b e5		 mov	 esp, ebp
  000c9	5d		 pop	 ebp
  000ca	c2 0c 00	 ret	 12			; 0000000cH
?_OnCompletion@CSerialPort@@KGXKKPAU_OVERLAPPED@@@Z ENDP ; CSerialPort::_OnCompletion
_TEXT	ENDS
EXTRN	??3@YAXPAX@Z:PROC				; operator delete
; Function compile flags: /Odtp /RTCsu /ZI
;	COMDAT ?OnCompletion@CSerialPort@@UAEXKKPAU_OVERLAPPED@@@Z
_TEXT	SEGMENT
$T212113 = -212						; size = 4
_this$ = -8						; size = 4
___formal$ = 8						; size = 4
___formal$ = 12						; size = 4
_lpOverlapped$ = 16					; size = 4
?OnCompletion@CSerialPort@@UAEXKKPAU_OVERLAPPED@@@Z PROC ; CSerialPort::OnCompletion, COMDAT
; _this$ = ecx

; 566  : {

  00000	55		 push	 ebp
  00001	8b ec		 mov	 ebp, esp
  00003	81 ec d8 00 00
	00		 sub	 esp, 216		; 000000d8H
  00009	53		 push	 ebx
  0000a	56		 push	 esi
  0000b	57		 push	 edi
  0000c	51		 push	 ecx
  0000d	8d bd 28 ff ff
	ff		 lea	 edi, DWORD PTR [ebp-216]
  00013	b9 36 00 00 00	 mov	 ecx, 54			; 00000036H
  00018	b8 cc cc cc cc	 mov	 eax, -858993460		; ccccccccH
  0001d	f3 ab		 rep stosd
  0001f	59		 pop	 ecx
  00020	89 4d f8	 mov	 DWORD PTR _this$[ebp], ecx

; 567  :   //Just free up the memory which was previously allocated for the OVERLAPPED structure
; 568  :   delete lpOverlapped;

  00023	8b 45 10	 mov	 eax, DWORD PTR _lpOverlapped$[ebp]
  00026	89 85 2c ff ff
	ff		 mov	 DWORD PTR $T212113[ebp], eax
  0002c	8b 8d 2c ff ff
	ff		 mov	 ecx, DWORD PTR $T212113[ebp]
  00032	51		 push	 ecx
  00033	e8 00 00 00 00	 call	 ??3@YAXPAX@Z		; operator delete
  00038	83 c4 04	 add	 esp, 4

; 569  : 
; 570  :   //Your derived classes can do something useful in OnCompletion, but don't forget to
; 571  :   //call CSerialPort::OnCompletion to ensure the memory is freed up
; 572  : }

  0003b	5f		 pop	 edi
  0003c	5e		 pop	 esi
  0003d	5b		 pop	 ebx
  0003e	81 c4 d8 00 00
	00		 add	 esp, 216		; 000000d8H
  00044	3b ec		 cmp	 ebp, esp
  00046	e8 00 00 00 00	 call	 __RTC_CheckEsp
  0004b	8b e5		 mov	 esp, ebp
  0004d	5d		 pop	 ebp
  0004e	c2 0c 00	 ret	 12			; 0000000cH
?OnCompletion@CSerialPort@@UAEXKKPAU_OVERLAPPED@@@Z ENDP ; CSerialPort::OnCompletion
_TEXT	ENDS
PUBLIC	??_C@_1DI@EPHGDDAF@?$AAF?$AAa?$AAi?$AAl?$AAe?$AAd?$AA?5?$AAi?$AAn?$AA?5?$AAc?$AAa?$AAl?$AAl?$AA?5?$AAt?$AAo?$AA?5?$AAC?$AAa?$AAn?$AAc?$AAe?$AAl?$AAI?$AAO?$AA?6?$AA?$AA@ ; `string'
PUBLIC	??_C@_1OI@BEBLMHMK@?$AAC?$AAa?$AAn?$AAc?$AAe?$AAl?$AAI?$AAo?$AA?5?$AAf?$AAu?$AAn?$AAc?$AAt?$AAi?$AAo?$AAn?$AA?5?$AAi?$AAs?$AA?5?$AAn?$AAo?$AAt?$AA?5?$AAs?$AAu?$AAp?$AAp?$AAo?$AAr?$AAt@ ; `string'
PUBLIC	?__LINE__Var@?1??CancelIo@CSerialPort@@QAEXXZ@4JA ; `CSerialPort::CancelIo'::`2'::__LINE__Var
PUBLIC	??_C@_1EC@IOFCDPGK@?$AAC?$AAS?$AAe?$AAr?$AAi?$AAa?$AAl?$AAP?$AAo?$AAr?$AAt?$AA?3?$AA?3?$AAC?$AAa?$AAn?$AAc?$AAe?$AAl?$AAI?$AAo?$AA?0?$AAI?$AAs?$AAO?$AAp?$AAe?$AAn?$AA?$CI?$AA?$CJ?$AA?$AN?$AA?6@ ; `string'
PUBLIC	?CancelIo@CSerialPort@@QAEXXZ			; CSerialPort::CancelIo
;	COMDAT ??_C@_1DI@EPHGDDAF@?$AAF?$AAa?$AAi?$AAl?$AAe?$AAd?$AA?5?$AAi?$AAn?$AA?5?$AAc?$AAa?$AAl?$AAl?$AA?5?$AAt?$AAo?$AA?5?$AAC?$AAa?$AAn?$AAc?$AAe?$AAl?$AAI?$AAO?$AA?6?$AA?$AA@
CONST	SEGMENT
??_C@_1DI@EPHGDDAF@?$AAF?$AAa?$AAi?$AAl?$AAe?$AAd?$AA?5?$AAi?$AAn?$AA?5?$AAc?$AAa?$AAl?$AAl?$AA?5?$AAt?$AAo?$AA?5?$AAC?$AAa?$AAn?$AAc?$AAe?$AAl?$AAI?$AAO?$AA?6?$AA?$AA@ DB 'F'
	DB	00H, 'a', 00H, 'i', 00H, 'l', 00H, 'e', 00H, 'd', 00H, ' ', 00H
	DB	'i', 00H, 'n', 00H, ' ', 00H, 'c', 00H, 'a', 00H, 'l', 00H, 'l'
	DB	00H, ' ', 00H, 't', 00H, 'o', 00H, ' ', 00H, 'C', 00H, 'a', 00H
	DB	'n', 00H, 'c', 00H, 'e', 00H, 'l', 00H, 'I', 00H, 'O', 00H, 0aH
	DB	00H, 00H, 00H				; `string'
CONST	ENDS
;	COMDAT ??_C@_1OI@BEBLMHMK@?$AAC?$AAa?$AAn?$AAc?$AAe?$AAl?$AAI?$AAo?$AA?5?$AAf?$AAu?$AAn?$AAc?$AAt?$AAi?$AAo?$AAn?$AA?5?$AAi?$AAs?$AA?5?$AAn?$AAo?$AAt?$AA?5?$AAs?$AAu?$AAp?$AAp?$AAo?$AAr?$AAt@
CONST	SEGMENT
??_C@_1OI@BEBLMHMK@?$AAC?$AAa?$AAn?$AAc?$AAe?$AAl?$AAI?$AAo?$AA?5?$AAf?$AAu?$AAn?$AAc?$AAt?$AAi?$AAo?$AAn?$AA?5?$AAi?$AAs?$AA?5?$AAn?$AAo?$AAt?$AA?5?$AAs?$AAu?$AAp?$AAp?$AAo?$AAr?$AAt@ DB 'C'
	DB	00H, 'a', 00H, 'n', 00H, 'c', 00H, 'e', 00H, 'l', 00H, 'I', 00H
	DB	'o', 00H, ' ', 00H, 'f', 00H, 'u', 00H, 'n', 00H, 'c', 00H, 't'
	DB	00H, 'i', 00H, 'o', 00H, 'n', 00H, ' ', 00H, 'i', 00H, 's', 00H
	DB	' ', 00H, 'n', 00H, 'o', 00H, 't', 00H, ' ', 00H, 's', 00H, 'u'
	DB	00H, 'p', 00H, 'p', 00H, 'o', 00H, 'r', 00H, 't', 00H, 'e', 00H
	DB	'd', 00H, ' ', 00H, 'o', 00H, 'n', 00H, ' ', 00H, 't', 00H, 'h'
	DB	00H, 'i', 00H, 's', 00H, ' ', 00H, 'O', 00H, 'S', 00H, '.', 00H
	DB	' ', 00H, 'Y', 00H, 'o', 00H, 'u', 00H, ' ', 00H, 'n', 00H, 'e'
	DB	00H, 'e', 00H, 'd', 00H, ' ', 00H, 't', 00H, 'o', 00H, ' ', 00H
	DB	'b', 00H, 'e', 00H, ' ', 00H, 'r', 00H, 'u', 00H, 'n', 00H, 'n'
	DB	00H, 'i', 00H, 'n', 00H, 'g', 00H, ' ', 00H, 'a', 00H, 't', 00H
	DB	' ', 00H, 'l', 00H, 'e', 00H, 'a', 00H, 's', 00H, 't', 00H, ' '
	DB	00H, 'N', 00H, 'T', 00H, ' ', 00H, '4', 00H, ' ', 00H, 'o', 00H
	DB	'r', 00H, ' ', 00H, 'W', 00H, 'i', 00H, 'n', 00H, ' ', 00H, '9'
	DB	00H, '8', 00H, ' ', 00H, 't', 00H, 'o', 00H, ' ', 00H, 'u', 00H
	DB	's', 00H, 'e', 00H, ' ', 00H, 't', 00H, 'h', 00H, 'i', 00H, 's'
	DB	00H, ' ', 00H, 'f', 00H, 'u', 00H, 'n', 00H, 'c', 00H, 't', 00H
	DB	'i', 00H, 'o', 00H, 'n', 00H, 0aH, 00H, 00H, 00H ; `string'
CONST	ENDS
;	COMDAT ?__LINE__Var@?1??CancelIo@CSerialPort@@QAEXXZ@4JA
_DATA	SEGMENT
?__LINE__Var@?1??CancelIo@CSerialPort@@QAEXXZ@4JA DD 023fH ; `CSerialPort::CancelIo'::`2'::__LINE__Var
_DATA	ENDS
;	COMDAT ??_C@_1EC@IOFCDPGK@?$AAC?$AAS?$AAe?$AAr?$AAi?$AAa?$AAl?$AAP?$AAo?$AAr?$AAt?$AA?3?$AA?3?$AAC?$AAa?$AAn?$AAc?$AAe?$AAl?$AAI?$AAo?$AA?0?$AAI?$AAs?$AAO?$AAp?$AAe?$AAn?$AA?$CI?$AA?$CJ?$AA?$AN?$AA?6@
CONST	SEGMENT
??_C@_1EC@IOFCDPGK@?$AAC?$AAS?$AAe?$AAr?$AAi?$AAa?$AAl?$AAP?$AAo?$AAr?$AAt?$AA?3?$AA?3?$AAC?$AAa?$AAn?$AAc?$AAe?$AAl?$AAI?$AAo?$AA?0?$AAI?$AAs?$AAO?$AAp?$AAe?$AAn?$AA?$CI?$AA?$CJ?$AA?$AN?$AA?6@ DB 'C'
	DB	00H, 'S', 00H, 'e', 00H, 'r', 00H, 'i', 00H, 'a', 00H, 'l', 00H
	DB	'P', 00H, 'o', 00H, 'r', 00H, 't', 00H, ':', 00H, ':', 00H, 'C'
	DB	00H, 'a', 00H, 'n', 00H, 'c', 00H, 'e', 00H, 'l', 00H, 'I', 00H
	DB	'o', 00H, ',', 00H, 'I', 00H, 's', 00H, 'O', 00H, 'p', 00H, 'e'
	DB	00H, 'n', 00H, '(', 00H, ')', 00H, 0dH, 00H, 0aH, 00H, 00H, 00H ; `string'
; Function compile flags: /Odtp /RTCsu /ZI
CONST	ENDS
;	COMDAT ?CancelIo@CSerialPort@@QAEXXZ
_TEXT	SEGMENT
$T212116 = -248						; size = 8
$T212117 = -232						; size = 8
$T212118 = -216						; size = 8
_this$ = -8						; size = 4
?CancelIo@CSerialPort@@QAEXXZ PROC			; CSerialPort::CancelIo, COMDAT
; _this$ = ecx

; 575  : {

  00000	55		 push	 ebp
  00001	8b ec		 mov	 ebp, esp
  00003	81 ec fc 00 00
	00		 sub	 esp, 252		; 000000fcH
  00009	53		 push	 ebx
  0000a	56		 push	 esi
  0000b	57		 push	 edi
  0000c	51		 push	 ecx
  0000d	8d bd 04 ff ff
	ff		 lea	 edi, DWORD PTR [ebp-252]
  00013	b9 3f 00 00 00	 mov	 ecx, 63			; 0000003fH
  00018	b8 cc cc cc cc	 mov	 eax, -858993460		; ccccccccH
  0001d	f3 ab		 rep stosd
  0001f	59		 pop	 ecx
  00020	89 4d f8	 mov	 DWORD PTR _this$[ebp], ecx

; 576  : //   ASSERT(IsOpen());
; 577  : 	TRACE(_T("CSerialPort::CancelIo,IsOpen()\r\n"));

  00023	68 00 00 00 00	 push	 OFFSET ??_C@_1EC@IOFCDPGK@?$AAC?$AAS?$AAe?$AAr?$AAi?$AAa?$AAl?$AAP?$AAo?$AAr?$AAt?$AA?3?$AA?3?$AAC?$AAa?$AAn?$AAc?$AAe?$AAl?$AAI?$AAo?$AA?0?$AAI?$AAs?$AAO?$AAp?$AAe?$AAn?$AA?$CI?$AA?$CJ?$AA?$AN?$AA?6@
  00028	a1 00 00 00 00	 mov	 eax, DWORD PTR ?__LINE__Var@?1??CancelIo@CSerialPort@@QAEXXZ@4JA
  0002d	83 c0 02	 add	 eax, 2
  00030	50		 push	 eax
  00031	68 00 00 00 00	 push	 OFFSET ??_C@_0DC@PACLAOLH@e?3?2cz?2vs?2dvicectrldlg_new_signal@
  00036	8d 8d 08 ff ff
	ff		 lea	 ecx, DWORD PTR $T212116[ebp]
  0003c	e8 00 00 00 00	 call	 ??0CTraceFileAndLineInfo@ATL@@QAE@PBDH@Z ; ATL::CTraceFileAndLineInfo::CTraceFileAndLineInfo
  00041	50		 push	 eax
  00042	e8 00 00 00 00	 call	 ??RCTraceFileAndLineInfo@ATL@@QBAXPB_WZZ ; ATL::CTraceFileAndLineInfo::operator()
  00047	83 c4 08	 add	 esp, 8

; 578  : 
; 579  :   if (_SerialPortData.m_lpfnCancelIo == NULL)

  0004a	83 3d 04 00 00
	00 00		 cmp	 DWORD PTR ?_SerialPortData@@3V_SERIAL_PORT_DATA@@A+4, 0
  00051	75 31		 jne	 SHORT $LN2@CancelIo

; 580  :   {
; 581  :     TRACE(_T("CancelIo function is not supported on this OS. You need to be running at least NT 4 or Win 98 to use this function\n"));

  00053	68 00 00 00 00	 push	 OFFSET ??_C@_1OI@BEBLMHMK@?$AAC?$AAa?$AAn?$AAc?$AAe?$AAl?$AAI?$AAo?$AA?5?$AAf?$AAu?$AAn?$AAc?$AAt?$AAi?$AAo?$AAn?$AA?5?$AAi?$AAs?$AA?5?$AAn?$AAo?$AAt?$AA?5?$AAs?$AAu?$AAp?$AAp?$AAo?$AAr?$AAt@
  00058	a1 00 00 00 00	 mov	 eax, DWORD PTR ?__LINE__Var@?1??CancelIo@CSerialPort@@QAEXXZ@4JA
  0005d	83 c0 06	 add	 eax, 6
  00060	50		 push	 eax
  00061	68 00 00 00 00	 push	 OFFSET ??_C@_0DC@PACLAOLH@e?3?2cz?2vs?2dvicectrldlg_new_signal@
  00066	8d 8d 18 ff ff
	ff		 lea	 ecx, DWORD PTR $T212117[ebp]
  0006c	e8 00 00 00 00	 call	 ??0CTraceFileAndLineInfo@ATL@@QAE@PBDH@Z ; ATL::CTraceFileAndLineInfo::CTraceFileAndLineInfo
  00071	50		 push	 eax
  00072	e8 00 00 00 00	 call	 ??RCTraceFileAndLineInfo@ATL@@QBAXPB_WZZ ; ATL::CTraceFileAndLineInfo::operator()
  00077	83 c4 08	 add	 esp, 8

; 582  :     AfxThrowSerialException(ERROR_CALL_NOT_IMPLEMENTED);  

  0007a	6a 78		 push	 120			; 00000078H
  0007c	e8 00 00 00 00	 call	 ?AfxThrowSerialException@@YAXK@Z ; AfxThrowSerialException
  00081	83 c4 04	 add	 esp, 4
$LN2@CancelIo:

; 583  :   }
; 584  : 
; 585  :   if (!::_SerialPortData.m_lpfnCancelIo(m_hComm))

  00084	8b f4		 mov	 esi, esp
  00086	8b 45 f8	 mov	 eax, DWORD PTR _this$[ebp]
  00089	8b 48 04	 mov	 ecx, DWORD PTR [eax+4]
  0008c	51		 push	 ecx
  0008d	ff 15 04 00 00
	00		 call	 DWORD PTR ?_SerialPortData@@3V_SERIAL_PORT_DATA@@A+4
  00093	3b f4		 cmp	 esi, esp
  00095	e8 00 00 00 00	 call	 __RTC_CheckEsp
  0009a	85 c0		 test	 eax, eax
  0009c	75 31		 jne	 SHORT $LN3@CancelIo

; 586  :   {
; 587  :     TRACE(_T("Failed in call to CancelIO\n"));

  0009e	68 00 00 00 00	 push	 OFFSET ??_C@_1DI@EPHGDDAF@?$AAF?$AAa?$AAi?$AAl?$AAe?$AAd?$AA?5?$AAi?$AAn?$AA?5?$AAc?$AAa?$AAl?$AAl?$AA?5?$AAt?$AAo?$AA?5?$AAC?$AAa?$AAn?$AAc?$AAe?$AAl?$AAI?$AAO?$AA?6?$AA?$AA@
  000a3	a1 00 00 00 00	 mov	 eax, DWORD PTR ?__LINE__Var@?1??CancelIo@CSerialPort@@QAEXXZ@4JA
  000a8	83 c0 0c	 add	 eax, 12			; 0000000cH
  000ab	50		 push	 eax
  000ac	68 00 00 00 00	 push	 OFFSET ??_C@_0DC@PACLAOLH@e?3?2cz?2vs?2dvicectrldlg_new_signal@
  000b1	8d 8d 28 ff ff
	ff		 lea	 ecx, DWORD PTR $T212118[ebp]
  000b7	e8 00 00 00 00	 call	 ??0CTraceFileAndLineInfo@ATL@@QAE@PBDH@Z ; ATL::CTraceFileAndLineInfo::CTraceFileAndLineInfo
  000bc	50		 push	 eax
  000bd	e8 00 00 00 00	 call	 ??RCTraceFileAndLineInfo@ATL@@QBAXPB_WZZ ; ATL::CTraceFileAndLineInfo::operator()
  000c2	83 c4 08	 add	 esp, 8

; 588  :     AfxThrowSerialException();

  000c5	6a 00		 push	 0
  000c7	e8 00 00 00 00	 call	 ?AfxThrowSerialException@@YAXK@Z ; AfxThrowSerialException
  000cc	83 c4 04	 add	 esp, 4
$LN3@CancelIo:

; 589  :   }
; 590  : }

  000cf	5f		 pop	 edi
  000d0	5e		 pop	 esi
  000d1	5b		 pop	 ebx
  000d2	81 c4 fc 00 00
	00		 add	 esp, 252		; 000000fcH
  000d8	3b ec		 cmp	 ebp, esp
  000da	e8 00 00 00 00	 call	 __RTC_CheckEsp
  000df	8b e5		 mov	 esp, ebp
  000e1	5d		 pop	 ebp
  000e2	c3		 ret	 0
?CancelIo@CSerialPort@@QAEXXZ ENDP			; CSerialPort::CancelIo
_TEXT	ENDS
PUBLIC	?GetStatus@CSerialPort@@QAEXAAU_COMSTAT@@@Z	; CSerialPort::GetStatus
PUBLIC	?__LINE__Var@?1??BytesWaiting@CSerialPort@@QAEKXZ@4JA ; `CSerialPort::BytesWaiting'::`2'::__LINE__Var
PUBLIC	??_C@_1EK@KPHFPBEJ@?$AAC?$AAS?$AAe?$AAr?$AAi?$AAa?$AAl?$AAP?$AAo?$AAr?$AAt?$AA?3?$AA?3?$AAB?$AAy?$AAt?$AAe?$AAs?$AAW?$AAa?$AAi?$AAt?$AAi?$AAn?$AAg?$AA?0?$AAI?$AAs?$AAO?$AAp?$AAe?$AAn@ ; `string'
PUBLIC	__$ArrayPad$
PUBLIC	?BytesWaiting@CSerialPort@@QAEKXZ		; CSerialPort::BytesWaiting
;	COMDAT ?__LINE__Var@?1??BytesWaiting@CSerialPort@@QAEKXZ@4JA
_DATA	SEGMENT
?__LINE__Var@?1??BytesWaiting@CSerialPort@@QAEKXZ@4JA DD 0251H ; `CSerialPort::BytesWaiting'::`2'::__LINE__Var
_DATA	ENDS
;	COMDAT ??_C@_1EK@KPHFPBEJ@?$AAC?$AAS?$AAe?$AAr?$AAi?$AAa?$AAl?$AAP?$AAo?$AAr?$AAt?$AA?3?$AA?3?$AAB?$AAy?$AAt?$AAe?$AAs?$AAW?$AAa?$AAi?$AAt?$AAi?$AAn?$AAg?$AA?0?$AAI?$AAs?$AAO?$AAp?$AAe?$AAn@
CONST	SEGMENT
??_C@_1EK@KPHFPBEJ@?$AAC?$AAS?$AAe?$AAr?$AAi?$AAa?$AAl?$AAP?$AAo?$AAr?$AAt?$AA?3?$AA?3?$AAB?$AAy?$AAt?$AAe?$AAs?$AAW?$AAa?$AAi?$AAt?$AAi?$AAn?$AAg?$AA?0?$AAI?$AAs?$AAO?$AAp?$AAe?$AAn@ DB 'C'
	DB	00H, 'S', 00H, 'e', 00H, 'r', 00H, 'i', 00H, 'a', 00H, 'l', 00H
	DB	'P', 00H, 'o', 00H, 'r', 00H, 't', 00H, ':', 00H, ':', 00H, 'B'
	DB	00H, 'y', 00H, 't', 00H, 'e', 00H, 's', 00H, 'W', 00H, 'a', 00H
	DB	'i', 00H, 't', 00H, 'i', 00H, 'n', 00H, 'g', 00H, ',', 00H, 'I'
	DB	00H, 's', 00H, 'O', 00H, 'p', 00H, 'e', 00H, 'n', 00H, '(', 00H
	DB	')', 00H, 0dH, 00H, 0aH, 00H, 00H, 00H	; `string'
; Function compile flags: /Odtp /RTCsu /ZI
CONST	ENDS
;	COMDAT ?BytesWaiting@CSerialPort@@QAEKXZ
_TEXT	SEGMENT
$T212122 = -240						; size = 8
_stat$ = -32						; size = 12
_this$ = -12						; size = 4
__$ArrayPad$ = -4					; size = 4
?BytesWaiting@CSerialPort@@QAEKXZ PROC			; CSerialPort::BytesWaiting, COMDAT
; _this$ = ecx

; 593  : {

  00000	55		 push	 ebp
  00001	8b ec		 mov	 ebp, esp
  00003	81 ec f4 00 00
	00		 sub	 esp, 244		; 000000f4H
  00009	53		 push	 ebx
  0000a	56		 push	 esi
  0000b	57		 push	 edi
  0000c	51		 push	 ecx
  0000d	8d bd 0c ff ff
	ff		 lea	 edi, DWORD PTR [ebp-244]
  00013	b9 3d 00 00 00	 mov	 ecx, 61			; 0000003dH
  00018	b8 cc cc cc cc	 mov	 eax, -858993460		; ccccccccH
  0001d	f3 ab		 rep stosd
  0001f	59		 pop	 ecx
  00020	a1 00 00 00 00	 mov	 eax, DWORD PTR ___security_cookie
  00025	33 c5		 xor	 eax, ebp
  00027	89 45 fc	 mov	 DWORD PTR __$ArrayPad$[ebp], eax
  0002a	89 4d f4	 mov	 DWORD PTR _this$[ebp], ecx

; 594  : //   ASSERT(IsOpen());
; 595  : 	TRACE(_T("CSerialPort::BytesWaiting,IsOpen()\r\n"));

  0002d	68 00 00 00 00	 push	 OFFSET ??_C@_1EK@KPHFPBEJ@?$AAC?$AAS?$AAe?$AAr?$AAi?$AAa?$AAl?$AAP?$AAo?$AAr?$AAt?$AA?3?$AA?3?$AAB?$AAy?$AAt?$AAe?$AAs?$AAW?$AAa?$AAi?$AAt?$AAi?$AAn?$AAg?$AA?0?$AAI?$AAs?$AAO?$AAp?$AAe?$AAn@
  00032	a1 00 00 00 00	 mov	 eax, DWORD PTR ?__LINE__Var@?1??BytesWaiting@CSerialPort@@QAEKXZ@4JA
  00037	83 c0 02	 add	 eax, 2
  0003a	50		 push	 eax
  0003b	68 00 00 00 00	 push	 OFFSET ??_C@_0DC@PACLAOLH@e?3?2cz?2vs?2dvicectrldlg_new_signal@
  00040	8d 8d 10 ff ff
	ff		 lea	 ecx, DWORD PTR $T212122[ebp]
  00046	e8 00 00 00 00	 call	 ??0CTraceFileAndLineInfo@ATL@@QAE@PBDH@Z ; ATL::CTraceFileAndLineInfo::CTraceFileAndLineInfo
  0004b	50		 push	 eax
  0004c	e8 00 00 00 00	 call	 ??RCTraceFileAndLineInfo@ATL@@QBAXPB_WZZ ; ATL::CTraceFileAndLineInfo::operator()
  00051	83 c4 08	 add	 esp, 8

; 596  : 
; 597  :   //Check to see how many characters are unread
; 598  :   COMSTAT stat;
; 599  :   GetStatus(stat);

  00054	8d 45 e0	 lea	 eax, DWORD PTR _stat$[ebp]
  00057	50		 push	 eax
  00058	8b 4d f4	 mov	 ecx, DWORD PTR _this$[ebp]
  0005b	e8 00 00 00 00	 call	 ?GetStatus@CSerialPort@@QAEXAAU_COMSTAT@@@Z ; CSerialPort::GetStatus

; 600  :   return stat.cbInQue;

  00060	8b 45 e4	 mov	 eax, DWORD PTR _stat$[ebp+4]

; 601  : }

  00063	52		 push	 edx
  00064	8b cd		 mov	 ecx, ebp
  00066	50		 push	 eax
  00067	8d 15 00 00 00
	00		 lea	 edx, DWORD PTR $LN5@BytesWaiti
  0006d	e8 00 00 00 00	 call	 @_RTC_CheckStackVars@8
  00072	58		 pop	 eax
  00073	5a		 pop	 edx
  00074	5f		 pop	 edi
  00075	5e		 pop	 esi
  00076	5b		 pop	 ebx
  00077	8b 4d fc	 mov	 ecx, DWORD PTR __$ArrayPad$[ebp]
  0007a	33 cd		 xor	 ecx, ebp
  0007c	e8 00 00 00 00	 call	 @__security_check_cookie@4
  00081	81 c4 f4 00 00
	00		 add	 esp, 244		; 000000f4H
  00087	3b ec		 cmp	 ebp, esp
  00089	e8 00 00 00 00	 call	 __RTC_CheckEsp
  0008e	8b e5		 mov	 esp, ebp
  00090	5d		 pop	 ebp
  00091	c3		 ret	 0
  00092	8b ff		 npad	 2
$LN5@BytesWaiti:
  00094	01 00 00 00	 DD	 1
  00098	00 00 00 00	 DD	 $LN4@BytesWaiti
$LN4@BytesWaiti:
  0009c	e0 ff ff ff	 DD	 -32			; ffffffe0H
  000a0	0c 00 00 00	 DD	 12			; 0000000cH
  000a4	00 00 00 00	 DD	 $LN3@BytesWaiti
$LN3@BytesWaiti:
  000a8	73		 DB	 115			; 00000073H
  000a9	74		 DB	 116			; 00000074H
  000aa	61		 DB	 97			; 00000061H
  000ab	74		 DB	 116			; 00000074H
  000ac	00		 DB	 0
?BytesWaiting@CSerialPort@@QAEKXZ ENDP			; CSerialPort::BytesWaiting
_TEXT	ENDS
PUBLIC	?WaitEvent@CSerialPort@@QAEHAAKAAU_OVERLAPPED@@@Z ; CSerialPort::WaitEvent
PUBLIC	?SetMask@CSerialPort@@QAEXK@Z			; CSerialPort::SetMask
PUBLIC	?GetMask@CSerialPort@@QAEXAAK@Z			; CSerialPort::GetMask
PUBLIC	??_C@_1FI@PGIBAFNH@?$AAC?$AAS?$AAe?$AAr?$AAi?$AAa?$AAl?$AAP?$AAo?$AAr?$AAt?$AA?3?$AA?3?$AAD?$AAa?$AAt?$AAa?$AAW?$AAa?$AAi?$AAt?$AAi?$AAn?$AAg?$AA?0?$AAm?$AA_?$AAh?$AAE?$AAv?$AAe?$AAn@ ; `string'
PUBLIC	?__LINE__Var@?1??DataWaiting@CSerialPort@@QAEHK@Z@4JA ; `CSerialPort::DataWaiting'::`2'::__LINE__Var
PUBLIC	??_C@_1EI@IJFPCJHF@?$AAC?$AAS?$AAe?$AAr?$AAi?$AAa?$AAl?$AAP?$AAo?$AAr?$AAt?$AA?3?$AA?3?$AAD?$AAa?$AAt?$AAa?$AAW?$AAa?$AAi?$AAt?$AAi?$AAn?$AAg?$AA?0?$AAI?$AAs?$AAO?$AAp?$AAe?$AAn?$AA?$CI@ ; `string'
PUBLIC	?DataWaiting@CSerialPort@@QAEHK@Z		; CSerialPort::DataWaiting
EXTRN	__imp__WaitForSingleObject@8:PROC
;	COMDAT ??_C@_1FI@PGIBAFNH@?$AAC?$AAS?$AAe?$AAr?$AAi?$AAa?$AAl?$AAP?$AAo?$AAr?$AAt?$AA?3?$AA?3?$AAD?$AAa?$AAt?$AAa?$AAW?$AAa?$AAi?$AAt?$AAi?$AAn?$AAg?$AA?0?$AAm?$AA_?$AAh?$AAE?$AAv?$AAe?$AAn@
CONST	SEGMENT
??_C@_1FI@PGIBAFNH@?$AAC?$AAS?$AAe?$AAr?$AAi?$AAa?$AAl?$AAP?$AAo?$AAr?$AAt?$AA?3?$AA?3?$AAD?$AAa?$AAt?$AAa?$AAW?$AAa?$AAi?$AAt?$AAi?$AAn?$AAg?$AA?0?$AAm?$AA_?$AAh?$AAE?$AAv?$AAe?$AAn@ DB 'C'
	DB	00H, 'S', 00H, 'e', 00H, 'r', 00H, 'i', 00H, 'a', 00H, 'l', 00H
	DB	'P', 00H, 'o', 00H, 'r', 00H, 't', 00H, ':', 00H, ':', 00H, 'D'
	DB	00H, 'a', 00H, 't', 00H, 'a', 00H, 'W', 00H, 'a', 00H, 'i', 00H
	DB	't', 00H, 'i', 00H, 'n', 00H, 'g', 00H, ',', 00H, 'm', 00H, '_'
	DB	00H, 'h', 00H, 'E', 00H, 'v', 00H, 'e', 00H, 'n', 00H, 't', 00H
	DB	' ', 00H, '=', 00H, '=', 00H, ' ', 00H, 'N', 00H, 'U', 00H, 'L'
	DB	00H, 'L', 00H, 0dH, 00H, 0aH, 00H, 00H, 00H	; `string'
CONST	ENDS
;	COMDAT ?__LINE__Var@?1??DataWaiting@CSerialPort@@QAEHK@Z@4JA
_DATA	SEGMENT
?__LINE__Var@?1??DataWaiting@CSerialPort@@QAEHK@Z@4JA DD 025cH ; `CSerialPort::DataWaiting'::`2'::__LINE__Var
_DATA	ENDS
;	COMDAT ??_C@_1EI@IJFPCJHF@?$AAC?$AAS?$AAe?$AAr?$AAi?$AAa?$AAl?$AAP?$AAo?$AAr?$AAt?$AA?3?$AA?3?$AAD?$AAa?$AAt?$AAa?$AAW?$AAa?$AAi?$AAt?$AAi?$AAn?$AAg?$AA?0?$AAI?$AAs?$AAO?$AAp?$AAe?$AAn?$AA?$CI@
CONST	SEGMENT
??_C@_1EI@IJFPCJHF@?$AAC?$AAS?$AAe?$AAr?$AAi?$AAa?$AAl?$AAP?$AAo?$AAr?$AAt?$AA?3?$AA?3?$AAD?$AAa?$AAt?$AAa?$AAW?$AAa?$AAi?$AAt?$AAi?$AAn?$AAg?$AA?0?$AAI?$AAs?$AAO?$AAp?$AAe?$AAn?$AA?$CI@ DB 'C'
	DB	00H, 'S', 00H, 'e', 00H, 'r', 00H, 'i', 00H, 'a', 00H, 'l', 00H
	DB	'P', 00H, 'o', 00H, 'r', 00H, 't', 00H, ':', 00H, ':', 00H, 'D'
	DB	00H, 'a', 00H, 't', 00H, 'a', 00H, 'W', 00H, 'a', 00H, 'i', 00H
	DB	't', 00H, 'i', 00H, 'n', 00H, 'g', 00H, ',', 00H, 'I', 00H, 's'
	DB	00H, 'O', 00H, 'p', 00H, 'e', 00H, 'n', 00H, '(', 00H, ')', 00H
	DB	0dH, 00H, 0aH, 00H, 00H, 00H			; `string'
; Function compile flags: /Odtp /RTCsu /ZI
CONST	ENDS
;	COMDAT ?DataWaiting@CSerialPort@@QAEHK@Z
_TEXT	SEGMENT
$T212128 = -308						; size = 8
$T212129 = -292						; size = 8
_dwBytesTransferred$211293 = -84			; size = 4
_dwEvent$ = -72						; size = 4
_bSuccess$ = -60					; size = 4
_o$ = -48						; size = 20
_dwOldMask$ = -20					; size = 4
_this$ = -8						; size = 4
_dwTimeout$ = 8						; size = 4
?DataWaiting@CSerialPort@@QAEHK@Z PROC			; CSerialPort::DataWaiting, COMDAT
; _this$ = ecx

; 604  : {

  00000	55		 push	 ebp
  00001	8b ec		 mov	 ebp, esp
  00003	81 ec 38 01 00
	00		 sub	 esp, 312		; 00000138H
  00009	53		 push	 ebx
  0000a	56		 push	 esi
  0000b	57		 push	 edi
  0000c	51		 push	 ecx
  0000d	8d bd c8 fe ff
	ff		 lea	 edi, DWORD PTR [ebp-312]
  00013	b9 4e 00 00 00	 mov	 ecx, 78			; 0000004eH
  00018	b8 cc cc cc cc	 mov	 eax, -858993460		; ccccccccH
  0001d	f3 ab		 rep stosd
  0001f	59		 pop	 ecx
  00020	89 4d f8	 mov	 DWORD PTR _this$[ebp], ecx

; 605  : //   ASSERT(IsOpen());
; 606  : //   ASSERT(m_hEvent);
; 607  : 	TRACE(_T("CSerialPort::DataWaiting,IsOpen()\r\n"));

  00023	68 00 00 00 00	 push	 OFFSET ??_C@_1EI@IJFPCJHF@?$AAC?$AAS?$AAe?$AAr?$AAi?$AAa?$AAl?$AAP?$AAo?$AAr?$AAt?$AA?3?$AA?3?$AAD?$AAa?$AAt?$AAa?$AAW?$AAa?$AAi?$AAt?$AAi?$AAn?$AAg?$AA?0?$AAI?$AAs?$AAO?$AAp?$AAe?$AAn?$AA?$CI@
  00028	a1 00 00 00 00	 mov	 eax, DWORD PTR ?__LINE__Var@?1??DataWaiting@CSerialPort@@QAEHK@Z@4JA
  0002d	83 c0 03	 add	 eax, 3
  00030	50		 push	 eax
  00031	68 00 00 00 00	 push	 OFFSET ??_C@_0DC@PACLAOLH@e?3?2cz?2vs?2dvicectrldlg_new_signal@
  00036	8d 8d cc fe ff
	ff		 lea	 ecx, DWORD PTR $T212128[ebp]
  0003c	e8 00 00 00 00	 call	 ??0CTraceFileAndLineInfo@ATL@@QAE@PBDH@Z ; ATL::CTraceFileAndLineInfo::CTraceFileAndLineInfo
  00041	50		 push	 eax
  00042	e8 00 00 00 00	 call	 ??RCTraceFileAndLineInfo@ATL@@QBAXPB_WZZ ; ATL::CTraceFileAndLineInfo::operator()
  00047	83 c4 08	 add	 esp, 8

; 608  : 	TRACE(_T("CSerialPort::DataWaiting,m_hEvent == NULL\r\n"));

  0004a	68 00 00 00 00	 push	 OFFSET ??_C@_1FI@PGIBAFNH@?$AAC?$AAS?$AAe?$AAr?$AAi?$AAa?$AAl?$AAP?$AAo?$AAr?$AAt?$AA?3?$AA?3?$AAD?$AAa?$AAt?$AAa?$AAW?$AAa?$AAi?$AAt?$AAi?$AAn?$AAg?$AA?0?$AAm?$AA_?$AAh?$AAE?$AAv?$AAe?$AAn@
  0004f	a1 00 00 00 00	 mov	 eax, DWORD PTR ?__LINE__Var@?1??DataWaiting@CSerialPort@@QAEHK@Z@4JA
  00054	83 c0 04	 add	 eax, 4
  00057	50		 push	 eax
  00058	68 00 00 00 00	 push	 OFFSET ??_C@_0DC@PACLAOLH@e?3?2cz?2vs?2dvicectrldlg_new_signal@
  0005d	8d 8d dc fe ff
	ff		 lea	 ecx, DWORD PTR $T212129[ebp]
  00063	e8 00 00 00 00	 call	 ??0CTraceFileAndLineInfo@ATL@@QAE@PBDH@Z ; ATL::CTraceFileAndLineInfo::CTraceFileAndLineInfo
  00068	50		 push	 eax
  00069	e8 00 00 00 00	 call	 ??RCTraceFileAndLineInfo@ATL@@QBAXPB_WZZ ; ATL::CTraceFileAndLineInfo::operator()
  0006e	83 c4 08	 add	 esp, 8

; 609  : 
; 610  :   //Setup to wait for incoming data
; 611  :   DWORD dwOldMask;
; 612  :   GetMask(dwOldMask);

  00071	8d 45 ec	 lea	 eax, DWORD PTR _dwOldMask$[ebp]
  00074	50		 push	 eax
  00075	8b 4d f8	 mov	 ecx, DWORD PTR _this$[ebp]
  00078	e8 00 00 00 00	 call	 ?GetMask@CSerialPort@@QAEXAAK@Z ; CSerialPort::GetMask

; 613  :   SetMask(EV_RXCHAR);

  0007d	6a 01		 push	 1
  0007f	8b 4d f8	 mov	 ecx, DWORD PTR _this$[ebp]
  00082	e8 00 00 00 00	 call	 ?SetMask@CSerialPort@@QAEXK@Z ; CSerialPort::SetMask

; 614  :    
; 615  :   //Setup the overlapped structure
; 616  :   OVERLAPPED o;
; 617  :   o.hEvent = m_hEvent;

  00087	8b 45 f8	 mov	 eax, DWORD PTR _this$[ebp]
  0008a	8b 48 0c	 mov	 ecx, DWORD PTR [eax+12]
  0008d	89 4d e0	 mov	 DWORD PTR _o$[ebp+16], ecx

; 618  : 
; 619  :   //Assume the worst;
; 620  :   BOOL bSuccess = FALSE;

  00090	c7 45 c4 00 00
	00 00		 mov	 DWORD PTR _bSuccess$[ebp], 0

; 621  : 
; 622  :   DWORD dwEvent;
; 623  :   bSuccess = WaitEvent(dwEvent, o);

  00097	8d 45 d0	 lea	 eax, DWORD PTR _o$[ebp]
  0009a	50		 push	 eax
  0009b	8d 4d b8	 lea	 ecx, DWORD PTR _dwEvent$[ebp]
  0009e	51		 push	 ecx
  0009f	8b 4d f8	 mov	 ecx, DWORD PTR _this$[ebp]
  000a2	e8 00 00 00 00	 call	 ?WaitEvent@CSerialPort@@QAEHAAKAAU_OVERLAPPED@@@Z ; CSerialPort::WaitEvent
  000a7	89 45 c4	 mov	 DWORD PTR _bSuccess$[ebp], eax

; 624  :   if (!bSuccess)

  000aa	83 7d c4 00	 cmp	 DWORD PTR _bSuccess$[ebp], 0
  000ae	75 34		 jne	 SHORT $LN2@DataWaitin

; 625  :   {
; 626  :     if (WaitForSingleObject(o.hEvent, dwTimeout) == WAIT_OBJECT_0)

  000b0	8b f4		 mov	 esi, esp
  000b2	8b 45 08	 mov	 eax, DWORD PTR _dwTimeout$[ebp]
  000b5	50		 push	 eax
  000b6	8b 4d e0	 mov	 ecx, DWORD PTR _o$[ebp+16]
  000b9	51		 push	 ecx
  000ba	ff 15 00 00 00
	00		 call	 DWORD PTR __imp__WaitForSingleObject@8
  000c0	3b f4		 cmp	 esi, esp
  000c2	e8 00 00 00 00	 call	 __RTC_CheckEsp
  000c7	85 c0		 test	 eax, eax
  000c9	75 19		 jne	 SHORT $LN2@DataWaitin

; 627  :     {
; 628  :       DWORD dwBytesTransferred;
; 629  :       GetOverlappedResult(o, dwBytesTransferred, FALSE);

  000cb	6a 00		 push	 0
  000cd	8d 45 ac	 lea	 eax, DWORD PTR _dwBytesTransferred$211293[ebp]
  000d0	50		 push	 eax
  000d1	8d 4d d0	 lea	 ecx, DWORD PTR _o$[ebp]
  000d4	51		 push	 ecx
  000d5	8b 4d f8	 mov	 ecx, DWORD PTR _this$[ebp]
  000d8	e8 00 00 00 00	 call	 ?GetOverlappedResult@CSerialPort@@QAE_NAAU_OVERLAPPED@@AAKH@Z ; CSerialPort::GetOverlappedResult

; 630  :       bSuccess = TRUE;

  000dd	c7 45 c4 01 00
	00 00		 mov	 DWORD PTR _bSuccess$[ebp], 1
$LN2@DataWaitin:

; 631  :     }
; 632  :   }
; 633  : 
; 634  :   //Reset the event mask
; 635  :   SetMask(dwOldMask);

  000e4	8b 45 ec	 mov	 eax, DWORD PTR _dwOldMask$[ebp]
  000e7	50		 push	 eax
  000e8	8b 4d f8	 mov	 ecx, DWORD PTR _this$[ebp]
  000eb	e8 00 00 00 00	 call	 ?SetMask@CSerialPort@@QAEXK@Z ; CSerialPort::SetMask

; 636  : 
; 637  :   return bSuccess;

  000f0	8b 45 c4	 mov	 eax, DWORD PTR _bSuccess$[ebp]

; 638  : }

  000f3	52		 push	 edx
  000f4	8b cd		 mov	 ecx, ebp
  000f6	50		 push	 eax
  000f7	8d 15 00 00 00
	00		 lea	 edx, DWORD PTR $LN10@DataWaitin
  000fd	e8 00 00 00 00	 call	 @_RTC_CheckStackVars@8
  00102	58		 pop	 eax
  00103	5a		 pop	 edx
  00104	5f		 pop	 edi
  00105	5e		 pop	 esi
  00106	5b		 pop	 ebx
  00107	81 c4 38 01 00
	00		 add	 esp, 312		; 00000138H
  0010d	3b ec		 cmp	 ebp, esp
  0010f	e8 00 00 00 00	 call	 __RTC_CheckEsp
  00114	8b e5		 mov	 esp, ebp
  00116	5d		 pop	 ebp
  00117	c2 04 00	 ret	 4
  0011a	8b ff		 npad	 2
$LN10@DataWaitin:
  0011c	04 00 00 00	 DD	 4
  00120	00 00 00 00	 DD	 $LN9@DataWaitin
$LN9@DataWaitin:
  00124	ec ff ff ff	 DD	 -20			; ffffffecH
  00128	04 00 00 00	 DD	 4
  0012c	00 00 00 00	 DD	 $LN5@DataWaitin
  00130	d0 ff ff ff	 DD	 -48			; ffffffd0H
  00134	14 00 00 00	 DD	 20			; 00000014H
  00138	00 00 00 00	 DD	 $LN6@DataWaitin
  0013c	b8 ff ff ff	 DD	 -72			; ffffffb8H
  00140	04 00 00 00	 DD	 4
  00144	00 00 00 00	 DD	 $LN7@DataWaitin
  00148	ac ff ff ff	 DD	 -84			; ffffffacH
  0014c	04 00 00 00	 DD	 4
  00150	00 00 00 00	 DD	 $LN8@DataWaitin
$LN8@DataWaitin:
  00154	64		 DB	 100			; 00000064H
  00155	77		 DB	 119			; 00000077H
  00156	42		 DB	 66			; 00000042H
  00157	79		 DB	 121			; 00000079H
  00158	74		 DB	 116			; 00000074H
  00159	65		 DB	 101			; 00000065H
  0015a	73		 DB	 115			; 00000073H
  0015b	54		 DB	 84			; 00000054H
  0015c	72		 DB	 114			; 00000072H
  0015d	61		 DB	 97			; 00000061H
  0015e	6e		 DB	 110			; 0000006eH
  0015f	73		 DB	 115			; 00000073H
  00160	66		 DB	 102			; 00000066H
  00161	65		 DB	 101			; 00000065H
  00162	72		 DB	 114			; 00000072H
  00163	72		 DB	 114			; 00000072H
  00164	65		 DB	 101			; 00000065H
  00165	64		 DB	 100			; 00000064H
  00166	00		 DB	 0
$LN7@DataWaitin:
  00167	64		 DB	 100			; 00000064H
  00168	77		 DB	 119			; 00000077H
  00169	45		 DB	 69			; 00000045H
  0016a	76		 DB	 118			; 00000076H
  0016b	65		 DB	 101			; 00000065H
  0016c	6e		 DB	 110			; 0000006eH
  0016d	74		 DB	 116			; 00000074H
  0016e	00		 DB	 0
$LN6@DataWaitin:
  0016f	6f		 DB	 111			; 0000006fH
  00170	00		 DB	 0
$LN5@DataWaitin:
  00171	64		 DB	 100			; 00000064H
  00172	77		 DB	 119			; 00000077H
  00173	4f		 DB	 79			; 0000004fH
  00174	6c		 DB	 108			; 0000006cH
  00175	64		 DB	 100			; 00000064H
  00176	4d		 DB	 77			; 0000004dH
  00177	61		 DB	 97			; 00000061H
  00178	73		 DB	 115			; 00000073H
  00179	6b		 DB	 107			; 0000006bH
  0017a	00		 DB	 0
?DataWaiting@CSerialPort@@QAEHK@Z ENDP			; CSerialPort::DataWaiting
_TEXT	ENDS
PUBLIC	??_C@_1DO@MICMACCA@?$AAF?$AAa?$AAi?$AAl?$AAe?$AAd?$AA?5?$AAi?$AAn?$AA?5?$AAc?$AAa?$AAl?$AAl?$AA?5?$AAt?$AAo?$AA?5?$AAW?$AAr?$AAi?$AAt?$AAe?$AAF?$AAi?$AAl?$AAe?$AAE?$AAx?$AA?6?$AA?$AA@ ; `string'
PUBLIC	?__LINE__Var@?1??WriteEx@CSerialPort@@QAEXPBXK@Z@4JA ; `CSerialPort::WriteEx'::`2'::__LINE__Var
PUBLIC	??_C@_1EA@IHGNHLGH@?$AAC?$AAS?$AAe?$AAr?$AAi?$AAa?$AAl?$AAP?$AAo?$AAr?$AAt?$AA?3?$AA?3?$AAW?$AAr?$AAi?$AAt?$AAe?$AAE?$AAx?$AA?0?$AAI?$AAs?$AAO?$AAp?$AAe?$AAn?$AA?$CI?$AA?$CJ?$AA?$AN?$AA?6?$AA?$AA@ ; `string'
PUBLIC	?WriteEx@CSerialPort@@QAEXPBXK@Z		; CSerialPort::WriteEx
EXTRN	__imp__WriteFileEx@20:PROC
EXTRN	_memset:PROC
EXTRN	??2@YAPAXIPBDH@Z:PROC				; operator new
;	COMDAT ??_C@_1DO@MICMACCA@?$AAF?$AAa?$AAi?$AAl?$AAe?$AAd?$AA?5?$AAi?$AAn?$AA?5?$AAc?$AAa?$AAl?$AAl?$AA?5?$AAt?$AAo?$AA?5?$AAW?$AAr?$AAi?$AAt?$AAe?$AAF?$AAi?$AAl?$AAe?$AAE?$AAx?$AA?6?$AA?$AA@
CONST	SEGMENT
??_C@_1DO@MICMACCA@?$AAF?$AAa?$AAi?$AAl?$AAe?$AAd?$AA?5?$AAi?$AAn?$AA?5?$AAc?$AAa?$AAl?$AAl?$AA?5?$AAt?$AAo?$AA?5?$AAW?$AAr?$AAi?$AAt?$AAe?$AAF?$AAi?$AAl?$AAe?$AAE?$AAx?$AA?6?$AA?$AA@ DB 'F'
	DB	00H, 'a', 00H, 'i', 00H, 'l', 00H, 'e', 00H, 'd', 00H, ' ', 00H
	DB	'i', 00H, 'n', 00H, ' ', 00H, 'c', 00H, 'a', 00H, 'l', 00H, 'l'
	DB	00H, ' ', 00H, 't', 00H, 'o', 00H, ' ', 00H, 'W', 00H, 'r', 00H
	DB	'i', 00H, 't', 00H, 'e', 00H, 'F', 00H, 'i', 00H, 'l', 00H, 'e'
	DB	00H, 'E', 00H, 'x', 00H, 0aH, 00H, 00H, 00H	; `string'
CONST	ENDS
;	COMDAT ?__LINE__Var@?1??WriteEx@CSerialPort@@QAEXPBXK@Z@4JA
_DATA	SEGMENT
?__LINE__Var@?1??WriteEx@CSerialPort@@QAEXPBXK@Z@4JA DD 0281H ; `CSerialPort::WriteEx'::`2'::__LINE__Var
_DATA	ENDS
;	COMDAT ??_C@_1EA@IHGNHLGH@?$AAC?$AAS?$AAe?$AAr?$AAi?$AAa?$AAl?$AAP?$AAo?$AAr?$AAt?$AA?3?$AA?3?$AAW?$AAr?$AAi?$AAt?$AAe?$AAE?$AAx?$AA?0?$AAI?$AAs?$AAO?$AAp?$AAe?$AAn?$AA?$CI?$AA?$CJ?$AA?$AN?$AA?6?$AA?$AA@
CONST	SEGMENT
??_C@_1EA@IHGNHLGH@?$AAC?$AAS?$AAe?$AAr?$AAi?$AAa?$AAl?$AAP?$AAo?$AAr?$AAt?$AA?3?$AA?3?$AAW?$AAr?$AAi?$AAt?$AAe?$AAE?$AAx?$AA?0?$AAI?$AAs?$AAO?$AAp?$AAe?$AAn?$AA?$CI?$AA?$CJ?$AA?$AN?$AA?6?$AA?$AA@ DB 'C'
	DB	00H, 'S', 00H, 'e', 00H, 'r', 00H, 'i', 00H, 'a', 00H, 'l', 00H
	DB	'P', 00H, 'o', 00H, 'r', 00H, 't', 00H, ':', 00H, ':', 00H, 'W'
	DB	00H, 'r', 00H, 'i', 00H, 't', 00H, 'e', 00H, 'E', 00H, 'x', 00H
	DB	',', 00H, 'I', 00H, 's', 00H, 'O', 00H, 'p', 00H, 'e', 00H, 'n'
	DB	00H, '(', 00H, ')', 00H, 0dH, 00H, 0aH, 00H, 00H, 00H ; `string'
; Function compile flags: /Odtp /RTCsu /ZI
CONST	ENDS
;	COMDAT ?WriteEx@CSerialPort@@QAEXPBXK@Z
_TEXT	SEGMENT
$T212138 = -268						; size = 8
$T212139 = -252						; size = 4
$T212140 = -240						; size = 4
$T212141 = -228						; size = 8
_pOverlapped$ = -20					; size = 4
_this$ = -8						; size = 4
_lpBuf$ = 8						; size = 4
_dwCount$ = 12						; size = 4
?WriteEx@CSerialPort@@QAEXPBXK@Z PROC			; CSerialPort::WriteEx, COMDAT
; _this$ = ecx

; 641  : {

  00000	55		 push	 ebp
  00001	8b ec		 mov	 ebp, esp
  00003	81 ec 10 01 00
	00		 sub	 esp, 272		; 00000110H
  00009	53		 push	 ebx
  0000a	56		 push	 esi
  0000b	57		 push	 edi
  0000c	51		 push	 ecx
  0000d	8d bd f0 fe ff
	ff		 lea	 edi, DWORD PTR [ebp-272]
  00013	b9 44 00 00 00	 mov	 ecx, 68			; 00000044H
  00018	b8 cc cc cc cc	 mov	 eax, -858993460		; ccccccccH
  0001d	f3 ab		 rep stosd
  0001f	59		 pop	 ecx
  00020	89 4d f8	 mov	 DWORD PTR _this$[ebp], ecx

; 642  : //   ASSERT(IsOpen());
; 643  : 	TRACE(_T("CSerialPort::WriteEx,IsOpen()\r\n"));

  00023	68 00 00 00 00	 push	 OFFSET ??_C@_1EA@IHGNHLGH@?$AAC?$AAS?$AAe?$AAr?$AAi?$AAa?$AAl?$AAP?$AAo?$AAr?$AAt?$AA?3?$AA?3?$AAW?$AAr?$AAi?$AAt?$AAe?$AAE?$AAx?$AA?0?$AAI?$AAs?$AAO?$AAp?$AAe?$AAn?$AA?$CI?$AA?$CJ?$AA?$AN?$AA?6?$AA?$AA@
  00028	a1 00 00 00 00	 mov	 eax, DWORD PTR ?__LINE__Var@?1??WriteEx@CSerialPort@@QAEXPBXK@Z@4JA
  0002d	83 c0 02	 add	 eax, 2
  00030	50		 push	 eax
  00031	68 00 00 00 00	 push	 OFFSET ??_C@_0DC@PACLAOLH@e?3?2cz?2vs?2dvicectrldlg_new_signal@
  00036	8d 8d f4 fe ff
	ff		 lea	 ecx, DWORD PTR $T212138[ebp]
  0003c	e8 00 00 00 00	 call	 ??0CTraceFileAndLineInfo@ATL@@QAE@PBDH@Z ; ATL::CTraceFileAndLineInfo::CTraceFileAndLineInfo
  00041	50		 push	 eax
  00042	e8 00 00 00 00	 call	 ??RCTraceFileAndLineInfo@ATL@@QBAXPB_WZZ ; ATL::CTraceFileAndLineInfo::operator()
  00047	83 c4 08	 add	 esp, 8

; 644  : 
; 645  :   OVERLAPPED* pOverlapped = new OVERLAPPED;

  0004a	a1 00 00 00 00	 mov	 eax, DWORD PTR ?__LINE__Var@?1??WriteEx@CSerialPort@@QAEXPBXK@Z@4JA
  0004f	83 c0 04	 add	 eax, 4
  00052	50		 push	 eax
  00053	68 00 00 00 00	 push	 OFFSET _THIS_FILE
  00058	6a 14		 push	 20			; 00000014H
  0005a	e8 00 00 00 00	 call	 ??2@YAPAXIPBDH@Z	; operator new
  0005f	83 c4 0c	 add	 esp, 12			; 0000000cH
  00062	89 85 04 ff ff
	ff		 mov	 DWORD PTR $T212139[ebp], eax
  00068	8b 8d 04 ff ff
	ff		 mov	 ecx, DWORD PTR $T212139[ebp]
  0006e	89 4d ec	 mov	 DWORD PTR _pOverlapped$[ebp], ecx

; 646  :   ZeroMemory(pOverlapped, sizeof(OVERLAPPED));

  00071	6a 14		 push	 20			; 00000014H
  00073	6a 00		 push	 0
  00075	8b 45 ec	 mov	 eax, DWORD PTR _pOverlapped$[ebp]
  00078	50		 push	 eax
  00079	e8 00 00 00 00	 call	 _memset
  0007e	83 c4 0c	 add	 esp, 12			; 0000000cH

; 647  :   pOverlapped->hEvent = (HANDLE) this;

  00081	8b 45 ec	 mov	 eax, DWORD PTR _pOverlapped$[ebp]
  00084	8b 4d f8	 mov	 ecx, DWORD PTR _this$[ebp]
  00087	89 48 10	 mov	 DWORD PTR [eax+16], ecx

; 648  :   if (!WriteFileEx(m_hComm, lpBuf, dwCount, pOverlapped, _OnCompletion))

  0008a	8b f4		 mov	 esi, esp
  0008c	68 00 00 00 00	 push	 OFFSET ?_OnCompletion@CSerialPort@@KGXKKPAU_OVERLAPPED@@@Z ; CSerialPort::_OnCompletion
  00091	8b 45 ec	 mov	 eax, DWORD PTR _pOverlapped$[ebp]
  00094	50		 push	 eax
  00095	8b 4d 0c	 mov	 ecx, DWORD PTR _dwCount$[ebp]
  00098	51		 push	 ecx
  00099	8b 55 08	 mov	 edx, DWORD PTR _lpBuf$[ebp]
  0009c	52		 push	 edx
  0009d	8b 45 f8	 mov	 eax, DWORD PTR _this$[ebp]
  000a0	8b 48 04	 mov	 ecx, DWORD PTR [eax+4]
  000a3	51		 push	 ecx
  000a4	ff 15 00 00 00
	00		 call	 DWORD PTR __imp__WriteFileEx@20
  000aa	3b f4		 cmp	 esi, esp
  000ac	e8 00 00 00 00	 call	 __RTC_CheckEsp
  000b1	85 c0		 test	 eax, eax
  000b3	75 49		 jne	 SHORT $LN2@WriteEx

; 649  :   {
; 650  :     delete pOverlapped;

  000b5	8b 45 ec	 mov	 eax, DWORD PTR _pOverlapped$[ebp]
  000b8	89 85 10 ff ff
	ff		 mov	 DWORD PTR $T212140[ebp], eax
  000be	8b 8d 10 ff ff
	ff		 mov	 ecx, DWORD PTR $T212140[ebp]
  000c4	51		 push	 ecx
  000c5	e8 00 00 00 00	 call	 ??3@YAXPAX@Z		; operator delete
  000ca	83 c4 04	 add	 esp, 4

; 651  :     TRACE(_T("Failed in call to WriteFileEx\n"));

  000cd	68 00 00 00 00	 push	 OFFSET ??_C@_1DO@MICMACCA@?$AAF?$AAa?$AAi?$AAl?$AAe?$AAd?$AA?5?$AAi?$AAn?$AA?5?$AAc?$AAa?$AAl?$AAl?$AA?5?$AAt?$AAo?$AA?5?$AAW?$AAr?$AAi?$AAt?$AAe?$AAF?$AAi?$AAl?$AAe?$AAE?$AAx?$AA?6?$AA?$AA@
  000d2	a1 00 00 00 00	 mov	 eax, DWORD PTR ?__LINE__Var@?1??WriteEx@CSerialPort@@QAEXPBXK@Z@4JA
  000d7	83 c0 0a	 add	 eax, 10			; 0000000aH
  000da	50		 push	 eax
  000db	68 00 00 00 00	 push	 OFFSET ??_C@_0DC@PACLAOLH@e?3?2cz?2vs?2dvicectrldlg_new_signal@
  000e0	8d 8d 1c ff ff
	ff		 lea	 ecx, DWORD PTR $T212141[ebp]
  000e6	e8 00 00 00 00	 call	 ??0CTraceFileAndLineInfo@ATL@@QAE@PBDH@Z ; ATL::CTraceFileAndLineInfo::CTraceFileAndLineInfo
  000eb	50		 push	 eax
  000ec	e8 00 00 00 00	 call	 ??RCTraceFileAndLineInfo@ATL@@QBAXPB_WZZ ; ATL::CTraceFileAndLineInfo::operator()
  000f1	83 c4 08	 add	 esp, 8

; 652  :     AfxThrowSerialException();

  000f4	6a 00		 push	 0
  000f6	e8 00 00 00 00	 call	 ?AfxThrowSerialException@@YAXK@Z ; AfxThrowSerialException
  000fb	83 c4 04	 add	 esp, 4
$LN2@WriteEx:

; 653  :   }
; 654  : }

  000fe	5f		 pop	 edi
  000ff	5e		 pop	 esi
  00100	5b		 pop	 ebx
  00101	81 c4 10 01 00
	00		 add	 esp, 272		; 00000110H
  00107	3b ec		 cmp	 ebp, esp
  00109	e8 00 00 00 00	 call	 __RTC_CheckEsp
  0010e	8b e5		 mov	 esp, ebp
  00110	5d		 pop	 ebp
  00111	c2 08 00	 ret	 8
?WriteEx@CSerialPort@@QAEXPBXK@Z ENDP			; CSerialPort::WriteEx
_TEXT	ENDS
PUBLIC	??_C@_1DM@KLGDPLEP@?$AAF?$AAa?$AAi?$AAl?$AAe?$AAd?$AA?5?$AAi?$AAn?$AA?5?$AAc?$AAa?$AAl?$AAl?$AA?5?$AAt?$AAo?$AA?5?$AAR?$AAe?$AAa?$AAd?$AAF?$AAi?$AAl?$AAe?$AAE?$AAx?$AA?6?$AA?$AA@ ; `string'
PUBLIC	?__LINE__Var@?1??ReadEx@CSerialPort@@QAEXPAXK@Z@4JA ; `CSerialPort::ReadEx'::`2'::__LINE__Var
PUBLIC	??_C@_1DO@LELFIHCM@?$AAC?$AAS?$AAe?$AAr?$AAi?$AAa?$AAl?$AAP?$AAo?$AAr?$AAt?$AA?3?$AA?3?$AAR?$AAe?$AAa?$AAd?$AAE?$AAx?$AA?0?$AAI?$AAs?$AAO?$AAp?$AAe?$AAn?$AA?$CI?$AA?$CJ?$AA?$AN?$AA?6?$AA?$AA@ ; `string'
PUBLIC	?ReadEx@CSerialPort@@QAEXPAXK@Z			; CSerialPort::ReadEx
EXTRN	__imp__ReadFileEx@20:PROC
;	COMDAT ??_C@_1DM@KLGDPLEP@?$AAF?$AAa?$AAi?$AAl?$AAe?$AAd?$AA?5?$AAi?$AAn?$AA?5?$AAc?$AAa?$AAl?$AAl?$AA?5?$AAt?$AAo?$AA?5?$AAR?$AAe?$AAa?$AAd?$AAF?$AAi?$AAl?$AAe?$AAE?$AAx?$AA?6?$AA?$AA@
CONST	SEGMENT
??_C@_1DM@KLGDPLEP@?$AAF?$AAa?$AAi?$AAl?$AAe?$AAd?$AA?5?$AAi?$AAn?$AA?5?$AAc?$AAa?$AAl?$AAl?$AA?5?$AAt?$AAo?$AA?5?$AAR?$AAe?$AAa?$AAd?$AAF?$AAi?$AAl?$AAe?$AAE?$AAx?$AA?6?$AA?$AA@ DB 'F'
	DB	00H, 'a', 00H, 'i', 00H, 'l', 00H, 'e', 00H, 'd', 00H, ' ', 00H
	DB	'i', 00H, 'n', 00H, ' ', 00H, 'c', 00H, 'a', 00H, 'l', 00H, 'l'
	DB	00H, ' ', 00H, 't', 00H, 'o', 00H, ' ', 00H, 'R', 00H, 'e', 00H
	DB	'a', 00H, 'd', 00H, 'F', 00H, 'i', 00H, 'l', 00H, 'e', 00H, 'E'
	DB	00H, 'x', 00H, 0aH, 00H, 00H, 00H		; `string'
CONST	ENDS
;	COMDAT ?__LINE__Var@?1??ReadEx@CSerialPort@@QAEXPAXK@Z@4JA
_DATA	SEGMENT
?__LINE__Var@?1??ReadEx@CSerialPort@@QAEXPAXK@Z@4JA DD 0291H ; `CSerialPort::ReadEx'::`2'::__LINE__Var
_DATA	ENDS
;	COMDAT ??_C@_1DO@LELFIHCM@?$AAC?$AAS?$AAe?$AAr?$AAi?$AAa?$AAl?$AAP?$AAo?$AAr?$AAt?$AA?3?$AA?3?$AAR?$AAe?$AAa?$AAd?$AAE?$AAx?$AA?0?$AAI?$AAs?$AAO?$AAp?$AAe?$AAn?$AA?$CI?$AA?$CJ?$AA?$AN?$AA?6?$AA?$AA@
CONST	SEGMENT
??_C@_1DO@LELFIHCM@?$AAC?$AAS?$AAe?$AAr?$AAi?$AAa?$AAl?$AAP?$AAo?$AAr?$AAt?$AA?3?$AA?3?$AAR?$AAe?$AAa?$AAd?$AAE?$AAx?$AA?0?$AAI?$AAs?$AAO?$AAp?$AAe?$AAn?$AA?$CI?$AA?$CJ?$AA?$AN?$AA?6?$AA?$AA@ DB 'C'
	DB	00H, 'S', 00H, 'e', 00H, 'r', 00H, 'i', 00H, 'a', 00H, 'l', 00H
	DB	'P', 00H, 'o', 00H, 'r', 00H, 't', 00H, ':', 00H, ':', 00H, 'R'
	DB	00H, 'e', 00H, 'a', 00H, 'd', 00H, 'E', 00H, 'x', 00H, ',', 00H
	DB	'I', 00H, 's', 00H, 'O', 00H, 'p', 00H, 'e', 00H, 'n', 00H, '('
	DB	00H, ')', 00H, 0dH, 00H, 0aH, 00H, 00H, 00H	; `string'
; Function compile flags: /Odtp /RTCsu /ZI
CONST	ENDS
;	COMDAT ?ReadEx@CSerialPort@@QAEXPAXK@Z
_TEXT	SEGMENT
$T212144 = -268						; size = 8
$T212145 = -252						; size = 4
$T212146 = -240						; size = 4
$T212147 = -228						; size = 8
_pOverlapped$ = -20					; size = 4
_this$ = -8						; size = 4
_lpBuf$ = 8						; size = 4
_dwCount$ = 12						; size = 4
?ReadEx@CSerialPort@@QAEXPAXK@Z PROC			; CSerialPort::ReadEx, COMDAT
; _this$ = ecx

; 657  : {

  00000	55		 push	 ebp
  00001	8b ec		 mov	 ebp, esp
  00003	81 ec 10 01 00
	00		 sub	 esp, 272		; 00000110H
  00009	53		 push	 ebx
  0000a	56		 push	 esi
  0000b	57		 push	 edi
  0000c	51		 push	 ecx
  0000d	8d bd f0 fe ff
	ff		 lea	 edi, DWORD PTR [ebp-272]
  00013	b9 44 00 00 00	 mov	 ecx, 68			; 00000044H
  00018	b8 cc cc cc cc	 mov	 eax, -858993460		; ccccccccH
  0001d	f3 ab		 rep stosd
  0001f	59		 pop	 ecx
  00020	89 4d f8	 mov	 DWORD PTR _this$[ebp], ecx

; 658  : //   ASSERT(IsOpen());
; 659  : 	TRACE(_T("CSerialPort::ReadEx,IsOpen()\r\n"));

  00023	68 00 00 00 00	 push	 OFFSET ??_C@_1DO@LELFIHCM@?$AAC?$AAS?$AAe?$AAr?$AAi?$AAa?$AAl?$AAP?$AAo?$AAr?$AAt?$AA?3?$AA?3?$AAR?$AAe?$AAa?$AAd?$AAE?$AAx?$AA?0?$AAI?$AAs?$AAO?$AAp?$AAe?$AAn?$AA?$CI?$AA?$CJ?$AA?$AN?$AA?6?$AA?$AA@
  00028	a1 00 00 00 00	 mov	 eax, DWORD PTR ?__LINE__Var@?1??ReadEx@CSerialPort@@QAEXPAXK@Z@4JA
  0002d	83 c0 02	 add	 eax, 2
  00030	50		 push	 eax
  00031	68 00 00 00 00	 push	 OFFSET ??_C@_0DC@PACLAOLH@e?3?2cz?2vs?2dvicectrldlg_new_signal@
  00036	8d 8d f4 fe ff
	ff		 lea	 ecx, DWORD PTR $T212144[ebp]
  0003c	e8 00 00 00 00	 call	 ??0CTraceFileAndLineInfo@ATL@@QAE@PBDH@Z ; ATL::CTraceFileAndLineInfo::CTraceFileAndLineInfo
  00041	50		 push	 eax
  00042	e8 00 00 00 00	 call	 ??RCTraceFileAndLineInfo@ATL@@QBAXPB_WZZ ; ATL::CTraceFileAndLineInfo::operator()
  00047	83 c4 08	 add	 esp, 8

; 660  : 
; 661  :   OVERLAPPED* pOverlapped = new OVERLAPPED;

  0004a	a1 00 00 00 00	 mov	 eax, DWORD PTR ?__LINE__Var@?1??ReadEx@CSerialPort@@QAEXPAXK@Z@4JA
  0004f	83 c0 04	 add	 eax, 4
  00052	50		 push	 eax
  00053	68 00 00 00 00	 push	 OFFSET _THIS_FILE
  00058	6a 14		 push	 20			; 00000014H
  0005a	e8 00 00 00 00	 call	 ??2@YAPAXIPBDH@Z	; operator new
  0005f	83 c4 0c	 add	 esp, 12			; 0000000cH
  00062	89 85 04 ff ff
	ff		 mov	 DWORD PTR $T212145[ebp], eax
  00068	8b 8d 04 ff ff
	ff		 mov	 ecx, DWORD PTR $T212145[ebp]
  0006e	89 4d ec	 mov	 DWORD PTR _pOverlapped$[ebp], ecx

; 662  :   ZeroMemory(pOverlapped, sizeof(OVERLAPPED));

  00071	6a 14		 push	 20			; 00000014H
  00073	6a 00		 push	 0
  00075	8b 45 ec	 mov	 eax, DWORD PTR _pOverlapped$[ebp]
  00078	50		 push	 eax
  00079	e8 00 00 00 00	 call	 _memset
  0007e	83 c4 0c	 add	 esp, 12			; 0000000cH

; 663  :   pOverlapped->hEvent = (HANDLE) this;

  00081	8b 45 ec	 mov	 eax, DWORD PTR _pOverlapped$[ebp]
  00084	8b 4d f8	 mov	 ecx, DWORD PTR _this$[ebp]
  00087	89 48 10	 mov	 DWORD PTR [eax+16], ecx

; 664  :   if (!ReadFileEx(m_hComm, lpBuf, dwCount, pOverlapped, _OnCompletion))

  0008a	8b f4		 mov	 esi, esp
  0008c	68 00 00 00 00	 push	 OFFSET ?_OnCompletion@CSerialPort@@KGXKKPAU_OVERLAPPED@@@Z ; CSerialPort::_OnCompletion
  00091	8b 45 ec	 mov	 eax, DWORD PTR _pOverlapped$[ebp]
  00094	50		 push	 eax
  00095	8b 4d 0c	 mov	 ecx, DWORD PTR _dwCount$[ebp]
  00098	51		 push	 ecx
  00099	8b 55 08	 mov	 edx, DWORD PTR _lpBuf$[ebp]
  0009c	52		 push	 edx
  0009d	8b 45 f8	 mov	 eax, DWORD PTR _this$[ebp]
  000a0	8b 48 04	 mov	 ecx, DWORD PTR [eax+4]
  000a3	51		 push	 ecx
  000a4	ff 15 00 00 00
	00		 call	 DWORD PTR __imp__ReadFileEx@20
  000aa	3b f4		 cmp	 esi, esp
  000ac	e8 00 00 00 00	 call	 __RTC_CheckEsp
  000b1	85 c0		 test	 eax, eax
  000b3	75 49		 jne	 SHORT $LN2@ReadEx

; 665  :   {
; 666  :     delete pOverlapped;

  000b5	8b 45 ec	 mov	 eax, DWORD PTR _pOverlapped$[ebp]
  000b8	89 85 10 ff ff
	ff		 mov	 DWORD PTR $T212146[ebp], eax
  000be	8b 8d 10 ff ff
	ff		 mov	 ecx, DWORD PTR $T212146[ebp]
  000c4	51		 push	 ecx
  000c5	e8 00 00 00 00	 call	 ??3@YAXPAX@Z		; operator delete
  000ca	83 c4 04	 add	 esp, 4

; 667  :     TRACE(_T("Failed in call to ReadFileEx\n"));

  000cd	68 00 00 00 00	 push	 OFFSET ??_C@_1DM@KLGDPLEP@?$AAF?$AAa?$AAi?$AAl?$AAe?$AAd?$AA?5?$AAi?$AAn?$AA?5?$AAc?$AAa?$AAl?$AAl?$AA?5?$AAt?$AAo?$AA?5?$AAR?$AAe?$AAa?$AAd?$AAF?$AAi?$AAl?$AAe?$AAE?$AAx?$AA?6?$AA?$AA@
  000d2	a1 00 00 00 00	 mov	 eax, DWORD PTR ?__LINE__Var@?1??ReadEx@CSerialPort@@QAEXPAXK@Z@4JA
  000d7	83 c0 0a	 add	 eax, 10			; 0000000aH
  000da	50		 push	 eax
  000db	68 00 00 00 00	 push	 OFFSET ??_C@_0DC@PACLAOLH@e?3?2cz?2vs?2dvicectrldlg_new_signal@
  000e0	8d 8d 1c ff ff
	ff		 lea	 ecx, DWORD PTR $T212147[ebp]
  000e6	e8 00 00 00 00	 call	 ??0CTraceFileAndLineInfo@ATL@@QAE@PBDH@Z ; ATL::CTraceFileAndLineInfo::CTraceFileAndLineInfo
  000eb	50		 push	 eax
  000ec	e8 00 00 00 00	 call	 ??RCTraceFileAndLineInfo@ATL@@QBAXPB_WZZ ; ATL::CTraceFileAndLineInfo::operator()
  000f1	83 c4 08	 add	 esp, 8

; 668  :     AfxThrowSerialException();

  000f4	6a 00		 push	 0
  000f6	e8 00 00 00 00	 call	 ?AfxThrowSerialException@@YAXK@Z ; AfxThrowSerialException
  000fb	83 c4 04	 add	 esp, 4
$LN2@ReadEx:

; 669  :   }
; 670  : }

  000fe	5f		 pop	 edi
  000ff	5e		 pop	 esi
  00100	5b		 pop	 ebx
  00101	81 c4 10 01 00
	00		 add	 esp, 272		; 00000110H
  00107	3b ec		 cmp	 ebp, esp
  00109	e8 00 00 00 00	 call	 __RTC_CheckEsp
  0010e	8b e5		 mov	 esp, ebp
  00110	5d		 pop	 ebp
  00111	c2 08 00	 ret	 8
?ReadEx@CSerialPort@@QAEXPAXK@Z ENDP			; CSerialPort::ReadEx
_TEXT	ENDS
PUBLIC	??_C@_1EI@LFHKFODP@?$AAF?$AAa?$AAi?$AAl?$AAe?$AAd?$AA?5?$AAi?$AAn?$AA?5?$AAc?$AAa?$AAl?$AAl?$AA?5?$AAt?$AAo?$AA?5?$AAT?$AAr?$AAa?$AAn?$AAs?$AAm?$AAi?$AAt?$AAC?$AAo?$AAm?$AAm?$AAC?$AAh@ ; `string'
PUBLIC	?__LINE__Var@?1??TransmitChar@CSerialPort@@QAEXD@Z@4JA ; `CSerialPort::TransmitChar'::`2'::__LINE__Var
PUBLIC	??_C@_1EK@FINLNIPK@?$AAC?$AAS?$AAe?$AAr?$AAi?$AAa?$AAl?$AAP?$AAo?$AAr?$AAt?$AA?3?$AA?3?$AAT?$AAr?$AAa?$AAn?$AAs?$AAm?$AAi?$AAt?$AAC?$AAh?$AAa?$AAr?$AA?0?$AAI?$AAs?$AAO?$AAp?$AAe?$AAn@ ; `string'
PUBLIC	?TransmitChar@CSerialPort@@QAEXD@Z		; CSerialPort::TransmitChar
EXTRN	__imp__TransmitCommChar@8:PROC
;	COMDAT ??_C@_1EI@LFHKFODP@?$AAF?$AAa?$AAi?$AAl?$AAe?$AAd?$AA?5?$AAi?$AAn?$AA?5?$AAc?$AAa?$AAl?$AAl?$AA?5?$AAt?$AAo?$AA?5?$AAT?$AAr?$AAa?$AAn?$AAs?$AAm?$AAi?$AAt?$AAC?$AAo?$AAm?$AAm?$AAC?$AAh@
CONST	SEGMENT
??_C@_1EI@LFHKFODP@?$AAF?$AAa?$AAi?$AAl?$AAe?$AAd?$AA?5?$AAi?$AAn?$AA?5?$AAc?$AAa?$AAl?$AAl?$AA?5?$AAt?$AAo?$AA?5?$AAT?$AAr?$AAa?$AAn?$AAs?$AAm?$AAi?$AAt?$AAC?$AAo?$AAm?$AAm?$AAC?$AAh@ DB 'F'
	DB	00H, 'a', 00H, 'i', 00H, 'l', 00H, 'e', 00H, 'd', 00H, ' ', 00H
	DB	'i', 00H, 'n', 00H, ' ', 00H, 'c', 00H, 'a', 00H, 'l', 00H, 'l'
	DB	00H, ' ', 00H, 't', 00H, 'o', 00H, ' ', 00H, 'T', 00H, 'r', 00H
	DB	'a', 00H, 'n', 00H, 's', 00H, 'm', 00H, 'i', 00H, 't', 00H, 'C'
	DB	00H, 'o', 00H, 'm', 00H, 'm', 00H, 'C', 00H, 'h', 00H, 'a', 00H
	DB	'r', 00H, 0aH, 00H, 00H, 00H			; `string'
CONST	ENDS
;	COMDAT ?__LINE__Var@?1??TransmitChar@CSerialPort@@QAEXD@Z@4JA
_DATA	SEGMENT
?__LINE__Var@?1??TransmitChar@CSerialPort@@QAEXD@Z@4JA DD 02a1H ; `CSerialPort::TransmitChar'::`2'::__LINE__Var
_DATA	ENDS
;	COMDAT ??_C@_1EK@FINLNIPK@?$AAC?$AAS?$AAe?$AAr?$AAi?$AAa?$AAl?$AAP?$AAo?$AAr?$AAt?$AA?3?$AA?3?$AAT?$AAr?$AAa?$AAn?$AAs?$AAm?$AAi?$AAt?$AAC?$AAh?$AAa?$AAr?$AA?0?$AAI?$AAs?$AAO?$AAp?$AAe?$AAn@
CONST	SEGMENT
??_C@_1EK@FINLNIPK@?$AAC?$AAS?$AAe?$AAr?$AAi?$AAa?$AAl?$AAP?$AAo?$AAr?$AAt?$AA?3?$AA?3?$AAT?$AAr?$AAa?$AAn?$AAs?$AAm?$AAi?$AAt?$AAC?$AAh?$AAa?$AAr?$AA?0?$AAI?$AAs?$AAO?$AAp?$AAe?$AAn@ DB 'C'
	DB	00H, 'S', 00H, 'e', 00H, 'r', 00H, 'i', 00H, 'a', 00H, 'l', 00H
	DB	'P', 00H, 'o', 00H, 'r', 00H, 't', 00H, ':', 00H, ':', 00H, 'T'
	DB	00H, 'r', 00H, 'a', 00H, 'n', 00H, 's', 00H, 'm', 00H, 'i', 00H
	DB	't', 00H, 'C', 00H, 'h', 00H, 'a', 00H, 'r', 00H, ',', 00H, 'I'
	DB	00H, 's', 00H, 'O', 00H, 'p', 00H, 'e', 00H, 'n', 00H, '(', 00H
	DB	')', 00H, 0dH, 00H, 0aH, 00H, 00H, 00H	; `string'
; Function compile flags: /Odtp /RTCsu /ZI
CONST	ENDS
;	COMDAT ?TransmitChar@CSerialPort@@QAEXD@Z
_TEXT	SEGMENT
$T212150 = -232						; size = 8
$T212151 = -216						; size = 8
_this$ = -8						; size = 4
_cChar$ = 8						; size = 1
?TransmitChar@CSerialPort@@QAEXD@Z PROC			; CSerialPort::TransmitChar, COMDAT
; _this$ = ecx

; 673  : {

  00000	55		 push	 ebp
  00001	8b ec		 mov	 ebp, esp
  00003	81 ec ec 00 00
	00		 sub	 esp, 236		; 000000ecH
  00009	53		 push	 ebx
  0000a	56		 push	 esi
  0000b	57		 push	 edi
  0000c	51		 push	 ecx
  0000d	8d bd 14 ff ff
	ff		 lea	 edi, DWORD PTR [ebp-236]
  00013	b9 3b 00 00 00	 mov	 ecx, 59			; 0000003bH
  00018	b8 cc cc cc cc	 mov	 eax, -858993460		; ccccccccH
  0001d	f3 ab		 rep stosd
  0001f	59		 pop	 ecx
  00020	89 4d f8	 mov	 DWORD PTR _this$[ebp], ecx

; 674  : //   ASSERT(IsOpen());
; 675  : 	TRACE(_T("CSerialPort::TransmitChar,IsOpen()\r\n"));

  00023	68 00 00 00 00	 push	 OFFSET ??_C@_1EK@FINLNIPK@?$AAC?$AAS?$AAe?$AAr?$AAi?$AAa?$AAl?$AAP?$AAo?$AAr?$AAt?$AA?3?$AA?3?$AAT?$AAr?$AAa?$AAn?$AAs?$AAm?$AAi?$AAt?$AAC?$AAh?$AAa?$AAr?$AA?0?$AAI?$AAs?$AAO?$AAp?$AAe?$AAn@
  00028	a1 00 00 00 00	 mov	 eax, DWORD PTR ?__LINE__Var@?1??TransmitChar@CSerialPort@@QAEXD@Z@4JA
  0002d	83 c0 02	 add	 eax, 2
  00030	50		 push	 eax
  00031	68 00 00 00 00	 push	 OFFSET ??_C@_0DC@PACLAOLH@e?3?2cz?2vs?2dvicectrldlg_new_signal@
  00036	8d 8d 18 ff ff
	ff		 lea	 ecx, DWORD PTR $T212150[ebp]
  0003c	e8 00 00 00 00	 call	 ??0CTraceFileAndLineInfo@ATL@@QAE@PBDH@Z ; ATL::CTraceFileAndLineInfo::CTraceFileAndLineInfo
  00041	50		 push	 eax
  00042	e8 00 00 00 00	 call	 ??RCTraceFileAndLineInfo@ATL@@QBAXPB_WZZ ; ATL::CTraceFileAndLineInfo::operator()
  00047	83 c4 08	 add	 esp, 8

; 676  : 
; 677  :   if (!TransmitCommChar(m_hComm, cChar))

  0004a	8b f4		 mov	 esi, esp
  0004c	0f b6 45 08	 movzx	 eax, BYTE PTR _cChar$[ebp]
  00050	50		 push	 eax
  00051	8b 4d f8	 mov	 ecx, DWORD PTR _this$[ebp]
  00054	8b 51 04	 mov	 edx, DWORD PTR [ecx+4]
  00057	52		 push	 edx
  00058	ff 15 00 00 00
	00		 call	 DWORD PTR __imp__TransmitCommChar@8
  0005e	3b f4		 cmp	 esi, esp
  00060	e8 00 00 00 00	 call	 __RTC_CheckEsp
  00065	85 c0		 test	 eax, eax
  00067	75 31		 jne	 SHORT $LN2@TransmitCh

; 678  :   {
; 679  :     TRACE(_T("Failed in call to TransmitCommChar\n"));

  00069	68 00 00 00 00	 push	 OFFSET ??_C@_1EI@LFHKFODP@?$AAF?$AAa?$AAi?$AAl?$AAe?$AAd?$AA?5?$AAi?$AAn?$AA?5?$AAc?$AAa?$AAl?$AAl?$AA?5?$AAt?$AAo?$AA?5?$AAT?$AAr?$AAa?$AAn?$AAs?$AAm?$AAi?$AAt?$AAC?$AAo?$AAm?$AAm?$AAC?$AAh@
  0006e	a1 00 00 00 00	 mov	 eax, DWORD PTR ?__LINE__Var@?1??TransmitChar@CSerialPort@@QAEXD@Z@4JA
  00073	83 c0 06	 add	 eax, 6
  00076	50		 push	 eax
  00077	68 00 00 00 00	 push	 OFFSET ??_C@_0DC@PACLAOLH@e?3?2cz?2vs?2dvicectrldlg_new_signal@
  0007c	8d 8d 28 ff ff
	ff		 lea	 ecx, DWORD PTR $T212151[ebp]
  00082	e8 00 00 00 00	 call	 ??0CTraceFileAndLineInfo@ATL@@QAE@PBDH@Z ; ATL::CTraceFileAndLineInfo::CTraceFileAndLineInfo
  00087	50		 push	 eax
  00088	e8 00 00 00 00	 call	 ??RCTraceFileAndLineInfo@ATL@@QBAXPB_WZZ ; ATL::CTraceFileAndLineInfo::operator()
  0008d	83 c4 08	 add	 esp, 8

; 680  :     AfxThrowSerialException();

  00090	6a 00		 push	 0
  00092	e8 00 00 00 00	 call	 ?AfxThrowSerialException@@YAXK@Z ; AfxThrowSerialException
  00097	83 c4 04	 add	 esp, 4
$LN2@TransmitCh:

; 681  :   }
; 682  : }

  0009a	5f		 pop	 edi
  0009b	5e		 pop	 esi
  0009c	5b		 pop	 ebx
  0009d	81 c4 ec 00 00
	00		 add	 esp, 236		; 000000ecH
  000a3	3b ec		 cmp	 ebp, esp
  000a5	e8 00 00 00 00	 call	 __RTC_CheckEsp
  000aa	8b e5		 mov	 esp, ebp
  000ac	5d		 pop	 ebp
  000ad	c2 04 00	 ret	 4
?TransmitChar@CSerialPort@@QAEXD@Z ENDP			; CSerialPort::TransmitChar
_TEXT	ENDS
PUBLIC	??_C@_1EC@GJOODHBK@?$AAF?$AAa?$AAi?$AAl?$AAe?$AAd?$AA?5?$AAi?$AAn?$AA?5?$AAc?$AAa?$AAl?$AAl?$AA?5?$AAt?$AAo?$AA?5?$AAG?$AAe?$AAt?$AAC?$AAo?$AAm?$AAm?$AAC?$AAo?$AAn?$AAf?$AAi?$AAg?$AA?6@ ; `string'
PUBLIC	?__LINE__Var@?1??GetConfig@CSerialPort@@QAEXAAU_COMMCONFIG@@@Z@4JA ; `CSerialPort::GetConfig'::`2'::__LINE__Var
PUBLIC	??_C@_1EE@IJGMFJPG@?$AAC?$AAS?$AAe?$AAr?$AAi?$AAa?$AAl?$AAP?$AAo?$AAr?$AAt?$AA?3?$AA?3?$AAG?$AAe?$AAt?$AAC?$AAo?$AAn?$AAf?$AAi?$AAg?$AA?0?$AAI?$AAs?$AAO?$AAp?$AAe?$AAn?$AA?$CI?$AA?$CJ?$AA?$AN@ ; `string'
PUBLIC	?GetConfig@CSerialPort@@QAEXAAU_COMMCONFIG@@@Z	; CSerialPort::GetConfig
EXTRN	__imp__GetCommConfig@12:PROC
;	COMDAT ??_C@_1EC@GJOODHBK@?$AAF?$AAa?$AAi?$AAl?$AAe?$AAd?$AA?5?$AAi?$AAn?$AA?5?$AAc?$AAa?$AAl?$AAl?$AA?5?$AAt?$AAo?$AA?5?$AAG?$AAe?$AAt?$AAC?$AAo?$AAm?$AAm?$AAC?$AAo?$AAn?$AAf?$AAi?$AAg?$AA?6@
CONST	SEGMENT
??_C@_1EC@GJOODHBK@?$AAF?$AAa?$AAi?$AAl?$AAe?$AAd?$AA?5?$AAi?$AAn?$AA?5?$AAc?$AAa?$AAl?$AAl?$AA?5?$AAt?$AAo?$AA?5?$AAG?$AAe?$AAt?$AAC?$AAo?$AAm?$AAm?$AAC?$AAo?$AAn?$AAf?$AAi?$AAg?$AA?6@ DB 'F'
	DB	00H, 'a', 00H, 'i', 00H, 'l', 00H, 'e', 00H, 'd', 00H, ' ', 00H
	DB	'i', 00H, 'n', 00H, ' ', 00H, 'c', 00H, 'a', 00H, 'l', 00H, 'l'
	DB	00H, ' ', 00H, 't', 00H, 'o', 00H, ' ', 00H, 'G', 00H, 'e', 00H
	DB	't', 00H, 'C', 00H, 'o', 00H, 'm', 00H, 'm', 00H, 'C', 00H, 'o'
	DB	00H, 'n', 00H, 'f', 00H, 'i', 00H, 'g', 00H, 0aH, 00H, 00H, 00H ; `string'
CONST	ENDS
;	COMDAT ?__LINE__Var@?1??GetConfig@CSerialPort@@QAEXAAU_COMMCONFIG@@@Z@4JA
_DATA	SEGMENT
?__LINE__Var@?1??GetConfig@CSerialPort@@QAEXAAU_COMMCONFIG@@@Z@4JA DD 02adH ; `CSerialPort::GetConfig'::`2'::__LINE__Var
_DATA	ENDS
;	COMDAT ??_C@_1EE@IJGMFJPG@?$AAC?$AAS?$AAe?$AAr?$AAi?$AAa?$AAl?$AAP?$AAo?$AAr?$AAt?$AA?3?$AA?3?$AAG?$AAe?$AAt?$AAC?$AAo?$AAn?$AAf?$AAi?$AAg?$AA?0?$AAI?$AAs?$AAO?$AAp?$AAe?$AAn?$AA?$CI?$AA?$CJ?$AA?$AN@
CONST	SEGMENT
??_C@_1EE@IJGMFJPG@?$AAC?$AAS?$AAe?$AAr?$AAi?$AAa?$AAl?$AAP?$AAo?$AAr?$AAt?$AA?3?$AA?3?$AAG?$AAe?$AAt?$AAC?$AAo?$AAn?$AAf?$AAi?$AAg?$AA?0?$AAI?$AAs?$AAO?$AAp?$AAe?$AAn?$AA?$CI?$AA?$CJ?$AA?$AN@ DB 'C'
	DB	00H, 'S', 00H, 'e', 00H, 'r', 00H, 'i', 00H, 'a', 00H, 'l', 00H
	DB	'P', 00H, 'o', 00H, 'r', 00H, 't', 00H, ':', 00H, ':', 00H, 'G'
	DB	00H, 'e', 00H, 't', 00H, 'C', 00H, 'o', 00H, 'n', 00H, 'f', 00H
	DB	'i', 00H, 'g', 00H, ',', 00H, 'I', 00H, 's', 00H, 'O', 00H, 'p'
	DB	00H, 'e', 00H, 'n', 00H, '(', 00H, ')', 00H, 0dH, 00H, 0aH, 00H
	DB	00H, 00H					; `string'
; Function compile flags: /Odtp /RTCsu /ZI
CONST	ENDS
;	COMDAT ?GetConfig@CSerialPort@@QAEXAAU_COMMCONFIG@@@Z
_TEXT	SEGMENT
$T212154 = -244						; size = 8
$T212155 = -228						; size = 8
_dwSize$ = -20						; size = 4
_this$ = -8						; size = 4
_config$ = 8						; size = 4
?GetConfig@CSerialPort@@QAEXAAU_COMMCONFIG@@@Z PROC	; CSerialPort::GetConfig, COMDAT
; _this$ = ecx

; 685  : {

  00000	55		 push	 ebp
  00001	8b ec		 mov	 ebp, esp
  00003	81 ec f8 00 00
	00		 sub	 esp, 248		; 000000f8H
  00009	53		 push	 ebx
  0000a	56		 push	 esi
  0000b	57		 push	 edi
  0000c	51		 push	 ecx
  0000d	8d bd 08 ff ff
	ff		 lea	 edi, DWORD PTR [ebp-248]
  00013	b9 3e 00 00 00	 mov	 ecx, 62			; 0000003eH
  00018	b8 cc cc cc cc	 mov	 eax, -858993460		; ccccccccH
  0001d	f3 ab		 rep stosd
  0001f	59		 pop	 ecx
  00020	89 4d f8	 mov	 DWORD PTR _this$[ebp], ecx

; 686  : //   ASSERT(IsOpen());
; 687  : 	TRACE(_T("CSerialPort::GetConfig,IsOpen()\r\n"));

  00023	68 00 00 00 00	 push	 OFFSET ??_C@_1EE@IJGMFJPG@?$AAC?$AAS?$AAe?$AAr?$AAi?$AAa?$AAl?$AAP?$AAo?$AAr?$AAt?$AA?3?$AA?3?$AAG?$AAe?$AAt?$AAC?$AAo?$AAn?$AAf?$AAi?$AAg?$AA?0?$AAI?$AAs?$AAO?$AAp?$AAe?$AAn?$AA?$CI?$AA?$CJ?$AA?$AN@
  00028	a1 00 00 00 00	 mov	 eax, DWORD PTR ?__LINE__Var@?1??GetConfig@CSerialPort@@QAEXAAU_COMMCONFIG@@@Z@4JA
  0002d	83 c0 02	 add	 eax, 2
  00030	50		 push	 eax
  00031	68 00 00 00 00	 push	 OFFSET ??_C@_0DC@PACLAOLH@e?3?2cz?2vs?2dvicectrldlg_new_signal@
  00036	8d 8d 0c ff ff
	ff		 lea	 ecx, DWORD PTR $T212154[ebp]
  0003c	e8 00 00 00 00	 call	 ??0CTraceFileAndLineInfo@ATL@@QAE@PBDH@Z ; ATL::CTraceFileAndLineInfo::CTraceFileAndLineInfo
  00041	50		 push	 eax
  00042	e8 00 00 00 00	 call	 ??RCTraceFileAndLineInfo@ATL@@QBAXPB_WZZ ; ATL::CTraceFileAndLineInfo::operator()
  00047	83 c4 08	 add	 esp, 8

; 688  : 
; 689  :   DWORD dwSize = sizeof(COMMCONFIG);

  0004a	c7 45 ec 34 00
	00 00		 mov	 DWORD PTR _dwSize$[ebp], 52 ; 00000034H

; 690  :   if (!GetCommConfig(m_hComm, &config, &dwSize))

  00051	8b f4		 mov	 esi, esp
  00053	8d 45 ec	 lea	 eax, DWORD PTR _dwSize$[ebp]
  00056	50		 push	 eax
  00057	8b 4d 08	 mov	 ecx, DWORD PTR _config$[ebp]
  0005a	51		 push	 ecx
  0005b	8b 55 f8	 mov	 edx, DWORD PTR _this$[ebp]
  0005e	8b 42 04	 mov	 eax, DWORD PTR [edx+4]
  00061	50		 push	 eax
  00062	ff 15 00 00 00
	00		 call	 DWORD PTR __imp__GetCommConfig@12
  00068	3b f4		 cmp	 esi, esp
  0006a	e8 00 00 00 00	 call	 __RTC_CheckEsp
  0006f	85 c0		 test	 eax, eax
  00071	75 31		 jne	 SHORT $LN2@GetConfig

; 691  :   {
; 692  :     TRACE(_T("Failed in call to GetCommConfig\n"));

  00073	68 00 00 00 00	 push	 OFFSET ??_C@_1EC@GJOODHBK@?$AAF?$AAa?$AAi?$AAl?$AAe?$AAd?$AA?5?$AAi?$AAn?$AA?5?$AAc?$AAa?$AAl?$AAl?$AA?5?$AAt?$AAo?$AA?5?$AAG?$AAe?$AAt?$AAC?$AAo?$AAm?$AAm?$AAC?$AAo?$AAn?$AAf?$AAi?$AAg?$AA?6@
  00078	a1 00 00 00 00	 mov	 eax, DWORD PTR ?__LINE__Var@?1??GetConfig@CSerialPort@@QAEXAAU_COMMCONFIG@@@Z@4JA
  0007d	83 c0 07	 add	 eax, 7
  00080	50		 push	 eax
  00081	68 00 00 00 00	 push	 OFFSET ??_C@_0DC@PACLAOLH@e?3?2cz?2vs?2dvicectrldlg_new_signal@
  00086	8d 8d 1c ff ff
	ff		 lea	 ecx, DWORD PTR $T212155[ebp]
  0008c	e8 00 00 00 00	 call	 ??0CTraceFileAndLineInfo@ATL@@QAE@PBDH@Z ; ATL::CTraceFileAndLineInfo::CTraceFileAndLineInfo
  00091	50		 push	 eax
  00092	e8 00 00 00 00	 call	 ??RCTraceFileAndLineInfo@ATL@@QBAXPB_WZZ ; ATL::CTraceFileAndLineInfo::operator()
  00097	83 c4 08	 add	 esp, 8

; 693  :     AfxThrowSerialException();

  0009a	6a 00		 push	 0
  0009c	e8 00 00 00 00	 call	 ?AfxThrowSerialException@@YAXK@Z ; AfxThrowSerialException
  000a1	83 c4 04	 add	 esp, 4
$LN2@GetConfig:

; 694  :   }
; 695  : }

  000a4	52		 push	 edx
  000a5	8b cd		 mov	 ecx, ebp
  000a7	50		 push	 eax
  000a8	8d 15 00 00 00
	00		 lea	 edx, DWORD PTR $LN6@GetConfig
  000ae	e8 00 00 00 00	 call	 @_RTC_CheckStackVars@8
  000b3	58		 pop	 eax
  000b4	5a		 pop	 edx
  000b5	5f		 pop	 edi
  000b6	5e		 pop	 esi
  000b7	5b		 pop	 ebx
  000b8	81 c4 f8 00 00
	00		 add	 esp, 248		; 000000f8H
  000be	3b ec		 cmp	 ebp, esp
  000c0	e8 00 00 00 00	 call	 __RTC_CheckEsp
  000c5	8b e5		 mov	 esp, ebp
  000c7	5d		 pop	 ebp
  000c8	c2 04 00	 ret	 4
  000cb	90		 npad	 1
$LN6@GetConfig:
  000cc	01 00 00 00	 DD	 1
  000d0	00 00 00 00	 DD	 $LN5@GetConfig
$LN5@GetConfig:
  000d4	ec ff ff ff	 DD	 -20			; ffffffecH
  000d8	04 00 00 00	 DD	 4
  000dc	00 00 00 00	 DD	 $LN4@GetConfig
$LN4@GetConfig:
  000e0	64		 DB	 100			; 00000064H
  000e1	77		 DB	 119			; 00000077H
  000e2	53		 DB	 83			; 00000053H
  000e3	69		 DB	 105			; 00000069H
  000e4	7a		 DB	 122			; 0000007aH
  000e5	65		 DB	 101			; 00000065H
  000e6	00		 DB	 0
?GetConfig@CSerialPort@@QAEXAAU_COMMCONFIG@@@Z ENDP	; CSerialPort::GetConfig
_TEXT	ENDS
PUBLIC	??_C@_1EC@OIIBIHDI@?$AAF?$AAa?$AAi?$AAl?$AAe?$AAd?$AA?5?$AAi?$AAn?$AA?5?$AAc?$AAa?$AAl?$AAl?$AA?5?$AAt?$AAo?$AA?5?$AAS?$AAe?$AAt?$AAC?$AAo?$AAm?$AAm?$AAC?$AAo?$AAn?$AAf?$AAi?$AAg?$AA?6@ ; `string'
PUBLIC	?__LINE__Var@?1??SetConfig@CSerialPort@@QAEXAAU_COMMCONFIG@@@Z@4JA ; `CSerialPort::SetConfig'::`2'::__LINE__Var
PUBLIC	??_C@_1EE@HDCPCJOD@?$AAC?$AAS?$AAe?$AAr?$AAi?$AAa?$AAl?$AAP?$AAo?$AAr?$AAt?$AA?3?$AA?3?$AAS?$AAe?$AAt?$AAC?$AAo?$AAn?$AAf?$AAi?$AAg?$AA?0?$AAI?$AAs?$AAO?$AAp?$AAe?$AAn?$AA?$CI?$AA?$CJ?$AA?$AN@ ; `string'
PUBLIC	?SetConfig@CSerialPort@@QAEXAAU_COMMCONFIG@@@Z	; CSerialPort::SetConfig
EXTRN	__imp__SetCommConfig@12:PROC
;	COMDAT ??_C@_1EC@OIIBIHDI@?$AAF?$AAa?$AAi?$AAl?$AAe?$AAd?$AA?5?$AAi?$AAn?$AA?5?$AAc?$AAa?$AAl?$AAl?$AA?5?$AAt?$AAo?$AA?5?$AAS?$AAe?$AAt?$AAC?$AAo?$AAm?$AAm?$AAC?$AAo?$AAn?$AAf?$AAi?$AAg?$AA?6@
CONST	SEGMENT
??_C@_1EC@OIIBIHDI@?$AAF?$AAa?$AAi?$AAl?$AAe?$AAd?$AA?5?$AAi?$AAn?$AA?5?$AAc?$AAa?$AAl?$AAl?$AA?5?$AAt?$AAo?$AA?5?$AAS?$AAe?$AAt?$AAC?$AAo?$AAm?$AAm?$AAC?$AAo?$AAn?$AAf?$AAi?$AAg?$AA?6@ DB 'F'
	DB	00H, 'a', 00H, 'i', 00H, 'l', 00H, 'e', 00H, 'd', 00H, ' ', 00H
	DB	'i', 00H, 'n', 00H, ' ', 00H, 'c', 00H, 'a', 00H, 'l', 00H, 'l'
	DB	00H, ' ', 00H, 't', 00H, 'o', 00H, ' ', 00H, 'S', 00H, 'e', 00H
	DB	't', 00H, 'C', 00H, 'o', 00H, 'm', 00H, 'm', 00H, 'C', 00H, 'o'
	DB	00H, 'n', 00H, 'f', 00H, 'i', 00H, 'g', 00H, 0aH, 00H, 00H, 00H ; `string'
CONST	ENDS
;	COMDAT ?__LINE__Var@?1??SetConfig@CSerialPort@@QAEXAAU_COMMCONFIG@@@Z@4JA
_DATA	SEGMENT
?__LINE__Var@?1??SetConfig@CSerialPort@@QAEXAAU_COMMCONFIG@@@Z@4JA DD 02baH ; `CSerialPort::SetConfig'::`2'::__LINE__Var
_DATA	ENDS
;	COMDAT ??_C@_1EE@HDCPCJOD@?$AAC?$AAS?$AAe?$AAr?$AAi?$AAa?$AAl?$AAP?$AAo?$AAr?$AAt?$AA?3?$AA?3?$AAS?$AAe?$AAt?$AAC?$AAo?$AAn?$AAf?$AAi?$AAg?$AA?0?$AAI?$AAs?$AAO?$AAp?$AAe?$AAn?$AA?$CI?$AA?$CJ?$AA?$AN@
CONST	SEGMENT
??_C@_1EE@HDCPCJOD@?$AAC?$AAS?$AAe?$AAr?$AAi?$AAa?$AAl?$AAP?$AAo?$AAr?$AAt?$AA?3?$AA?3?$AAS?$AAe?$AAt?$AAC?$AAo?$AAn?$AAf?$AAi?$AAg?$AA?0?$AAI?$AAs?$AAO?$AAp?$AAe?$AAn?$AA?$CI?$AA?$CJ?$AA?$AN@ DB 'C'
	DB	00H, 'S', 00H, 'e', 00H, 'r', 00H, 'i', 00H, 'a', 00H, 'l', 00H
	DB	'P', 00H, 'o', 00H, 'r', 00H, 't', 00H, ':', 00H, ':', 00H, 'S'
	DB	00H, 'e', 00H, 't', 00H, 'C', 00H, 'o', 00H, 'n', 00H, 'f', 00H
	DB	'i', 00H, 'g', 00H, ',', 00H, 'I', 00H, 's', 00H, 'O', 00H, 'p'
	DB	00H, 'e', 00H, 'n', 00H, '(', 00H, ')', 00H, 0dH, 00H, 0aH, 00H
	DB	00H, 00H					; `string'
; Function compile flags: /Odtp /RTCsu /ZI
CONST	ENDS
;	COMDAT ?SetConfig@CSerialPort@@QAEXAAU_COMMCONFIG@@@Z
_TEXT	SEGMENT
$T212161 = -244						; size = 8
$T212162 = -228						; size = 8
_dwSize$ = -20						; size = 4
_this$ = -8						; size = 4
_config$ = 8						; size = 4
?SetConfig@CSerialPort@@QAEXAAU_COMMCONFIG@@@Z PROC	; CSerialPort::SetConfig, COMDAT
; _this$ = ecx

; 698  : {

  00000	55		 push	 ebp
  00001	8b ec		 mov	 ebp, esp
  00003	81 ec f8 00 00
	00		 sub	 esp, 248		; 000000f8H
  00009	53		 push	 ebx
  0000a	56		 push	 esi
  0000b	57		 push	 edi
  0000c	51		 push	 ecx
  0000d	8d bd 08 ff ff
	ff		 lea	 edi, DWORD PTR [ebp-248]
  00013	b9 3e 00 00 00	 mov	 ecx, 62			; 0000003eH
  00018	b8 cc cc cc cc	 mov	 eax, -858993460		; ccccccccH
  0001d	f3 ab		 rep stosd
  0001f	59		 pop	 ecx
  00020	89 4d f8	 mov	 DWORD PTR _this$[ebp], ecx

; 699  : //   ASSERT(IsOpen());
; 700  : 	TRACE(_T("CSerialPort::SetConfig,IsOpen()\r\n"));

  00023	68 00 00 00 00	 push	 OFFSET ??_C@_1EE@HDCPCJOD@?$AAC?$AAS?$AAe?$AAr?$AAi?$AAa?$AAl?$AAP?$AAo?$AAr?$AAt?$AA?3?$AA?3?$AAS?$AAe?$AAt?$AAC?$AAo?$AAn?$AAf?$AAi?$AAg?$AA?0?$AAI?$AAs?$AAO?$AAp?$AAe?$AAn?$AA?$CI?$AA?$CJ?$AA?$AN@
  00028	a1 00 00 00 00	 mov	 eax, DWORD PTR ?__LINE__Var@?1??SetConfig@CSerialPort@@QAEXAAU_COMMCONFIG@@@Z@4JA
  0002d	83 c0 02	 add	 eax, 2
  00030	50		 push	 eax
  00031	68 00 00 00 00	 push	 OFFSET ??_C@_0DC@PACLAOLH@e?3?2cz?2vs?2dvicectrldlg_new_signal@
  00036	8d 8d 0c ff ff
	ff		 lea	 ecx, DWORD PTR $T212161[ebp]
  0003c	e8 00 00 00 00	 call	 ??0CTraceFileAndLineInfo@ATL@@QAE@PBDH@Z ; ATL::CTraceFileAndLineInfo::CTraceFileAndLineInfo
  00041	50		 push	 eax
  00042	e8 00 00 00 00	 call	 ??RCTraceFileAndLineInfo@ATL@@QBAXPB_WZZ ; ATL::CTraceFileAndLineInfo::operator()
  00047	83 c4 08	 add	 esp, 8

; 701  : 
; 702  :   DWORD dwSize = sizeof(COMMCONFIG);

  0004a	c7 45 ec 34 00
	00 00		 mov	 DWORD PTR _dwSize$[ebp], 52 ; 00000034H

; 703  :   if (!SetCommConfig(m_hComm, &config, dwSize))

  00051	8b f4		 mov	 esi, esp
  00053	8b 45 ec	 mov	 eax, DWORD PTR _dwSize$[ebp]
  00056	50		 push	 eax
  00057	8b 4d 08	 mov	 ecx, DWORD PTR _config$[ebp]
  0005a	51		 push	 ecx
  0005b	8b 55 f8	 mov	 edx, DWORD PTR _this$[ebp]
  0005e	8b 42 04	 mov	 eax, DWORD PTR [edx+4]
  00061	50		 push	 eax
  00062	ff 15 00 00 00
	00		 call	 DWORD PTR __imp__SetCommConfig@12
  00068	3b f4		 cmp	 esi, esp
  0006a	e8 00 00 00 00	 call	 __RTC_CheckEsp
  0006f	85 c0		 test	 eax, eax
  00071	75 31		 jne	 SHORT $LN2@SetConfig

; 704  :   {
; 705  :     TRACE(_T("Failed in call to SetCommConfig\n"));

  00073	68 00 00 00 00	 push	 OFFSET ??_C@_1EC@OIIBIHDI@?$AAF?$AAa?$AAi?$AAl?$AAe?$AAd?$AA?5?$AAi?$AAn?$AA?5?$AAc?$AAa?$AAl?$AAl?$AA?5?$AAt?$AAo?$AA?5?$AAS?$AAe?$AAt?$AAC?$AAo?$AAm?$AAm?$AAC?$AAo?$AAn?$AAf?$AAi?$AAg?$AA?6@
  00078	a1 00 00 00 00	 mov	 eax, DWORD PTR ?__LINE__Var@?1??SetConfig@CSerialPort@@QAEXAAU_COMMCONFIG@@@Z@4JA
  0007d	83 c0 07	 add	 eax, 7
  00080	50		 push	 eax
  00081	68 00 00 00 00	 push	 OFFSET ??_C@_0DC@PACLAOLH@e?3?2cz?2vs?2dvicectrldlg_new_signal@
  00086	8d 8d 1c ff ff
	ff		 lea	 ecx, DWORD PTR $T212162[ebp]
  0008c	e8 00 00 00 00	 call	 ??0CTraceFileAndLineInfo@ATL@@QAE@PBDH@Z ; ATL::CTraceFileAndLineInfo::CTraceFileAndLineInfo
  00091	50		 push	 eax
  00092	e8 00 00 00 00	 call	 ??RCTraceFileAndLineInfo@ATL@@QBAXPB_WZZ ; ATL::CTraceFileAndLineInfo::operator()
  00097	83 c4 08	 add	 esp, 8

; 706  :     AfxThrowSerialException();

  0009a	6a 00		 push	 0
  0009c	e8 00 00 00 00	 call	 ?AfxThrowSerialException@@YAXK@Z ; AfxThrowSerialException
  000a1	83 c4 04	 add	 esp, 4
$LN2@SetConfig:

; 707  :   }
; 708  : }

  000a4	5f		 pop	 edi
  000a5	5e		 pop	 esi
  000a6	5b		 pop	 ebx
  000a7	81 c4 f8 00 00
	00		 add	 esp, 248		; 000000f8H
  000ad	3b ec		 cmp	 ebp, esp
  000af	e8 00 00 00 00	 call	 __RTC_CheckEsp
  000b4	8b e5		 mov	 esp, ebp
  000b6	5d		 pop	 ebp
  000b7	c2 04 00	 ret	 4
?SetConfig@CSerialPort@@QAEXAAU_COMMCONFIG@@@Z ENDP	; CSerialPort::SetConfig
_TEXT	ENDS
PUBLIC	??_C@_1EA@NDEOBMDG@?$AAF?$AAa?$AAi?$AAl?$AAe?$AAd?$AA?5?$AAi?$AAn?$AA?5?$AAc?$AAa?$AAl?$AAl?$AA?5?$AAt?$AAo?$AA?5?$AAS?$AAe?$AAt?$AAC?$AAo?$AAm?$AAm?$AAB?$AAr?$AAe?$AAa?$AAk?$AA?6?$AA?$AA@ ; `string'
PUBLIC	?__LINE__Var@?1??SetBreak@CSerialPort@@QAEXXZ@4JA ; `CSerialPort::SetBreak'::`2'::__LINE__Var
PUBLIC	??_C@_1EC@JOMEIDFF@?$AAC?$AAS?$AAe?$AAr?$AAi?$AAa?$AAl?$AAP?$AAo?$AAr?$AAt?$AA?3?$AA?3?$AAS?$AAe?$AAt?$AAB?$AAr?$AAe?$AAa?$AAk?$AA?0?$AAI?$AAs?$AAO?$AAp?$AAe?$AAn?$AA?$CI?$AA?$CJ?$AA?$AN?$AA?6@ ; `string'
PUBLIC	?SetBreak@CSerialPort@@QAEXXZ			; CSerialPort::SetBreak
EXTRN	__imp__SetCommBreak@4:PROC
;	COMDAT ??_C@_1EA@NDEOBMDG@?$AAF?$AAa?$AAi?$AAl?$AAe?$AAd?$AA?5?$AAi?$AAn?$AA?5?$AAc?$AAa?$AAl?$AAl?$AA?5?$AAt?$AAo?$AA?5?$AAS?$AAe?$AAt?$AAC?$AAo?$AAm?$AAm?$AAB?$AAr?$AAe?$AAa?$AAk?$AA?6?$AA?$AA@
CONST	SEGMENT
??_C@_1EA@NDEOBMDG@?$AAF?$AAa?$AAi?$AAl?$AAe?$AAd?$AA?5?$AAi?$AAn?$AA?5?$AAc?$AAa?$AAl?$AAl?$AA?5?$AAt?$AAo?$AA?5?$AAS?$AAe?$AAt?$AAC?$AAo?$AAm?$AAm?$AAB?$AAr?$AAe?$AAa?$AAk?$AA?6?$AA?$AA@ DB 'F'
	DB	00H, 'a', 00H, 'i', 00H, 'l', 00H, 'e', 00H, 'd', 00H, ' ', 00H
	DB	'i', 00H, 'n', 00H, ' ', 00H, 'c', 00H, 'a', 00H, 'l', 00H, 'l'
	DB	00H, ' ', 00H, 't', 00H, 'o', 00H, ' ', 00H, 'S', 00H, 'e', 00H
	DB	't', 00H, 'C', 00H, 'o', 00H, 'm', 00H, 'm', 00H, 'B', 00H, 'r'
	DB	00H, 'e', 00H, 'a', 00H, 'k', 00H, 0aH, 00H, 00H, 00H ; `string'
CONST	ENDS
;	COMDAT ?__LINE__Var@?1??SetBreak@CSerialPort@@QAEXXZ@4JA
_DATA	SEGMENT
?__LINE__Var@?1??SetBreak@CSerialPort@@QAEXXZ@4JA DD 02c7H ; `CSerialPort::SetBreak'::`2'::__LINE__Var
_DATA	ENDS
;	COMDAT ??_C@_1EC@JOMEIDFF@?$AAC?$AAS?$AAe?$AAr?$AAi?$AAa?$AAl?$AAP?$AAo?$AAr?$AAt?$AA?3?$AA?3?$AAS?$AAe?$AAt?$AAB?$AAr?$AAe?$AAa?$AAk?$AA?0?$AAI?$AAs?$AAO?$AAp?$AAe?$AAn?$AA?$CI?$AA?$CJ?$AA?$AN?$AA?6@
CONST	SEGMENT
??_C@_1EC@JOMEIDFF@?$AAC?$AAS?$AAe?$AAr?$AAi?$AAa?$AAl?$AAP?$AAo?$AAr?$AAt?$AA?3?$AA?3?$AAS?$AAe?$AAt?$AAB?$AAr?$AAe?$AAa?$AAk?$AA?0?$AAI?$AAs?$AAO?$AAp?$AAe?$AAn?$AA?$CI?$AA?$CJ?$AA?$AN?$AA?6@ DB 'C'
	DB	00H, 'S', 00H, 'e', 00H, 'r', 00H, 'i', 00H, 'a', 00H, 'l', 00H
	DB	'P', 00H, 'o', 00H, 'r', 00H, 't', 00H, ':', 00H, ':', 00H, 'S'
	DB	00H, 'e', 00H, 't', 00H, 'B', 00H, 'r', 00H, 'e', 00H, 'a', 00H
	DB	'k', 00H, ',', 00H, 'I', 00H, 's', 00H, 'O', 00H, 'p', 00H, 'e'
	DB	00H, 'n', 00H, '(', 00H, ')', 00H, 0dH, 00H, 0aH, 00H, 00H, 00H ; `string'
; Function compile flags: /Odtp /RTCsu /ZI
CONST	ENDS
;	COMDAT ?SetBreak@CSerialPort@@QAEXXZ
_TEXT	SEGMENT
$T212165 = -232						; size = 8
$T212166 = -216						; size = 8
_this$ = -8						; size = 4
?SetBreak@CSerialPort@@QAEXXZ PROC			; CSerialPort::SetBreak, COMDAT
; _this$ = ecx

; 711  : {

  00000	55		 push	 ebp
  00001	8b ec		 mov	 ebp, esp
  00003	81 ec ec 00 00
	00		 sub	 esp, 236		; 000000ecH
  00009	53		 push	 ebx
  0000a	56		 push	 esi
  0000b	57		 push	 edi
  0000c	51		 push	 ecx
  0000d	8d bd 14 ff ff
	ff		 lea	 edi, DWORD PTR [ebp-236]
  00013	b9 3b 00 00 00	 mov	 ecx, 59			; 0000003bH
  00018	b8 cc cc cc cc	 mov	 eax, -858993460		; ccccccccH
  0001d	f3 ab		 rep stosd
  0001f	59		 pop	 ecx
  00020	89 4d f8	 mov	 DWORD PTR _this$[ebp], ecx

; 712  : //   ASSERT(IsOpen());
; 713  : 	TRACE(_T("CSerialPort::SetBreak,IsOpen()\r\n"));

  00023	68 00 00 00 00	 push	 OFFSET ??_C@_1EC@JOMEIDFF@?$AAC?$AAS?$AAe?$AAr?$AAi?$AAa?$AAl?$AAP?$AAo?$AAr?$AAt?$AA?3?$AA?3?$AAS?$AAe?$AAt?$AAB?$AAr?$AAe?$AAa?$AAk?$AA?0?$AAI?$AAs?$AAO?$AAp?$AAe?$AAn?$AA?$CI?$AA?$CJ?$AA?$AN?$AA?6@
  00028	a1 00 00 00 00	 mov	 eax, DWORD PTR ?__LINE__Var@?1??SetBreak@CSerialPort@@QAEXXZ@4JA
  0002d	83 c0 02	 add	 eax, 2
  00030	50		 push	 eax
  00031	68 00 00 00 00	 push	 OFFSET ??_C@_0DC@PACLAOLH@e?3?2cz?2vs?2dvicectrldlg_new_signal@
  00036	8d 8d 18 ff ff
	ff		 lea	 ecx, DWORD PTR $T212165[ebp]
  0003c	e8 00 00 00 00	 call	 ??0CTraceFileAndLineInfo@ATL@@QAE@PBDH@Z ; ATL::CTraceFileAndLineInfo::CTraceFileAndLineInfo
  00041	50		 push	 eax
  00042	e8 00 00 00 00	 call	 ??RCTraceFileAndLineInfo@ATL@@QBAXPB_WZZ ; ATL::CTraceFileAndLineInfo::operator()
  00047	83 c4 08	 add	 esp, 8

; 714  : 
; 715  :   if (!SetCommBreak(m_hComm))

  0004a	8b f4		 mov	 esi, esp
  0004c	8b 45 f8	 mov	 eax, DWORD PTR _this$[ebp]
  0004f	8b 48 04	 mov	 ecx, DWORD PTR [eax+4]
  00052	51		 push	 ecx
  00053	ff 15 00 00 00
	00		 call	 DWORD PTR __imp__SetCommBreak@4
  00059	3b f4		 cmp	 esi, esp
  0005b	e8 00 00 00 00	 call	 __RTC_CheckEsp
  00060	85 c0		 test	 eax, eax
  00062	75 31		 jne	 SHORT $LN2@SetBreak

; 716  :   {
; 717  :     TRACE(_T("Failed in call to SetCommBreak\n"));

  00064	68 00 00 00 00	 push	 OFFSET ??_C@_1EA@NDEOBMDG@?$AAF?$AAa?$AAi?$AAl?$AAe?$AAd?$AA?5?$AAi?$AAn?$AA?5?$AAc?$AAa?$AAl?$AAl?$AA?5?$AAt?$AAo?$AA?5?$AAS?$AAe?$AAt?$AAC?$AAo?$AAm?$AAm?$AAB?$AAr?$AAe?$AAa?$AAk?$AA?6?$AA?$AA@
  00069	a1 00 00 00 00	 mov	 eax, DWORD PTR ?__LINE__Var@?1??SetBreak@CSerialPort@@QAEXXZ@4JA
  0006e	83 c0 06	 add	 eax, 6
  00071	50		 push	 eax
  00072	68 00 00 00 00	 push	 OFFSET ??_C@_0DC@PACLAOLH@e?3?2cz?2vs?2dvicectrldlg_new_signal@
  00077	8d 8d 28 ff ff
	ff		 lea	 ecx, DWORD PTR $T212166[ebp]
  0007d	e8 00 00 00 00	 call	 ??0CTraceFileAndLineInfo@ATL@@QAE@PBDH@Z ; ATL::CTraceFileAndLineInfo::CTraceFileAndLineInfo
  00082	50		 push	 eax
  00083	e8 00 00 00 00	 call	 ??RCTraceFileAndLineInfo@ATL@@QBAXPB_WZZ ; ATL::CTraceFileAndLineInfo::operator()
  00088	83 c4 08	 add	 esp, 8

; 718  :     AfxThrowSerialException();

  0008b	6a 00		 push	 0
  0008d	e8 00 00 00 00	 call	 ?AfxThrowSerialException@@YAXK@Z ; AfxThrowSerialException
  00092	83 c4 04	 add	 esp, 4
$LN2@SetBreak:

; 719  :   }
; 720  : }

  00095	5f		 pop	 edi
  00096	5e		 pop	 esi
  00097	5b		 pop	 ebx
  00098	81 c4 ec 00 00
	00		 add	 esp, 236		; 000000ecH
  0009e	3b ec		 cmp	 ebp, esp
  000a0	e8 00 00 00 00	 call	 __RTC_CheckEsp
  000a5	8b e5		 mov	 esp, ebp
  000a7	5d		 pop	 ebp
  000a8	c3		 ret	 0
?SetBreak@CSerialPort@@QAEXXZ ENDP			; CSerialPort::SetBreak
_TEXT	ENDS
PUBLIC	?__LINE__Var@?1??ClearBreak@CSerialPort@@QAEXXZ@4JA ; `CSerialPort::ClearBreak'::`2'::__LINE__Var
PUBLIC	??_C@_1EG@BLFKPLMM@?$AAC?$AAS?$AAe?$AAr?$AAi?$AAa?$AAl?$AAP?$AAo?$AAr?$AAt?$AA?3?$AA?3?$AAC?$AAl?$AAe?$AAa?$AAr?$AAB?$AAr?$AAe?$AAa?$AAk?$AA?0?$AAI?$AAs?$AAO?$AAp?$AAe?$AAn?$AA?$CI?$AA?$CJ@ ; `string'
PUBLIC	?ClearBreak@CSerialPort@@QAEXXZ			; CSerialPort::ClearBreak
EXTRN	__imp__ClearCommBreak@4:PROC
;	COMDAT ?__LINE__Var@?1??ClearBreak@CSerialPort@@QAEXXZ@4JA
_DATA	SEGMENT
?__LINE__Var@?1??ClearBreak@CSerialPort@@QAEXXZ@4JA DD 02d3H ; `CSerialPort::ClearBreak'::`2'::__LINE__Var
_DATA	ENDS
;	COMDAT ??_C@_1EG@BLFKPLMM@?$AAC?$AAS?$AAe?$AAr?$AAi?$AAa?$AAl?$AAP?$AAo?$AAr?$AAt?$AA?3?$AA?3?$AAC?$AAl?$AAe?$AAa?$AAr?$AAB?$AAr?$AAe?$AAa?$AAk?$AA?0?$AAI?$AAs?$AAO?$AAp?$AAe?$AAn?$AA?$CI?$AA?$CJ@
CONST	SEGMENT
??_C@_1EG@BLFKPLMM@?$AAC?$AAS?$AAe?$AAr?$AAi?$AAa?$AAl?$AAP?$AAo?$AAr?$AAt?$AA?3?$AA?3?$AAC?$AAl?$AAe?$AAa?$AAr?$AAB?$AAr?$AAe?$AAa?$AAk?$AA?0?$AAI?$AAs?$AAO?$AAp?$AAe?$AAn?$AA?$CI?$AA?$CJ@ DB 'C'
	DB	00H, 'S', 00H, 'e', 00H, 'r', 00H, 'i', 00H, 'a', 00H, 'l', 00H
	DB	'P', 00H, 'o', 00H, 'r', 00H, 't', 00H, ':', 00H, ':', 00H, 'C'
	DB	00H, 'l', 00H, 'e', 00H, 'a', 00H, 'r', 00H, 'B', 00H, 'r', 00H
	DB	'e', 00H, 'a', 00H, 'k', 00H, ',', 00H, 'I', 00H, 's', 00H, 'O'
	DB	00H, 'p', 00H, 'e', 00H, 'n', 00H, '(', 00H, ')', 00H, 0dH, 00H
	DB	0aH, 00H, 00H, 00H				; `string'
; Function compile flags: /Odtp /RTCsu /ZI
CONST	ENDS
;	COMDAT ?ClearBreak@CSerialPort@@QAEXXZ
_TEXT	SEGMENT
$T212169 = -232						; size = 8
$T212170 = -216						; size = 8
_this$ = -8						; size = 4
?ClearBreak@CSerialPort@@QAEXXZ PROC			; CSerialPort::ClearBreak, COMDAT
; _this$ = ecx

; 723  : {

  00000	55		 push	 ebp
  00001	8b ec		 mov	 ebp, esp
  00003	81 ec ec 00 00
	00		 sub	 esp, 236		; 000000ecH
  00009	53		 push	 ebx
  0000a	56		 push	 esi
  0000b	57		 push	 edi
  0000c	51		 push	 ecx
  0000d	8d bd 14 ff ff
	ff		 lea	 edi, DWORD PTR [ebp-236]
  00013	b9 3b 00 00 00	 mov	 ecx, 59			; 0000003bH
  00018	b8 cc cc cc cc	 mov	 eax, -858993460		; ccccccccH
  0001d	f3 ab		 rep stosd
  0001f	59		 pop	 ecx
  00020	89 4d f8	 mov	 DWORD PTR _this$[ebp], ecx

; 724  : //   ASSERT(IsOpen());
; 725  : 	TRACE(_T("CSerialPort::ClearBreak,IsOpen()\r\n"));

  00023	68 00 00 00 00	 push	 OFFSET ??_C@_1EG@BLFKPLMM@?$AAC?$AAS?$AAe?$AAr?$AAi?$AAa?$AAl?$AAP?$AAo?$AAr?$AAt?$AA?3?$AA?3?$AAC?$AAl?$AAe?$AAa?$AAr?$AAB?$AAr?$AAe?$AAa?$AAk?$AA?0?$AAI?$AAs?$AAO?$AAp?$AAe?$AAn?$AA?$CI?$AA?$CJ@
  00028	a1 00 00 00 00	 mov	 eax, DWORD PTR ?__LINE__Var@?1??ClearBreak@CSerialPort@@QAEXXZ@4JA
  0002d	83 c0 02	 add	 eax, 2
  00030	50		 push	 eax
  00031	68 00 00 00 00	 push	 OFFSET ??_C@_0DC@PACLAOLH@e?3?2cz?2vs?2dvicectrldlg_new_signal@
  00036	8d 8d 18 ff ff
	ff		 lea	 ecx, DWORD PTR $T212169[ebp]
  0003c	e8 00 00 00 00	 call	 ??0CTraceFileAndLineInfo@ATL@@QAE@PBDH@Z ; ATL::CTraceFileAndLineInfo::CTraceFileAndLineInfo
  00041	50		 push	 eax
  00042	e8 00 00 00 00	 call	 ??RCTraceFileAndLineInfo@ATL@@QBAXPB_WZZ ; ATL::CTraceFileAndLineInfo::operator()
  00047	83 c4 08	 add	 esp, 8

; 726  : 
; 727  :   if (!ClearCommBreak(m_hComm))

  0004a	8b f4		 mov	 esi, esp
  0004c	8b 45 f8	 mov	 eax, DWORD PTR _this$[ebp]
  0004f	8b 48 04	 mov	 ecx, DWORD PTR [eax+4]
  00052	51		 push	 ecx
  00053	ff 15 00 00 00
	00		 call	 DWORD PTR __imp__ClearCommBreak@4
  00059	3b f4		 cmp	 esi, esp
  0005b	e8 00 00 00 00	 call	 __RTC_CheckEsp
  00060	85 c0		 test	 eax, eax
  00062	75 31		 jne	 SHORT $LN2@ClearBreak

; 728  :   {
; 729  :     TRACE(_T("Failed in call to SetCommBreak\n"));

  00064	68 00 00 00 00	 push	 OFFSET ??_C@_1EA@NDEOBMDG@?$AAF?$AAa?$AAi?$AAl?$AAe?$AAd?$AA?5?$AAi?$AAn?$AA?5?$AAc?$AAa?$AAl?$AAl?$AA?5?$AAt?$AAo?$AA?5?$AAS?$AAe?$AAt?$AAC?$AAo?$AAm?$AAm?$AAB?$AAr?$AAe?$AAa?$AAk?$AA?6?$AA?$AA@
  00069	a1 00 00 00 00	 mov	 eax, DWORD PTR ?__LINE__Var@?1??ClearBreak@CSerialPort@@QAEXXZ@4JA
  0006e	83 c0 06	 add	 eax, 6
  00071	50		 push	 eax
  00072	68 00 00 00 00	 push	 OFFSET ??_C@_0DC@PACLAOLH@e?3?2cz?2vs?2dvicectrldlg_new_signal@
  00077	8d 8d 28 ff ff
	ff		 lea	 ecx, DWORD PTR $T212170[ebp]
  0007d	e8 00 00 00 00	 call	 ??0CTraceFileAndLineInfo@ATL@@QAE@PBDH@Z ; ATL::CTraceFileAndLineInfo::CTraceFileAndLineInfo
  00082	50		 push	 eax
  00083	e8 00 00 00 00	 call	 ??RCTraceFileAndLineInfo@ATL@@QBAXPB_WZZ ; ATL::CTraceFileAndLineInfo::operator()
  00088	83 c4 08	 add	 esp, 8

; 730  :     AfxThrowSerialException();

  0008b	6a 00		 push	 0
  0008d	e8 00 00 00 00	 call	 ?AfxThrowSerialException@@YAXK@Z ; AfxThrowSerialException
  00092	83 c4 04	 add	 esp, 4
$LN2@ClearBreak:

; 731  :   }
; 732  : }

  00095	5f		 pop	 edi
  00096	5e		 pop	 esi
  00097	5b		 pop	 ebx
  00098	81 c4 ec 00 00
	00		 add	 esp, 236		; 000000ecH
  0009e	3b ec		 cmp	 ebp, esp
  000a0	e8 00 00 00 00	 call	 __RTC_CheckEsp
  000a5	8b e5		 mov	 esp, ebp
  000a7	5d		 pop	 ebp
  000a8	c3		 ret	 0
?ClearBreak@CSerialPort@@QAEXXZ ENDP			; CSerialPort::ClearBreak
_TEXT	ENDS
PUBLIC	??_C@_1EE@PLDBDCDA@?$AAF?$AAa?$AAi?$AAl?$AAe?$AAd?$AA?5?$AAi?$AAn?$AA?5?$AAc?$AAa?$AAl?$AAl?$AA?5?$AAt?$AAo?$AA?5?$AAC?$AAl?$AAe?$AAa?$AAr?$AAC?$AAo?$AAm?$AAm?$AAE?$AAr?$AAr?$AAo?$AAr@ ; `string'
PUBLIC	?__LINE__Var@?1??ClearError@CSerialPort@@QAEXAAK@Z@4JA ; `CSerialPort::ClearError'::`2'::__LINE__Var
PUBLIC	??_C@_1EG@DBGOOPIB@?$AAC?$AAS?$AAe?$AAr?$AAi?$AAa?$AAl?$AAP?$AAo?$AAr?$AAt?$AA?3?$AA?3?$AAC?$AAl?$AAe?$AAa?$AAr?$AAE?$AAr?$AAr?$AAo?$AAr?$AA?0?$AAI?$AAs?$AAO?$AAp?$AAe?$AAn?$AA?$CI?$AA?$CJ@ ; `string'
PUBLIC	?ClearError@CSerialPort@@QAEXAAK@Z		; CSerialPort::ClearError
;	COMDAT ??_C@_1EE@PLDBDCDA@?$AAF?$AAa?$AAi?$AAl?$AAe?$AAd?$AA?5?$AAi?$AAn?$AA?5?$AAc?$AAa?$AAl?$AAl?$AA?5?$AAt?$AAo?$AA?5?$AAC?$AAl?$AAe?$AAa?$AAr?$AAC?$AAo?$AAm?$AAm?$AAE?$AAr?$AAr?$AAo?$AAr@
CONST	SEGMENT
??_C@_1EE@PLDBDCDA@?$AAF?$AAa?$AAi?$AAl?$AAe?$AAd?$AA?5?$AAi?$AAn?$AA?5?$AAc?$AAa?$AAl?$AAl?$AA?5?$AAt?$AAo?$AA?5?$AAC?$AAl?$AAe?$AAa?$AAr?$AAC?$AAo?$AAm?$AAm?$AAE?$AAr?$AAr?$AAo?$AAr@ DB 'F'
	DB	00H, 'a', 00H, 'i', 00H, 'l', 00H, 'e', 00H, 'd', 00H, ' ', 00H
	DB	'i', 00H, 'n', 00H, ' ', 00H, 'c', 00H, 'a', 00H, 'l', 00H, 'l'
	DB	00H, ' ', 00H, 't', 00H, 'o', 00H, ' ', 00H, 'C', 00H, 'l', 00H
	DB	'e', 00H, 'a', 00H, 'r', 00H, 'C', 00H, 'o', 00H, 'm', 00H, 'm'
	DB	00H, 'E', 00H, 'r', 00H, 'r', 00H, 'o', 00H, 'r', 00H, 0aH, 00H
	DB	00H, 00H					; `string'
CONST	ENDS
;	COMDAT ?__LINE__Var@?1??ClearError@CSerialPort@@QAEXAAK@Z@4JA
_DATA	SEGMENT
?__LINE__Var@?1??ClearError@CSerialPort@@QAEXAAK@Z@4JA DD 02dfH ; `CSerialPort::ClearError'::`2'::__LINE__Var
_DATA	ENDS
;	COMDAT ??_C@_1EG@DBGOOPIB@?$AAC?$AAS?$AAe?$AAr?$AAi?$AAa?$AAl?$AAP?$AAo?$AAr?$AAt?$AA?3?$AA?3?$AAC?$AAl?$AAe?$AAa?$AAr?$AAE?$AAr?$AAr?$AAo?$AAr?$AA?0?$AAI?$AAs?$AAO?$AAp?$AAe?$AAn?$AA?$CI?$AA?$CJ@
CONST	SEGMENT
??_C@_1EG@DBGOOPIB@?$AAC?$AAS?$AAe?$AAr?$AAi?$AAa?$AAl?$AAP?$AAo?$AAr?$AAt?$AA?3?$AA?3?$AAC?$AAl?$AAe?$AAa?$AAr?$AAE?$AAr?$AAr?$AAo?$AAr?$AA?0?$AAI?$AAs?$AAO?$AAp?$AAe?$AAn?$AA?$CI?$AA?$CJ@ DB 'C'
	DB	00H, 'S', 00H, 'e', 00H, 'r', 00H, 'i', 00H, 'a', 00H, 'l', 00H
	DB	'P', 00H, 'o', 00H, 'r', 00H, 't', 00H, ':', 00H, ':', 00H, 'C'
	DB	00H, 'l', 00H, 'e', 00H, 'a', 00H, 'r', 00H, 'E', 00H, 'r', 00H
	DB	'r', 00H, 'o', 00H, 'r', 00H, ',', 00H, 'I', 00H, 's', 00H, 'O'
	DB	00H, 'p', 00H, 'e', 00H, 'n', 00H, '(', 00H, ')', 00H, 0dH, 00H
	DB	0aH, 00H, 00H, 00H				; `string'
; Function compile flags: /Odtp /RTCsu /ZI
CONST	ENDS
;	COMDAT ?ClearError@CSerialPort@@QAEXAAK@Z
_TEXT	SEGMENT
$T212173 = -232						; size = 8
$T212174 = -216						; size = 8
_this$ = -8						; size = 4
_dwErrors$ = 8						; size = 4
?ClearError@CSerialPort@@QAEXAAK@Z PROC			; CSerialPort::ClearError, COMDAT
; _this$ = ecx

; 735  : {

  00000	55		 push	 ebp
  00001	8b ec		 mov	 ebp, esp
  00003	81 ec ec 00 00
	00		 sub	 esp, 236		; 000000ecH
  00009	53		 push	 ebx
  0000a	56		 push	 esi
  0000b	57		 push	 edi
  0000c	51		 push	 ecx
  0000d	8d bd 14 ff ff
	ff		 lea	 edi, DWORD PTR [ebp-236]
  00013	b9 3b 00 00 00	 mov	 ecx, 59			; 0000003bH
  00018	b8 cc cc cc cc	 mov	 eax, -858993460		; ccccccccH
  0001d	f3 ab		 rep stosd
  0001f	59		 pop	 ecx
  00020	89 4d f8	 mov	 DWORD PTR _this$[ebp], ecx

; 736  : //   ASSERT(IsOpen());
; 737  : 	TRACE(_T("CSerialPort::ClearError,IsOpen()\r\n"));

  00023	68 00 00 00 00	 push	 OFFSET ??_C@_1EG@DBGOOPIB@?$AAC?$AAS?$AAe?$AAr?$AAi?$AAa?$AAl?$AAP?$AAo?$AAr?$AAt?$AA?3?$AA?3?$AAC?$AAl?$AAe?$AAa?$AAr?$AAE?$AAr?$AAr?$AAo?$AAr?$AA?0?$AAI?$AAs?$AAO?$AAp?$AAe?$AAn?$AA?$CI?$AA?$CJ@
  00028	a1 00 00 00 00	 mov	 eax, DWORD PTR ?__LINE__Var@?1??ClearError@CSerialPort@@QAEXAAK@Z@4JA
  0002d	83 c0 02	 add	 eax, 2
  00030	50		 push	 eax
  00031	68 00 00 00 00	 push	 OFFSET ??_C@_0DC@PACLAOLH@e?3?2cz?2vs?2dvicectrldlg_new_signal@
  00036	8d 8d 18 ff ff
	ff		 lea	 ecx, DWORD PTR $T212173[ebp]
  0003c	e8 00 00 00 00	 call	 ??0CTraceFileAndLineInfo@ATL@@QAE@PBDH@Z ; ATL::CTraceFileAndLineInfo::CTraceFileAndLineInfo
  00041	50		 push	 eax
  00042	e8 00 00 00 00	 call	 ??RCTraceFileAndLineInfo@ATL@@QBAXPB_WZZ ; ATL::CTraceFileAndLineInfo::operator()
  00047	83 c4 08	 add	 esp, 8

; 738  : 
; 739  :   if (!ClearCommError(m_hComm, &dwErrors, NULL))

  0004a	8b f4		 mov	 esi, esp
  0004c	6a 00		 push	 0
  0004e	8b 45 08	 mov	 eax, DWORD PTR _dwErrors$[ebp]
  00051	50		 push	 eax
  00052	8b 4d f8	 mov	 ecx, DWORD PTR _this$[ebp]
  00055	8b 51 04	 mov	 edx, DWORD PTR [ecx+4]
  00058	52		 push	 edx
  00059	ff 15 00 00 00
	00		 call	 DWORD PTR __imp__ClearCommError@12
  0005f	3b f4		 cmp	 esi, esp
  00061	e8 00 00 00 00	 call	 __RTC_CheckEsp
  00066	85 c0		 test	 eax, eax
  00068	75 31		 jne	 SHORT $LN2@ClearError

; 740  :   {
; 741  :     TRACE(_T("Failed in call to ClearCommError\n"));

  0006a	68 00 00 00 00	 push	 OFFSET ??_C@_1EE@PLDBDCDA@?$AAF?$AAa?$AAi?$AAl?$AAe?$AAd?$AA?5?$AAi?$AAn?$AA?5?$AAc?$AAa?$AAl?$AAl?$AA?5?$AAt?$AAo?$AA?5?$AAC?$AAl?$AAe?$AAa?$AAr?$AAC?$AAo?$AAm?$AAm?$AAE?$AAr?$AAr?$AAo?$AAr@
  0006f	a1 00 00 00 00	 mov	 eax, DWORD PTR ?__LINE__Var@?1??ClearError@CSerialPort@@QAEXAAK@Z@4JA
  00074	83 c0 06	 add	 eax, 6
  00077	50		 push	 eax
  00078	68 00 00 00 00	 push	 OFFSET ??_C@_0DC@PACLAOLH@e?3?2cz?2vs?2dvicectrldlg_new_signal@
  0007d	8d 8d 28 ff ff
	ff		 lea	 ecx, DWORD PTR $T212174[ebp]
  00083	e8 00 00 00 00	 call	 ??0CTraceFileAndLineInfo@ATL@@QAE@PBDH@Z ; ATL::CTraceFileAndLineInfo::CTraceFileAndLineInfo
  00088	50		 push	 eax
  00089	e8 00 00 00 00	 call	 ??RCTraceFileAndLineInfo@ATL@@QBAXPB_WZZ ; ATL::CTraceFileAndLineInfo::operator()
  0008e	83 c4 08	 add	 esp, 8

; 742  :     AfxThrowSerialException();

  00091	6a 00		 push	 0
  00093	e8 00 00 00 00	 call	 ?AfxThrowSerialException@@YAXK@Z ; AfxThrowSerialException
  00098	83 c4 04	 add	 esp, 4
$LN2@ClearError:

; 743  :   }
; 744  : }

  0009b	5f		 pop	 edi
  0009c	5e		 pop	 esi
  0009d	5b		 pop	 ebx
  0009e	81 c4 ec 00 00
	00		 add	 esp, 236		; 000000ecH
  000a4	3b ec		 cmp	 ebp, esp
  000a6	e8 00 00 00 00	 call	 __RTC_CheckEsp
  000ab	8b e5		 mov	 esp, ebp
  000ad	5d		 pop	 ebp
  000ae	c2 04 00	 ret	 4
?ClearError@CSerialPort@@QAEXAAK@Z ENDP			; CSerialPort::ClearError
_TEXT	ENDS
PUBLIC	??_C@_1FA@GDEBBLKF@?$AAF?$AAa?$AAi?$AAl?$AAe?$AAd?$AA?5?$AAi?$AAn?$AA?5?$AAc?$AAa?$AAl?$AAl?$AA?5?$AAt?$AAo?$AA?5?$AAG?$AAe?$AAt?$AAD?$AAe?$AAf?$AAa?$AAu?$AAl?$AAt?$AAC?$AAo?$AAm?$AAm@ ; `string'
PUBLIC	??_C@_1M@PNNLCDFA@?$AAC?$AAO?$AAM?$AA?$CF?$AAd?$AA?$AA@ ; `string'
PUBLIC	?__LINE__Var@?1??GetDefaultConfig@CSerialPort@@SAXHAAU_COMMCONFIG@@@Z@4JA@249df390 ; `CSerialPort::GetDefaultConfig'::`2'::__LINE__Var
PUBLIC	?GetDefaultConfig@CSerialPort@@SAXHAAU_COMMCONFIG@@@Z ; CSerialPort::GetDefaultConfig
EXTRN	__imp__GetDefaultCommConfigW@12:PROC
;	COMDAT ??_C@_1FA@GDEBBLKF@?$AAF?$AAa?$AAi?$AAl?$AAe?$AAd?$AA?5?$AAi?$AAn?$AA?5?$AAc?$AAa?$AAl?$AAl?$AA?5?$AAt?$AAo?$AA?5?$AAG?$AAe?$AAt?$AAD?$AAe?$AAf?$AAa?$AAu?$AAl?$AAt?$AAC?$AAo?$AAm?$AAm@
CONST	SEGMENT
??_C@_1FA@GDEBBLKF@?$AAF?$AAa?$AAi?$AAl?$AAe?$AAd?$AA?5?$AAi?$AAn?$AA?5?$AAc?$AAa?$AAl?$AAl?$AA?5?$AAt?$AAo?$AA?5?$AAG?$AAe?$AAt?$AAD?$AAe?$AAf?$AAa?$AAu?$AAl?$AAt?$AAC?$AAo?$AAm?$AAm@ DB 'F'
	DB	00H, 'a', 00H, 'i', 00H, 'l', 00H, 'e', 00H, 'd', 00H, ' ', 00H
	DB	'i', 00H, 'n', 00H, ' ', 00H, 'c', 00H, 'a', 00H, 'l', 00H, 'l'
	DB	00H, ' ', 00H, 't', 00H, 'o', 00H, ' ', 00H, 'G', 00H, 'e', 00H
	DB	't', 00H, 'D', 00H, 'e', 00H, 'f', 00H, 'a', 00H, 'u', 00H, 'l'
	DB	00H, 't', 00H, 'C', 00H, 'o', 00H, 'm', 00H, 'm', 00H, 'C', 00H
	DB	'o', 00H, 'n', 00H, 'f', 00H, 'i', 00H, 'g', 00H, 0aH, 00H, 00H
	DB	00H						; `string'
CONST	ENDS
;	COMDAT ??_C@_1M@PNNLCDFA@?$AAC?$AAO?$AAM?$AA?$CF?$AAd?$AA?$AA@
CONST	SEGMENT
??_C@_1M@PNNLCDFA@?$AAC?$AAO?$AAM?$AA?$CF?$AAd?$AA?$AA@ DB 'C', 00H, 'O', 00H
	DB	'M', 00H, '%', 00H, 'd', 00H, 00H, 00H	; `string'
CONST	ENDS
;	COMDAT ?__LINE__Var@?1??GetDefaultConfig@CSerialPort@@SAXHAAU_COMMCONFIG@@@Z@4JA@249df390
_DATA	SEGMENT
?__LINE__Var@?1??GetDefaultConfig@CSerialPort@@SAXHAAU_COMMCONFIG@@@Z@4JA@249df390 DD 02ebH ; `CSerialPort::GetDefaultConfig'::`2'::__LINE__Var
_DATA	ENDS
;	COMDAT xdata$x
xdata$x	SEGMENT
__unwindtable$?GetDefaultConfig@CSerialPort@@SAXHAAU_COMMCONFIG@@@Z DD 0ffffffffH
	DD	FLAT:__unwindfunclet$?GetDefaultConfig@CSerialPort@@SAXHAAU_COMMCONFIG@@@Z$0
__ehfuncinfo$?GetDefaultConfig@CSerialPort@@SAXHAAU_COMMCONFIG@@@Z DD 019930522H
	DD	01H
	DD	FLAT:__unwindtable$?GetDefaultConfig@CSerialPort@@SAXHAAU_COMMCONFIG@@@Z
	DD	2 DUP(00H)
	DD	2 DUP(00H)
	DD	00H
	DD	01H
; Function compile flags: /Odtp /RTCsu /ZI
xdata$x	ENDS
;	COMDAT ?GetDefaultConfig@CSerialPort@@SAXHAAU_COMMCONFIG@@@Z
_TEXT	SEGMENT
$T212179 = -240						; size = 8
_dwSize$ = -32						; size = 4
_sPort$ = -20						; size = 4
__$EHRec$ = -12						; size = 12
_nPort$ = 8						; size = 4
_config$ = 12						; size = 4
?GetDefaultConfig@CSerialPort@@SAXHAAU_COMMCONFIG@@@Z PROC ; CSerialPort::GetDefaultConfig, COMDAT

; 747  : {

  00000	55		 push	 ebp
  00001	8b ec		 mov	 ebp, esp
  00003	6a ff		 push	 -1
  00005	68 00 00 00 00	 push	 __ehhandler$?GetDefaultConfig@CSerialPort@@SAXHAAU_COMMCONFIG@@@Z
  0000a	64 a1 00 00 00
	00		 mov	 eax, DWORD PTR fs:0
  00010	50		 push	 eax
  00011	81 ec e8 00 00
	00		 sub	 esp, 232		; 000000e8H
  00017	53		 push	 ebx
  00018	56		 push	 esi
  00019	57		 push	 edi
  0001a	8d bd 0c ff ff
	ff		 lea	 edi, DWORD PTR [ebp-244]
  00020	b9 3a 00 00 00	 mov	 ecx, 58			; 0000003aH
  00025	b8 cc cc cc cc	 mov	 eax, -858993460		; ccccccccH
  0002a	f3 ab		 rep stosd
  0002c	a1 00 00 00 00	 mov	 eax, DWORD PTR ___security_cookie
  00031	33 c5		 xor	 eax, ebp
  00033	50		 push	 eax
  00034	8d 45 f4	 lea	 eax, DWORD PTR __$EHRec$[ebp]
  00037	64 a3 00 00 00
	00		 mov	 DWORD PTR fs:0, eax

; 748  :   //Validate our parameters
; 749  :   ASSERT(nPort>0 && nPort<=255);

  0003d	83 7d 08 00	 cmp	 DWORD PTR _nPort$[ebp], 0
  00041	7e 09		 jle	 SHORT $LN4@GetDefault
  00043	81 7d 08 ff 00
	00 00		 cmp	 DWORD PTR _nPort$[ebp], 255 ; 000000ffH
  0004a	7e 18		 jle	 SHORT $LN5@GetDefault
$LN4@GetDefault:
  0004c	a1 00 00 00 00	 mov	 eax, DWORD PTR ?__LINE__Var@?1??GetDefaultConfig@CSerialPort@@SAXHAAU_COMMCONFIG@@@Z@4JA@249df390
  00051	83 c0 02	 add	 eax, 2
  00054	50		 push	 eax
  00055	68 00 00 00 00	 push	 OFFSET _THIS_FILE
  0005a	e8 00 00 00 00	 call	 ?AfxAssertFailedLine@@YGHPBDH@Z ; AfxAssertFailedLine
  0005f	85 c0		 test	 eax, eax
  00061	74 01		 je	 SHORT $LN5@GetDefault
  00063	cc		 int	 3
$LN5@GetDefault:

; 750  : 
; 751  :   //Create the device name as a string
; 752  :   CString sPort;

  00064	8d 4d ec	 lea	 ecx, DWORD PTR _sPort$[ebp]
  00067	e8 00 00 00 00	 call	 ??0?$CStringT@_WV?$StrTraitMFC@_WV?$ChTraitsCRT@_W@ATL@@@@@ATL@@QAE@XZ ; ATL::CStringT<wchar_t,StrTraitMFC<wchar_t,ATL::ChTraitsCRT<wchar_t> > >::CStringT<wchar_t,StrTraitMFC<wchar_t,ATL::ChTraitsCRT<wchar_t> > >
  0006c	c7 45 fc 00 00
	00 00		 mov	 DWORD PTR __$EHRec$[ebp+8], 0

; 753  :   sPort.Format(_T("COM%d"), nPort);

  00073	8b 45 08	 mov	 eax, DWORD PTR _nPort$[ebp]
  00076	50		 push	 eax
  00077	68 00 00 00 00	 push	 OFFSET ??_C@_1M@PNNLCDFA@?$AAC?$AAO?$AAM?$AA?$CF?$AAd?$AA?$AA@
  0007c	8d 4d ec	 lea	 ecx, DWORD PTR _sPort$[ebp]
  0007f	51		 push	 ecx
  00080	e8 00 00 00 00	 call	 ?Format@?$CStringT@_WV?$StrTraitMFC@_WV?$ChTraitsCRT@_W@ATL@@@@@ATL@@QAAXPB_WZZ ; ATL::CStringT<wchar_t,StrTraitMFC<wchar_t,ATL::ChTraitsCRT<wchar_t> > >::Format
  00085	83 c4 0c	 add	 esp, 12			; 0000000cH

; 754  : 
; 755  :   DWORD dwSize = sizeof(COMMCONFIG);

  00088	c7 45 e0 34 00
	00 00		 mov	 DWORD PTR _dwSize$[ebp], 52 ; 00000034H

; 756  :   if (!GetDefaultCommConfig(sPort, &config, &dwSize))

  0008f	8b f4		 mov	 esi, esp
  00091	8d 45 e0	 lea	 eax, DWORD PTR _dwSize$[ebp]
  00094	50		 push	 eax
  00095	8b 4d 0c	 mov	 ecx, DWORD PTR _config$[ebp]
  00098	51		 push	 ecx
  00099	8d 4d ec	 lea	 ecx, DWORD PTR _sPort$[ebp]
  0009c	e8 00 00 00 00	 call	 ??B?$CSimpleStringT@_W$0A@@ATL@@QBEPB_WXZ ; ATL::CSimpleStringT<wchar_t,0>::operator wchar_t const *
  000a1	50		 push	 eax
  000a2	ff 15 00 00 00
	00		 call	 DWORD PTR __imp__GetDefaultCommConfigW@12
  000a8	3b f4		 cmp	 esi, esp
  000aa	e8 00 00 00 00	 call	 __RTC_CheckEsp
  000af	85 c0		 test	 eax, eax
  000b1	75 31		 jne	 SHORT $LN1@GetDefault

; 757  :   {
; 758  :     TRACE(_T("Failed in call to GetDefaultCommConfig\n"));

  000b3	68 00 00 00 00	 push	 OFFSET ??_C@_1FA@GDEBBLKF@?$AAF?$AAa?$AAi?$AAl?$AAe?$AAd?$AA?5?$AAi?$AAn?$AA?5?$AAc?$AAa?$AAl?$AAl?$AA?5?$AAt?$AAo?$AA?5?$AAG?$AAe?$AAt?$AAD?$AAe?$AAf?$AAa?$AAu?$AAl?$AAt?$AAC?$AAo?$AAm?$AAm@
  000b8	a1 00 00 00 00	 mov	 eax, DWORD PTR ?__LINE__Var@?1??GetDefaultConfig@CSerialPort@@SAXHAAU_COMMCONFIG@@@Z@4JA@249df390
  000bd	83 c0 0b	 add	 eax, 11			; 0000000bH
  000c0	50		 push	 eax
  000c1	68 00 00 00 00	 push	 OFFSET ??_C@_0DC@PACLAOLH@e?3?2cz?2vs?2dvicectrldlg_new_signal@
  000c6	8d 8d 10 ff ff
	ff		 lea	 ecx, DWORD PTR $T212179[ebp]
  000cc	e8 00 00 00 00	 call	 ??0CTraceFileAndLineInfo@ATL@@QAE@PBDH@Z ; ATL::CTraceFileAndLineInfo::CTraceFileAndLineInfo
  000d1	50		 push	 eax
  000d2	e8 00 00 00 00	 call	 ??RCTraceFileAndLineInfo@ATL@@QBAXPB_WZZ ; ATL::CTraceFileAndLineInfo::operator()
  000d7	83 c4 08	 add	 esp, 8

; 759  :     AfxThrowSerialException();

  000da	6a 00		 push	 0
  000dc	e8 00 00 00 00	 call	 ?AfxThrowSerialException@@YAXK@Z ; AfxThrowSerialException
  000e1	83 c4 04	 add	 esp, 4
$LN1@GetDefault:

; 760  :   }
; 761  : }

  000e4	c7 45 fc ff ff
	ff ff		 mov	 DWORD PTR __$EHRec$[ebp+8], -1
  000eb	8d 4d ec	 lea	 ecx, DWORD PTR _sPort$[ebp]
  000ee	e8 00 00 00 00	 call	 ??1?$CStringT@_WV?$StrTraitMFC@_WV?$ChTraitsCRT@_W@ATL@@@@@ATL@@QAE@XZ ; ATL::CStringT<wchar_t,StrTraitMFC<wchar_t,ATL::ChTraitsCRT<wchar_t> > >::~CStringT<wchar_t,StrTraitMFC<wchar_t,ATL::ChTraitsCRT<wchar_t> > >
  000f3	52		 push	 edx
  000f4	8b cd		 mov	 ecx, ebp
  000f6	50		 push	 eax
  000f7	8d 15 00 00 00
	00		 lea	 edx, DWORD PTR $LN11@GetDefault
  000fd	e8 00 00 00 00	 call	 @_RTC_CheckStackVars@8
  00102	58		 pop	 eax
  00103	5a		 pop	 edx
  00104	8b 4d f4	 mov	 ecx, DWORD PTR __$EHRec$[ebp]
  00107	64 89 0d 00 00
	00 00		 mov	 DWORD PTR fs:0, ecx
  0010e	59		 pop	 ecx
  0010f	5f		 pop	 edi
  00110	5e		 pop	 esi
  00111	5b		 pop	 ebx
  00112	81 c4 f4 00 00
	00		 add	 esp, 244		; 000000f4H
  00118	3b ec		 cmp	 ebp, esp
  0011a	e8 00 00 00 00	 call	 __RTC_CheckEsp
  0011f	8b e5		 mov	 esp, ebp
  00121	5d		 pop	 ebp
  00122	c3		 ret	 0
  00123	90		 npad	 1
$LN11@GetDefault:
  00124	02 00 00 00	 DD	 2
  00128	00 00 00 00	 DD	 $LN10@GetDefault
$LN10@GetDefault:
  0012c	ec ff ff ff	 DD	 -20			; ffffffecH
  00130	04 00 00 00	 DD	 4
  00134	00 00 00 00	 DD	 $LN7@GetDefault
  00138	e0 ff ff ff	 DD	 -32			; ffffffe0H
  0013c	04 00 00 00	 DD	 4
  00140	00 00 00 00	 DD	 $LN8@GetDefault
$LN8@GetDefault:
  00144	64		 DB	 100			; 00000064H
  00145	77		 DB	 119			; 00000077H
  00146	53		 DB	 83			; 00000053H
  00147	69		 DB	 105			; 00000069H
  00148	7a		 DB	 122			; 0000007aH
  00149	65		 DB	 101			; 00000065H
  0014a	00		 DB	 0
$LN7@GetDefault:
  0014b	73		 DB	 115			; 00000073H
  0014c	50		 DB	 80			; 00000050H
  0014d	6f		 DB	 111			; 0000006fH
  0014e	72		 DB	 114			; 00000072H
  0014f	74		 DB	 116			; 00000074H
  00150	00		 DB	 0
_TEXT	ENDS
;	COMDAT text$x
text$x	SEGMENT
__unwindfunclet$?GetDefaultConfig@CSerialPort@@SAXHAAU_COMMCONFIG@@@Z$0:
  00000	8d 4d ec	 lea	 ecx, DWORD PTR _sPort$[ebp]
  00003	e9 00 00 00 00	 jmp	 ??1?$CStringT@_WV?$StrTraitMFC@_WV?$ChTraitsCRT@_W@ATL@@@@@ATL@@QAE@XZ ; ATL::CStringT<wchar_t,StrTraitMFC<wchar_t,ATL::ChTraitsCRT<wchar_t> > >::~CStringT<wchar_t,StrTraitMFC<wchar_t,ATL::ChTraitsCRT<wchar_t> > >
__ehhandler$?GetDefaultConfig@CSerialPort@@SAXHAAU_COMMCONFIG@@@Z:
  00008	8b 54 24 08	 mov	 edx, DWORD PTR [esp+8]
  0000c	8d 42 0c	 lea	 eax, DWORD PTR [edx+12]
  0000f	8b 8a 08 ff ff
	ff		 mov	 ecx, DWORD PTR [edx-248]
  00015	33 c8		 xor	 ecx, eax
  00017	e8 00 00 00 00	 call	 @__security_check_cookie@4
  0001c	b8 00 00 00 00	 mov	 eax, OFFSET __ehfuncinfo$?GetDefaultConfig@CSerialPort@@SAXHAAU_COMMCONFIG@@@Z
  00021	e9 00 00 00 00	 jmp	 ___CxxFrameHandler3
text$x	ENDS
?GetDefaultConfig@CSerialPort@@SAXHAAU_COMMCONFIG@@@Z ENDP ; CSerialPort::GetDefaultConfig
PUBLIC	?__LINE__Var@?1??SetDefaultConfig@CSerialPort@@SAXHAAU_COMMCONFIG@@@Z@4JA@249df390 ; `CSerialPort::SetDefaultConfig'::`2'::__LINE__Var
PUBLIC	?SetDefaultConfig@CSerialPort@@SAXHAAU_COMMCONFIG@@@Z ; CSerialPort::SetDefaultConfig
EXTRN	__imp__SetDefaultCommConfigW@12:PROC
